; Listing generated by Microsoft (R) Optimizing Compiler Version 19.11.25547.0 

	TITLE	C:\Users\Florian\Desktop\IAFinal\ProjetIAFinal\Projet\Net.cpp
	.686P
	.XMM
	include listing.inc
	.model	flat

INCLUDELIB LIBCMTD
INCLUDELIB OLDNAMES

CONST	SEGMENT
$SG30960 DB	'N', 00H, 'e', 00H, 't', 00H, '.', 00H, 'c', 00H, 'p', 00H
	DB	'p', 00H, 00H, 00H
$SG30961 DB	'i', 00H, 'n', 00H, 'p', 00H, 'u', 00H, 't', 00H, 'V', 00H
	DB	'a', 00H, 'l', 00H, 's', 00H, '.', 00H, 's', 00H, 'i', 00H, 'z'
	DB	00H, 'e', 00H, '(', 00H, ')', 00H, ' ', 00H, '=', 00H, '=', 00H
	DB	' ', 00H, 'm', 00H, '_', 00H, 'L', 00H, 'a', 00H, 'y', 00H, 'e'
	DB	00H, 'r', 00H, 's', 00H, '[', 00H, '0', 00H, ']', 00H, '.', 00H
	DB	's', 00H, 'i', 00H, 'z', 00H, 'e', 00H, '(', 00H, ')', 00H, ' '
	DB	00H, '-', 00H, ' ', 00H, '1', 00H, 00H, 00H
CONST	ENDS
PUBLIC	?max@?$numeric_limits@H@std@@SAHXZ		; std::numeric_limits<int>::max
PUBLIC	??2@YAPAXIPAX@Z					; operator new
PUBLIC	??3@YAXPAX0@Z					; operator delete
PUBLIC	??0_Container_proxy@std@@QAE@XZ			; std::_Container_proxy::_Container_proxy
PUBLIC	??0_Container_base12@std@@QAE@XZ		; std::_Container_base12::_Container_base12
PUBLIC	??1_Container_base12@std@@QAE@XZ		; std::_Container_base12::~_Container_base12
PUBLIC	?_Getpfirst@_Container_base12@std@@QBEPAPAU_Iterator_base12@2@XZ ; std::_Container_base12::_Getpfirst
PUBLIC	?_Orphan_all@_Container_base12@std@@QAEXXZ	; std::_Container_base12::_Orphan_all
PUBLIC	?_Swap_all@_Container_base12@std@@QAEXAAU12@@Z	; std::_Container_base12::_Swap_all
PUBLIC	?_Clrcont@_Iterator_base12@std@@QAEXXZ		; std::_Iterator_base12::_Clrcont
PUBLIC	?_Getpnext@_Iterator_base12@std@@QAEPAPAU12@XZ	; std::_Iterator_base12::_Getpnext
PUBLIC	?_Allocate@std@@YAPAXII_N@Z			; std::_Allocate
PUBLIC	?_Deallocate@std@@YAXPAXII@Z			; std::_Deallocate
PUBLIC	?SetOutputVal@Neuron@@QAEXN@Z			; Neuron::SetOutputVal
PUBLIC	?GetOutputVal@Neuron@@QBENXZ			; Neuron::GetOutputVal
PUBLIC	?deallocate@?$allocator@UConnection@@@std@@QAEXQAUConnection@@I@Z ; std::allocator<Connection>::deallocate
PUBLIC	?allocate@?$allocator@UConnection@@@std@@QAEPAUConnection@@I@Z ; std::allocator<Connection>::allocate
PUBLIC	?max_size@?$_Default_allocator_traits@V?$allocator@UConnection@@@std@@@std@@SAIABV?$allocator@UConnection@@@2@@Z ; std::_Default_allocator_traits<std::allocator<Connection> >::max_size
PUBLIC	?select_on_container_copy_construction@?$_Default_allocator_traits@V?$allocator@UConnection@@@std@@@std@@SA?AV?$allocator@UConnection@@@2@ABV32@@Z ; std::_Default_allocator_traits<std::allocator<Connection> >::select_on_container_copy_construction
PUBLIC	??1?$_Vector_alloc@U?$_Vec_base_types@UConnection@@V?$allocator@UConnection@@@std@@@std@@@std@@QAE@XZ ; std::_Vector_alloc<std::_Vec_base_types<Connection,std::allocator<Connection> > >::~_Vector_alloc<std::_Vec_base_types<Connection,std::allocator<Connection> > >
PUBLIC	?_Alloc_proxy@?$_Vector_alloc@U?$_Vec_base_types@UConnection@@V?$allocator@UConnection@@@std@@@std@@@std@@QAEXXZ ; std::_Vector_alloc<std::_Vec_base_types<Connection,std::allocator<Connection> > >::_Alloc_proxy
PUBLIC	?_Free_proxy@?$_Vector_alloc@U?$_Vec_base_types@UConnection@@V?$allocator@UConnection@@@std@@@std@@@std@@QAEXXZ ; std::_Vector_alloc<std::_Vec_base_types<Connection,std::allocator<Connection> > >::_Free_proxy
PUBLIC	?_Myproxy@?$_Vector_alloc@U?$_Vec_base_types@UConnection@@V?$allocator@UConnection@@@std@@@std@@@std@@QAEAAPAU_Container_proxy@2@XZ ; std::_Vector_alloc<std::_Vec_base_types<Connection,std::allocator<Connection> > >::_Myproxy
PUBLIC	?_Orphan_all@?$_Vector_alloc@U?$_Vec_base_types@UConnection@@V?$allocator@UConnection@@@std@@@std@@@std@@QAEXXZ ; std::_Vector_alloc<std::_Vec_base_types<Connection,std::allocator<Connection> > >::_Orphan_all
PUBLIC	?_Getal@?$_Vector_alloc@U?$_Vec_base_types@UConnection@@V?$allocator@UConnection@@@std@@@std@@@std@@QAEAAV?$allocator@UConnection@@@2@XZ ; std::_Vector_alloc<std::_Vec_base_types<Connection,std::allocator<Connection> > >::_Getal
PUBLIC	?_Getal@?$_Vector_alloc@U?$_Vec_base_types@UConnection@@V?$allocator@UConnection@@@std@@@std@@@std@@QBEABV?$allocator@UConnection@@@2@XZ ; std::_Vector_alloc<std::_Vec_base_types<Connection,std::allocator<Connection> > >::_Getal
PUBLIC	?_Get_data@?$_Vector_alloc@U?$_Vec_base_types@UConnection@@V?$allocator@UConnection@@@std@@@std@@@std@@QAEAAV?$_Vector_val@U?$_Simple_types@UConnection@@@std@@@2@XZ ; std::_Vector_alloc<std::_Vec_base_types<Connection,std::allocator<Connection> > >::_Get_data
PUBLIC	?_Get_data@?$_Vector_alloc@U?$_Vec_base_types@UConnection@@V?$allocator@UConnection@@@std@@@std@@@std@@QBEABV?$_Vector_val@U?$_Simple_types@UConnection@@@std@@@2@XZ ; std::_Vector_alloc<std::_Vec_base_types<Connection,std::allocator<Connection> > >::_Get_data
PUBLIC	?_Myfirst@?$_Vector_alloc@U?$_Vec_base_types@UConnection@@V?$allocator@UConnection@@@std@@@std@@@std@@QAEAAPAUConnection@@XZ ; std::_Vector_alloc<std::_Vec_base_types<Connection,std::allocator<Connection> > >::_Myfirst
PUBLIC	?_Myfirst@?$_Vector_alloc@U?$_Vec_base_types@UConnection@@V?$allocator@UConnection@@@std@@@std@@@std@@QBEABQAUConnection@@XZ ; std::_Vector_alloc<std::_Vec_base_types<Connection,std::allocator<Connection> > >::_Myfirst
PUBLIC	?_Mylast@?$_Vector_alloc@U?$_Vec_base_types@UConnection@@V?$allocator@UConnection@@@std@@@std@@@std@@QAEAAPAUConnection@@XZ ; std::_Vector_alloc<std::_Vec_base_types<Connection,std::allocator<Connection> > >::_Mylast
PUBLIC	?_Mylast@?$_Vector_alloc@U?$_Vec_base_types@UConnection@@V?$allocator@UConnection@@@std@@@std@@@std@@QBEABQAUConnection@@XZ ; std::_Vector_alloc<std::_Vec_base_types<Connection,std::allocator<Connection> > >::_Mylast
PUBLIC	?_Myend@?$_Vector_alloc@U?$_Vec_base_types@UConnection@@V?$allocator@UConnection@@@std@@@std@@@std@@QAEAAPAUConnection@@XZ ; std::_Vector_alloc<std::_Vec_base_types<Connection,std::allocator<Connection> > >::_Myend
PUBLIC	?_Myend@?$_Vector_alloc@U?$_Vec_base_types@UConnection@@V?$allocator@UConnection@@@std@@@std@@@std@@QBEABQAUConnection@@XZ ; std::_Vector_alloc<std::_Vec_base_types<Connection,std::allocator<Connection> > >::_Myend
PUBLIC	??0?$_Vector_val@U?$_Simple_types@UConnection@@@std@@@std@@QAE@XZ ; std::_Vector_val<std::_Simple_types<Connection> >::_Vector_val<std::_Simple_types<Connection> >
PUBLIC	??1?$_Vector_val@U?$_Simple_types@UConnection@@@std@@@std@@QAE@XZ ; std::_Vector_val<std::_Simple_types<Connection> >::~_Vector_val<std::_Simple_types<Connection> >
PUBLIC	?_Get_first@?$_Compressed_pair@V?$allocator@UConnection@@@std@@V?$_Vector_val@U?$_Simple_types@UConnection@@@std@@@2@$00@std@@QAEAAV?$allocator@UConnection@@@2@XZ ; std::_Compressed_pair<std::allocator<Connection>,std::_Vector_val<std::_Simple_types<Connection> >,1>::_Get_first
PUBLIC	?_Get_first@?$_Compressed_pair@V?$allocator@UConnection@@@std@@V?$_Vector_val@U?$_Simple_types@UConnection@@@std@@@2@$00@std@@QBEABV?$allocator@UConnection@@@2@XZ ; std::_Compressed_pair<std::allocator<Connection>,std::_Vector_val<std::_Simple_types<Connection> >,1>::_Get_first
PUBLIC	?_Get_second@?$_Compressed_pair@V?$allocator@UConnection@@@std@@V?$_Vector_val@U?$_Simple_types@UConnection@@@std@@@2@$00@std@@QAEAAV?$_Vector_val@U?$_Simple_types@UConnection@@@std@@@2@XZ ; std::_Compressed_pair<std::allocator<Connection>,std::_Vector_val<std::_Simple_types<Connection> >,1>::_Get_second
PUBLIC	?_Get_second@?$_Compressed_pair@V?$allocator@UConnection@@@std@@V?$_Vector_val@U?$_Simple_types@UConnection@@@std@@@2@$00@std@@QBEABV?$_Vector_val@U?$_Simple_types@UConnection@@@std@@@2@XZ ; std::_Compressed_pair<std::allocator<Connection>,std::_Vector_val<std::_Simple_types<Connection> >,1>::_Get_second
PUBLIC	??1?$_Compressed_pair@V?$allocator@UConnection@@@std@@V?$_Vector_val@U?$_Simple_types@UConnection@@@std@@@2@$00@std@@QAE@XZ ; std::_Compressed_pair<std::allocator<Connection>,std::_Vector_val<std::_Simple_types<Connection> >,1>::~_Compressed_pair<std::allocator<Connection>,std::_Vector_val<std::_Simple_types<Connection> >,1>
PUBLIC	??0?$vector@UConnection@@V?$allocator@UConnection@@@std@@@std@@QAE@ABV01@@Z ; std::vector<Connection,std::allocator<Connection> >::vector<Connection,std::allocator<Connection> >
PUBLIC	?size@?$vector@UConnection@@V?$allocator@UConnection@@@std@@@std@@QBEIXZ ; std::vector<Connection,std::allocator<Connection> >::size
PUBLIC	?max_size@?$vector@UConnection@@V?$allocator@UConnection@@@std@@@std@@QBEIXZ ; std::vector<Connection,std::allocator<Connection> >::max_size
PUBLIC	?capacity@?$vector@UConnection@@V?$allocator@UConnection@@@std@@@std@@QBEIXZ ; std::vector<Connection,std::allocator<Connection> >::capacity
PUBLIC	?_Destroy@?$vector@UConnection@@V?$allocator@UConnection@@@std@@@std@@AAEXPAUConnection@@0@Z ; std::vector<Connection,std::allocator<Connection> >::_Destroy
PUBLIC	?_Buy@?$vector@UConnection@@V?$allocator@UConnection@@@std@@@std@@AAE_NI@Z ; std::vector<Connection,std::allocator<Connection> >::_Buy
PUBLIC	?_Tidy@?$vector@UConnection@@V?$allocator@UConnection@@@std@@@std@@AAEXXZ ; std::vector<Connection,std::allocator<Connection> >::_Tidy
PUBLIC	?_Xlength@?$vector@UConnection@@V?$allocator@UConnection@@@std@@@std@@CAXXZ ; std::vector<Connection,std::allocator<Connection> >::_Xlength
PUBLIC	??0Neuron@@QAE@ABV0@@Z				; Neuron::Neuron
PUBLIC	??_GNeuron@@QAEPAXI@Z				; Neuron::`scalar deleting destructor'
PUBLIC	??0Net@@QAE@ABV?$vector@IV?$allocator@I@std@@@std@@@Z ; Net::Net
PUBLIC	?FeedForward@Net@@QAEXABV?$vector@NV?$allocator@N@std@@@std@@@Z ; Net::FeedForward
PUBLIC	?BackProp@Net@@QAEXABV?$vector@NV?$allocator@N@std@@@std@@@Z ; Net::BackProp
PUBLIC	?GetResult@Net@@QBEXAAV?$vector@NV?$allocator@N@std@@@std@@@Z ; Net::GetResult
PUBLIC	??1Net@@QAE@XZ					; Net::~Net
PUBLIC	??0?$allocator@V?$vector@VNeuron@@V?$allocator@VNeuron@@@std@@@std@@@std@@QAE@XZ ; std::allocator<std::vector<Neuron,std::allocator<Neuron> > >::allocator<std::vector<Neuron,std::allocator<Neuron> > >
PUBLIC	?deallocate@?$allocator@V?$vector@VNeuron@@V?$allocator@VNeuron@@@std@@@std@@@std@@QAEXQAV?$vector@VNeuron@@V?$allocator@VNeuron@@@std@@@2@I@Z ; std::allocator<std::vector<Neuron,std::allocator<Neuron> > >::deallocate
PUBLIC	?allocate@?$allocator@V?$vector@VNeuron@@V?$allocator@VNeuron@@@std@@@std@@@std@@QAEPAV?$vector@VNeuron@@V?$allocator@VNeuron@@@std@@@2@I@Z ; std::allocator<std::vector<Neuron,std::allocator<Neuron> > >::allocate
PUBLIC	?max_size@?$_Default_allocator_traits@V?$allocator@V?$vector@VNeuron@@V?$allocator@VNeuron@@@std@@@std@@@std@@@std@@SAIABV?$allocator@V?$vector@VNeuron@@V?$allocator@VNeuron@@@std@@@std@@@2@@Z ; std::_Default_allocator_traits<std::allocator<std::vector<Neuron,std::allocator<Neuron> > > >::max_size
PUBLIC	??0?$_Vector_alloc@U?$_Vec_base_types@V?$vector@VNeuron@@V?$allocator@VNeuron@@@std@@@std@@V?$allocator@V?$vector@VNeuron@@V?$allocator@VNeuron@@@std@@@std@@@2@@std@@@std@@QAE@XZ ; std::_Vector_alloc<std::_Vec_base_types<std::vector<Neuron,std::allocator<Neuron> >,std::allocator<std::vector<Neuron,std::allocator<Neuron> > > > >::_Vector_alloc<std::_Vec_base_types<std::vector<Neuron,std::allocator<Neuron> >,std::allocator<std::vector<Neuron,std::allocator<Neuron> > > > >
PUBLIC	??1?$_Vector_alloc@U?$_Vec_base_types@V?$vector@VNeuron@@V?$allocator@VNeuron@@@std@@@std@@V?$allocator@V?$vector@VNeuron@@V?$allocator@VNeuron@@@std@@@std@@@2@@std@@@std@@QAE@XZ ; std::_Vector_alloc<std::_Vec_base_types<std::vector<Neuron,std::allocator<Neuron> >,std::allocator<std::vector<Neuron,std::allocator<Neuron> > > > >::~_Vector_alloc<std::_Vec_base_types<std::vector<Neuron,std::allocator<Neuron> >,std::allocator<std::vector<Neuron,std::allocator<Neuron> > > > >
PUBLIC	?_Alloc_proxy@?$_Vector_alloc@U?$_Vec_base_types@V?$vector@VNeuron@@V?$allocator@VNeuron@@@std@@@std@@V?$allocator@V?$vector@VNeuron@@V?$allocator@VNeuron@@@std@@@std@@@2@@std@@@std@@QAEXXZ ; std::_Vector_alloc<std::_Vec_base_types<std::vector<Neuron,std::allocator<Neuron> >,std::allocator<std::vector<Neuron,std::allocator<Neuron> > > > >::_Alloc_proxy
PUBLIC	?_Free_proxy@?$_Vector_alloc@U?$_Vec_base_types@V?$vector@VNeuron@@V?$allocator@VNeuron@@@std@@@std@@V?$allocator@V?$vector@VNeuron@@V?$allocator@VNeuron@@@std@@@std@@@2@@std@@@std@@QAEXXZ ; std::_Vector_alloc<std::_Vec_base_types<std::vector<Neuron,std::allocator<Neuron> >,std::allocator<std::vector<Neuron,std::allocator<Neuron> > > > >::_Free_proxy
PUBLIC	?_Getpfirst@?$_Vector_alloc@U?$_Vec_base_types@V?$vector@VNeuron@@V?$allocator@VNeuron@@@std@@@std@@V?$allocator@V?$vector@VNeuron@@V?$allocator@VNeuron@@@std@@@std@@@2@@std@@@std@@QBEPAPAU_Iterator_base12@2@XZ ; std::_Vector_alloc<std::_Vec_base_types<std::vector<Neuron,std::allocator<Neuron> >,std::allocator<std::vector<Neuron,std::allocator<Neuron> > > > >::_Getpfirst
PUBLIC	?_Myproxy@?$_Vector_alloc@U?$_Vec_base_types@V?$vector@VNeuron@@V?$allocator@VNeuron@@@std@@@std@@V?$allocator@V?$vector@VNeuron@@V?$allocator@VNeuron@@@std@@@std@@@2@@std@@@std@@QAEAAPAU_Container_proxy@2@XZ ; std::_Vector_alloc<std::_Vec_base_types<std::vector<Neuron,std::allocator<Neuron> >,std::allocator<std::vector<Neuron,std::allocator<Neuron> > > > >::_Myproxy
PUBLIC	?_Orphan_all@?$_Vector_alloc@U?$_Vec_base_types@V?$vector@VNeuron@@V?$allocator@VNeuron@@@std@@@std@@V?$allocator@V?$vector@VNeuron@@V?$allocator@VNeuron@@@std@@@std@@@2@@std@@@std@@QAEXXZ ; std::_Vector_alloc<std::_Vec_base_types<std::vector<Neuron,std::allocator<Neuron> >,std::allocator<std::vector<Neuron,std::allocator<Neuron> > > > >::_Orphan_all
PUBLIC	?_Getal@?$_Vector_alloc@U?$_Vec_base_types@V?$vector@VNeuron@@V?$allocator@VNeuron@@@std@@@std@@V?$allocator@V?$vector@VNeuron@@V?$allocator@VNeuron@@@std@@@std@@@2@@std@@@std@@QAEAAV?$allocator@V?$vector@VNeuron@@V?$allocator@VNeuron@@@std@@@std@@@2@XZ ; std::_Vector_alloc<std::_Vec_base_types<std::vector<Neuron,std::allocator<Neuron> >,std::allocator<std::vector<Neuron,std::allocator<Neuron> > > > >::_Getal
PUBLIC	?_Getal@?$_Vector_alloc@U?$_Vec_base_types@V?$vector@VNeuron@@V?$allocator@VNeuron@@@std@@@std@@V?$allocator@V?$vector@VNeuron@@V?$allocator@VNeuron@@@std@@@std@@@2@@std@@@std@@QBEABV?$allocator@V?$vector@VNeuron@@V?$allocator@VNeuron@@@std@@@std@@@2@XZ ; std::_Vector_alloc<std::_Vec_base_types<std::vector<Neuron,std::allocator<Neuron> >,std::allocator<std::vector<Neuron,std::allocator<Neuron> > > > >::_Getal
PUBLIC	?_Get_data@?$_Vector_alloc@U?$_Vec_base_types@V?$vector@VNeuron@@V?$allocator@VNeuron@@@std@@@std@@V?$allocator@V?$vector@VNeuron@@V?$allocator@VNeuron@@@std@@@std@@@2@@std@@@std@@QAEAAV?$_Vector_val@U?$_Simple_types@V?$vector@VNeuron@@V?$allocator@VNeuron@@@std@@@std@@@std@@@2@XZ ; std::_Vector_alloc<std::_Vec_base_types<std::vector<Neuron,std::allocator<Neuron> >,std::allocator<std::vector<Neuron,std::allocator<Neuron> > > > >::_Get_data
PUBLIC	?_Get_data@?$_Vector_alloc@U?$_Vec_base_types@V?$vector@VNeuron@@V?$allocator@VNeuron@@@std@@@std@@V?$allocator@V?$vector@VNeuron@@V?$allocator@VNeuron@@@std@@@std@@@2@@std@@@std@@QBEABV?$_Vector_val@U?$_Simple_types@V?$vector@VNeuron@@V?$allocator@VNeuron@@@std@@@std@@@std@@@2@XZ ; std::_Vector_alloc<std::_Vec_base_types<std::vector<Neuron,std::allocator<Neuron> >,std::allocator<std::vector<Neuron,std::allocator<Neuron> > > > >::_Get_data
PUBLIC	?_Myfirst@?$_Vector_alloc@U?$_Vec_base_types@V?$vector@VNeuron@@V?$allocator@VNeuron@@@std@@@std@@V?$allocator@V?$vector@VNeuron@@V?$allocator@VNeuron@@@std@@@std@@@2@@std@@@std@@QAEAAPAV?$vector@VNeuron@@V?$allocator@VNeuron@@@std@@@2@XZ ; std::_Vector_alloc<std::_Vec_base_types<std::vector<Neuron,std::allocator<Neuron> >,std::allocator<std::vector<Neuron,std::allocator<Neuron> > > > >::_Myfirst
PUBLIC	?_Myfirst@?$_Vector_alloc@U?$_Vec_base_types@V?$vector@VNeuron@@V?$allocator@VNeuron@@@std@@@std@@V?$allocator@V?$vector@VNeuron@@V?$allocator@VNeuron@@@std@@@std@@@2@@std@@@std@@QBEABQAV?$vector@VNeuron@@V?$allocator@VNeuron@@@std@@@2@XZ ; std::_Vector_alloc<std::_Vec_base_types<std::vector<Neuron,std::allocator<Neuron> >,std::allocator<std::vector<Neuron,std::allocator<Neuron> > > > >::_Myfirst
PUBLIC	?_Mylast@?$_Vector_alloc@U?$_Vec_base_types@V?$vector@VNeuron@@V?$allocator@VNeuron@@@std@@@std@@V?$allocator@V?$vector@VNeuron@@V?$allocator@VNeuron@@@std@@@std@@@2@@std@@@std@@QAEAAPAV?$vector@VNeuron@@V?$allocator@VNeuron@@@std@@@2@XZ ; std::_Vector_alloc<std::_Vec_base_types<std::vector<Neuron,std::allocator<Neuron> >,std::allocator<std::vector<Neuron,std::allocator<Neuron> > > > >::_Mylast
PUBLIC	?_Mylast@?$_Vector_alloc@U?$_Vec_base_types@V?$vector@VNeuron@@V?$allocator@VNeuron@@@std@@@std@@V?$allocator@V?$vector@VNeuron@@V?$allocator@VNeuron@@@std@@@std@@@2@@std@@@std@@QBEABQAV?$vector@VNeuron@@V?$allocator@VNeuron@@@std@@@2@XZ ; std::_Vector_alloc<std::_Vec_base_types<std::vector<Neuron,std::allocator<Neuron> >,std::allocator<std::vector<Neuron,std::allocator<Neuron> > > > >::_Mylast
PUBLIC	?_Myend@?$_Vector_alloc@U?$_Vec_base_types@V?$vector@VNeuron@@V?$allocator@VNeuron@@@std@@@std@@V?$allocator@V?$vector@VNeuron@@V?$allocator@VNeuron@@@std@@@std@@@2@@std@@@std@@QAEAAPAV?$vector@VNeuron@@V?$allocator@VNeuron@@@std@@@2@XZ ; std::_Vector_alloc<std::_Vec_base_types<std::vector<Neuron,std::allocator<Neuron> >,std::allocator<std::vector<Neuron,std::allocator<Neuron> > > > >::_Myend
PUBLIC	?_Myend@?$_Vector_alloc@U?$_Vec_base_types@V?$vector@VNeuron@@V?$allocator@VNeuron@@@std@@@std@@V?$allocator@V?$vector@VNeuron@@V?$allocator@VNeuron@@@std@@@std@@@2@@std@@@std@@QBEABQAV?$vector@VNeuron@@V?$allocator@VNeuron@@@std@@@2@XZ ; std::_Vector_alloc<std::_Vec_base_types<std::vector<Neuron,std::allocator<Neuron> >,std::allocator<std::vector<Neuron,std::allocator<Neuron> > > > >::_Myend
PUBLIC	??0?$_Vector_val@U?$_Simple_types@V?$vector@VNeuron@@V?$allocator@VNeuron@@@std@@@std@@@std@@@std@@QAE@XZ ; std::_Vector_val<std::_Simple_types<std::vector<Neuron,std::allocator<Neuron> > > >::_Vector_val<std::_Simple_types<std::vector<Neuron,std::allocator<Neuron> > > >
PUBLIC	??1?$_Vector_val@U?$_Simple_types@V?$vector@VNeuron@@V?$allocator@VNeuron@@@std@@@std@@@std@@@std@@QAE@XZ ; std::_Vector_val<std::_Simple_types<std::vector<Neuron,std::allocator<Neuron> > > >::~_Vector_val<std::_Simple_types<std::vector<Neuron,std::allocator<Neuron> > > >
PUBLIC	?_Get_first@?$_Compressed_pair@V?$allocator@V?$vector@VNeuron@@V?$allocator@VNeuron@@@std@@@std@@@std@@V?$_Vector_val@U?$_Simple_types@V?$vector@VNeuron@@V?$allocator@VNeuron@@@std@@@std@@@std@@@2@$00@std@@QAEAAV?$allocator@V?$vector@VNeuron@@V?$allocator@VNeuron@@@std@@@std@@@2@XZ ; std::_Compressed_pair<std::allocator<std::vector<Neuron,std::allocator<Neuron> > >,std::_Vector_val<std::_Simple_types<std::vector<Neuron,std::allocator<Neuron> > > >,1>::_Get_first
PUBLIC	?_Get_first@?$_Compressed_pair@V?$allocator@V?$vector@VNeuron@@V?$allocator@VNeuron@@@std@@@std@@@std@@V?$_Vector_val@U?$_Simple_types@V?$vector@VNeuron@@V?$allocator@VNeuron@@@std@@@std@@@std@@@2@$00@std@@QBEABV?$allocator@V?$vector@VNeuron@@V?$allocator@VNeuron@@@std@@@std@@@2@XZ ; std::_Compressed_pair<std::allocator<std::vector<Neuron,std::allocator<Neuron> > >,std::_Vector_val<std::_Simple_types<std::vector<Neuron,std::allocator<Neuron> > > >,1>::_Get_first
PUBLIC	?_Get_second@?$_Compressed_pair@V?$allocator@V?$vector@VNeuron@@V?$allocator@VNeuron@@@std@@@std@@@std@@V?$_Vector_val@U?$_Simple_types@V?$vector@VNeuron@@V?$allocator@VNeuron@@@std@@@std@@@std@@@2@$00@std@@QAEAAV?$_Vector_val@U?$_Simple_types@V?$vector@VNeuron@@V?$allocator@VNeuron@@@std@@@std@@@std@@@2@XZ ; std::_Compressed_pair<std::allocator<std::vector<Neuron,std::allocator<Neuron> > >,std::_Vector_val<std::_Simple_types<std::vector<Neuron,std::allocator<Neuron> > > >,1>::_Get_second
PUBLIC	?_Get_second@?$_Compressed_pair@V?$allocator@V?$vector@VNeuron@@V?$allocator@VNeuron@@@std@@@std@@@std@@V?$_Vector_val@U?$_Simple_types@V?$vector@VNeuron@@V?$allocator@VNeuron@@@std@@@std@@@std@@@2@$00@std@@QBEABV?$_Vector_val@U?$_Simple_types@V?$vector@VNeuron@@V?$allocator@VNeuron@@@std@@@std@@@std@@@2@XZ ; std::_Compressed_pair<std::allocator<std::vector<Neuron,std::allocator<Neuron> > >,std::_Vector_val<std::_Simple_types<std::vector<Neuron,std::allocator<Neuron> > > >,1>::_Get_second
PUBLIC	??1?$_Compressed_pair@V?$allocator@V?$vector@VNeuron@@V?$allocator@VNeuron@@@std@@@std@@@std@@V?$_Vector_val@U?$_Simple_types@V?$vector@VNeuron@@V?$allocator@VNeuron@@@std@@@std@@@std@@@2@$00@std@@QAE@XZ ; std::_Compressed_pair<std::allocator<std::vector<Neuron,std::allocator<Neuron> > >,std::_Vector_val<std::_Simple_types<std::vector<Neuron,std::allocator<Neuron> > > >,1>::~_Compressed_pair<std::allocator<std::vector<Neuron,std::allocator<Neuron> > >,std::_Vector_val<std::_Simple_types<std::vector<Neuron,std::allocator<Neuron> > > >,1>
PUBLIC	??0?$vector@V?$vector@VNeuron@@V?$allocator@VNeuron@@@std@@@std@@V?$allocator@V?$vector@VNeuron@@V?$allocator@VNeuron@@@std@@@std@@@2@@std@@QAE@XZ ; std::vector<std::vector<Neuron,std::allocator<Neuron> >,std::allocator<std::vector<Neuron,std::allocator<Neuron> > > >::vector<std::vector<Neuron,std::allocator<Neuron> >,std::allocator<std::vector<Neuron,std::allocator<Neuron> > > >
PUBLIC	??1?$vector@V?$vector@VNeuron@@V?$allocator@VNeuron@@@std@@@std@@V?$allocator@V?$vector@VNeuron@@V?$allocator@VNeuron@@@std@@@std@@@2@@std@@QAE@XZ ; std::vector<std::vector<Neuron,std::allocator<Neuron> >,std::allocator<std::vector<Neuron,std::allocator<Neuron> > > >::~vector<std::vector<Neuron,std::allocator<Neuron> >,std::allocator<std::vector<Neuron,std::allocator<Neuron> > > >
PUBLIC	?push_back@?$vector@V?$vector@VNeuron@@V?$allocator@VNeuron@@@std@@@std@@V?$allocator@V?$vector@VNeuron@@V?$allocator@VNeuron@@@std@@@std@@@2@@std@@QAEX$$QAV?$vector@VNeuron@@V?$allocator@VNeuron@@@std@@@2@@Z ; std::vector<std::vector<Neuron,std::allocator<Neuron> >,std::allocator<std::vector<Neuron,std::allocator<Neuron> > > >::push_back
PUBLIC	?empty@?$vector@V?$vector@VNeuron@@V?$allocator@VNeuron@@@std@@@std@@V?$allocator@V?$vector@VNeuron@@V?$allocator@VNeuron@@@std@@@std@@@2@@std@@QBE_NXZ ; std::vector<std::vector<Neuron,std::allocator<Neuron> >,std::allocator<std::vector<Neuron,std::allocator<Neuron> > > >::empty
PUBLIC	?size@?$vector@V?$vector@VNeuron@@V?$allocator@VNeuron@@@std@@@std@@V?$allocator@V?$vector@VNeuron@@V?$allocator@VNeuron@@@std@@@std@@@2@@std@@QBEIXZ ; std::vector<std::vector<Neuron,std::allocator<Neuron> >,std::allocator<std::vector<Neuron,std::allocator<Neuron> > > >::size
PUBLIC	?max_size@?$vector@V?$vector@VNeuron@@V?$allocator@VNeuron@@@std@@@std@@V?$allocator@V?$vector@VNeuron@@V?$allocator@VNeuron@@@std@@@std@@@2@@std@@QBEIXZ ; std::vector<std::vector<Neuron,std::allocator<Neuron> >,std::allocator<std::vector<Neuron,std::allocator<Neuron> > > >::max_size
PUBLIC	?capacity@?$vector@V?$vector@VNeuron@@V?$allocator@VNeuron@@@std@@@std@@V?$allocator@V?$vector@VNeuron@@V?$allocator@VNeuron@@@std@@@std@@@2@@std@@QBEIXZ ; std::vector<std::vector<Neuron,std::allocator<Neuron> >,std::allocator<std::vector<Neuron,std::allocator<Neuron> > > >::capacity
PUBLIC	?_Has_unused_capacity@?$vector@V?$vector@VNeuron@@V?$allocator@VNeuron@@@std@@@std@@V?$allocator@V?$vector@VNeuron@@V?$allocator@VNeuron@@@std@@@std@@@2@@std@@ABE_NXZ ; std::vector<std::vector<Neuron,std::allocator<Neuron> >,std::allocator<std::vector<Neuron,std::allocator<Neuron> > > >::_Has_unused_capacity
PUBLIC	??A?$vector@V?$vector@VNeuron@@V?$allocator@VNeuron@@@std@@@std@@V?$allocator@V?$vector@VNeuron@@V?$allocator@VNeuron@@@std@@@std@@@2@@std@@QAEAAV?$vector@VNeuron@@V?$allocator@VNeuron@@@std@@@1@I@Z ; std::vector<std::vector<Neuron,std::allocator<Neuron> >,std::allocator<std::vector<Neuron,std::allocator<Neuron> > > >::operator[]
PUBLIC	?back@?$vector@V?$vector@VNeuron@@V?$allocator@VNeuron@@@std@@@std@@V?$allocator@V?$vector@VNeuron@@V?$allocator@VNeuron@@@std@@@std@@@2@@std@@QAEAAV?$vector@VNeuron@@V?$allocator@VNeuron@@@std@@@2@XZ ; std::vector<std::vector<Neuron,std::allocator<Neuron> >,std::allocator<std::vector<Neuron,std::allocator<Neuron> > > >::back
PUBLIC	?back@?$vector@V?$vector@VNeuron@@V?$allocator@VNeuron@@@std@@@std@@V?$allocator@V?$vector@VNeuron@@V?$allocator@VNeuron@@@std@@@std@@@2@@std@@QBEABV?$vector@VNeuron@@V?$allocator@VNeuron@@@std@@@2@XZ ; std::vector<std::vector<Neuron,std::allocator<Neuron> >,std::allocator<std::vector<Neuron,std::allocator<Neuron> > > >::back
PUBLIC	?_Umove_if_noexcept1@?$vector@V?$vector@VNeuron@@V?$allocator@VNeuron@@@std@@@std@@V?$allocator@V?$vector@VNeuron@@V?$allocator@VNeuron@@@std@@@std@@@2@@std@@AAEXPAV?$vector@VNeuron@@V?$allocator@VNeuron@@@std@@@2@00U?$integral_constant@_N$00@2@@Z ; std::vector<std::vector<Neuron,std::allocator<Neuron> >,std::allocator<std::vector<Neuron,std::allocator<Neuron> > > >::_Umove_if_noexcept1
PUBLIC	?_Umove_if_noexcept@?$vector@V?$vector@VNeuron@@V?$allocator@VNeuron@@@std@@@std@@V?$allocator@V?$vector@VNeuron@@V?$allocator@VNeuron@@@std@@@std@@@2@@std@@AAEXPAV?$vector@VNeuron@@V?$allocator@VNeuron@@@std@@@2@00@Z ; std::vector<std::vector<Neuron,std::allocator<Neuron> >,std::allocator<std::vector<Neuron,std::allocator<Neuron> > > >::_Umove_if_noexcept
PUBLIC	?_Destroy@?$vector@V?$vector@VNeuron@@V?$allocator@VNeuron@@@std@@@std@@V?$allocator@V?$vector@VNeuron@@V?$allocator@VNeuron@@@std@@@std@@@2@@std@@AAEXPAV?$vector@VNeuron@@V?$allocator@VNeuron@@@std@@@2@0@Z ; std::vector<std::vector<Neuron,std::allocator<Neuron> >,std::allocator<std::vector<Neuron,std::allocator<Neuron> > > >::_Destroy
PUBLIC	?_Calculate_growth@?$vector@V?$vector@VNeuron@@V?$allocator@VNeuron@@@std@@@std@@V?$allocator@V?$vector@VNeuron@@V?$allocator@VNeuron@@@std@@@std@@@2@@std@@ABEII@Z ; std::vector<std::vector<Neuron,std::allocator<Neuron> >,std::allocator<std::vector<Neuron,std::allocator<Neuron> > > >::_Calculate_growth
PUBLIC	?_Change_array@?$vector@V?$vector@VNeuron@@V?$allocator@VNeuron@@@std@@@std@@V?$allocator@V?$vector@VNeuron@@V?$allocator@VNeuron@@@std@@@std@@@2@@std@@AAEXQAV?$vector@VNeuron@@V?$allocator@VNeuron@@@std@@@2@II@Z ; std::vector<std::vector<Neuron,std::allocator<Neuron> >,std::allocator<std::vector<Neuron,std::allocator<Neuron> > > >::_Change_array
PUBLIC	?_Tidy@?$vector@V?$vector@VNeuron@@V?$allocator@VNeuron@@@std@@@std@@V?$allocator@V?$vector@VNeuron@@V?$allocator@VNeuron@@@std@@@std@@@2@@std@@AAEXXZ ; std::vector<std::vector<Neuron,std::allocator<Neuron> >,std::allocator<std::vector<Neuron,std::allocator<Neuron> > > >::_Tidy
PUBLIC	?_Xlength@?$vector@V?$vector@VNeuron@@V?$allocator@VNeuron@@@std@@@std@@V?$allocator@V?$vector@VNeuron@@V?$allocator@VNeuron@@@std@@@std@@@2@@std@@CAXXZ ; std::vector<std::vector<Neuron,std::allocator<Neuron> >,std::allocator<std::vector<Neuron,std::allocator<Neuron> > > >::_Xlength
PUBLIC	?_Orphan_range@?$vector@V?$vector@VNeuron@@V?$allocator@VNeuron@@@std@@@std@@V?$allocator@V?$vector@VNeuron@@V?$allocator@VNeuron@@@std@@@std@@@2@@std@@ABEXPAV?$vector@VNeuron@@V?$allocator@VNeuron@@@std@@@2@0@Z ; std::vector<std::vector<Neuron,std::allocator<Neuron> >,std::allocator<std::vector<Neuron,std::allocator<Neuron> > > >::_Orphan_range
PUBLIC	?_Get_data@?$_Vector_alloc@U?$_Vec_base_types@IV?$allocator@I@std@@@std@@@std@@QBEABV?$_Vector_val@U?$_Simple_types@I@std@@@2@XZ ; std::_Vector_alloc<std::_Vec_base_types<unsigned int,std::allocator<unsigned int> > >::_Get_data
PUBLIC	?_Myfirst@?$_Vector_alloc@U?$_Vec_base_types@IV?$allocator@I@std@@@std@@@std@@QBEABQAIXZ ; std::_Vector_alloc<std::_Vec_base_types<unsigned int,std::allocator<unsigned int> > >::_Myfirst
PUBLIC	?_Mylast@?$_Vector_alloc@U?$_Vec_base_types@IV?$allocator@I@std@@@std@@@std@@QBEABQAIXZ ; std::_Vector_alloc<std::_Vec_base_types<unsigned int,std::allocator<unsigned int> > >::_Mylast
PUBLIC	?_Get_second@?$_Compressed_pair@V?$allocator@I@std@@V?$_Vector_val@U?$_Simple_types@I@std@@@2@$00@std@@QBEABV?$_Vector_val@U?$_Simple_types@I@std@@@2@XZ ; std::_Compressed_pair<std::allocator<unsigned int>,std::_Vector_val<std::_Simple_types<unsigned int> >,1>::_Get_second
PUBLIC	?size@?$vector@IV?$allocator@I@std@@@std@@QBEIXZ ; std::vector<unsigned int,std::allocator<unsigned int> >::size
PUBLIC	??A?$vector@IV?$allocator@I@std@@@std@@QBEABII@Z ; std::vector<unsigned int,std::allocator<unsigned int> >::operator[]
PUBLIC	??0?$allocator@VNeuron@@@std@@QAE@XZ		; std::allocator<Neuron>::allocator<Neuron>
PUBLIC	?deallocate@?$allocator@VNeuron@@@std@@QAEXQAVNeuron@@I@Z ; std::allocator<Neuron>::deallocate
PUBLIC	?allocate@?$allocator@VNeuron@@@std@@QAEPAVNeuron@@I@Z ; std::allocator<Neuron>::allocate
PUBLIC	?max_size@?$_Default_allocator_traits@V?$allocator@VNeuron@@@std@@@std@@SAIABV?$allocator@VNeuron@@@2@@Z ; std::_Default_allocator_traits<std::allocator<Neuron> >::max_size
PUBLIC	??0?$_Vector_alloc@U?$_Vec_base_types@VNeuron@@V?$allocator@VNeuron@@@std@@@std@@@std@@QAE@XZ ; std::_Vector_alloc<std::_Vec_base_types<Neuron,std::allocator<Neuron> > >::_Vector_alloc<std::_Vec_base_types<Neuron,std::allocator<Neuron> > >
PUBLIC	??1?$_Vector_alloc@U?$_Vec_base_types@VNeuron@@V?$allocator@VNeuron@@@std@@@std@@@std@@QAE@XZ ; std::_Vector_alloc<std::_Vec_base_types<Neuron,std::allocator<Neuron> > >::~_Vector_alloc<std::_Vec_base_types<Neuron,std::allocator<Neuron> > >
PUBLIC	?_Alloc_proxy@?$_Vector_alloc@U?$_Vec_base_types@VNeuron@@V?$allocator@VNeuron@@@std@@@std@@@std@@QAEXXZ ; std::_Vector_alloc<std::_Vec_base_types<Neuron,std::allocator<Neuron> > >::_Alloc_proxy
PUBLIC	?_Free_proxy@?$_Vector_alloc@U?$_Vec_base_types@VNeuron@@V?$allocator@VNeuron@@@std@@@std@@@std@@QAEXXZ ; std::_Vector_alloc<std::_Vec_base_types<Neuron,std::allocator<Neuron> > >::_Free_proxy
PUBLIC	?_Getpfirst@?$_Vector_alloc@U?$_Vec_base_types@VNeuron@@V?$allocator@VNeuron@@@std@@@std@@@std@@QBEPAPAU_Iterator_base12@2@XZ ; std::_Vector_alloc<std::_Vec_base_types<Neuron,std::allocator<Neuron> > >::_Getpfirst
PUBLIC	?_Myproxy@?$_Vector_alloc@U?$_Vec_base_types@VNeuron@@V?$allocator@VNeuron@@@std@@@std@@@std@@QAEAAPAU_Container_proxy@2@XZ ; std::_Vector_alloc<std::_Vec_base_types<Neuron,std::allocator<Neuron> > >::_Myproxy
PUBLIC	?_Orphan_all@?$_Vector_alloc@U?$_Vec_base_types@VNeuron@@V?$allocator@VNeuron@@@std@@@std@@@std@@QAEXXZ ; std::_Vector_alloc<std::_Vec_base_types<Neuron,std::allocator<Neuron> > >::_Orphan_all
PUBLIC	?_Swap_all@?$_Vector_alloc@U?$_Vec_base_types@VNeuron@@V?$allocator@VNeuron@@@std@@@std@@@std@@QAEXAAV12@@Z ; std::_Vector_alloc<std::_Vec_base_types<Neuron,std::allocator<Neuron> > >::_Swap_all
PUBLIC	?_Getal@?$_Vector_alloc@U?$_Vec_base_types@VNeuron@@V?$allocator@VNeuron@@@std@@@std@@@std@@QAEAAV?$allocator@VNeuron@@@2@XZ ; std::_Vector_alloc<std::_Vec_base_types<Neuron,std::allocator<Neuron> > >::_Getal
PUBLIC	?_Getal@?$_Vector_alloc@U?$_Vec_base_types@VNeuron@@V?$allocator@VNeuron@@@std@@@std@@@std@@QBEABV?$allocator@VNeuron@@@2@XZ ; std::_Vector_alloc<std::_Vec_base_types<Neuron,std::allocator<Neuron> > >::_Getal
PUBLIC	?_Get_data@?$_Vector_alloc@U?$_Vec_base_types@VNeuron@@V?$allocator@VNeuron@@@std@@@std@@@std@@QAEAAV?$_Vector_val@U?$_Simple_types@VNeuron@@@std@@@2@XZ ; std::_Vector_alloc<std::_Vec_base_types<Neuron,std::allocator<Neuron> > >::_Get_data
PUBLIC	?_Get_data@?$_Vector_alloc@U?$_Vec_base_types@VNeuron@@V?$allocator@VNeuron@@@std@@@std@@@std@@QBEABV?$_Vector_val@U?$_Simple_types@VNeuron@@@std@@@2@XZ ; std::_Vector_alloc<std::_Vec_base_types<Neuron,std::allocator<Neuron> > >::_Get_data
PUBLIC	?_Myfirst@?$_Vector_alloc@U?$_Vec_base_types@VNeuron@@V?$allocator@VNeuron@@@std@@@std@@@std@@QAEAAPAVNeuron@@XZ ; std::_Vector_alloc<std::_Vec_base_types<Neuron,std::allocator<Neuron> > >::_Myfirst
PUBLIC	?_Myfirst@?$_Vector_alloc@U?$_Vec_base_types@VNeuron@@V?$allocator@VNeuron@@@std@@@std@@@std@@QBEABQAVNeuron@@XZ ; std::_Vector_alloc<std::_Vec_base_types<Neuron,std::allocator<Neuron> > >::_Myfirst
PUBLIC	?_Mylast@?$_Vector_alloc@U?$_Vec_base_types@VNeuron@@V?$allocator@VNeuron@@@std@@@std@@@std@@QAEAAPAVNeuron@@XZ ; std::_Vector_alloc<std::_Vec_base_types<Neuron,std::allocator<Neuron> > >::_Mylast
PUBLIC	?_Mylast@?$_Vector_alloc@U?$_Vec_base_types@VNeuron@@V?$allocator@VNeuron@@@std@@@std@@@std@@QBEABQAVNeuron@@XZ ; std::_Vector_alloc<std::_Vec_base_types<Neuron,std::allocator<Neuron> > >::_Mylast
PUBLIC	?_Myend@?$_Vector_alloc@U?$_Vec_base_types@VNeuron@@V?$allocator@VNeuron@@@std@@@std@@@std@@QAEAAPAVNeuron@@XZ ; std::_Vector_alloc<std::_Vec_base_types<Neuron,std::allocator<Neuron> > >::_Myend
PUBLIC	?_Myend@?$_Vector_alloc@U?$_Vec_base_types@VNeuron@@V?$allocator@VNeuron@@@std@@@std@@@std@@QBEABQAVNeuron@@XZ ; std::_Vector_alloc<std::_Vec_base_types<Neuron,std::allocator<Neuron> > >::_Myend
PUBLIC	??0?$_Vector_val@U?$_Simple_types@VNeuron@@@std@@@std@@QAE@XZ ; std::_Vector_val<std::_Simple_types<Neuron> >::_Vector_val<std::_Simple_types<Neuron> >
PUBLIC	??1?$_Vector_val@U?$_Simple_types@VNeuron@@@std@@@std@@QAE@XZ ; std::_Vector_val<std::_Simple_types<Neuron> >::~_Vector_val<std::_Simple_types<Neuron> >
PUBLIC	?_Get_first@?$_Compressed_pair@V?$allocator@VNeuron@@@std@@V?$_Vector_val@U?$_Simple_types@VNeuron@@@std@@@2@$00@std@@QAEAAV?$allocator@VNeuron@@@2@XZ ; std::_Compressed_pair<std::allocator<Neuron>,std::_Vector_val<std::_Simple_types<Neuron> >,1>::_Get_first
PUBLIC	?_Get_first@?$_Compressed_pair@V?$allocator@VNeuron@@@std@@V?$_Vector_val@U?$_Simple_types@VNeuron@@@std@@@2@$00@std@@QBEABV?$allocator@VNeuron@@@2@XZ ; std::_Compressed_pair<std::allocator<Neuron>,std::_Vector_val<std::_Simple_types<Neuron> >,1>::_Get_first
PUBLIC	?_Get_second@?$_Compressed_pair@V?$allocator@VNeuron@@@std@@V?$_Vector_val@U?$_Simple_types@VNeuron@@@std@@@2@$00@std@@QAEAAV?$_Vector_val@U?$_Simple_types@VNeuron@@@std@@@2@XZ ; std::_Compressed_pair<std::allocator<Neuron>,std::_Vector_val<std::_Simple_types<Neuron> >,1>::_Get_second
PUBLIC	?_Get_second@?$_Compressed_pair@V?$allocator@VNeuron@@@std@@V?$_Vector_val@U?$_Simple_types@VNeuron@@@std@@@2@$00@std@@QBEABV?$_Vector_val@U?$_Simple_types@VNeuron@@@std@@@2@XZ ; std::_Compressed_pair<std::allocator<Neuron>,std::_Vector_val<std::_Simple_types<Neuron> >,1>::_Get_second
PUBLIC	??1?$_Compressed_pair@V?$allocator@VNeuron@@@std@@V?$_Vector_val@U?$_Simple_types@VNeuron@@@std@@@2@$00@std@@QAE@XZ ; std::_Compressed_pair<std::allocator<Neuron>,std::_Vector_val<std::_Simple_types<Neuron> >,1>::~_Compressed_pair<std::allocator<Neuron>,std::_Vector_val<std::_Simple_types<Neuron> >,1>
PUBLIC	??0?$vector@VNeuron@@V?$allocator@VNeuron@@@std@@@std@@QAE@XZ ; std::vector<Neuron,std::allocator<Neuron> >::vector<Neuron,std::allocator<Neuron> >
PUBLIC	?_Move_from@?$vector@VNeuron@@V?$allocator@VNeuron@@@std@@@std@@AAEX$$QAV12@U?$integral_constant@_N$00@2@@Z ; std::vector<Neuron,std::allocator<Neuron> >::_Move_from
PUBLIC	??0?$vector@VNeuron@@V?$allocator@VNeuron@@@std@@@std@@QAE@$$QAV01@@Z ; std::vector<Neuron,std::allocator<Neuron> >::vector<Neuron,std::allocator<Neuron> >
PUBLIC	??1?$vector@VNeuron@@V?$allocator@VNeuron@@@std@@@std@@QAE@XZ ; std::vector<Neuron,std::allocator<Neuron> >::~vector<Neuron,std::allocator<Neuron> >
PUBLIC	?push_back@?$vector@VNeuron@@V?$allocator@VNeuron@@@std@@@std@@QAEX$$QAVNeuron@@@Z ; std::vector<Neuron,std::allocator<Neuron> >::push_back
PUBLIC	?empty@?$vector@VNeuron@@V?$allocator@VNeuron@@@std@@@std@@QBE_NXZ ; std::vector<Neuron,std::allocator<Neuron> >::empty
PUBLIC	?size@?$vector@VNeuron@@V?$allocator@VNeuron@@@std@@@std@@QBEIXZ ; std::vector<Neuron,std::allocator<Neuron> >::size
PUBLIC	?max_size@?$vector@VNeuron@@V?$allocator@VNeuron@@@std@@@std@@QBEIXZ ; std::vector<Neuron,std::allocator<Neuron> >::max_size
PUBLIC	?capacity@?$vector@VNeuron@@V?$allocator@VNeuron@@@std@@@std@@QBEIXZ ; std::vector<Neuron,std::allocator<Neuron> >::capacity
PUBLIC	?_Has_unused_capacity@?$vector@VNeuron@@V?$allocator@VNeuron@@@std@@@std@@ABE_NXZ ; std::vector<Neuron,std::allocator<Neuron> >::_Has_unused_capacity
PUBLIC	??A?$vector@VNeuron@@V?$allocator@VNeuron@@@std@@@std@@QAEAAVNeuron@@I@Z ; std::vector<Neuron,std::allocator<Neuron> >::operator[]
PUBLIC	??A?$vector@VNeuron@@V?$allocator@VNeuron@@@std@@@std@@QBEABVNeuron@@I@Z ; std::vector<Neuron,std::allocator<Neuron> >::operator[]
PUBLIC	?back@?$vector@VNeuron@@V?$allocator@VNeuron@@@std@@@std@@QAEAAVNeuron@@XZ ; std::vector<Neuron,std::allocator<Neuron> >::back
PUBLIC	?_Umove_if_noexcept1@?$vector@VNeuron@@V?$allocator@VNeuron@@@std@@@std@@AAEXPAVNeuron@@00U?$integral_constant@_N$0A@@2@@Z ; std::vector<Neuron,std::allocator<Neuron> >::_Umove_if_noexcept1
PUBLIC	?_Umove_if_noexcept@?$vector@VNeuron@@V?$allocator@VNeuron@@@std@@@std@@AAEXPAVNeuron@@00@Z ; std::vector<Neuron,std::allocator<Neuron> >::_Umove_if_noexcept
PUBLIC	?_Destroy@?$vector@VNeuron@@V?$allocator@VNeuron@@@std@@@std@@AAEXPAVNeuron@@0@Z ; std::vector<Neuron,std::allocator<Neuron> >::_Destroy
PUBLIC	?_Calculate_growth@?$vector@VNeuron@@V?$allocator@VNeuron@@@std@@@std@@ABEII@Z ; std::vector<Neuron,std::allocator<Neuron> >::_Calculate_growth
PUBLIC	?_Change_array@?$vector@VNeuron@@V?$allocator@VNeuron@@@std@@@std@@AAEXQAVNeuron@@II@Z ; std::vector<Neuron,std::allocator<Neuron> >::_Change_array
PUBLIC	?_Tidy@?$vector@VNeuron@@V?$allocator@VNeuron@@@std@@@std@@AAEXXZ ; std::vector<Neuron,std::allocator<Neuron> >::_Tidy
PUBLIC	?_Xlength@?$vector@VNeuron@@V?$allocator@VNeuron@@@std@@@std@@CAXXZ ; std::vector<Neuron,std::allocator<Neuron> >::_Xlength
PUBLIC	?_Orphan_range@?$vector@VNeuron@@V?$allocator@VNeuron@@@std@@@std@@ABEXPAVNeuron@@0@Z ; std::vector<Neuron,std::allocator<Neuron> >::_Orphan_range
PUBLIC	??_G?$vector@VNeuron@@V?$allocator@VNeuron@@@std@@@std@@QAEPAXI@Z ; std::vector<Neuron,std::allocator<Neuron> >::`scalar deleting destructor'
PUBLIC	?deallocate@?$allocator@N@std@@QAEXQANI@Z	; std::allocator<double>::deallocate
PUBLIC	?allocate@?$allocator@N@std@@QAEPANI@Z		; std::allocator<double>::allocate
PUBLIC	?max_size@?$_Default_allocator_traits@V?$allocator@N@std@@@std@@SAIABV?$allocator@N@2@@Z ; std::_Default_allocator_traits<std::allocator<double> >::max_size
PUBLIC	?_Getpfirst@?$_Vector_alloc@U?$_Vec_base_types@NV?$allocator@N@std@@@std@@@std@@QBEPAPAU_Iterator_base12@2@XZ ; std::_Vector_alloc<std::_Vec_base_types<double,std::allocator<double> > >::_Getpfirst
PUBLIC	?_Orphan_all@?$_Vector_alloc@U?$_Vec_base_types@NV?$allocator@N@std@@@std@@@std@@QAEXXZ ; std::_Vector_alloc<std::_Vec_base_types<double,std::allocator<double> > >::_Orphan_all
PUBLIC	?_Getal@?$_Vector_alloc@U?$_Vec_base_types@NV?$allocator@N@std@@@std@@@std@@QAEAAV?$allocator@N@2@XZ ; std::_Vector_alloc<std::_Vec_base_types<double,std::allocator<double> > >::_Getal
PUBLIC	?_Getal@?$_Vector_alloc@U?$_Vec_base_types@NV?$allocator@N@std@@@std@@@std@@QBEABV?$allocator@N@2@XZ ; std::_Vector_alloc<std::_Vec_base_types<double,std::allocator<double> > >::_Getal
PUBLIC	?_Get_data@?$_Vector_alloc@U?$_Vec_base_types@NV?$allocator@N@std@@@std@@@std@@QAEAAV?$_Vector_val@U?$_Simple_types@N@std@@@2@XZ ; std::_Vector_alloc<std::_Vec_base_types<double,std::allocator<double> > >::_Get_data
PUBLIC	?_Get_data@?$_Vector_alloc@U?$_Vec_base_types@NV?$allocator@N@std@@@std@@@std@@QBEABV?$_Vector_val@U?$_Simple_types@N@std@@@2@XZ ; std::_Vector_alloc<std::_Vec_base_types<double,std::allocator<double> > >::_Get_data
PUBLIC	?_Myfirst@?$_Vector_alloc@U?$_Vec_base_types@NV?$allocator@N@std@@@std@@@std@@QAEAAPANXZ ; std::_Vector_alloc<std::_Vec_base_types<double,std::allocator<double> > >::_Myfirst
PUBLIC	?_Myfirst@?$_Vector_alloc@U?$_Vec_base_types@NV?$allocator@N@std@@@std@@@std@@QBEABQANXZ ; std::_Vector_alloc<std::_Vec_base_types<double,std::allocator<double> > >::_Myfirst
PUBLIC	?_Mylast@?$_Vector_alloc@U?$_Vec_base_types@NV?$allocator@N@std@@@std@@@std@@QAEAAPANXZ ; std::_Vector_alloc<std::_Vec_base_types<double,std::allocator<double> > >::_Mylast
PUBLIC	?_Mylast@?$_Vector_alloc@U?$_Vec_base_types@NV?$allocator@N@std@@@std@@@std@@QBEABQANXZ ; std::_Vector_alloc<std::_Vec_base_types<double,std::allocator<double> > >::_Mylast
PUBLIC	?_Myend@?$_Vector_alloc@U?$_Vec_base_types@NV?$allocator@N@std@@@std@@@std@@QAEAAPANXZ ; std::_Vector_alloc<std::_Vec_base_types<double,std::allocator<double> > >::_Myend
PUBLIC	?_Myend@?$_Vector_alloc@U?$_Vec_base_types@NV?$allocator@N@std@@@std@@@std@@QBEABQANXZ ; std::_Vector_alloc<std::_Vec_base_types<double,std::allocator<double> > >::_Myend
PUBLIC	?_Get_first@?$_Compressed_pair@V?$allocator@N@std@@V?$_Vector_val@U?$_Simple_types@N@std@@@2@$00@std@@QAEAAV?$allocator@N@2@XZ ; std::_Compressed_pair<std::allocator<double>,std::_Vector_val<std::_Simple_types<double> >,1>::_Get_first
PUBLIC	?_Get_first@?$_Compressed_pair@V?$allocator@N@std@@V?$_Vector_val@U?$_Simple_types@N@std@@@2@$00@std@@QBEABV?$allocator@N@2@XZ ; std::_Compressed_pair<std::allocator<double>,std::_Vector_val<std::_Simple_types<double> >,1>::_Get_first
PUBLIC	?_Get_second@?$_Compressed_pair@V?$allocator@N@std@@V?$_Vector_val@U?$_Simple_types@N@std@@@2@$00@std@@QAEAAV?$_Vector_val@U?$_Simple_types@N@std@@@2@XZ ; std::_Compressed_pair<std::allocator<double>,std::_Vector_val<std::_Simple_types<double> >,1>::_Get_second
PUBLIC	?_Get_second@?$_Compressed_pair@V?$allocator@N@std@@V?$_Vector_val@U?$_Simple_types@N@std@@@2@$00@std@@QBEABV?$_Vector_val@U?$_Simple_types@N@std@@@2@XZ ; std::_Compressed_pair<std::allocator<double>,std::_Vector_val<std::_Simple_types<double> >,1>::_Get_second
PUBLIC	?push_back@?$vector@NV?$allocator@N@std@@@std@@QAEX$$QAN@Z ; std::vector<double,std::allocator<double> >::push_back
PUBLIC	?clear@?$vector@NV?$allocator@N@std@@@std@@QAEXXZ ; std::vector<double,std::allocator<double> >::clear
PUBLIC	?size@?$vector@NV?$allocator@N@std@@@std@@QBEIXZ ; std::vector<double,std::allocator<double> >::size
PUBLIC	?max_size@?$vector@NV?$allocator@N@std@@@std@@QBEIXZ ; std::vector<double,std::allocator<double> >::max_size
PUBLIC	?capacity@?$vector@NV?$allocator@N@std@@@std@@QBEIXZ ; std::vector<double,std::allocator<double> >::capacity
PUBLIC	?_Has_unused_capacity@?$vector@NV?$allocator@N@std@@@std@@ABE_NXZ ; std::vector<double,std::allocator<double> >::_Has_unused_capacity
PUBLIC	??A?$vector@NV?$allocator@N@std@@@std@@QBEABNI@Z ; std::vector<double,std::allocator<double> >::operator[]
PUBLIC	?_Umove_if_noexcept1@?$vector@NV?$allocator@N@std@@@std@@AAEXPAN00U?$integral_constant@_N$00@2@@Z ; std::vector<double,std::allocator<double> >::_Umove_if_noexcept1
PUBLIC	?_Umove_if_noexcept@?$vector@NV?$allocator@N@std@@@std@@AAEXPAN00@Z ; std::vector<double,std::allocator<double> >::_Umove_if_noexcept
PUBLIC	?_Destroy@?$vector@NV?$allocator@N@std@@@std@@AAEXPAN0@Z ; std::vector<double,std::allocator<double> >::_Destroy
PUBLIC	?_Calculate_growth@?$vector@NV?$allocator@N@std@@@std@@ABEII@Z ; std::vector<double,std::allocator<double> >::_Calculate_growth
PUBLIC	?_Change_array@?$vector@NV?$allocator@N@std@@@std@@AAEXQANII@Z ; std::vector<double,std::allocator<double> >::_Change_array
PUBLIC	?_Xlength@?$vector@NV?$allocator@N@std@@@std@@CAXXZ ; std::vector<double,std::allocator<double> >::_Xlength
PUBLIC	?_Orphan_range@?$vector@NV?$allocator@N@std@@@std@@ABEXPAN0@Z ; std::vector<double,std::allocator<double> >::_Orphan_range
PUBLIC	??$move@AAV?$vector@VNeuron@@V?$allocator@VNeuron@@@std@@@std@@@std@@YA$$QAV?$vector@VNeuron@@V?$allocator@VNeuron@@@std@@@0@AAV10@@Z ; std::move<std::vector<Neuron,std::allocator<Neuron> > &>
PUBLIC	??$emplace_back@V?$vector@VNeuron@@V?$allocator@VNeuron@@@std@@@std@@@?$vector@V?$vector@VNeuron@@V?$allocator@VNeuron@@@std@@@std@@V?$allocator@V?$vector@VNeuron@@V?$allocator@VNeuron@@@std@@@std@@@2@@std@@QAE@$$QAV?$vector@VNeuron@@V?$allocator@VNeuron@@@std@@@1@@Z ; std::vector<std::vector<Neuron,std::allocator<Neuron> >,std::allocator<std::vector<Neuron,std::allocator<Neuron> > > >::emplace_back<std::vector<Neuron,std::allocator<Neuron> > >
PUBLIC	??$forward@V?$vector@VNeuron@@V?$allocator@VNeuron@@@std@@@std@@@std@@YA$$QAV?$vector@VNeuron@@V?$allocator@VNeuron@@@std@@@0@AAV10@@Z ; std::forward<std::vector<Neuron,std::allocator<Neuron> > >
PUBLIC	??$_Emplace_back_with_unused_capacity@V?$vector@VNeuron@@V?$allocator@VNeuron@@@std@@@std@@@?$vector@V?$vector@VNeuron@@V?$allocator@VNeuron@@@std@@@std@@V?$allocator@V?$vector@VNeuron@@V?$allocator@VNeuron@@@std@@@std@@@2@@std@@AAEX$$QAV?$vector@VNeuron@@V?$allocator@VNeuron@@@std@@@1@@Z ; std::vector<std::vector<Neuron,std::allocator<Neuron> >,std::allocator<std::vector<Neuron,std::allocator<Neuron> > > >::_Emplace_back_with_unused_capacity<std::vector<Neuron,std::allocator<Neuron> > >
PUBLIC	??$_Unfancy@V?$vector@VNeuron@@V?$allocator@VNeuron@@@std@@@std@@@std@@YAPAV?$vector@VNeuron@@V?$allocator@VNeuron@@@std@@@0@PAV10@@Z ; std::_Unfancy<std::vector<Neuron,std::allocator<Neuron> > >
PUBLIC	??$construct@V?$vector@VNeuron@@V?$allocator@VNeuron@@@std@@@std@@V12@@?$_Default_allocator_traits@V?$allocator@V?$vector@VNeuron@@V?$allocator@VNeuron@@@std@@@std@@@std@@@std@@SAXAAV?$allocator@V?$vector@VNeuron@@V?$allocator@VNeuron@@@std@@@std@@@1@QAV?$vector@VNeuron@@V?$allocator@VNeuron@@@std@@@1@$$QAV31@@Z ; std::_Default_allocator_traits<std::allocator<std::vector<Neuron,std::allocator<Neuron> > > >::construct<std::vector<Neuron,std::allocator<Neuron> >,std::vector<Neuron,std::allocator<Neuron> > >
PUBLIC	??$destroy@V?$vector@VNeuron@@V?$allocator@VNeuron@@@std@@@std@@@?$_Default_allocator_traits@V?$allocator@V?$vector@VNeuron@@V?$allocator@VNeuron@@@std@@@std@@@std@@@std@@SAXAAV?$allocator@V?$vector@VNeuron@@V?$allocator@VNeuron@@@std@@@std@@@1@QAV?$vector@VNeuron@@V?$allocator@VNeuron@@@std@@@1@@Z ; std::_Default_allocator_traits<std::allocator<std::vector<Neuron,std::allocator<Neuron> > > >::destroy<std::vector<Neuron,std::allocator<Neuron> > >
PUBLIC	??$move@AAN@std@@YA$$QANAAN@Z			; std::move<double &>
PUBLIC	??$emplace_back@N@?$vector@NV?$allocator@N@std@@@std@@QAE@$$QAN@Z ; std::vector<double,std::allocator<double> >::emplace_back<double>
PUBLIC	??$forward@N@std@@YA$$QANAAN@Z			; std::forward<double>
PUBLIC	??$_Emplace_back_with_unused_capacity@N@?$vector@NV?$allocator@N@std@@@std@@AAEX$$QAN@Z ; std::vector<double,std::allocator<double> >::_Emplace_back_with_unused_capacity<double>
PUBLIC	??$_Unfancy@N@std@@YAPANPAN@Z			; std::_Unfancy<double>
PUBLIC	??$construct@NN@?$_Default_allocator_traits@V?$allocator@N@std@@@std@@SAXAAV?$allocator@N@1@QAN$$QAN@Z ; std::_Default_allocator_traits<std::allocator<double> >::construct<double,double>
PUBLIC	??$destroy@N@?$_Default_allocator_traits@V?$allocator@N@std@@@std@@SAXAAV?$allocator@N@1@QAN@Z ; std::_Default_allocator_traits<std::allocator<double> >::destroy<double>
PUBLIC	??$move@AAVNeuron@@@std@@YA$$QAVNeuron@@AAV1@@Z	; std::move<Neuron &>
PUBLIC	??$emplace_back@VNeuron@@@?$vector@VNeuron@@V?$allocator@VNeuron@@@std@@@std@@QAE@$$QAVNeuron@@@Z ; std::vector<Neuron,std::allocator<Neuron> >::emplace_back<Neuron>
PUBLIC	??$forward@VNeuron@@@std@@YA$$QAVNeuron@@AAV1@@Z ; std::forward<Neuron>
PUBLIC	??$_Emplace_back_with_unused_capacity@VNeuron@@@?$vector@VNeuron@@V?$allocator@VNeuron@@@std@@@std@@AAEX$$QAVNeuron@@@Z ; std::vector<Neuron,std::allocator<Neuron> >::_Emplace_back_with_unused_capacity<Neuron>
PUBLIC	??$_Unfancy@VNeuron@@@std@@YAPAVNeuron@@PAV1@@Z	; std::_Unfancy<Neuron>
PUBLIC	??$construct@VNeuron@@V1@@?$_Default_allocator_traits@V?$allocator@VNeuron@@@std@@@std@@SAXAAV?$allocator@VNeuron@@@1@QAVNeuron@@$$QAV3@@Z ; std::_Default_allocator_traits<std::allocator<Neuron> >::construct<Neuron,Neuron>
PUBLIC	??$destroy@VNeuron@@@?$_Default_allocator_traits@V?$allocator@VNeuron@@@std@@@std@@SAXAAV?$allocator@VNeuron@@@1@QAVNeuron@@@Z ; std::_Default_allocator_traits<std::allocator<Neuron> >::destroy<Neuron>
PUBLIC	??$?0$$V@?$_Compressed_pair@V?$allocator@VNeuron@@@std@@V?$_Vector_val@U?$_Simple_types@VNeuron@@@std@@@2@$00@std@@QAE@U_Zero_then_variadic_args_t@1@@Z ; std::_Compressed_pair<std::allocator<Neuron>,std::_Vector_val<std::_Simple_types<Neuron> >,1>::_Compressed_pair<std::allocator<Neuron>,std::_Vector_val<std::_Simple_types<Neuron> >,1><>
PUBLIC	??$?0$$V@?$_Compressed_pair@V?$allocator@V?$vector@VNeuron@@V?$allocator@VNeuron@@@std@@@std@@@std@@V?$_Vector_val@U?$_Simple_types@V?$vector@VNeuron@@V?$allocator@VNeuron@@@std@@@std@@@std@@@2@$00@std@@QAE@U_Zero_then_variadic_args_t@1@@Z ; std::_Compressed_pair<std::allocator<std::vector<Neuron,std::allocator<Neuron> > >,std::_Vector_val<std::_Simple_types<std::vector<Neuron,std::allocator<Neuron> > > >,1>::_Compressed_pair<std::allocator<std::vector<Neuron,std::allocator<Neuron> > >,std::_Vector_val<std::_Simple_types<std::vector<Neuron,std::allocator<Neuron> > > >,1><>
PUBLIC	??$_Min_value@I@std@@YAABIABI0@Z		; std::_Min_value<unsigned int>
PUBLIC	??$_Destroy_range@V?$allocator@N@std@@@std@@YAXPAN0AAV?$allocator@N@0@@Z ; std::_Destroy_range<std::allocator<double> >
PUBLIC	?allocate@?$allocator@U_Container_proxy@std@@@std@@QAEPAU_Container_proxy@2@I@Z ; std::allocator<std::_Container_proxy>::allocate
PUBLIC	??$?0VNeuron@@@?$allocator@U_Container_proxy@std@@@std@@QAE@ABV?$allocator@VNeuron@@@1@@Z ; std::allocator<std::_Container_proxy>::allocator<std::_Container_proxy><Neuron>
PUBLIC	?deallocate@?$_Default_allocator_traits@V?$allocator@U_Container_proxy@std@@@std@@@std@@SAXAAV?$allocator@U_Container_proxy@std@@@2@QAU_Container_proxy@2@I@Z ; std::_Default_allocator_traits<std::allocator<std::_Container_proxy> >::deallocate
PUBLIC	??$destroy@U_Container_proxy@std@@@?$_Default_allocator_traits@V?$allocator@U_Container_proxy@std@@@std@@@std@@SAXAAV?$allocator@U_Container_proxy@std@@@1@QAU_Container_proxy@1@@Z ; std::_Default_allocator_traits<std::allocator<std::_Container_proxy> >::destroy<std::_Container_proxy>
PUBLIC	??$_Deallocate_plain@V?$allocator@U_Container_proxy@std@@@std@@$0A@@std@@YAXAAV?$allocator@U_Container_proxy@std@@@0@QAU_Container_proxy@0@@Z ; std::_Deallocate_plain<std::allocator<std::_Container_proxy>,0>
PUBLIC	??$_Unfancy@U_Container_proxy@std@@@std@@YAPAU_Container_proxy@0@PAU10@@Z ; std::_Unfancy<std::_Container_proxy>
PUBLIC	??$construct@U_Container_proxy@std@@U12@@?$_Default_allocator_traits@V?$allocator@U_Container_proxy@std@@@std@@@std@@SAXAAV?$allocator@U_Container_proxy@std@@@1@QAU_Container_proxy@1@$$QAU31@@Z ; std::_Default_allocator_traits<std::allocator<std::_Container_proxy> >::construct<std::_Container_proxy,std::_Container_proxy>
PUBLIC	??$addressof@V?$_Vector_val@U?$_Simple_types@VNeuron@@@std@@@std@@@std@@YAPAV?$_Vector_val@U?$_Simple_types@VNeuron@@@std@@@0@AAV10@@Z ; std::addressof<std::_Vector_val<std::_Simple_types<Neuron> > >
PUBLIC	??$?0V?$vector@VNeuron@@V?$allocator@VNeuron@@@std@@@std@@@?$allocator@U_Container_proxy@std@@@std@@QAE@ABV?$allocator@V?$vector@VNeuron@@V?$allocator@VNeuron@@@std@@@std@@@1@@Z ; std::allocator<std::_Container_proxy>::allocator<std::_Container_proxy><std::vector<Neuron,std::allocator<Neuron> > >
PUBLIC	??$addressof@V?$_Vector_val@U?$_Simple_types@V?$vector@VNeuron@@V?$allocator@VNeuron@@@std@@@std@@@std@@@std@@@std@@YAPAV?$_Vector_val@U?$_Simple_types@V?$vector@VNeuron@@V?$allocator@VNeuron@@@std@@@std@@@std@@@0@AAV10@@Z ; std::addressof<std::_Vector_val<std::_Simple_types<std::vector<Neuron,std::allocator<Neuron> > > > >
PUBLIC	??$_Destroy_range@V?$allocator@V?$vector@VNeuron@@V?$allocator@VNeuron@@@std@@@std@@@std@@@std@@YAXPAV?$vector@VNeuron@@V?$allocator@VNeuron@@@std@@@0@0AAV?$allocator@V?$vector@VNeuron@@V?$allocator@VNeuron@@@std@@@std@@@0@@Z ; std::_Destroy_range<std::allocator<std::vector<Neuron,std::allocator<Neuron> > > >
PUBLIC	??$_Uninitialized_move@PAV?$vector@VNeuron@@V?$allocator@VNeuron@@@std@@@std@@PAV12@V?$allocator@V?$vector@VNeuron@@V?$allocator@VNeuron@@@std@@@std@@@2@@std@@YAPAV?$vector@VNeuron@@V?$allocator@VNeuron@@@std@@@0@PAV10@00AAV?$allocator@V?$vector@VNeuron@@V?$allocator@VNeuron@@@std@@@std@@@0@@Z ; std::_Uninitialized_move<std::vector<Neuron,std::allocator<Neuron> > *,std::vector<Neuron,std::allocator<Neuron> > *,std::allocator<std::vector<Neuron,std::allocator<Neuron> > > >
PUBLIC	??$_Uninitialized_move@PANPANV?$allocator@N@std@@@std@@YAPANPAN00AAV?$allocator@N@0@@Z ; std::_Uninitialized_move<double *,double *,std::allocator<double> >
PUBLIC	??$_Destroy_range@V?$allocator@VNeuron@@@std@@@std@@YAXPAVNeuron@@0AAV?$allocator@VNeuron@@@0@@Z ; std::_Destroy_range<std::allocator<Neuron> >
PUBLIC	??$_Uninitialized_copy@PAVNeuron@@PAV1@V?$allocator@VNeuron@@@std@@@std@@YAPAVNeuron@@PAV1@00AAV?$allocator@VNeuron@@@0@@Z ; std::_Uninitialized_copy<Neuron *,Neuron *,std::allocator<Neuron> >
PUBLIC	??$_Destroy_range1@V?$allocator@N@std@@@std@@YAXPAN0AAV?$allocator@N@0@U?$integral_constant@_N$00@0@@Z ; std::_Destroy_range1<std::allocator<double> >
PUBLIC	??$forward@U_Container_proxy@std@@@std@@YA$$QAU_Container_proxy@0@AAU10@@Z ; std::forward<std::_Container_proxy>
PUBLIC	??$_Destroy_range1@V?$allocator@V?$vector@VNeuron@@V?$allocator@VNeuron@@@std@@@std@@@std@@@std@@YAXPAV?$vector@VNeuron@@V?$allocator@VNeuron@@@std@@@0@0AAV?$allocator@V?$vector@VNeuron@@V?$allocator@VNeuron@@@std@@@std@@@0@U?$integral_constant@_N$0A@@0@@Z ; std::_Destroy_range1<std::allocator<std::vector<Neuron,std::allocator<Neuron> > > >
PUBLIC	??$_Unchecked@PAV?$vector@VNeuron@@V?$allocator@VNeuron@@@std@@@std@@@std@@YAPAV?$vector@VNeuron@@V?$allocator@VNeuron@@@std@@@0@PAV10@@Z ; std::_Unchecked<std::vector<Neuron,std::allocator<Neuron> > *>
PUBLIC	??$_Ptr_move_cat@V?$vector@VNeuron@@V?$allocator@VNeuron@@@std@@@std@@V12@@std@@YA?AU_General_ptr_iterator_tag@0@ABQAV?$vector@VNeuron@@V?$allocator@VNeuron@@@std@@@0@0@Z ; std::_Ptr_move_cat<std::vector<Neuron,std::allocator<Neuron> >,std::vector<Neuron,std::allocator<Neuron> > >
PUBLIC	??$_Uninitialized_move_al_unchecked@PAV?$vector@VNeuron@@V?$allocator@VNeuron@@@std@@@std@@PAV12@V?$allocator@V?$vector@VNeuron@@V?$allocator@VNeuron@@@std@@@std@@@2@@std@@YAPAV?$vector@VNeuron@@V?$allocator@VNeuron@@@std@@@0@PAV10@00AAV?$allocator@V?$vector@VNeuron@@V?$allocator@VNeuron@@@std@@@std@@@0@U_General_ptr_iterator_tag@0@U_Unused_parameter@0@@Z ; std::_Uninitialized_move_al_unchecked<std::vector<Neuron,std::allocator<Neuron> > *,std::vector<Neuron,std::allocator<Neuron> > *,std::allocator<std::vector<Neuron,std::allocator<Neuron> > > >
PUBLIC	??$?0U?$integral_constant@_N$00@std@@@_Unused_parameter@std@@QAE@$$QAU?$integral_constant@_N$00@1@@Z ; std::_Unused_parameter::_Unused_parameter<std::integral_constant<bool,1> >
PUBLIC	??$_Rechecked@PAV?$vector@VNeuron@@V?$allocator@VNeuron@@@std@@@std@@PAV12@@std@@YAAAPAV?$vector@VNeuron@@V?$allocator@VNeuron@@@std@@@0@AAPAV10@PAV10@@Z ; std::_Rechecked<std::vector<Neuron,std::allocator<Neuron> > *,std::vector<Neuron,std::allocator<Neuron> > *>
PUBLIC	??$_Unchecked@PAN@std@@YAPANPAN@Z		; std::_Unchecked<double *>
PUBLIC	??$_Ptr_move_cat@NN@std@@YA?AU_Really_trivial_ptr_iterator_tag@0@ABQAN0@Z ; std::_Ptr_move_cat<double,double>
PUBLIC	??$_Uninitialized_move_al_unchecked@NNV?$allocator@N@std@@@std@@YAPANPAN00AAV?$allocator@N@0@U_Really_trivial_ptr_iterator_tag@0@U?$integral_constant@_N$00@0@@Z ; std::_Uninitialized_move_al_unchecked<double,double,std::allocator<double> >
PUBLIC	??$_Rechecked@PANPAN@std@@YAAAPANAAPANPAN@Z	; std::_Rechecked<double *,double *>
PUBLIC	??$_Destroy_range1@V?$allocator@VNeuron@@@std@@@std@@YAXPAVNeuron@@0AAV?$allocator@VNeuron@@@0@U?$integral_constant@_N$0A@@0@@Z ; std::_Destroy_range1<std::allocator<Neuron> >
PUBLIC	??$_Unchecked@PAVNeuron@@@std@@YAPAVNeuron@@PAV1@@Z ; std::_Unchecked<Neuron *>
PUBLIC	??$_Ptr_copy_cat@VNeuron@@V1@@std@@YA?AU_General_ptr_iterator_tag@0@ABQAVNeuron@@0@Z ; std::_Ptr_copy_cat<Neuron,Neuron>
PUBLIC	??$_Uninitialized_copy_al_unchecked@PAVNeuron@@PAV1@V?$allocator@VNeuron@@@std@@@std@@YAPAVNeuron@@PAV1@00AAV?$allocator@VNeuron@@@0@U_General_ptr_iterator_tag@0@U_Unused_parameter@0@@Z ; std::_Uninitialized_copy_al_unchecked<Neuron *,Neuron *,std::allocator<Neuron> >
PUBLIC	??$_Rechecked@PAVNeuron@@PAV1@@std@@YAAAPAVNeuron@@AAPAV1@PAV1@@Z ; std::_Rechecked<Neuron *,Neuron *>
PUBLIC	??$?0V?$allocator@UConnection@@@std@@X@?$_Vector_alloc@U?$_Vec_base_types@UConnection@@V?$allocator@UConnection@@@std@@@std@@@std@@QAE@$$QAV?$allocator@UConnection@@@1@@Z ; std::_Vector_alloc<std::_Vec_base_types<Connection,std::allocator<Connection> > >::_Vector_alloc<std::_Vec_base_types<Connection,std::allocator<Connection> > ><std::allocator<Connection>,void>
PUBLIC	??$_Ucopy@PAUConnection@@@?$vector@UConnection@@V?$allocator@UConnection@@@std@@@std@@AAEPAUConnection@@PAU2@00@Z ; std::vector<Connection,std::allocator<Connection> >::_Ucopy<Connection *>
PUBLIC	??$move@AAV?$allocator@VNeuron@@@std@@@std@@YA$$QAV?$allocator@VNeuron@@@0@AAV10@@Z ; std::move<std::allocator<Neuron> &>
PUBLIC	??$?0V?$allocator@VNeuron@@@std@@X@?$_Vector_alloc@U?$_Vec_base_types@VNeuron@@V?$allocator@VNeuron@@@std@@@std@@@std@@QAE@$$QAV?$allocator@VNeuron@@@1@@Z ; std::_Vector_alloc<std::_Vec_base_types<Neuron,std::allocator<Neuron> > >::_Vector_alloc<std::_Vec_base_types<Neuron,std::allocator<Neuron> > ><std::allocator<Neuron>,void>
PUBLIC	??$?0UConnection@@@?$allocator@U_Container_proxy@std@@@std@@QAE@ABV?$allocator@UConnection@@@1@@Z ; std::allocator<std::_Container_proxy>::allocator<std::_Container_proxy><Connection>
PUBLIC	??$_Destroy_range@V?$allocator@UConnection@@@std@@@std@@YAXPAUConnection@@0AAV?$allocator@UConnection@@@0@@Z ; std::_Destroy_range<std::allocator<Connection> >
PUBLIC	??$_Copy_memmove@PANPAN@std@@YAPANPAN00@Z	; std::_Copy_memmove<double *,double *>
PUBLIC	??$construct@VNeuron@@AAV1@@?$_Default_allocator_traits@V?$allocator@VNeuron@@@std@@@std@@SAXAAV?$allocator@VNeuron@@@1@QAVNeuron@@AAV3@@Z ; std::_Default_allocator_traits<std::allocator<Neuron> >::construct<Neuron,Neuron &>
PUBLIC	??$forward@V?$allocator@UConnection@@@std@@@std@@YA$$QAV?$allocator@UConnection@@@0@AAV10@@Z ; std::forward<std::allocator<Connection> >
PUBLIC	??$?0V?$allocator@UConnection@@@std@@$$V@?$_Compressed_pair@V?$allocator@UConnection@@@std@@V?$_Vector_val@U?$_Simple_types@UConnection@@@std@@@2@$00@std@@QAE@U_One_then_variadic_args_t@1@$$QAV?$allocator@UConnection@@@1@@Z ; std::_Compressed_pair<std::allocator<Connection>,std::_Vector_val<std::_Simple_types<Connection> >,1>::_Compressed_pair<std::allocator<Connection>,std::_Vector_val<std::_Simple_types<Connection> >,1><std::allocator<Connection> >
PUBLIC	??$_Uninitialized_copy@PAUConnection@@PAU1@V?$allocator@UConnection@@@std@@@std@@YAPAUConnection@@PAU1@00AAV?$allocator@UConnection@@@0@@Z ; std::_Uninitialized_copy<Connection *,Connection *,std::allocator<Connection> >
PUBLIC	??$forward@V?$allocator@VNeuron@@@std@@@std@@YA$$QAV?$allocator@VNeuron@@@0@AAV10@@Z ; std::forward<std::allocator<Neuron> >
PUBLIC	??$?0V?$allocator@VNeuron@@@std@@$$V@?$_Compressed_pair@V?$allocator@VNeuron@@@std@@V?$_Vector_val@U?$_Simple_types@VNeuron@@@std@@@2@$00@std@@QAE@U_One_then_variadic_args_t@1@$$QAV?$allocator@VNeuron@@@1@@Z ; std::_Compressed_pair<std::allocator<Neuron>,std::_Vector_val<std::_Simple_types<Neuron> >,1>::_Compressed_pair<std::allocator<Neuron>,std::_Vector_val<std::_Simple_types<Neuron> >,1><std::allocator<Neuron> >
PUBLIC	??$_Destroy_range1@V?$allocator@UConnection@@@std@@@std@@YAXPAUConnection@@0AAV?$allocator@UConnection@@@0@U?$integral_constant@_N$00@0@@Z ; std::_Destroy_range1<std::allocator<Connection> >
PUBLIC	??$addressof@V?$_Vector_val@U?$_Simple_types@UConnection@@@std@@@std@@@std@@YAPAV?$_Vector_val@U?$_Simple_types@UConnection@@@std@@@0@AAV10@@Z ; std::addressof<std::_Vector_val<std::_Simple_types<Connection> > >
PUBLIC	??$forward@AAVNeuron@@@std@@YAAAVNeuron@@AAV1@@Z ; std::forward<Neuron &>
PUBLIC	??$_Unchecked@PAUConnection@@@std@@YAPAUConnection@@PAU1@@Z ; std::_Unchecked<Connection *>
PUBLIC	??$_Ptr_copy_cat@UConnection@@U1@@std@@YA?AU_Really_trivial_ptr_iterator_tag@0@ABQAUConnection@@0@Z ; std::_Ptr_copy_cat<Connection,Connection>
PUBLIC	??$_Uninitialized_copy_al_unchecked@UConnection@@U1@V?$allocator@UConnection@@@std@@@std@@YAPAUConnection@@PAU1@00AAV?$allocator@UConnection@@@0@U_Really_trivial_ptr_iterator_tag@0@U?$integral_constant@_N$00@0@@Z ; std::_Uninitialized_copy_al_unchecked<Connection,Connection,std::allocator<Connection> >
PUBLIC	??$_Rechecked@PAUConnection@@PAU1@@std@@YAAAPAUConnection@@AAPAU1@PAU1@@Z ; std::_Rechecked<Connection *,Connection *>
PUBLIC	??$_Copy_memmove@PAUConnection@@PAU1@@std@@YAPAUConnection@@PAU1@00@Z ; std::_Copy_memmove<Connection *,Connection *>
PUBLIC	??_C@_0BE@LMNLACIC@_Ptr_container?5?$CB?$DN?50?$AA@ ; `string'
PUBLIC	??_C@_1DG@HGDKEBPG@?$AA?$CC?$AA_?$AAP?$AAt?$AAr?$AA_?$AAc?$AAo?$AAn?$AAt?$AAa?$AAi?$AAn?$AAe?$AAr?$AA?5?$AA?$CB?$AA?$DN?$AA?5?$AA0?$AA?$CC?$AA?5?$AA?$CG?$AA?$CG?$AA?5?$AA0?$AA?$AA@ ; `string'
PUBLIC	??_C@_17CNPHIMPH@?$AA?$CF?$AAl?$AAs?$AA?$AA@	; `string'
PUBLIC	??_C@_1NC@LIFDFPCJ@?$AAC?$AA?3?$AA?2?$AAP?$AAr?$AAo?$AAg?$AAr?$AAa?$AAm?$AA?5?$AAF?$AAi?$AAl?$AAe?$AAs?$AA?5?$AA?$CI?$AAx?$AA8?$AA6?$AA?$CJ?$AA?2?$AAM?$AAi?$AAc?$AAr?$AAo?$AAs?$AAo?$AAf?$AAt@ ; `string'
PUBLIC	??_C@_1BO@NKFMJPA@?$AAs?$AAt?$AAd?$AA?3?$AA?3?$AA_?$AAA?$AAl?$AAl?$AAo?$AAc?$AAa?$AAt?$AAe?$AA?$AA@ ; `string'
PUBLIC	??_C@_1CG@JNLFBNGN@?$AA?$CC?$AAi?$AAn?$AAv?$AAa?$AAl?$AAi?$AAd?$AA?5?$AAa?$AAr?$AAg?$AAu?$AAm?$AAe?$AAn?$AAt?$AA?$CC?$AA?$AA@ ; `string'
PUBLIC	??_C@_09GLJCAGLP@_Ptr?5?$CB?$DN?50?$AA@		; `string'
PUBLIC	??_C@_1CC@GKJLLHIM@?$AA?$CC?$AA_?$AAP?$AAt?$AAr?$AA?5?$AA?$CB?$AA?$DN?$AA?5?$AA0?$AA?$CC?$AA?5?$AA?$CG?$AA?$CG?$AA?5?$AA0?$AA?$AA@ ; `string'
PUBLIC	??_C@_1CC@LOFJFFDB@?$AAs?$AAt?$AAd?$AA?3?$AA?3?$AA_?$AAD?$AAe?$AAa?$AAl?$AAl?$AAo?$AAc?$AAa?$AAt?$AAe?$AA?$AA@ ; `string'
PUBLIC	??_C@_1MO@PKCMDADL@?$AAC?$AA?3?$AA?2?$AAP?$AAr?$AAo?$AAg?$AAr?$AAa?$AAm?$AA?5?$AAF?$AAi?$AAl?$AAe?$AAs?$AA?5?$AA?$CI?$AAx?$AA8?$AA6?$AA?$CJ?$AA?2?$AAM?$AAi?$AAc?$AAr?$AAo?$AAs?$AAo?$AAf?$AAt@ ; `string'
PUBLIC	??_C@_1DM@ONDPIFDL@?$AAb?$AAa?$AAc?$AAk?$AA?$CI?$AA?$CJ?$AA?5?$AAc?$AAa?$AAl?$AAl?$AAe?$AAd?$AA?5?$AAo?$AAn?$AA?5?$AAe?$AAm?$AAp?$AAt?$AAy?$AA?5?$AAv?$AAe?$AAc?$AAt?$AAo?$AAr?$AA?$AA@ ; `string'
PUBLIC	??_C@_1BGG@JAANBMMO@?$AAs?$AAt?$AAd?$AA?3?$AA?3?$AAv?$AAe?$AAc?$AAt?$AAo?$AAr?$AA?$DM?$AAc?$AAl?$AAa?$AAs?$AAs?$AA?5?$AAs?$AAt?$AAd?$AA?3?$AA?3?$AAv?$AAe?$AAc?$AAt?$AAo?$AAr?$AA?$DM?$AAc?$AAl@ ; `string'
PUBLIC	??_C@_1EA@OBAHGFFK@?$AA?$CC?$AAb?$AAa?$AAc?$AAk?$AA?$CI?$AA?$CJ?$AA?5?$AAc?$AAa?$AAl?$AAl?$AAe?$AAd?$AA?5?$AAo?$AAn?$AA?5?$AAe?$AAm?$AAp?$AAt?$AAy?$AA?5?$AAv?$AAe?$AAc?$AAt?$AAo?$AAr?$AA?$CC?$AA?$AA@ ; `string'
PUBLIC	??_C@_1DM@LHGCHCBA@?$AAv?$AAe?$AAc?$AAt?$AAo?$AAr?$AA?5?$AAs?$AAu?$AAb?$AAs?$AAc?$AAr?$AAi?$AAp?$AAt?$AA?5?$AAo?$AAu?$AAt?$AA?5?$AAo?$AAf?$AA?5?$AAr?$AAa?$AAn?$AAg?$AAe?$AA?$AA@ ; `string'
PUBLIC	??_C@_1BHE@NMOOFJOG@?$AAs?$AAt?$AAd?$AA?3?$AA?3?$AAv?$AAe?$AAc?$AAt?$AAo?$AAr?$AA?$DM?$AAc?$AAl?$AAa?$AAs?$AAs?$AA?5?$AAs?$AAt?$AAd?$AA?3?$AA?3?$AAv?$AAe?$AAc?$AAt?$AAo?$AAr?$AA?$DM?$AAc?$AAl@ ; `string'
PUBLIC	??_C@_1EA@LEKOKFNB@?$AA?$CC?$AAv?$AAe?$AAc?$AAt?$AAo?$AAr?$AA?5?$AAs?$AAu?$AAb?$AAs?$AAc?$AAr?$AAi?$AAp?$AAt?$AA?5?$AAo?$AAu?$AAt?$AA?5?$AAo?$AAf?$AA?5?$AAr?$AAa?$AAn?$AAg?$AAe?$AA?$CC?$AA?$AA@ ; `string'
PUBLIC	??_C@_1HO@GLEAPAMD@?$AAs?$AAt?$AAd?$AA?3?$AA?3?$AAv?$AAe?$AAc?$AAt?$AAo?$AAr?$AA?$DM?$AAd?$AAo?$AAu?$AAb?$AAl?$AAe?$AA?0?$AAc?$AAl?$AAa?$AAs?$AAs?$AA?5?$AAs?$AAt?$AAd?$AA?3?$AA?3?$AAa?$AAl@ ; `string'
PUBLIC	??_C@_1JG@ILDNFCDK@?$AAs?$AAt?$AAd?$AA?3?$AA?3?$AAv?$AAe?$AAc?$AAt?$AAo?$AAr?$AA?$DM?$AAu?$AAn?$AAs?$AAi?$AAg?$AAn?$AAe?$AAd?$AA?5?$AAi?$AAn?$AAt?$AA?0?$AAc?$AAl?$AAa?$AAs?$AAs?$AA?5?$AAs@ ; `string'
PUBLIC	??_C@_1II@GDHAIEKJ@?$AAs?$AAt?$AAd?$AA?3?$AA?3?$AAv?$AAe?$AAc?$AAt?$AAo?$AAr?$AA?$DM?$AAc?$AAl?$AAa?$AAs?$AAs?$AA?5?$AAN?$AAe?$AAu?$AAr?$AAo?$AAn?$AA?0?$AAc?$AAl?$AAa?$AAs?$AAs?$AA?5?$AAs@ ; `string'
PUBLIC	??_C@_1JG@NBFEKNNI@?$AAs?$AAt?$AAd?$AA?3?$AA?3?$AAv?$AAe?$AAc?$AAt?$AAo?$AAr?$AA?$DM?$AAc?$AAl?$AAa?$AAs?$AAs?$AA?5?$AAN?$AAe?$AAu?$AAr?$AAo?$AAn?$AA?0?$AAc?$AAl?$AAa?$AAs?$AAs?$AA?5?$AAs@ ; `string'
PUBLIC	??_C@_0BD@OLBABOEK@vector?$DMT?$DO?5too?5long?$AA@ ; `string'
PUBLIC	__real@3ff0000000000000
PUBLIC	__xmm@41f00000000000000000000000000000
EXTRN	??2@YAPAXI@Z:PROC				; operator new
EXTRN	??3@YAXPAX@Z:PROC				; operator delete
EXTRN	??3@YAXPAXI@Z:PROC				; operator delete
EXTRN	__invalid_parameter:PROC
EXTRN	??0_Lockit@std@@QAE@H@Z:PROC			; std::_Lockit::_Lockit
EXTRN	??1_Lockit@std@@QAE@XZ:PROC			; std::_Lockit::~_Lockit
EXTRN	_sqrt:PROC
EXTRN	_memmove:PROC
EXTRN	__CrtDbgReportW:PROC
EXTRN	?_Debug_message@std@@YAXPB_W0I@Z:PROC		; std::_Debug_message
EXTRN	?_Xbad_alloc@std@@YAXXZ:PROC			; std::_Xbad_alloc
EXTRN	?_Xlength_error@std@@YAXPBD@Z:PROC		; std::_Xlength_error
EXTRN	??0Neuron@@QAE@II@Z:PROC			; Neuron::Neuron
EXTRN	??1Neuron@@QAE@XZ:PROC				; Neuron::~Neuron
EXTRN	?FeedForward@Neuron@@QAEXABV?$vector@VNeuron@@V?$allocator@VNeuron@@@std@@@std@@@Z:PROC ; Neuron::FeedForward
EXTRN	?CalcOutputGradients@Neuron@@QAEXN@Z:PROC	; Neuron::CalcOutputGradients
EXTRN	?CalcHiddenGradients@Neuron@@QAEXABV?$vector@VNeuron@@V?$allocator@VNeuron@@@std@@@std@@@Z:PROC ; Neuron::CalcHiddenGradients
EXTRN	?UpdateInputWeights@Neuron@@QAEXAAV?$vector@VNeuron@@V?$allocator@VNeuron@@@std@@@std@@@Z:PROC ; Neuron::UpdateInputWeights
EXTRN	__wassert:PROC
EXTRN	@_RTC_CheckStackVars@8:PROC
EXTRN	@__security_check_cookie@4:PROC
EXTRN	__CxxThrowException@8:PROC
EXTRN	__RTC_CheckEsp:PROC
EXTRN	__RTC_InitBase:PROC
EXTRN	__RTC_Shutdown:PROC
EXTRN	___CxxFrameHandler3:PROC
EXTRN	___security_cookie:DWORD
EXTRN	__fltused:DWORD
;	COMDAT __xmm@41f00000000000000000000000000000
CONST	SEGMENT
__xmm@41f00000000000000000000000000000 DB 00H, 00H, 00H, 00H, 00H, 00H, 00H
	DB	00H, 00H, 00H, 00H, 00H, 00H, 00H, 0f0H, 'A'
CONST	ENDS
;	COMDAT __real@3ff0000000000000
CONST	SEGMENT
__real@3ff0000000000000 DQ 03ff0000000000000r	; 1
CONST	ENDS
;	COMDAT rtc$TMZ
rtc$TMZ	SEGMENT
__RTC_Shutdown.rtc$TMZ DD FLAT:__RTC_Shutdown
rtc$TMZ	ENDS
;	COMDAT rtc$IMZ
rtc$IMZ	SEGMENT
__RTC_InitBase.rtc$IMZ DD FLAT:__RTC_InitBase
rtc$IMZ	ENDS
;	COMDAT ??_C@_0BD@OLBABOEK@vector?$DMT?$DO?5too?5long?$AA@
CONST	SEGMENT
??_C@_0BD@OLBABOEK@vector?$DMT?$DO?5too?5long?$AA@ DB 'vector<T> too long'
	DB	00H						; `string'
CONST	ENDS
;	COMDAT ??_C@_1JG@NBFEKNNI@?$AAs?$AAt?$AAd?$AA?3?$AA?3?$AAv?$AAe?$AAc?$AAt?$AAo?$AAr?$AA?$DM?$AAc?$AAl?$AAa?$AAs?$AAs?$AA?5?$AAN?$AAe?$AAu?$AAr?$AAo?$AAn?$AA?0?$AAc?$AAl?$AAa?$AAs?$AAs?$AA?5?$AAs@
CONST	SEGMENT
??_C@_1JG@NBFEKNNI@?$AAs?$AAt?$AAd?$AA?3?$AA?3?$AAv?$AAe?$AAc?$AAt?$AAo?$AAr?$AA?$DM?$AAc?$AAl?$AAa?$AAs?$AAs?$AA?5?$AAN?$AAe?$AAu?$AAr?$AAo?$AAn?$AA?0?$AAc?$AAl?$AAa?$AAs?$AAs?$AA?5?$AAs@ DB 's'
	DB	00H, 't', 00H, 'd', 00H, ':', 00H, ':', 00H, 'v', 00H, 'e', 00H
	DB	'c', 00H, 't', 00H, 'o', 00H, 'r', 00H, '<', 00H, 'c', 00H, 'l'
	DB	00H, 'a', 00H, 's', 00H, 's', 00H, ' ', 00H, 'N', 00H, 'e', 00H
	DB	'u', 00H, 'r', 00H, 'o', 00H, 'n', 00H, ',', 00H, 'c', 00H, 'l'
	DB	00H, 'a', 00H, 's', 00H, 's', 00H, ' ', 00H, 's', 00H, 't', 00H
	DB	'd', 00H, ':', 00H, ':', 00H, 'a', 00H, 'l', 00H, 'l', 00H, 'o'
	DB	00H, 'c', 00H, 'a', 00H, 't', 00H, 'o', 00H, 'r', 00H, '<', 00H
	DB	'c', 00H, 'l', 00H, 'a', 00H, 's', 00H, 's', 00H, ' ', 00H, 'N'
	DB	00H, 'e', 00H, 'u', 00H, 'r', 00H, 'o', 00H, 'n', 00H, '>', 00H
	DB	' ', 00H, '>', 00H, ':', 00H, ':', 00H, 'o', 00H, 'p', 00H, 'e'
	DB	00H, 'r', 00H, 'a', 00H, 't', 00H, 'o', 00H, 'r', 00H, ' ', 00H
	DB	'[', 00H, ']', 00H, 00H, 00H			; `string'
CONST	ENDS
;	COMDAT ??_C@_1II@GDHAIEKJ@?$AAs?$AAt?$AAd?$AA?3?$AA?3?$AAv?$AAe?$AAc?$AAt?$AAo?$AAr?$AA?$DM?$AAc?$AAl?$AAa?$AAs?$AAs?$AA?5?$AAN?$AAe?$AAu?$AAr?$AAo?$AAn?$AA?0?$AAc?$AAl?$AAa?$AAs?$AAs?$AA?5?$AAs@
CONST	SEGMENT
??_C@_1II@GDHAIEKJ@?$AAs?$AAt?$AAd?$AA?3?$AA?3?$AAv?$AAe?$AAc?$AAt?$AAo?$AAr?$AA?$DM?$AAc?$AAl?$AAa?$AAs?$AAs?$AA?5?$AAN?$AAe?$AAu?$AAr?$AAo?$AAn?$AA?0?$AAc?$AAl?$AAa?$AAs?$AAs?$AA?5?$AAs@ DB 's'
	DB	00H, 't', 00H, 'd', 00H, ':', 00H, ':', 00H, 'v', 00H, 'e', 00H
	DB	'c', 00H, 't', 00H, 'o', 00H, 'r', 00H, '<', 00H, 'c', 00H, 'l'
	DB	00H, 'a', 00H, 's', 00H, 's', 00H, ' ', 00H, 'N', 00H, 'e', 00H
	DB	'u', 00H, 'r', 00H, 'o', 00H, 'n', 00H, ',', 00H, 'c', 00H, 'l'
	DB	00H, 'a', 00H, 's', 00H, 's', 00H, ' ', 00H, 's', 00H, 't', 00H
	DB	'd', 00H, ':', 00H, ':', 00H, 'a', 00H, 'l', 00H, 'l', 00H, 'o'
	DB	00H, 'c', 00H, 'a', 00H, 't', 00H, 'o', 00H, 'r', 00H, '<', 00H
	DB	'c', 00H, 'l', 00H, 'a', 00H, 's', 00H, 's', 00H, ' ', 00H, 'N'
	DB	00H, 'e', 00H, 'u', 00H, 'r', 00H, 'o', 00H, 'n', 00H, '>', 00H
	DB	' ', 00H, '>', 00H, ':', 00H, ':', 00H, 'b', 00H, 'a', 00H, 'c'
	DB	00H, 'k', 00H, 00H, 00H			; `string'
CONST	ENDS
;	COMDAT ??_C@_1JG@ILDNFCDK@?$AAs?$AAt?$AAd?$AA?3?$AA?3?$AAv?$AAe?$AAc?$AAt?$AAo?$AAr?$AA?$DM?$AAu?$AAn?$AAs?$AAi?$AAg?$AAn?$AAe?$AAd?$AA?5?$AAi?$AAn?$AAt?$AA?0?$AAc?$AAl?$AAa?$AAs?$AAs?$AA?5?$AAs@
CONST	SEGMENT
??_C@_1JG@ILDNFCDK@?$AAs?$AAt?$AAd?$AA?3?$AA?3?$AAv?$AAe?$AAc?$AAt?$AAo?$AAr?$AA?$DM?$AAu?$AAn?$AAs?$AAi?$AAg?$AAn?$AAe?$AAd?$AA?5?$AAi?$AAn?$AAt?$AA?0?$AAc?$AAl?$AAa?$AAs?$AAs?$AA?5?$AAs@ DB 's'
	DB	00H, 't', 00H, 'd', 00H, ':', 00H, ':', 00H, 'v', 00H, 'e', 00H
	DB	'c', 00H, 't', 00H, 'o', 00H, 'r', 00H, '<', 00H, 'u', 00H, 'n'
	DB	00H, 's', 00H, 'i', 00H, 'g', 00H, 'n', 00H, 'e', 00H, 'd', 00H
	DB	' ', 00H, 'i', 00H, 'n', 00H, 't', 00H, ',', 00H, 'c', 00H, 'l'
	DB	00H, 'a', 00H, 's', 00H, 's', 00H, ' ', 00H, 's', 00H, 't', 00H
	DB	'd', 00H, ':', 00H, ':', 00H, 'a', 00H, 'l', 00H, 'l', 00H, 'o'
	DB	00H, 'c', 00H, 'a', 00H, 't', 00H, 'o', 00H, 'r', 00H, '<', 00H
	DB	'u', 00H, 'n', 00H, 's', 00H, 'i', 00H, 'g', 00H, 'n', 00H, 'e'
	DB	00H, 'd', 00H, ' ', 00H, 'i', 00H, 'n', 00H, 't', 00H, '>', 00H
	DB	' ', 00H, '>', 00H, ':', 00H, ':', 00H, 'o', 00H, 'p', 00H, 'e'
	DB	00H, 'r', 00H, 'a', 00H, 't', 00H, 'o', 00H, 'r', 00H, ' ', 00H
	DB	'[', 00H, ']', 00H, 00H, 00H			; `string'
CONST	ENDS
;	COMDAT ??_C@_1HO@GLEAPAMD@?$AAs?$AAt?$AAd?$AA?3?$AA?3?$AAv?$AAe?$AAc?$AAt?$AAo?$AAr?$AA?$DM?$AAd?$AAo?$AAu?$AAb?$AAl?$AAe?$AA?0?$AAc?$AAl?$AAa?$AAs?$AAs?$AA?5?$AAs?$AAt?$AAd?$AA?3?$AA?3?$AAa?$AAl@
CONST	SEGMENT
??_C@_1HO@GLEAPAMD@?$AAs?$AAt?$AAd?$AA?3?$AA?3?$AAv?$AAe?$AAc?$AAt?$AAo?$AAr?$AA?$DM?$AAd?$AAo?$AAu?$AAb?$AAl?$AAe?$AA?0?$AAc?$AAl?$AAa?$AAs?$AAs?$AA?5?$AAs?$AAt?$AAd?$AA?3?$AA?3?$AAa?$AAl@ DB 's'
	DB	00H, 't', 00H, 'd', 00H, ':', 00H, ':', 00H, 'v', 00H, 'e', 00H
	DB	'c', 00H, 't', 00H, 'o', 00H, 'r', 00H, '<', 00H, 'd', 00H, 'o'
	DB	00H, 'u', 00H, 'b', 00H, 'l', 00H, 'e', 00H, ',', 00H, 'c', 00H
	DB	'l', 00H, 'a', 00H, 's', 00H, 's', 00H, ' ', 00H, 's', 00H, 't'
	DB	00H, 'd', 00H, ':', 00H, ':', 00H, 'a', 00H, 'l', 00H, 'l', 00H
	DB	'o', 00H, 'c', 00H, 'a', 00H, 't', 00H, 'o', 00H, 'r', 00H, '<'
	DB	00H, 'd', 00H, 'o', 00H, 'u', 00H, 'b', 00H, 'l', 00H, 'e', 00H
	DB	'>', 00H, ' ', 00H, '>', 00H, ':', 00H, ':', 00H, 'o', 00H, 'p'
	DB	00H, 'e', 00H, 'r', 00H, 'a', 00H, 't', 00H, 'o', 00H, 'r', 00H
	DB	' ', 00H, '[', 00H, ']', 00H, 00H, 00H	; `string'
CONST	ENDS
;	COMDAT ??_C@_1EA@LEKOKFNB@?$AA?$CC?$AAv?$AAe?$AAc?$AAt?$AAo?$AAr?$AA?5?$AAs?$AAu?$AAb?$AAs?$AAc?$AAr?$AAi?$AAp?$AAt?$AA?5?$AAo?$AAu?$AAt?$AA?5?$AAo?$AAf?$AA?5?$AAr?$AAa?$AAn?$AAg?$AAe?$AA?$CC?$AA?$AA@
CONST	SEGMENT
??_C@_1EA@LEKOKFNB@?$AA?$CC?$AAv?$AAe?$AAc?$AAt?$AAo?$AAr?$AA?5?$AAs?$AAu?$AAb?$AAs?$AAc?$AAr?$AAi?$AAp?$AAt?$AA?5?$AAo?$AAu?$AAt?$AA?5?$AAo?$AAf?$AA?5?$AAr?$AAa?$AAn?$AAg?$AAe?$AA?$CC?$AA?$AA@ DB '"'
	DB	00H, 'v', 00H, 'e', 00H, 'c', 00H, 't', 00H, 'o', 00H, 'r', 00H
	DB	' ', 00H, 's', 00H, 'u', 00H, 'b', 00H, 's', 00H, 'c', 00H, 'r'
	DB	00H, 'i', 00H, 'p', 00H, 't', 00H, ' ', 00H, 'o', 00H, 'u', 00H
	DB	't', 00H, ' ', 00H, 'o', 00H, 'f', 00H, ' ', 00H, 'r', 00H, 'a'
	DB	00H, 'n', 00H, 'g', 00H, 'e', 00H, '"', 00H, 00H, 00H ; `string'
CONST	ENDS
;	COMDAT ??_C@_1BHE@NMOOFJOG@?$AAs?$AAt?$AAd?$AA?3?$AA?3?$AAv?$AAe?$AAc?$AAt?$AAo?$AAr?$AA?$DM?$AAc?$AAl?$AAa?$AAs?$AAs?$AA?5?$AAs?$AAt?$AAd?$AA?3?$AA?3?$AAv?$AAe?$AAc?$AAt?$AAo?$AAr?$AA?$DM?$AAc?$AAl@
CONST	SEGMENT
??_C@_1BHE@NMOOFJOG@?$AAs?$AAt?$AAd?$AA?3?$AA?3?$AAv?$AAe?$AAc?$AAt?$AAo?$AAr?$AA?$DM?$AAc?$AAl?$AAa?$AAs?$AAs?$AA?5?$AAs?$AAt?$AAd?$AA?3?$AA?3?$AAv?$AAe?$AAc?$AAt?$AAo?$AAr?$AA?$DM?$AAc?$AAl@ DB 's'
	DB	00H, 't', 00H, 'd', 00H, ':', 00H, ':', 00H, 'v', 00H, 'e', 00H
	DB	'c', 00H, 't', 00H, 'o', 00H, 'r', 00H, '<', 00H, 'c', 00H, 'l'
	DB	00H, 'a', 00H, 's', 00H, 's', 00H, ' ', 00H, 's', 00H, 't', 00H
	DB	'd', 00H, ':', 00H, ':', 00H, 'v', 00H, 'e', 00H, 'c', 00H, 't'
	DB	00H, 'o', 00H, 'r', 00H, '<', 00H, 'c', 00H, 'l', 00H, 'a', 00H
	DB	's', 00H, 's', 00H, ' ', 00H, 'N', 00H, 'e', 00H, 'u', 00H, 'r'
	DB	00H, 'o', 00H, 'n', 00H, ',', 00H, 'c', 00H, 'l', 00H, 'a', 00H
	DB	's', 00H, 's', 00H, ' ', 00H, 's', 00H, 't', 00H, 'd', 00H, ':'
	DB	00H, ':', 00H, 'a', 00H, 'l', 00H, 'l', 00H, 'o', 00H, 'c', 00H
	DB	'a', 00H, 't', 00H, 'o', 00H, 'r', 00H, '<', 00H, 'c', 00H, 'l'
	DB	00H, 'a', 00H, 's', 00H, 's', 00H, ' ', 00H, 'N', 00H, 'e', 00H
	DB	'u', 00H, 'r', 00H, 'o', 00H, 'n', 00H, '>', 00H, ' ', 00H, '>'
	DB	00H, ',', 00H, 'c', 00H, 'l', 00H, 'a', 00H, 's', 00H, 's', 00H
	DB	' ', 00H, 's', 00H, 't', 00H, 'd', 00H, ':', 00H, ':', 00H, 'a'
	DB	00H, 'l', 00H, 'l', 00H, 'o', 00H, 'c', 00H, 'a', 00H, 't', 00H
	DB	'o', 00H, 'r', 00H, '<', 00H, 'c', 00H, 'l', 00H, 'a', 00H, 's'
	DB	00H, 's', 00H, ' ', 00H, 's', 00H, 't', 00H, 'd', 00H, ':', 00H
	DB	':', 00H, 'v', 00H, 'e', 00H, 'c', 00H, 't', 00H, 'o', 00H, 'r'
	DB	00H, '<', 00H, 'c', 00H, 'l', 00H, 'a', 00H, 's', 00H, 's', 00H
	DB	' ', 00H, 'N', 00H, 'e', 00H, 'u', 00H, 'r', 00H, 'o', 00H, 'n'
	DB	00H, ',', 00H, 'c', 00H, 'l', 00H, 'a', 00H, 's', 00H, 's', 00H
	DB	' ', 00H, 's', 00H, 't', 00H, 'd', 00H, ':', 00H, ':', 00H, 'a'
	DB	00H, 'l', 00H, 'l', 00H, 'o', 00H, 'c', 00H, 'a', 00H, 't', 00H
	DB	'o', 00H, 'r', 00H, '<', 00H, 'c', 00H, 'l', 00H, 'a', 00H, 's'
	DB	00H, 's', 00H, ' ', 00H, 'N', 00H, 'e', 00H, 'u', 00H, 'r', 00H
	DB	'o', 00H, 'n', 00H, '>', 00H, ' ', 00H, '>', 00H, ' ', 00H, '>'
	DB	00H, ' ', 00H, '>', 00H, ':', 00H, ':', 00H, 'o', 00H, 'p', 00H
	DB	'e', 00H, 'r', 00H, 'a', 00H, 't', 00H, 'o', 00H, 'r', 00H, ' '
	DB	00H, '[', 00H, ']', 00H, 00H, 00H		; `string'
CONST	ENDS
;	COMDAT ??_C@_1DM@LHGCHCBA@?$AAv?$AAe?$AAc?$AAt?$AAo?$AAr?$AA?5?$AAs?$AAu?$AAb?$AAs?$AAc?$AAr?$AAi?$AAp?$AAt?$AA?5?$AAo?$AAu?$AAt?$AA?5?$AAo?$AAf?$AA?5?$AAr?$AAa?$AAn?$AAg?$AAe?$AA?$AA@
CONST	SEGMENT
??_C@_1DM@LHGCHCBA@?$AAv?$AAe?$AAc?$AAt?$AAo?$AAr?$AA?5?$AAs?$AAu?$AAb?$AAs?$AAc?$AAr?$AAi?$AAp?$AAt?$AA?5?$AAo?$AAu?$AAt?$AA?5?$AAo?$AAf?$AA?5?$AAr?$AAa?$AAn?$AAg?$AAe?$AA?$AA@ DB 'v'
	DB	00H, 'e', 00H, 'c', 00H, 't', 00H, 'o', 00H, 'r', 00H, ' ', 00H
	DB	's', 00H, 'u', 00H, 'b', 00H, 's', 00H, 'c', 00H, 'r', 00H, 'i'
	DB	00H, 'p', 00H, 't', 00H, ' ', 00H, 'o', 00H, 'u', 00H, 't', 00H
	DB	' ', 00H, 'o', 00H, 'f', 00H, ' ', 00H, 'r', 00H, 'a', 00H, 'n'
	DB	00H, 'g', 00H, 'e', 00H, 00H, 00H		; `string'
CONST	ENDS
;	COMDAT ??_C@_1EA@OBAHGFFK@?$AA?$CC?$AAb?$AAa?$AAc?$AAk?$AA?$CI?$AA?$CJ?$AA?5?$AAc?$AAa?$AAl?$AAl?$AAe?$AAd?$AA?5?$AAo?$AAn?$AA?5?$AAe?$AAm?$AAp?$AAt?$AAy?$AA?5?$AAv?$AAe?$AAc?$AAt?$AAo?$AAr?$AA?$CC?$AA?$AA@
CONST	SEGMENT
??_C@_1EA@OBAHGFFK@?$AA?$CC?$AAb?$AAa?$AAc?$AAk?$AA?$CI?$AA?$CJ?$AA?5?$AAc?$AAa?$AAl?$AAl?$AAe?$AAd?$AA?5?$AAo?$AAn?$AA?5?$AAe?$AAm?$AAp?$AAt?$AAy?$AA?5?$AAv?$AAe?$AAc?$AAt?$AAo?$AAr?$AA?$CC?$AA?$AA@ DB '"'
	DB	00H, 'b', 00H, 'a', 00H, 'c', 00H, 'k', 00H, '(', 00H, ')', 00H
	DB	' ', 00H, 'c', 00H, 'a', 00H, 'l', 00H, 'l', 00H, 'e', 00H, 'd'
	DB	00H, ' ', 00H, 'o', 00H, 'n', 00H, ' ', 00H, 'e', 00H, 'm', 00H
	DB	'p', 00H, 't', 00H, 'y', 00H, ' ', 00H, 'v', 00H, 'e', 00H, 'c'
	DB	00H, 't', 00H, 'o', 00H, 'r', 00H, '"', 00H, 00H, 00H ; `string'
CONST	ENDS
;	COMDAT ??_C@_1BGG@JAANBMMO@?$AAs?$AAt?$AAd?$AA?3?$AA?3?$AAv?$AAe?$AAc?$AAt?$AAo?$AAr?$AA?$DM?$AAc?$AAl?$AAa?$AAs?$AAs?$AA?5?$AAs?$AAt?$AAd?$AA?3?$AA?3?$AAv?$AAe?$AAc?$AAt?$AAo?$AAr?$AA?$DM?$AAc?$AAl@
CONST	SEGMENT
??_C@_1BGG@JAANBMMO@?$AAs?$AAt?$AAd?$AA?3?$AA?3?$AAv?$AAe?$AAc?$AAt?$AAo?$AAr?$AA?$DM?$AAc?$AAl?$AAa?$AAs?$AAs?$AA?5?$AAs?$AAt?$AAd?$AA?3?$AA?3?$AAv?$AAe?$AAc?$AAt?$AAo?$AAr?$AA?$DM?$AAc?$AAl@ DB 's'
	DB	00H, 't', 00H, 'd', 00H, ':', 00H, ':', 00H, 'v', 00H, 'e', 00H
	DB	'c', 00H, 't', 00H, 'o', 00H, 'r', 00H, '<', 00H, 'c', 00H, 'l'
	DB	00H, 'a', 00H, 's', 00H, 's', 00H, ' ', 00H, 's', 00H, 't', 00H
	DB	'd', 00H, ':', 00H, ':', 00H, 'v', 00H, 'e', 00H, 'c', 00H, 't'
	DB	00H, 'o', 00H, 'r', 00H, '<', 00H, 'c', 00H, 'l', 00H, 'a', 00H
	DB	's', 00H, 's', 00H, ' ', 00H, 'N', 00H, 'e', 00H, 'u', 00H, 'r'
	DB	00H, 'o', 00H, 'n', 00H, ',', 00H, 'c', 00H, 'l', 00H, 'a', 00H
	DB	's', 00H, 's', 00H, ' ', 00H, 's', 00H, 't', 00H, 'd', 00H, ':'
	DB	00H, ':', 00H, 'a', 00H, 'l', 00H, 'l', 00H, 'o', 00H, 'c', 00H
	DB	'a', 00H, 't', 00H, 'o', 00H, 'r', 00H, '<', 00H, 'c', 00H, 'l'
	DB	00H, 'a', 00H, 's', 00H, 's', 00H, ' ', 00H, 'N', 00H, 'e', 00H
	DB	'u', 00H, 'r', 00H, 'o', 00H, 'n', 00H, '>', 00H, ' ', 00H, '>'
	DB	00H, ',', 00H, 'c', 00H, 'l', 00H, 'a', 00H, 's', 00H, 's', 00H
	DB	' ', 00H, 's', 00H, 't', 00H, 'd', 00H, ':', 00H, ':', 00H, 'a'
	DB	00H, 'l', 00H, 'l', 00H, 'o', 00H, 'c', 00H, 'a', 00H, 't', 00H
	DB	'o', 00H, 'r', 00H, '<', 00H, 'c', 00H, 'l', 00H, 'a', 00H, 's'
	DB	00H, 's', 00H, ' ', 00H, 's', 00H, 't', 00H, 'd', 00H, ':', 00H
	DB	':', 00H, 'v', 00H, 'e', 00H, 'c', 00H, 't', 00H, 'o', 00H, 'r'
	DB	00H, '<', 00H, 'c', 00H, 'l', 00H, 'a', 00H, 's', 00H, 's', 00H
	DB	' ', 00H, 'N', 00H, 'e', 00H, 'u', 00H, 'r', 00H, 'o', 00H, 'n'
	DB	00H, ',', 00H, 'c', 00H, 'l', 00H, 'a', 00H, 's', 00H, 's', 00H
	DB	' ', 00H, 's', 00H, 't', 00H, 'd', 00H, ':', 00H, ':', 00H, 'a'
	DB	00H, 'l', 00H, 'l', 00H, 'o', 00H, 'c', 00H, 'a', 00H, 't', 00H
	DB	'o', 00H, 'r', 00H, '<', 00H, 'c', 00H, 'l', 00H, 'a', 00H, 's'
	DB	00H, 's', 00H, ' ', 00H, 'N', 00H, 'e', 00H, 'u', 00H, 'r', 00H
	DB	'o', 00H, 'n', 00H, '>', 00H, ' ', 00H, '>', 00H, ' ', 00H, '>'
	DB	00H, ' ', 00H, '>', 00H, ':', 00H, ':', 00H, 'b', 00H, 'a', 00H
	DB	'c', 00H, 'k', 00H, 00H, 00H			; `string'
CONST	ENDS
;	COMDAT ??_C@_1DM@ONDPIFDL@?$AAb?$AAa?$AAc?$AAk?$AA?$CI?$AA?$CJ?$AA?5?$AAc?$AAa?$AAl?$AAl?$AAe?$AAd?$AA?5?$AAo?$AAn?$AA?5?$AAe?$AAm?$AAp?$AAt?$AAy?$AA?5?$AAv?$AAe?$AAc?$AAt?$AAo?$AAr?$AA?$AA@
CONST	SEGMENT
??_C@_1DM@ONDPIFDL@?$AAb?$AAa?$AAc?$AAk?$AA?$CI?$AA?$CJ?$AA?5?$AAc?$AAa?$AAl?$AAl?$AAe?$AAd?$AA?5?$AAo?$AAn?$AA?5?$AAe?$AAm?$AAp?$AAt?$AAy?$AA?5?$AAv?$AAe?$AAc?$AAt?$AAo?$AAr?$AA?$AA@ DB 'b'
	DB	00H, 'a', 00H, 'c', 00H, 'k', 00H, '(', 00H, ')', 00H, ' ', 00H
	DB	'c', 00H, 'a', 00H, 'l', 00H, 'l', 00H, 'e', 00H, 'd', 00H, ' '
	DB	00H, 'o', 00H, 'n', 00H, ' ', 00H, 'e', 00H, 'm', 00H, 'p', 00H
	DB	't', 00H, 'y', 00H, ' ', 00H, 'v', 00H, 'e', 00H, 'c', 00H, 't'
	DB	00H, 'o', 00H, 'r', 00H, 00H, 00H		; `string'
CONST	ENDS
;	COMDAT ??_C@_1MO@PKCMDADL@?$AAC?$AA?3?$AA?2?$AAP?$AAr?$AAo?$AAg?$AAr?$AAa?$AAm?$AA?5?$AAF?$AAi?$AAl?$AAe?$AAs?$AA?5?$AA?$CI?$AAx?$AA8?$AA6?$AA?$CJ?$AA?2?$AAM?$AAi?$AAc?$AAr?$AAo?$AAs?$AAo?$AAf?$AAt@
CONST	SEGMENT
??_C@_1MO@PKCMDADL@?$AAC?$AA?3?$AA?2?$AAP?$AAr?$AAo?$AAg?$AAr?$AAa?$AAm?$AA?5?$AAF?$AAi?$AAl?$AAe?$AAs?$AA?5?$AA?$CI?$AAx?$AA8?$AA6?$AA?$CJ?$AA?2?$AAM?$AAi?$AAc?$AAr?$AAo?$AAs?$AAo?$AAf?$AAt@ DB 'C'
	DB	00H, ':', 00H, '\', 00H, 'P', 00H, 'r', 00H, 'o', 00H, 'g', 00H
	DB	'r', 00H, 'a', 00H, 'm', 00H, ' ', 00H, 'F', 00H, 'i', 00H, 'l'
	DB	00H, 'e', 00H, 's', 00H, ' ', 00H, '(', 00H, 'x', 00H, '8', 00H
	DB	'6', 00H, ')', 00H, '\', 00H, 'M', 00H, 'i', 00H, 'c', 00H, 'r'
	DB	00H, 'o', 00H, 's', 00H, 'o', 00H, 'f', 00H, 't', 00H, ' ', 00H
	DB	'V', 00H, 'i', 00H, 's', 00H, 'u', 00H, 'a', 00H, 'l', 00H, ' '
	DB	00H, 'S', 00H, 't', 00H, 'u', 00H, 'd', 00H, 'i', 00H, 'o', 00H
	DB	'\', 00H, '2', 00H, '0', 00H, '1', 00H, '7', 00H, '\', 00H, 'C'
	DB	00H, 'o', 00H, 'm', 00H, 'm', 00H, 'u', 00H, 'n', 00H, 'i', 00H
	DB	't', 00H, 'y', 00H, '\', 00H, 'V', 00H, 'C', 00H, '\', 00H, 'T'
	DB	00H, 'o', 00H, 'o', 00H, 'l', 00H, 's', 00H, '\', 00H, 'M', 00H
	DB	'S', 00H, 'V', 00H, 'C', 00H, '\', 00H, '1', 00H, '4', 00H, '.'
	DB	00H, '1', 00H, '1', 00H, '.', 00H, '2', 00H, '5', 00H, '5', 00H
	DB	'0', 00H, '3', 00H, '\', 00H, 'i', 00H, 'n', 00H, 'c', 00H, 'l'
	DB	00H, 'u', 00H, 'd', 00H, 'e', 00H, '\', 00H, 'v', 00H, 'e', 00H
	DB	'c', 00H, 't', 00H, 'o', 00H, 'r', 00H, 00H, 00H ; `string'
CONST	ENDS
;	COMDAT ??_C@_1CC@LOFJFFDB@?$AAs?$AAt?$AAd?$AA?3?$AA?3?$AA_?$AAD?$AAe?$AAa?$AAl?$AAl?$AAo?$AAc?$AAa?$AAt?$AAe?$AA?$AA@
CONST	SEGMENT
??_C@_1CC@LOFJFFDB@?$AAs?$AAt?$AAd?$AA?3?$AA?3?$AA_?$AAD?$AAe?$AAa?$AAl?$AAl?$AAo?$AAc?$AAa?$AAt?$AAe?$AA?$AA@ DB 's'
	DB	00H, 't', 00H, 'd', 00H, ':', 00H, ':', 00H, '_', 00H, 'D', 00H
	DB	'e', 00H, 'a', 00H, 'l', 00H, 'l', 00H, 'o', 00H, 'c', 00H, 'a'
	DB	00H, 't', 00H, 'e', 00H, 00H, 00H		; `string'
CONST	ENDS
;	COMDAT ??_C@_1CC@GKJLLHIM@?$AA?$CC?$AA_?$AAP?$AAt?$AAr?$AA?5?$AA?$CB?$AA?$DN?$AA?5?$AA0?$AA?$CC?$AA?5?$AA?$CG?$AA?$CG?$AA?5?$AA0?$AA?$AA@
CONST	SEGMENT
??_C@_1CC@GKJLLHIM@?$AA?$CC?$AA_?$AAP?$AAt?$AAr?$AA?5?$AA?$CB?$AA?$DN?$AA?5?$AA0?$AA?$CC?$AA?5?$AA?$CG?$AA?$CG?$AA?5?$AA0?$AA?$AA@ DB '"'
	DB	00H, '_', 00H, 'P', 00H, 't', 00H, 'r', 00H, ' ', 00H, '!', 00H
	DB	'=', 00H, ' ', 00H, '0', 00H, '"', 00H, ' ', 00H, '&', 00H, '&'
	DB	00H, ' ', 00H, '0', 00H, 00H, 00H		; `string'
CONST	ENDS
;	COMDAT ??_C@_09GLJCAGLP@_Ptr?5?$CB?$DN?50?$AA@
CONST	SEGMENT
??_C@_09GLJCAGLP@_Ptr?5?$CB?$DN?50?$AA@ DB '_Ptr != 0', 00H ; `string'
CONST	ENDS
;	COMDAT ??_C@_1CG@JNLFBNGN@?$AA?$CC?$AAi?$AAn?$AAv?$AAa?$AAl?$AAi?$AAd?$AA?5?$AAa?$AAr?$AAg?$AAu?$AAm?$AAe?$AAn?$AAt?$AA?$CC?$AA?$AA@
CONST	SEGMENT
??_C@_1CG@JNLFBNGN@?$AA?$CC?$AAi?$AAn?$AAv?$AAa?$AAl?$AAi?$AAd?$AA?5?$AAa?$AAr?$AAg?$AAu?$AAm?$AAe?$AAn?$AAt?$AA?$CC?$AA?$AA@ DB '"'
	DB	00H, 'i', 00H, 'n', 00H, 'v', 00H, 'a', 00H, 'l', 00H, 'i', 00H
	DB	'd', 00H, ' ', 00H, 'a', 00H, 'r', 00H, 'g', 00H, 'u', 00H, 'm'
	DB	00H, 'e', 00H, 'n', 00H, 't', 00H, '"', 00H, 00H, 00H ; `string'
CONST	ENDS
;	COMDAT ??_C@_1BO@NKFMJPA@?$AAs?$AAt?$AAd?$AA?3?$AA?3?$AA_?$AAA?$AAl?$AAl?$AAo?$AAc?$AAa?$AAt?$AAe?$AA?$AA@
CONST	SEGMENT
??_C@_1BO@NKFMJPA@?$AAs?$AAt?$AAd?$AA?3?$AA?3?$AA_?$AAA?$AAl?$AAl?$AAo?$AAc?$AAa?$AAt?$AAe?$AA?$AA@ DB 's'
	DB	00H, 't', 00H, 'd', 00H, ':', 00H, ':', 00H, '_', 00H, 'A', 00H
	DB	'l', 00H, 'l', 00H, 'o', 00H, 'c', 00H, 'a', 00H, 't', 00H, 'e'
	DB	00H, 00H, 00H				; `string'
CONST	ENDS
;	COMDAT ??_C@_1NC@LIFDFPCJ@?$AAC?$AA?3?$AA?2?$AAP?$AAr?$AAo?$AAg?$AAr?$AAa?$AAm?$AA?5?$AAF?$AAi?$AAl?$AAe?$AAs?$AA?5?$AA?$CI?$AAx?$AA8?$AA6?$AA?$CJ?$AA?2?$AAM?$AAi?$AAc?$AAr?$AAo?$AAs?$AAo?$AAf?$AAt@
CONST	SEGMENT
??_C@_1NC@LIFDFPCJ@?$AAC?$AA?3?$AA?2?$AAP?$AAr?$AAo?$AAg?$AAr?$AAa?$AAm?$AA?5?$AAF?$AAi?$AAl?$AAe?$AAs?$AA?5?$AA?$CI?$AAx?$AA8?$AA6?$AA?$CJ?$AA?2?$AAM?$AAi?$AAc?$AAr?$AAo?$AAs?$AAo?$AAf?$AAt@ DB 'C'
	DB	00H, ':', 00H, '\', 00H, 'P', 00H, 'r', 00H, 'o', 00H, 'g', 00H
	DB	'r', 00H, 'a', 00H, 'm', 00H, ' ', 00H, 'F', 00H, 'i', 00H, 'l'
	DB	00H, 'e', 00H, 's', 00H, ' ', 00H, '(', 00H, 'x', 00H, '8', 00H
	DB	'6', 00H, ')', 00H, '\', 00H, 'M', 00H, 'i', 00H, 'c', 00H, 'r'
	DB	00H, 'o', 00H, 's', 00H, 'o', 00H, 'f', 00H, 't', 00H, ' ', 00H
	DB	'V', 00H, 'i', 00H, 's', 00H, 'u', 00H, 'a', 00H, 'l', 00H, ' '
	DB	00H, 'S', 00H, 't', 00H, 'u', 00H, 'd', 00H, 'i', 00H, 'o', 00H
	DB	'\', 00H, '2', 00H, '0', 00H, '1', 00H, '7', 00H, '\', 00H, 'C'
	DB	00H, 'o', 00H, 'm', 00H, 'm', 00H, 'u', 00H, 'n', 00H, 'i', 00H
	DB	't', 00H, 'y', 00H, '\', 00H, 'V', 00H, 'C', 00H, '\', 00H, 'T'
	DB	00H, 'o', 00H, 'o', 00H, 'l', 00H, 's', 00H, '\', 00H, 'M', 00H
	DB	'S', 00H, 'V', 00H, 'C', 00H, '\', 00H, '1', 00H, '4', 00H, '.'
	DB	00H, '1', 00H, '1', 00H, '.', 00H, '2', 00H, '5', 00H, '5', 00H
	DB	'0', 00H, '3', 00H, '\', 00H, 'i', 00H, 'n', 00H, 'c', 00H, 'l'
	DB	00H, 'u', 00H, 'd', 00H, 'e', 00H, '\', 00H, 'x', 00H, 'm', 00H
	DB	'e', 00H, 'm', 00H, 'o', 00H, 'r', 00H, 'y', 00H, '0', 00H, 00H
	DB	00H						; `string'
CONST	ENDS
;	COMDAT ??_C@_17CNPHIMPH@?$AA?$CF?$AAl?$AAs?$AA?$AA@
CONST	SEGMENT
??_C@_17CNPHIMPH@?$AA?$CF?$AAl?$AAs?$AA?$AA@ DB '%', 00H, 'l', 00H, 's', 00H
	DB	00H, 00H					; `string'
CONST	ENDS
;	COMDAT ??_C@_1DG@HGDKEBPG@?$AA?$CC?$AA_?$AAP?$AAt?$AAr?$AA_?$AAc?$AAo?$AAn?$AAt?$AAa?$AAi?$AAn?$AAe?$AAr?$AA?5?$AA?$CB?$AA?$DN?$AA?5?$AA0?$AA?$CC?$AA?5?$AA?$CG?$AA?$CG?$AA?5?$AA0?$AA?$AA@
CONST	SEGMENT
??_C@_1DG@HGDKEBPG@?$AA?$CC?$AA_?$AAP?$AAt?$AAr?$AA_?$AAc?$AAo?$AAn?$AAt?$AAa?$AAi?$AAn?$AAe?$AAr?$AA?5?$AA?$CB?$AA?$DN?$AA?5?$AA0?$AA?$CC?$AA?5?$AA?$CG?$AA?$CG?$AA?5?$AA0?$AA?$AA@ DB '"'
	DB	00H, '_', 00H, 'P', 00H, 't', 00H, 'r', 00H, '_', 00H, 'c', 00H
	DB	'o', 00H, 'n', 00H, 't', 00H, 'a', 00H, 'i', 00H, 'n', 00H, 'e'
	DB	00H, 'r', 00H, ' ', 00H, '!', 00H, '=', 00H, ' ', 00H, '0', 00H
	DB	'"', 00H, ' ', 00H, '&', 00H, '&', 00H, ' ', 00H, '0', 00H, 00H
	DB	00H						; `string'
CONST	ENDS
;	COMDAT ??_C@_0BE@LMNLACIC@_Ptr_container?5?$CB?$DN?50?$AA@
CONST	SEGMENT
??_C@_0BE@LMNLACIC@_Ptr_container?5?$CB?$DN?50?$AA@ DB '_Ptr_container !='
	DB	' 0', 00H					; `string'
CONST	ENDS
;	COMDAT xdata$x
xdata$x	SEGMENT
__unwindtable$??$construct@VNeuron@@AAV1@@?$_Default_allocator_traits@V?$allocator@VNeuron@@@std@@@std@@SAXAAV?$allocator@VNeuron@@@1@QAVNeuron@@AAV3@@Z DD 0ffffffffH
	DD	FLAT:__unwindfunclet$??$construct@VNeuron@@AAV1@@?$_Default_allocator_traits@V?$allocator@VNeuron@@@std@@@std@@SAXAAV?$allocator@VNeuron@@@1@QAVNeuron@@AAV3@@Z$0
__ehfuncinfo$??$construct@VNeuron@@AAV1@@?$_Default_allocator_traits@V?$allocator@VNeuron@@@std@@@std@@SAXAAV?$allocator@VNeuron@@@1@QAVNeuron@@AAV3@@Z DD 019930522H
	DD	01H
	DD	FLAT:__unwindtable$??$construct@VNeuron@@AAV1@@?$_Default_allocator_traits@V?$allocator@VNeuron@@@std@@@std@@SAXAAV?$allocator@VNeuron@@@1@QAVNeuron@@AAV3@@Z
	DD	2 DUP(00H)
	DD	2 DUP(00H)
	DD	00H
	DD	01H
xdata$x	ENDS
;	COMDAT xdata$x
xdata$x	SEGMENT
__unwindtable$??$?0V?$allocator@VNeuron@@@std@@X@?$_Vector_alloc@U?$_Vec_base_types@VNeuron@@V?$allocator@VNeuron@@@std@@@std@@@std@@QAE@$$QAV?$allocator@VNeuron@@@1@@Z DD 0ffffffffH
	DD	FLAT:__unwindfunclet$??$?0V?$allocator@VNeuron@@@std@@X@?$_Vector_alloc@U?$_Vec_base_types@VNeuron@@V?$allocator@VNeuron@@@std@@@std@@@std@@QAE@$$QAV?$allocator@VNeuron@@@1@@Z$0
__ehfuncinfo$??$?0V?$allocator@VNeuron@@@std@@X@?$_Vector_alloc@U?$_Vec_base_types@VNeuron@@V?$allocator@VNeuron@@@std@@@std@@@std@@QAE@$$QAV?$allocator@VNeuron@@@1@@Z DD 019930522H
	DD	01H
	DD	FLAT:__unwindtable$??$?0V?$allocator@VNeuron@@@std@@X@?$_Vector_alloc@U?$_Vec_base_types@VNeuron@@V?$allocator@VNeuron@@@std@@@std@@@std@@QAE@$$QAV?$allocator@VNeuron@@@1@@Z
	DD	2 DUP(00H)
	DD	2 DUP(00H)
	DD	00H
	DD	01H
xdata$x	ENDS
;	COMDAT xdata$x
xdata$x	SEGMENT
__unwindtable$??$?0V?$allocator@UConnection@@@std@@X@?$_Vector_alloc@U?$_Vec_base_types@UConnection@@V?$allocator@UConnection@@@std@@@std@@@std@@QAE@$$QAV?$allocator@UConnection@@@1@@Z DD 0ffffffffH
	DD	FLAT:__unwindfunclet$??$?0V?$allocator@UConnection@@@std@@X@?$_Vector_alloc@U?$_Vec_base_types@UConnection@@V?$allocator@UConnection@@@std@@@std@@@std@@QAE@$$QAV?$allocator@UConnection@@@1@@Z$0
__ehfuncinfo$??$?0V?$allocator@UConnection@@@std@@X@?$_Vector_alloc@U?$_Vec_base_types@UConnection@@V?$allocator@UConnection@@@std@@@std@@@std@@QAE@$$QAV?$allocator@UConnection@@@1@@Z DD 019930522H
	DD	01H
	DD	FLAT:__unwindtable$??$?0V?$allocator@UConnection@@@std@@X@?$_Vector_alloc@U?$_Vec_base_types@UConnection@@V?$allocator@UConnection@@@std@@@std@@@std@@QAE@$$QAV?$allocator@UConnection@@@1@@Z
	DD	2 DUP(00H)
	DD	2 DUP(00H)
	DD	00H
	DD	01H
xdata$x	ENDS
;	COMDAT xdata$x
xdata$x	SEGMENT
__catchsym$??$_Uninitialized_copy_al_unchecked@PAVNeuron@@PAV1@V?$allocator@VNeuron@@@std@@@std@@YAPAVNeuron@@PAV1@00AAV?$allocator@VNeuron@@@0@U_General_ptr_iterator_tag@0@U_Unused_parameter@0@@Z$2 DD 040H
	DD	00H
	DD	00H
	DD	FLAT:__catch$??$_Uninitialized_copy_al_unchecked@PAVNeuron@@PAV1@V?$allocator@VNeuron@@@std@@@std@@YAPAVNeuron@@PAV1@00AAV?$allocator@VNeuron@@@0@U_General_ptr_iterator_tag@0@U_Unused_parameter@0@@Z$0
__unwindtable$??$_Uninitialized_copy_al_unchecked@PAVNeuron@@PAV1@V?$allocator@VNeuron@@@std@@@std@@YAPAVNeuron@@PAV1@00AAV?$allocator@VNeuron@@@0@U_General_ptr_iterator_tag@0@U_Unused_parameter@0@@Z DD 0ffffffffH
	DD	00H
	DD	0ffffffffH
	DD	00H
__tryblocktable$??$_Uninitialized_copy_al_unchecked@PAVNeuron@@PAV1@V?$allocator@VNeuron@@@std@@@std@@YAPAVNeuron@@PAV1@00AAV?$allocator@VNeuron@@@0@U_General_ptr_iterator_tag@0@U_Unused_parameter@0@@Z DD 00H
	DD	00H
	DD	01H
	DD	01H
	DD	FLAT:__catchsym$??$_Uninitialized_copy_al_unchecked@PAVNeuron@@PAV1@V?$allocator@VNeuron@@@std@@@std@@YAPAVNeuron@@PAV1@00AAV?$allocator@VNeuron@@@0@U_General_ptr_iterator_tag@0@U_Unused_parameter@0@@Z$2
__ehfuncinfo$??$_Uninitialized_copy_al_unchecked@PAVNeuron@@PAV1@V?$allocator@VNeuron@@@std@@@std@@YAPAVNeuron@@PAV1@00AAV?$allocator@VNeuron@@@0@U_General_ptr_iterator_tag@0@U_Unused_parameter@0@@Z DD 019930522H
	DD	02H
	DD	FLAT:__unwindtable$??$_Uninitialized_copy_al_unchecked@PAVNeuron@@PAV1@V?$allocator@VNeuron@@@std@@@std@@YAPAVNeuron@@PAV1@00AAV?$allocator@VNeuron@@@0@U_General_ptr_iterator_tag@0@U_Unused_parameter@0@@Z
	DD	01H
	DD	FLAT:__tryblocktable$??$_Uninitialized_copy_al_unchecked@PAVNeuron@@PAV1@V?$allocator@VNeuron@@@std@@@std@@YAPAVNeuron@@PAV1@00AAV?$allocator@VNeuron@@@0@U_General_ptr_iterator_tag@0@U_Unused_parameter@0@@Z
	DD	2 DUP(00H)
	DD	00H
	DD	01H
xdata$x	ENDS
;	COMDAT xdata$x
xdata$x	SEGMENT
__catchsym$??$_Uninitialized_move_al_unchecked@PAV?$vector@VNeuron@@V?$allocator@VNeuron@@@std@@@std@@PAV12@V?$allocator@V?$vector@VNeuron@@V?$allocator@VNeuron@@@std@@@std@@@2@@std@@YAPAV?$vector@VNeuron@@V?$allocator@VNeuron@@@std@@@0@PAV10@00AAV?$allocator@V?$vector@VNeuron@@V?$allocator@VNeuron@@@std@@@std@@@0@U_General_ptr_iterator_tag@0@U_Unused_parameter@0@@Z$2 DD 040H
	DD	00H
	DD	00H
	DD	FLAT:__catch$??$_Uninitialized_move_al_unchecked@PAV?$vector@VNeuron@@V?$allocator@VNeuron@@@std@@@std@@PAV12@V?$allocator@V?$vector@VNeuron@@V?$allocator@VNeuron@@@std@@@std@@@2@@std@@YAPAV?$vector@VNeuron@@V?$allocator@VNeuron@@@std@@@0@PAV10@00AAV?$allocator@V?$vector@VNeuron@@V?$allocator@VNeuron@@@std@@@std@@@0@U_General_ptr_iterator_tag@0@U_Unused_parameter@0@@Z$0
__unwindtable$??$_Uninitialized_move_al_unchecked@PAV?$vector@VNeuron@@V?$allocator@VNeuron@@@std@@@std@@PAV12@V?$allocator@V?$vector@VNeuron@@V?$allocator@VNeuron@@@std@@@std@@@2@@std@@YAPAV?$vector@VNeuron@@V?$allocator@VNeuron@@@std@@@0@PAV10@00AAV?$allocator@V?$vector@VNeuron@@V?$allocator@VNeuron@@@std@@@std@@@0@U_General_ptr_iterator_tag@0@U_Unused_parameter@0@@Z DD 0ffffffffH
	DD	00H
	DD	0ffffffffH
	DD	00H
__tryblocktable$??$_Uninitialized_move_al_unchecked@PAV?$vector@VNeuron@@V?$allocator@VNeuron@@@std@@@std@@PAV12@V?$allocator@V?$vector@VNeuron@@V?$allocator@VNeuron@@@std@@@std@@@2@@std@@YAPAV?$vector@VNeuron@@V?$allocator@VNeuron@@@std@@@0@PAV10@00AAV?$allocator@V?$vector@VNeuron@@V?$allocator@VNeuron@@@std@@@std@@@0@U_General_ptr_iterator_tag@0@U_Unused_parameter@0@@Z DD 00H
	DD	00H
	DD	01H
	DD	01H
	DD	FLAT:__catchsym$??$_Uninitialized_move_al_unchecked@PAV?$vector@VNeuron@@V?$allocator@VNeuron@@@std@@@std@@PAV12@V?$allocator@V?$vector@VNeuron@@V?$allocator@VNeuron@@@std@@@std@@@2@@std@@YAPAV?$vector@VNeuron@@V?$allocator@VNeuron@@@std@@@0@PAV10@00AAV?$allocator@V?$vector@VNeuron@@V?$allocator@VNeuron@@@std@@@std@@@0@U_General_ptr_iterator_tag@0@U_Unused_parameter@0@@Z$2
__ehfuncinfo$??$_Uninitialized_move_al_unchecked@PAV?$vector@VNeuron@@V?$allocator@VNeuron@@@std@@@std@@PAV12@V?$allocator@V?$vector@VNeuron@@V?$allocator@VNeuron@@@std@@@std@@@2@@std@@YAPAV?$vector@VNeuron@@V?$allocator@VNeuron@@@std@@@0@PAV10@00AAV?$allocator@V?$vector@VNeuron@@V?$allocator@VNeuron@@@std@@@std@@@0@U_General_ptr_iterator_tag@0@U_Unused_parameter@0@@Z DD 019930522H
	DD	02H
	DD	FLAT:__unwindtable$??$_Uninitialized_move_al_unchecked@PAV?$vector@VNeuron@@V?$allocator@VNeuron@@@std@@@std@@PAV12@V?$allocator@V?$vector@VNeuron@@V?$allocator@VNeuron@@@std@@@std@@@2@@std@@YAPAV?$vector@VNeuron@@V?$allocator@VNeuron@@@std@@@0@PAV10@00AAV?$allocator@V?$vector@VNeuron@@V?$allocator@VNeuron@@@std@@@std@@@0@U_General_ptr_iterator_tag@0@U_Unused_parameter@0@@Z
	DD	01H
	DD	FLAT:__tryblocktable$??$_Uninitialized_move_al_unchecked@PAV?$vector@VNeuron@@V?$allocator@VNeuron@@@std@@@std@@PAV12@V?$allocator@V?$vector@VNeuron@@V?$allocator@VNeuron@@@std@@@std@@@2@@std@@YAPAV?$vector@VNeuron@@V?$allocator@VNeuron@@@std@@@0@PAV10@00AAV?$allocator@V?$vector@VNeuron@@V?$allocator@VNeuron@@@std@@@std@@@0@U_General_ptr_iterator_tag@0@U_Unused_parameter@0@@Z
	DD	2 DUP(00H)
	DD	00H
	DD	01H
xdata$x	ENDS
;	COMDAT xdata$x
xdata$x	SEGMENT
__unwindtable$??$construct@VNeuron@@V1@@?$_Default_allocator_traits@V?$allocator@VNeuron@@@std@@@std@@SAXAAV?$allocator@VNeuron@@@1@QAVNeuron@@$$QAV3@@Z DD 0ffffffffH
	DD	FLAT:__unwindfunclet$??$construct@VNeuron@@V1@@?$_Default_allocator_traits@V?$allocator@VNeuron@@@std@@@std@@SAXAAV?$allocator@VNeuron@@@1@QAVNeuron@@$$QAV3@@Z$0
__ehfuncinfo$??$construct@VNeuron@@V1@@?$_Default_allocator_traits@V?$allocator@VNeuron@@@std@@@std@@SAXAAV?$allocator@VNeuron@@@1@QAVNeuron@@$$QAV3@@Z DD 019930522H
	DD	01H
	DD	FLAT:__unwindtable$??$construct@VNeuron@@V1@@?$_Default_allocator_traits@V?$allocator@VNeuron@@@std@@@std@@SAXAAV?$allocator@VNeuron@@@1@QAVNeuron@@$$QAV3@@Z
	DD	2 DUP(00H)
	DD	2 DUP(00H)
	DD	00H
	DD	01H
xdata$x	ENDS
;	COMDAT xdata$x
xdata$x	SEGMENT
__catchsym$??$emplace_back@VNeuron@@@?$vector@VNeuron@@V?$allocator@VNeuron@@@std@@@std@@QAE@$$QAVNeuron@@@Z$2 DD 040H
	DD	00H
	DD	00H
	DD	FLAT:__catch$??$emplace_back@VNeuron@@@?$vector@VNeuron@@V?$allocator@VNeuron@@@std@@@std@@QAE@$$QAVNeuron@@@Z$0
__unwindtable$??$emplace_back@VNeuron@@@?$vector@VNeuron@@V?$allocator@VNeuron@@@std@@@std@@QAE@$$QAVNeuron@@@Z DD 0ffffffffH
	DD	00H
	DD	0ffffffffH
	DD	00H
__tryblocktable$??$emplace_back@VNeuron@@@?$vector@VNeuron@@V?$allocator@VNeuron@@@std@@@std@@QAE@$$QAVNeuron@@@Z DD 00H
	DD	00H
	DD	01H
	DD	01H
	DD	FLAT:__catchsym$??$emplace_back@VNeuron@@@?$vector@VNeuron@@V?$allocator@VNeuron@@@std@@@std@@QAE@$$QAVNeuron@@@Z$2
__ehfuncinfo$??$emplace_back@VNeuron@@@?$vector@VNeuron@@V?$allocator@VNeuron@@@std@@@std@@QAE@$$QAVNeuron@@@Z DD 019930522H
	DD	02H
	DD	FLAT:__unwindtable$??$emplace_back@VNeuron@@@?$vector@VNeuron@@V?$allocator@VNeuron@@@std@@@std@@QAE@$$QAVNeuron@@@Z
	DD	01H
	DD	FLAT:__tryblocktable$??$emplace_back@VNeuron@@@?$vector@VNeuron@@V?$allocator@VNeuron@@@std@@@std@@QAE@$$QAVNeuron@@@Z
	DD	2 DUP(00H)
	DD	00H
	DD	01H
xdata$x	ENDS
;	COMDAT xdata$x
xdata$x	SEGMENT
__catchsym$??$emplace_back@N@?$vector@NV?$allocator@N@std@@@std@@QAE@$$QAN@Z$2 DD 040H
	DD	00H
	DD	00H
	DD	FLAT:__catch$??$emplace_back@N@?$vector@NV?$allocator@N@std@@@std@@QAE@$$QAN@Z$0
__unwindtable$??$emplace_back@N@?$vector@NV?$allocator@N@std@@@std@@QAE@$$QAN@Z DD 0ffffffffH
	DD	00H
	DD	0ffffffffH
	DD	00H
__tryblocktable$??$emplace_back@N@?$vector@NV?$allocator@N@std@@@std@@QAE@$$QAN@Z DD 00H
	DD	00H
	DD	01H
	DD	01H
	DD	FLAT:__catchsym$??$emplace_back@N@?$vector@NV?$allocator@N@std@@@std@@QAE@$$QAN@Z$2
__ehfuncinfo$??$emplace_back@N@?$vector@NV?$allocator@N@std@@@std@@QAE@$$QAN@Z DD 019930522H
	DD	02H
	DD	FLAT:__unwindtable$??$emplace_back@N@?$vector@NV?$allocator@N@std@@@std@@QAE@$$QAN@Z
	DD	01H
	DD	FLAT:__tryblocktable$??$emplace_back@N@?$vector@NV?$allocator@N@std@@@std@@QAE@$$QAN@Z
	DD	2 DUP(00H)
	DD	00H
	DD	01H
xdata$x	ENDS
;	COMDAT xdata$x
xdata$x	SEGMENT
__catchsym$??$emplace_back@V?$vector@VNeuron@@V?$allocator@VNeuron@@@std@@@std@@@?$vector@V?$vector@VNeuron@@V?$allocator@VNeuron@@@std@@@std@@V?$allocator@V?$vector@VNeuron@@V?$allocator@VNeuron@@@std@@@std@@@2@@std@@QAE@$$QAV?$vector@VNeuron@@V?$allocator@VNeuron@@@std@@@1@@Z$2 DD 040H
	DD	00H
	DD	00H
	DD	FLAT:__catch$??$emplace_back@V?$vector@VNeuron@@V?$allocator@VNeuron@@@std@@@std@@@?$vector@V?$vector@VNeuron@@V?$allocator@VNeuron@@@std@@@std@@V?$allocator@V?$vector@VNeuron@@V?$allocator@VNeuron@@@std@@@std@@@2@@std@@QAE@$$QAV?$vector@VNeuron@@V?$allocator@VNeuron@@@std@@@1@@Z$0
__unwindtable$??$emplace_back@V?$vector@VNeuron@@V?$allocator@VNeuron@@@std@@@std@@@?$vector@V?$vector@VNeuron@@V?$allocator@VNeuron@@@std@@@std@@V?$allocator@V?$vector@VNeuron@@V?$allocator@VNeuron@@@std@@@std@@@2@@std@@QAE@$$QAV?$vector@VNeuron@@V?$allocator@VNeuron@@@std@@@1@@Z DD 0ffffffffH
	DD	00H
	DD	0ffffffffH
	DD	00H
__tryblocktable$??$emplace_back@V?$vector@VNeuron@@V?$allocator@VNeuron@@@std@@@std@@@?$vector@V?$vector@VNeuron@@V?$allocator@VNeuron@@@std@@@std@@V?$allocator@V?$vector@VNeuron@@V?$allocator@VNeuron@@@std@@@std@@@2@@std@@QAE@$$QAV?$vector@VNeuron@@V?$allocator@VNeuron@@@std@@@1@@Z DD 00H
	DD	00H
	DD	01H
	DD	01H
	DD	FLAT:__catchsym$??$emplace_back@V?$vector@VNeuron@@V?$allocator@VNeuron@@@std@@@std@@@?$vector@V?$vector@VNeuron@@V?$allocator@VNeuron@@@std@@@std@@V?$allocator@V?$vector@VNeuron@@V?$allocator@VNeuron@@@std@@@std@@@2@@std@@QAE@$$QAV?$vector@VNeuron@@V?$allocator@VNeuron@@@std@@@1@@Z$2
__ehfuncinfo$??$emplace_back@V?$vector@VNeuron@@V?$allocator@VNeuron@@@std@@@std@@@?$vector@V?$vector@VNeuron@@V?$allocator@VNeuron@@@std@@@std@@V?$allocator@V?$vector@VNeuron@@V?$allocator@VNeuron@@@std@@@std@@@2@@std@@QAE@$$QAV?$vector@VNeuron@@V?$allocator@VNeuron@@@std@@@1@@Z DD 019930522H
	DD	02H
	DD	FLAT:__unwindtable$??$emplace_back@V?$vector@VNeuron@@V?$allocator@VNeuron@@@std@@@std@@@?$vector@V?$vector@VNeuron@@V?$allocator@VNeuron@@@std@@@std@@V?$allocator@V?$vector@VNeuron@@V?$allocator@VNeuron@@@std@@@std@@@2@@std@@QAE@$$QAV?$vector@VNeuron@@V?$allocator@VNeuron@@@std@@@1@@Z
	DD	01H
	DD	FLAT:__tryblocktable$??$emplace_back@V?$vector@VNeuron@@V?$allocator@VNeuron@@@std@@@std@@@?$vector@V?$vector@VNeuron@@V?$allocator@VNeuron@@@std@@@std@@V?$allocator@V?$vector@VNeuron@@V?$allocator@VNeuron@@@std@@@std@@@2@@std@@QAE@$$QAV?$vector@VNeuron@@V?$allocator@VNeuron@@@std@@@1@@Z
	DD	2 DUP(00H)
	DD	00H
	DD	01H
xdata$x	ENDS
;	COMDAT xdata$x
xdata$x	SEGMENT
__unwindtable$?_Orphan_range@?$vector@NV?$allocator@N@std@@@std@@ABEXPAN0@Z DD 0ffffffffH
	DD	FLAT:__unwindfunclet$?_Orphan_range@?$vector@NV?$allocator@N@std@@@std@@ABEXPAN0@Z$0
__ehfuncinfo$?_Orphan_range@?$vector@NV?$allocator@N@std@@@std@@ABEXPAN0@Z DD 019930522H
	DD	01H
	DD	FLAT:__unwindtable$?_Orphan_range@?$vector@NV?$allocator@N@std@@@std@@ABEXPAN0@Z
	DD	2 DUP(00H)
	DD	2 DUP(00H)
	DD	00H
	DD	01H
xdata$x	ENDS
;	COMDAT xdata$x
xdata$x	SEGMENT
__ehfuncinfo$?clear@?$vector@NV?$allocator@N@std@@@std@@QAEXXZ DD 019930522H
	DD	00H
	DD	00H
	DD	2 DUP(00H)
	DD	2 DUP(00H)
	DD	00H
	DD	05H
xdata$x	ENDS
;	COMDAT xdata$x
xdata$x	SEGMENT
__unwindtable$?_Orphan_range@?$vector@VNeuron@@V?$allocator@VNeuron@@@std@@@std@@ABEXPAVNeuron@@0@Z DD 0ffffffffH
	DD	FLAT:__unwindfunclet$?_Orphan_range@?$vector@VNeuron@@V?$allocator@VNeuron@@@std@@@std@@ABEXPAVNeuron@@0@Z$0
__ehfuncinfo$?_Orphan_range@?$vector@VNeuron@@V?$allocator@VNeuron@@@std@@@std@@ABEXPAVNeuron@@0@Z DD 019930522H
	DD	01H
	DD	FLAT:__unwindtable$?_Orphan_range@?$vector@VNeuron@@V?$allocator@VNeuron@@@std@@@std@@ABEXPAVNeuron@@0@Z
	DD	2 DUP(00H)
	DD	2 DUP(00H)
	DD	00H
	DD	01H
xdata$x	ENDS
;	COMDAT xdata$x
xdata$x	SEGMENT
__ehfuncinfo$??1?$vector@VNeuron@@V?$allocator@VNeuron@@@std@@@std@@QAE@XZ DD 019930522H
	DD	00H
	DD	00H
	DD	2 DUP(00H)
	DD	2 DUP(00H)
	DD	00H
	DD	05H
xdata$x	ENDS
;	COMDAT xdata$x
xdata$x	SEGMENT
__ehfuncinfo$??0?$vector@VNeuron@@V?$allocator@VNeuron@@@std@@@std@@QAE@$$QAV01@@Z DD 019930522H
	DD	00H
	DD	00H
	DD	2 DUP(00H)
	DD	2 DUP(00H)
	DD	00H
	DD	05H
xdata$x	ENDS
;	COMDAT xdata$x
xdata$x	SEGMENT
__ehfuncinfo$??0?$vector@VNeuron@@V?$allocator@VNeuron@@@std@@@std@@QAE@XZ DD 019930522H
	DD	00H
	DD	00H
	DD	2 DUP(00H)
	DD	2 DUP(00H)
	DD	00H
	DD	05H
xdata$x	ENDS
;	COMDAT xdata$x
xdata$x	SEGMENT
__ehfuncinfo$??1?$_Vector_alloc@U?$_Vec_base_types@VNeuron@@V?$allocator@VNeuron@@@std@@@std@@@std@@QAE@XZ DD 019930522H
	DD	00H
	DD	00H
	DD	2 DUP(00H)
	DD	2 DUP(00H)
	DD	00H
	DD	05H
xdata$x	ENDS
;	COMDAT xdata$x
xdata$x	SEGMENT
__unwindtable$??0?$_Vector_alloc@U?$_Vec_base_types@VNeuron@@V?$allocator@VNeuron@@@std@@@std@@@std@@QAE@XZ DD 0ffffffffH
	DD	FLAT:__unwindfunclet$??0?$_Vector_alloc@U?$_Vec_base_types@VNeuron@@V?$allocator@VNeuron@@@std@@@std@@@std@@QAE@XZ$0
__ehfuncinfo$??0?$_Vector_alloc@U?$_Vec_base_types@VNeuron@@V?$allocator@VNeuron@@@std@@@std@@@std@@QAE@XZ DD 019930522H
	DD	01H
	DD	FLAT:__unwindtable$??0?$_Vector_alloc@U?$_Vec_base_types@VNeuron@@V?$allocator@VNeuron@@@std@@@std@@@std@@QAE@XZ
	DD	2 DUP(00H)
	DD	2 DUP(00H)
	DD	00H
	DD	01H
xdata$x	ENDS
;	COMDAT xdata$x
xdata$x	SEGMENT
__unwindtable$?_Orphan_range@?$vector@V?$vector@VNeuron@@V?$allocator@VNeuron@@@std@@@std@@V?$allocator@V?$vector@VNeuron@@V?$allocator@VNeuron@@@std@@@std@@@2@@std@@ABEXPAV?$vector@VNeuron@@V?$allocator@VNeuron@@@std@@@2@0@Z DD 0ffffffffH
	DD	FLAT:__unwindfunclet$?_Orphan_range@?$vector@V?$vector@VNeuron@@V?$allocator@VNeuron@@@std@@@std@@V?$allocator@V?$vector@VNeuron@@V?$allocator@VNeuron@@@std@@@std@@@2@@std@@ABEXPAV?$vector@VNeuron@@V?$allocator@VNeuron@@@std@@@2@0@Z$0
__ehfuncinfo$?_Orphan_range@?$vector@V?$vector@VNeuron@@V?$allocator@VNeuron@@@std@@@std@@V?$allocator@V?$vector@VNeuron@@V?$allocator@VNeuron@@@std@@@std@@@2@@std@@ABEXPAV?$vector@VNeuron@@V?$allocator@VNeuron@@@std@@@2@0@Z DD 019930522H
	DD	01H
	DD	FLAT:__unwindtable$?_Orphan_range@?$vector@V?$vector@VNeuron@@V?$allocator@VNeuron@@@std@@@std@@V?$allocator@V?$vector@VNeuron@@V?$allocator@VNeuron@@@std@@@std@@@2@@std@@ABEXPAV?$vector@VNeuron@@V?$allocator@VNeuron@@@std@@@2@0@Z
	DD	2 DUP(00H)
	DD	2 DUP(00H)
	DD	00H
	DD	01H
xdata$x	ENDS
;	COMDAT xdata$x
xdata$x	SEGMENT
__ehfuncinfo$??1?$vector@V?$vector@VNeuron@@V?$allocator@VNeuron@@@std@@@std@@V?$allocator@V?$vector@VNeuron@@V?$allocator@VNeuron@@@std@@@std@@@2@@std@@QAE@XZ DD 019930522H
	DD	00H
	DD	00H
	DD	2 DUP(00H)
	DD	2 DUP(00H)
	DD	00H
	DD	05H
xdata$x	ENDS
;	COMDAT xdata$x
xdata$x	SEGMENT
__ehfuncinfo$??0?$vector@V?$vector@VNeuron@@V?$allocator@VNeuron@@@std@@@std@@V?$allocator@V?$vector@VNeuron@@V?$allocator@VNeuron@@@std@@@std@@@2@@std@@QAE@XZ DD 019930522H
	DD	00H
	DD	00H
	DD	2 DUP(00H)
	DD	2 DUP(00H)
	DD	00H
	DD	05H
xdata$x	ENDS
;	COMDAT xdata$x
xdata$x	SEGMENT
__ehfuncinfo$??1?$_Vector_alloc@U?$_Vec_base_types@V?$vector@VNeuron@@V?$allocator@VNeuron@@@std@@@std@@V?$allocator@V?$vector@VNeuron@@V?$allocator@VNeuron@@@std@@@std@@@2@@std@@@std@@QAE@XZ DD 019930522H
	DD	00H
	DD	00H
	DD	2 DUP(00H)
	DD	2 DUP(00H)
	DD	00H
	DD	05H
xdata$x	ENDS
;	COMDAT xdata$x
xdata$x	SEGMENT
__unwindtable$??0?$_Vector_alloc@U?$_Vec_base_types@V?$vector@VNeuron@@V?$allocator@VNeuron@@@std@@@std@@V?$allocator@V?$vector@VNeuron@@V?$allocator@VNeuron@@@std@@@std@@@2@@std@@@std@@QAE@XZ DD 0ffffffffH
	DD	FLAT:__unwindfunclet$??0?$_Vector_alloc@U?$_Vec_base_types@V?$vector@VNeuron@@V?$allocator@VNeuron@@@std@@@std@@V?$allocator@V?$vector@VNeuron@@V?$allocator@VNeuron@@@std@@@std@@@2@@std@@@std@@QAE@XZ$0
__ehfuncinfo$??0?$_Vector_alloc@U?$_Vec_base_types@V?$vector@VNeuron@@V?$allocator@VNeuron@@@std@@@std@@V?$allocator@V?$vector@VNeuron@@V?$allocator@VNeuron@@@std@@@std@@@2@@std@@@std@@QAE@XZ DD 019930522H
	DD	01H
	DD	FLAT:__unwindtable$??0?$_Vector_alloc@U?$_Vec_base_types@V?$vector@VNeuron@@V?$allocator@VNeuron@@@std@@@std@@V?$allocator@V?$vector@VNeuron@@V?$allocator@VNeuron@@@std@@@std@@@2@@std@@@std@@QAE@XZ
	DD	2 DUP(00H)
	DD	2 DUP(00H)
	DD	00H
	DD	01H
xdata$x	ENDS
xdata$x	SEGMENT
__unwindtable$??0Net@@QAE@ABV?$vector@IV?$allocator@I@std@@@std@@@Z DD 0ffffffffH
	DD	FLAT:__unwindfunclet$??0Net@@QAE@ABV?$vector@IV?$allocator@I@std@@@std@@@Z$0
	DD	00H
	DD	FLAT:__unwindfunclet$??0Net@@QAE@ABV?$vector@IV?$allocator@I@std@@@std@@@Z$1
	DD	00H
	DD	FLAT:__unwindfunclet$??0Net@@QAE@ABV?$vector@IV?$allocator@I@std@@@std@@@Z$2
__ehfuncinfo$??0Net@@QAE@ABV?$vector@IV?$allocator@I@std@@@std@@@Z DD 019930522H
	DD	03H
	DD	FLAT:__unwindtable$??0Net@@QAE@ABV?$vector@IV?$allocator@I@std@@@std@@@Z
	DD	2 DUP(00H)
	DD	2 DUP(00H)
	DD	00H
	DD	01H
xdata$x	ENDS
;	COMDAT xdata$x
xdata$x	SEGMENT
__catchsym$??0?$vector@UConnection@@V?$allocator@UConnection@@@std@@@std@@QAE@ABV01@@Z$3 DD 040H
	DD	00H
	DD	00H
	DD	FLAT:__catch$??0?$vector@UConnection@@V?$allocator@UConnection@@@std@@@std@@QAE@ABV01@@Z$0
__tryblocktable$??0?$vector@UConnection@@V?$allocator@UConnection@@@std@@@std@@QAE@ABV01@@Z DD 01H
	DD	01H
	DD	02H
	DD	01H
	DD	FLAT:__catchsym$??0?$vector@UConnection@@V?$allocator@UConnection@@@std@@@std@@QAE@ABV01@@Z$3
__unwindtable$??0?$vector@UConnection@@V?$allocator@UConnection@@@std@@@std@@QAE@ABV01@@Z DD 0ffffffffH
	DD	FLAT:__unwindfunclet$??0?$vector@UConnection@@V?$allocator@UConnection@@@std@@@std@@QAE@ABV01@@Z$2
	DD	00H
	DD	00H
	DD	00H
	DD	00H
__ehfuncinfo$??0?$vector@UConnection@@V?$allocator@UConnection@@@std@@@std@@QAE@ABV01@@Z DD 019930522H
	DD	03H
	DD	FLAT:__unwindtable$??0?$vector@UConnection@@V?$allocator@UConnection@@@std@@@std@@QAE@ABV01@@Z
	DD	01H
	DD	FLAT:__tryblocktable$??0?$vector@UConnection@@V?$allocator@UConnection@@@std@@@std@@QAE@ABV01@@Z
	DD	2 DUP(00H)
	DD	00H
	DD	01H
xdata$x	ENDS
;	COMDAT xdata$x
xdata$x	SEGMENT
__ehfuncinfo$??1?$_Vector_alloc@U?$_Vec_base_types@UConnection@@V?$allocator@UConnection@@@std@@@std@@@std@@QAE@XZ DD 019930522H
	DD	00H
	DD	00H
	DD	2 DUP(00H)
	DD	2 DUP(00H)
	DD	00H
	DD	05H
xdata$x	ENDS
;	COMDAT xdata$x
xdata$x	SEGMENT
__ehfuncinfo$?_Swap_all@_Container_base12@std@@QAEXAAU12@@Z DD 019930522H
	DD	00H
	DD	00H
	DD	2 DUP(00H)
	DD	2 DUP(00H)
	DD	00H
	DD	05H
xdata$x	ENDS
;	COMDAT xdata$x
xdata$x	SEGMENT
__ehfuncinfo$?_Orphan_all@_Container_base12@std@@QAEXXZ DD 019930522H
	DD	00H
	DD	00H
	DD	2 DUP(00H)
	DD	2 DUP(00H)
	DD	00H
	DD	05H
xdata$x	ENDS
; Function compile flags: /Odtp /RTCsu
; File c:\program files (x86)\microsoft visual studio\2017\community\vc\tools\msvc\14.11.25503\include\xutility
;	COMDAT ??$_Copy_memmove@PAUConnection@@PAU1@@std@@YAPAUConnection@@PAU1@00@Z
_TEXT	SEGMENT
__Count$ = -16						; size = 4
__Dest_ch$ = -12					; size = 4
__Last_ch$ = -8						; size = 4
__First_ch$ = -4					; size = 4
__First$ = 8						; size = 4
__Last$ = 12						; size = 4
__Dest$ = 16						; size = 4
??$_Copy_memmove@PAUConnection@@PAU1@@std@@YAPAUConnection@@PAU1@00@Z PROC ; std::_Copy_memmove<Connection *,Connection *>, COMDAT

; 2239 : 	{	// implement copy-like function as memmove

	push	ebp
	mov	ebp, esp
	sub	esp, 16					; 00000010H
	mov	eax, -858993460				; ccccccccH
	mov	DWORD PTR [ebp-16], eax
	mov	DWORD PTR [ebp-12], eax
	mov	DWORD PTR [ebp-8], eax
	mov	DWORD PTR [ebp-4], eax

; 2240 : 	const char * const _First_ch = const_cast<const char *>(reinterpret_cast<const volatile char *>(_First));

	mov	eax, DWORD PTR __First$[ebp]
	mov	DWORD PTR __First_ch$[ebp], eax

; 2241 : 	const char * const _Last_ch = const_cast<const char *>(reinterpret_cast<const volatile char *>(_Last));

	mov	ecx, DWORD PTR __Last$[ebp]
	mov	DWORD PTR __Last_ch$[ebp], ecx

; 2242 : 	char * const _Dest_ch = const_cast<char *>(reinterpret_cast<volatile char *>(_Dest));

	mov	edx, DWORD PTR __Dest$[ebp]
	mov	DWORD PTR __Dest_ch$[ebp], edx

; 2243 : 	const size_t _Count = _Last_ch - _First_ch;

	mov	eax, DWORD PTR __Last_ch$[ebp]
	sub	eax, DWORD PTR __First_ch$[ebp]
	mov	DWORD PTR __Count$[ebp], eax

; 2244 : 	_CSTD memmove(_Dest_ch, _First_ch, _Count);

	mov	ecx, DWORD PTR __Count$[ebp]
	push	ecx
	mov	edx, DWORD PTR __First_ch$[ebp]
	push	edx
	mov	eax, DWORD PTR __Dest_ch$[ebp]
	push	eax
	call	_memmove
	add	esp, 12					; 0000000cH

; 2245 : 	return (reinterpret_cast<_OutIt>(_Dest_ch + _Count));

	mov	eax, DWORD PTR __Dest_ch$[ebp]
	add	eax, DWORD PTR __Count$[ebp]

; 2246 : 	}

	add	esp, 16					; 00000010H
	cmp	ebp, esp
	call	__RTC_CheckEsp
	mov	esp, ebp
	pop	ebp
	ret	0
??$_Copy_memmove@PAUConnection@@PAU1@@std@@YAPAUConnection@@PAU1@00@Z ENDP ; std::_Copy_memmove<Connection *,Connection *>
_TEXT	ENDS
; Function compile flags: /Odtp /RTCsu
; File c:\program files (x86)\microsoft visual studio\2017\community\vc\tools\msvc\14.11.25503\include\xutility
;	COMDAT ??$_Rechecked@PAUConnection@@PAU1@@std@@YAAAPAUConnection@@AAPAU1@PAU1@@Z
_TEXT	SEGMENT
__Dest$ = 8						; size = 4
__Src$ = 12						; size = 4
??$_Rechecked@PAUConnection@@PAU1@@std@@YAAAPAUConnection@@AAPAU1@PAU1@@Z PROC ; std::_Rechecked<Connection *,Connection *>, COMDAT

; 480  : 	{	// reset checked from unchecked, generic

	push	ebp
	mov	ebp, esp

; 481  : 	_Dest = _Src;

	mov	eax, DWORD PTR __Dest$[ebp]
	mov	ecx, DWORD PTR __Src$[ebp]
	mov	DWORD PTR [eax], ecx

; 482  : 	return (_Dest);

	mov	eax, DWORD PTR __Dest$[ebp]

; 483  : 	}

	pop	ebp
	ret	0
??$_Rechecked@PAUConnection@@PAU1@@std@@YAAAPAUConnection@@AAPAU1@PAU1@@Z ENDP ; std::_Rechecked<Connection *,Connection *>
_TEXT	ENDS
; Function compile flags: /Odtp /RTCsu
; File c:\program files (x86)\microsoft visual studio\2017\community\vc\tools\msvc\14.11.25503\include\xmemory
;	COMDAT ??$_Uninitialized_copy_al_unchecked@UConnection@@U1@V?$allocator@UConnection@@@std@@@std@@YAPAUConnection@@PAU1@00AAV?$allocator@UConnection@@@0@U_Really_trivial_ptr_iterator_tag@0@U?$integral_constant@_N$00@0@@Z
_TEXT	SEGMENT
__First$ = 8						; size = 4
__Last$ = 12						; size = 4
__Dest$ = 16						; size = 4
___formal$ = 20						; size = 4
___formal$ = 24						; size = 1
___formal$ = 28						; size = 1
??$_Uninitialized_copy_al_unchecked@UConnection@@U1@V?$allocator@UConnection@@@std@@@std@@YAPAUConnection@@PAU1@00AAV?$allocator@UConnection@@@0@U_Really_trivial_ptr_iterator_tag@0@U?$integral_constant@_N$00@0@@Z PROC ; std::_Uninitialized_copy_al_unchecked<Connection,Connection,std::allocator<Connection> >, COMDAT

; 108  : 	{	// copy [_First, _Last) to raw _Dest, using default _Alloc construct, memmove optimization

	push	ebp
	mov	ebp, esp

; 109  : 	return (_Copy_memmove(_First, _Last, _Dest));

	mov	eax, DWORD PTR __Dest$[ebp]
	push	eax
	mov	ecx, DWORD PTR __Last$[ebp]
	push	ecx
	mov	edx, DWORD PTR __First$[ebp]
	push	edx
	call	??$_Copy_memmove@PAUConnection@@PAU1@@std@@YAPAUConnection@@PAU1@00@Z ; std::_Copy_memmove<Connection *,Connection *>
	add	esp, 12					; 0000000cH

; 110  : 	}

	cmp	ebp, esp
	call	__RTC_CheckEsp
	pop	ebp
	ret	0
??$_Uninitialized_copy_al_unchecked@UConnection@@U1@V?$allocator@UConnection@@@std@@@std@@YAPAUConnection@@PAU1@00AAV?$allocator@UConnection@@@0@U_Really_trivial_ptr_iterator_tag@0@U?$integral_constant@_N$00@0@@Z ENDP ; std::_Uninitialized_copy_al_unchecked<Connection,Connection,std::allocator<Connection> >
_TEXT	ENDS
; Function compile flags: /Odtp /RTCsu
; File c:\program files (x86)\microsoft visual studio\2017\community\vc\tools\msvc\14.11.25503\include\xutility
;	COMDAT ??$_Ptr_copy_cat@UConnection@@U1@@std@@YA?AU_Really_trivial_ptr_iterator_tag@0@ABQAUConnection@@0@Z
_TEXT	SEGMENT
___$ReturnUdt$ = 8					; size = 4
___formal$ = 12						; size = 4
___formal$ = 16						; size = 4
??$_Ptr_copy_cat@UConnection@@U1@@std@@YA?AU_Really_trivial_ptr_iterator_tag@0@ABQAUConnection@@0@Z PROC ; std::_Ptr_copy_cat<Connection,Connection>, COMDAT

; 871  : 	{	// return pointer copy optimization category for pointers

	push	ebp
	mov	ebp, esp

; 872  : 	return {};

	mov	eax, DWORD PTR ___$ReturnUdt$[ebp]

; 873  : 	}

	pop	ebp
	ret	0
??$_Ptr_copy_cat@UConnection@@U1@@std@@YA?AU_Really_trivial_ptr_iterator_tag@0@ABQAUConnection@@0@Z ENDP ; std::_Ptr_copy_cat<Connection,Connection>
_TEXT	ENDS
; Function compile flags: /Odtp /RTCsu
; File c:\program files (x86)\microsoft visual studio\2017\community\vc\tools\msvc\14.11.25503\include\xutility
;	COMDAT ??$_Unchecked@PAUConnection@@@std@@YAPAUConnection@@PAU1@@Z
_TEXT	SEGMENT
__Src$ = 8						; size = 4
??$_Unchecked@PAUConnection@@@std@@YAPAUConnection@@PAU1@@Z PROC ; std::_Unchecked<Connection *>, COMDAT

; 449  : 	{	// construct unchecked from checked, generic

	push	ebp
	mov	ebp, esp

; 450  : 	return (_Src);

	mov	eax, DWORD PTR __Src$[ebp]

; 451  : 	}

	pop	ebp
	ret	0
??$_Unchecked@PAUConnection@@@std@@YAPAUConnection@@PAU1@@Z ENDP ; std::_Unchecked<Connection *>
_TEXT	ENDS
; Function compile flags: /Odtp /RTCsu
; File c:\program files (x86)\microsoft visual studio\2017\community\vc\tools\msvc\14.11.25503\include\type_traits
;	COMDAT ??$forward@AAVNeuron@@@std@@YAAAVNeuron@@AAV1@@Z
_TEXT	SEGMENT
__Arg$ = 8						; size = 4
??$forward@AAVNeuron@@@std@@YAAAVNeuron@@AAV1@@Z PROC	; std::forward<Neuron &>, COMDAT

; 1591 : 	{	// forward an lvalue as either an lvalue or an rvalue

	push	ebp
	mov	ebp, esp

; 1592 : 	return (static_cast<_Ty&&>(_Arg));

	mov	eax, DWORD PTR __Arg$[ebp]

; 1593 : 	}

	pop	ebp
	ret	0
??$forward@AAVNeuron@@@std@@YAAAVNeuron@@AAV1@@Z ENDP	; std::forward<Neuron &>
_TEXT	ENDS
; Function compile flags: /Odtp /RTCsu
; File c:\program files (x86)\microsoft visual studio\2017\community\vc\tools\msvc\14.11.25503\include\xstddef
;	COMDAT ??$addressof@V?$_Vector_val@U?$_Simple_types@UConnection@@@std@@@std@@@std@@YAPAV?$_Vector_val@U?$_Simple_types@UConnection@@@std@@@0@AAV10@@Z
_TEXT	SEGMENT
__Val$ = 8						; size = 4
??$addressof@V?$_Vector_val@U?$_Simple_types@UConnection@@@std@@@std@@@std@@YAPAV?$_Vector_val@U?$_Simple_types@UConnection@@@std@@@0@AAV10@@Z PROC ; std::addressof<std::_Vector_val<std::_Simple_types<Connection> > >, COMDAT

; 248  : 	{	// return address of _Val

	push	ebp
	mov	ebp, esp

; 249  : 	return (__builtin_addressof(_Val));

	mov	eax, DWORD PTR __Val$[ebp]

; 250  : 	}

	pop	ebp
	ret	0
??$addressof@V?$_Vector_val@U?$_Simple_types@UConnection@@@std@@@std@@@std@@YAPAV?$_Vector_val@U?$_Simple_types@UConnection@@@std@@@0@AAV10@@Z ENDP ; std::addressof<std::_Vector_val<std::_Simple_types<Connection> > >
_TEXT	ENDS
; Function compile flags: /Odtp /RTCsu
; File c:\program files (x86)\microsoft visual studio\2017\community\vc\tools\msvc\14.11.25503\include\xmemory0
;	COMDAT ??$_Destroy_range1@V?$allocator@UConnection@@@std@@@std@@YAXPAUConnection@@0AAV?$allocator@UConnection@@@0@U?$integral_constant@_N$00@0@@Z
_TEXT	SEGMENT
___formal$ = 8						; size = 4
___formal$ = 12						; size = 4
___formal$ = 16						; size = 4
___formal$ = 20						; size = 1
??$_Destroy_range1@V?$allocator@UConnection@@@std@@@std@@YAXPAUConnection@@0AAV?$allocator@UConnection@@@0@U?$integral_constant@_N$00@0@@Z PROC ; std::_Destroy_range1<std::allocator<Connection> >, COMDAT

; 1103 : 	{	// destroy [_First, _Last), trivially destructible and default destroy

	push	ebp
	mov	ebp, esp

; 1104 : 		// nothing to do
; 1105 : 	}

	pop	ebp
	ret	0
??$_Destroy_range1@V?$allocator@UConnection@@@std@@@std@@YAXPAUConnection@@0AAV?$allocator@UConnection@@@0@U?$integral_constant@_N$00@0@@Z ENDP ; std::_Destroy_range1<std::allocator<Connection> >
_TEXT	ENDS
; Function compile flags: /Odtp /RTCsu
; File c:\program files (x86)\microsoft visual studio\2017\community\vc\tools\msvc\14.11.25503\include\xutility
;	COMDAT ??$?0V?$allocator@VNeuron@@@std@@$$V@?$_Compressed_pair@V?$allocator@VNeuron@@@std@@V?$_Vector_val@U?$_Simple_types@VNeuron@@@std@@@2@$00@std@@QAE@U_One_then_variadic_args_t@1@$$QAV?$allocator@VNeuron@@@1@@Z
_TEXT	SEGMENT
_this$ = -4						; size = 4
___formal$ = 8						; size = 1
__Val1$ = 12						; size = 4
??$?0V?$allocator@VNeuron@@@std@@$$V@?$_Compressed_pair@V?$allocator@VNeuron@@@std@@V?$_Vector_val@U?$_Simple_types@VNeuron@@@std@@@2@$00@std@@QAE@U_One_then_variadic_args_t@1@$$QAV?$allocator@VNeuron@@@1@@Z PROC ; std::_Compressed_pair<std::allocator<Neuron>,std::_Vector_val<std::_Simple_types<Neuron> >,1>::_Compressed_pair<std::allocator<Neuron>,std::_Vector_val<std::_Simple_types<Neuron> >,1><std::allocator<Neuron> >, COMDAT
; _this$ = ecx

; 312  : 		{	// construct from forwarded values

	push	ebp
	mov	ebp, esp
	push	ecx
	mov	DWORD PTR [ebp-4], -858993460		; ccccccccH
	mov	DWORD PTR _this$[ebp], ecx

; 310  : 		: _Ty1(_STD forward<_Other1>(_Val1)),

	mov	eax, DWORD PTR __Val1$[ebp]
	push	eax
	call	??$forward@V?$allocator@VNeuron@@@std@@@std@@YA$$QAV?$allocator@VNeuron@@@0@AAV10@@Z ; std::forward<std::allocator<Neuron> >
	add	esp, 4

; 311  : 			_Myval2(_STD forward<_Other2>(_Val2)...)

	mov	ecx, DWORD PTR _this$[ebp]
	call	??0?$_Vector_val@U?$_Simple_types@VNeuron@@@std@@@std@@QAE@XZ ; std::_Vector_val<std::_Simple_types<Neuron> >::_Vector_val<std::_Simple_types<Neuron> >

; 313  : 		}

	mov	eax, DWORD PTR _this$[ebp]
	add	esp, 4
	cmp	ebp, esp
	call	__RTC_CheckEsp
	mov	esp, ebp
	pop	ebp
	ret	8
??$?0V?$allocator@VNeuron@@@std@@$$V@?$_Compressed_pair@V?$allocator@VNeuron@@@std@@V?$_Vector_val@U?$_Simple_types@VNeuron@@@std@@@2@$00@std@@QAE@U_One_then_variadic_args_t@1@$$QAV?$allocator@VNeuron@@@1@@Z ENDP ; std::_Compressed_pair<std::allocator<Neuron>,std::_Vector_val<std::_Simple_types<Neuron> >,1>::_Compressed_pair<std::allocator<Neuron>,std::_Vector_val<std::_Simple_types<Neuron> >,1><std::allocator<Neuron> >
_TEXT	ENDS
; Function compile flags: /Odtp /RTCsu
; File c:\program files (x86)\microsoft visual studio\2017\community\vc\tools\msvc\14.11.25503\include\type_traits
;	COMDAT ??$forward@V?$allocator@VNeuron@@@std@@@std@@YA$$QAV?$allocator@VNeuron@@@0@AAV10@@Z
_TEXT	SEGMENT
__Arg$ = 8						; size = 4
??$forward@V?$allocator@VNeuron@@@std@@@std@@YA$$QAV?$allocator@VNeuron@@@0@AAV10@@Z PROC ; std::forward<std::allocator<Neuron> >, COMDAT

; 1591 : 	{	// forward an lvalue as either an lvalue or an rvalue

	push	ebp
	mov	ebp, esp

; 1592 : 	return (static_cast<_Ty&&>(_Arg));

	mov	eax, DWORD PTR __Arg$[ebp]

; 1593 : 	}

	pop	ebp
	ret	0
??$forward@V?$allocator@VNeuron@@@std@@@std@@YA$$QAV?$allocator@VNeuron@@@0@AAV10@@Z ENDP ; std::forward<std::allocator<Neuron> >
_TEXT	ENDS
; Function compile flags: /Odtp /RTCsu
; File c:\program files (x86)\microsoft visual studio\2017\community\vc\tools\msvc\14.11.25503\include\xmemory
;	COMDAT ??$_Uninitialized_copy@PAUConnection@@PAU1@V?$allocator@UConnection@@@std@@@std@@YAPAUConnection@@PAU1@00AAV?$allocator@UConnection@@@0@@Z
_TEXT	SEGMENT
$T1 = -30						; size = 1
$T2 = -29						; size = 1
__UDest$ = -24						; size = 4
__ULast$ = -16						; size = 4
__UFirst$ = -8						; size = 4
__First$ = 8						; size = 4
__Last$ = 12						; size = 4
__Dest$ = 16						; size = 4
__Al$ = 20						; size = 4
??$_Uninitialized_copy@PAUConnection@@PAU1@V?$allocator@UConnection@@@std@@@std@@YAPAUConnection@@PAU1@00AAV?$allocator@UConnection@@@0@@Z PROC ; std::_Uninitialized_copy<Connection *,Connection *,std::allocator<Connection> >, COMDAT

; 116  : 	{	// copy [_First, _Last) to raw _Dest, using _Al

	push	ebp
	mov	ebp, esp
	sub	esp, 32					; 00000020H
	mov	eax, -858993460				; ccccccccH
	mov	DWORD PTR [ebp-32], eax
	mov	DWORD PTR [ebp-28], eax
	mov	DWORD PTR [ebp-24], eax
	mov	DWORD PTR [ebp-20], eax
	mov	DWORD PTR [ebp-16], eax
	mov	DWORD PTR [ebp-12], eax
	mov	DWORD PTR [ebp-8], eax
	mov	DWORD PTR [ebp-4], eax

; 117  : 		// note: only called internally from elsewhere in the STL, debug checks
; 118  : 		// and deprecation warnings omitted
; 119  : 	const auto _UFirst = _Unchecked(_First);

	mov	eax, DWORD PTR __First$[ebp]
	push	eax
	call	??$_Unchecked@PAUConnection@@@std@@YAPAUConnection@@PAU1@@Z ; std::_Unchecked<Connection *>
	add	esp, 4
	mov	DWORD PTR __UFirst$[ebp], eax

; 120  : 	const auto _ULast = _Unchecked(_Last);

	mov	ecx, DWORD PTR __Last$[ebp]
	push	ecx
	call	??$_Unchecked@PAUConnection@@@std@@YAPAUConnection@@PAU1@@Z ; std::_Unchecked<Connection *>
	add	esp, 4
	mov	DWORD PTR __ULast$[ebp], eax

; 121  : 	const auto _UDest = _Unchecked(_Dest);

	mov	edx, DWORD PTR __Dest$[ebp]
	push	edx
	call	??$_Unchecked@PAUConnection@@@std@@YAPAUConnection@@PAU1@@Z ; std::_Unchecked<Connection *>
	add	esp, 4
	mov	DWORD PTR __UDest$[ebp], eax

; 122  : 	return (_Rechecked(_Dest,

	movzx	eax, BYTE PTR $T2[ebp]
	push	eax
	lea	ecx, DWORD PTR __UDest$[ebp]
	push	ecx
	lea	edx, DWORD PTR __UFirst$[ebp]
	push	edx
	lea	eax, DWORD PTR $T1[ebp]
	push	eax
	call	??$_Ptr_copy_cat@UConnection@@U1@@std@@YA?AU_Really_trivial_ptr_iterator_tag@0@ABQAUConnection@@0@Z ; std::_Ptr_copy_cat<Connection,Connection>
	add	esp, 12					; 0000000cH
	mov	cl, BYTE PTR [eax]
	movzx	edx, cl
	push	edx
	mov	eax, DWORD PTR __Al$[ebp]
	push	eax
	mov	ecx, DWORD PTR __UDest$[ebp]
	push	ecx
	mov	edx, DWORD PTR __ULast$[ebp]
	push	edx
	mov	eax, DWORD PTR __UFirst$[ebp]
	push	eax
	call	??$_Uninitialized_copy_al_unchecked@UConnection@@U1@V?$allocator@UConnection@@@std@@@std@@YAPAUConnection@@PAU1@00AAV?$allocator@UConnection@@@0@U_Really_trivial_ptr_iterator_tag@0@U?$integral_constant@_N$00@0@@Z ; std::_Uninitialized_copy_al_unchecked<Connection,Connection,std::allocator<Connection> >
	add	esp, 24					; 00000018H
	push	eax
	lea	ecx, DWORD PTR __Dest$[ebp]
	push	ecx
	call	??$_Rechecked@PAUConnection@@PAU1@@std@@YAAAPAUConnection@@AAPAU1@PAU1@@Z ; std::_Rechecked<Connection *,Connection *>
	add	esp, 8
	mov	eax, DWORD PTR [eax]

; 123  : 		_Uninitialized_copy_al_unchecked(_UFirst, _ULast, _UDest, _Al,
; 124  : 			_Ptr_copy_cat(_UFirst, _UDest),
; 125  : 			_Uses_default_construct_t<_Alloc, decltype(_Unfancy(_UDest)), decltype(*_UFirst)>())));
; 126  : 	}

	push	edx
	mov	ecx, ebp
	push	eax
	lea	edx, DWORD PTR $LN6@Uninitiali
	call	@_RTC_CheckStackVars@8
	pop	eax
	pop	edx
	add	esp, 32					; 00000020H
	cmp	ebp, esp
	call	__RTC_CheckEsp
	mov	esp, ebp
	pop	ebp
	ret	0
	npad	3
$LN6@Uninitiali:
	DD	2
	DD	$LN5@Uninitiali
$LN5@Uninitiali:
	DD	-8					; fffffff8H
	DD	4
	DD	$LN3@Uninitiali
	DD	-24					; ffffffe8H
	DD	4
	DD	$LN4@Uninitiali
$LN4@Uninitiali:
	DB	95					; 0000005fH
	DB	85					; 00000055H
	DB	68					; 00000044H
	DB	101					; 00000065H
	DB	115					; 00000073H
	DB	116					; 00000074H
	DB	0
$LN3@Uninitiali:
	DB	95					; 0000005fH
	DB	85					; 00000055H
	DB	70					; 00000046H
	DB	105					; 00000069H
	DB	114					; 00000072H
	DB	115					; 00000073H
	DB	116					; 00000074H
	DB	0
??$_Uninitialized_copy@PAUConnection@@PAU1@V?$allocator@UConnection@@@std@@@std@@YAPAUConnection@@PAU1@00AAV?$allocator@UConnection@@@0@@Z ENDP ; std::_Uninitialized_copy<Connection *,Connection *,std::allocator<Connection> >
_TEXT	ENDS
; Function compile flags: /Odtp /RTCsu
; File c:\program files (x86)\microsoft visual studio\2017\community\vc\tools\msvc\14.11.25503\include\xutility
;	COMDAT ??$?0V?$allocator@UConnection@@@std@@$$V@?$_Compressed_pair@V?$allocator@UConnection@@@std@@V?$_Vector_val@U?$_Simple_types@UConnection@@@std@@@2@$00@std@@QAE@U_One_then_variadic_args_t@1@$$QAV?$allocator@UConnection@@@1@@Z
_TEXT	SEGMENT
_this$ = -4						; size = 4
___formal$ = 8						; size = 1
__Val1$ = 12						; size = 4
??$?0V?$allocator@UConnection@@@std@@$$V@?$_Compressed_pair@V?$allocator@UConnection@@@std@@V?$_Vector_val@U?$_Simple_types@UConnection@@@std@@@2@$00@std@@QAE@U_One_then_variadic_args_t@1@$$QAV?$allocator@UConnection@@@1@@Z PROC ; std::_Compressed_pair<std::allocator<Connection>,std::_Vector_val<std::_Simple_types<Connection> >,1>::_Compressed_pair<std::allocator<Connection>,std::_Vector_val<std::_Simple_types<Connection> >,1><std::allocator<Connection> >, COMDAT
; _this$ = ecx

; 312  : 		{	// construct from forwarded values

	push	ebp
	mov	ebp, esp
	push	ecx
	mov	DWORD PTR [ebp-4], -858993460		; ccccccccH
	mov	DWORD PTR _this$[ebp], ecx

; 310  : 		: _Ty1(_STD forward<_Other1>(_Val1)),

	mov	eax, DWORD PTR __Val1$[ebp]
	push	eax
	call	??$forward@V?$allocator@UConnection@@@std@@@std@@YA$$QAV?$allocator@UConnection@@@0@AAV10@@Z ; std::forward<std::allocator<Connection> >
	add	esp, 4

; 311  : 			_Myval2(_STD forward<_Other2>(_Val2)...)

	mov	ecx, DWORD PTR _this$[ebp]
	call	??0?$_Vector_val@U?$_Simple_types@UConnection@@@std@@@std@@QAE@XZ ; std::_Vector_val<std::_Simple_types<Connection> >::_Vector_val<std::_Simple_types<Connection> >

; 313  : 		}

	mov	eax, DWORD PTR _this$[ebp]
	add	esp, 4
	cmp	ebp, esp
	call	__RTC_CheckEsp
	mov	esp, ebp
	pop	ebp
	ret	8
??$?0V?$allocator@UConnection@@@std@@$$V@?$_Compressed_pair@V?$allocator@UConnection@@@std@@V?$_Vector_val@U?$_Simple_types@UConnection@@@std@@@2@$00@std@@QAE@U_One_then_variadic_args_t@1@$$QAV?$allocator@UConnection@@@1@@Z ENDP ; std::_Compressed_pair<std::allocator<Connection>,std::_Vector_val<std::_Simple_types<Connection> >,1>::_Compressed_pair<std::allocator<Connection>,std::_Vector_val<std::_Simple_types<Connection> >,1><std::allocator<Connection> >
_TEXT	ENDS
; Function compile flags: /Odtp /RTCsu
; File c:\program files (x86)\microsoft visual studio\2017\community\vc\tools\msvc\14.11.25503\include\type_traits
;	COMDAT ??$forward@V?$allocator@UConnection@@@std@@@std@@YA$$QAV?$allocator@UConnection@@@0@AAV10@@Z
_TEXT	SEGMENT
__Arg$ = 8						; size = 4
??$forward@V?$allocator@UConnection@@@std@@@std@@YA$$QAV?$allocator@UConnection@@@0@AAV10@@Z PROC ; std::forward<std::allocator<Connection> >, COMDAT

; 1591 : 	{	// forward an lvalue as either an lvalue or an rvalue

	push	ebp
	mov	ebp, esp

; 1592 : 	return (static_cast<_Ty&&>(_Arg));

	mov	eax, DWORD PTR __Arg$[ebp]

; 1593 : 	}

	pop	ebp
	ret	0
??$forward@V?$allocator@UConnection@@@std@@@std@@YA$$QAV?$allocator@UConnection@@@0@AAV10@@Z ENDP ; std::forward<std::allocator<Connection> >
_TEXT	ENDS
; Function compile flags: /Odtp /RTCsu
; File c:\program files (x86)\microsoft visual studio\2017\community\vc\tools\msvc\14.11.25503\include\xmemory0
;	COMDAT ??$construct@VNeuron@@AAV1@@?$_Default_allocator_traits@V?$allocator@VNeuron@@@std@@@std@@SAXAAV?$allocator@VNeuron@@@1@QAVNeuron@@AAV3@@Z
_TEXT	SEGMENT
$T2 = -20						; size = 4
$T3 = -16						; size = 4
__$EHRec$ = -12						; size = 12
___formal$ = 8						; size = 4
__Ptr$ = 12						; size = 4
_<_Args_0>$ = 16					; size = 4
??$construct@VNeuron@@AAV1@@?$_Default_allocator_traits@V?$allocator@VNeuron@@@std@@@std@@SAXAAV?$allocator@VNeuron@@@1@QAVNeuron@@AAV3@@Z PROC ; std::_Default_allocator_traits<std::allocator<Neuron> >::construct<Neuron,Neuron &>, COMDAT

; 854  : 		{	// construct _Objty(_Types...) at _Ptr

	push	ebp
	mov	ebp, esp
	push	-1
	push	__ehhandler$??$construct@VNeuron@@AAV1@@?$_Default_allocator_traits@V?$allocator@VNeuron@@@std@@@std@@SAXAAV?$allocator@VNeuron@@@1@QAVNeuron@@AAV3@@Z
	mov	eax, DWORD PTR fs:0
	push	eax
	sub	esp, 8
	mov	DWORD PTR [ebp-20], -858993460		; ccccccccH
	mov	DWORD PTR [ebp-16], -858993460		; ccccccccH
	mov	eax, DWORD PTR ___security_cookie
	xor	eax, ebp
	push	eax
	lea	eax, DWORD PTR __$EHRec$[ebp]
	mov	DWORD PTR fs:0, eax

; 855  : 		::new (const_cast<void *>(static_cast<const volatile void *>(_Ptr)))

	mov	eax, DWORD PTR __Ptr$[ebp]
	push	eax
	push	40					; 00000028H
	call	??2@YAPAXIPAX@Z				; operator new
	add	esp, 8
	mov	DWORD PTR $T2[ebp], eax
	mov	DWORD PTR __$EHRec$[ebp+8], 0
	mov	ecx, DWORD PTR _<_Args_0>$[ebp]
	push	ecx
	call	??$forward@AAVNeuron@@@std@@YAAAVNeuron@@AAV1@@Z ; std::forward<Neuron &>
	add	esp, 4
	push	eax
	mov	ecx, DWORD PTR $T2[ebp]
	call	??0Neuron@@QAE@ABV0@@Z
	mov	DWORD PTR $T3[ebp], eax
	mov	DWORD PTR __$EHRec$[ebp+8], -1

; 856  : 			_Objty(_STD forward<_Types>(_Args)...);
; 857  : 		}

	mov	ecx, DWORD PTR __$EHRec$[ebp]
	mov	DWORD PTR fs:0, ecx
	pop	ecx
	add	esp, 20					; 00000014H
	cmp	ebp, esp
	call	__RTC_CheckEsp
	mov	esp, ebp
	pop	ebp
	ret	0
_TEXT	ENDS
;	COMDAT text$x
text$x	SEGMENT
__unwindfunclet$??$construct@VNeuron@@AAV1@@?$_Default_allocator_traits@V?$allocator@VNeuron@@@std@@@std@@SAXAAV?$allocator@VNeuron@@@1@QAVNeuron@@AAV3@@Z$0:
	mov	eax, DWORD PTR __Ptr$[ebp]
	push	eax
	mov	eax, DWORD PTR $T2[ebp]
	push	eax
	call	??3@YAXPAX0@Z				; operator delete
	add	esp, 8
	ret	0
__ehhandler$??$construct@VNeuron@@AAV1@@?$_Default_allocator_traits@V?$allocator@VNeuron@@@std@@@std@@SAXAAV?$allocator@VNeuron@@@1@QAVNeuron@@AAV3@@Z:
	mov	edx, DWORD PTR [esp+8]
	lea	eax, DWORD PTR [edx+12]
	mov	ecx, DWORD PTR [edx-12]
	xor	ecx, eax
	call	@__security_check_cookie@4
	mov	eax, OFFSET __ehfuncinfo$??$construct@VNeuron@@AAV1@@?$_Default_allocator_traits@V?$allocator@VNeuron@@@std@@@std@@SAXAAV?$allocator@VNeuron@@@1@QAVNeuron@@AAV3@@Z
	jmp	___CxxFrameHandler3
text$x	ENDS
??$construct@VNeuron@@AAV1@@?$_Default_allocator_traits@V?$allocator@VNeuron@@@std@@@std@@SAXAAV?$allocator@VNeuron@@@1@QAVNeuron@@AAV3@@Z ENDP ; std::_Default_allocator_traits<std::allocator<Neuron> >::construct<Neuron,Neuron &>
; Function compile flags: /Odtp /RTCsu
; File c:\program files (x86)\microsoft visual studio\2017\community\vc\tools\msvc\14.11.25503\include\xutility
;	COMDAT ??$_Copy_memmove@PANPAN@std@@YAPANPAN00@Z
_TEXT	SEGMENT
__Count$ = -16						; size = 4
__Dest_ch$ = -12					; size = 4
__Last_ch$ = -8						; size = 4
__First_ch$ = -4					; size = 4
__First$ = 8						; size = 4
__Last$ = 12						; size = 4
__Dest$ = 16						; size = 4
??$_Copy_memmove@PANPAN@std@@YAPANPAN00@Z PROC		; std::_Copy_memmove<double *,double *>, COMDAT

; 2239 : 	{	// implement copy-like function as memmove

	push	ebp
	mov	ebp, esp
	sub	esp, 16					; 00000010H
	mov	eax, -858993460				; ccccccccH
	mov	DWORD PTR [ebp-16], eax
	mov	DWORD PTR [ebp-12], eax
	mov	DWORD PTR [ebp-8], eax
	mov	DWORD PTR [ebp-4], eax

; 2240 : 	const char * const _First_ch = const_cast<const char *>(reinterpret_cast<const volatile char *>(_First));

	mov	eax, DWORD PTR __First$[ebp]
	mov	DWORD PTR __First_ch$[ebp], eax

; 2241 : 	const char * const _Last_ch = const_cast<const char *>(reinterpret_cast<const volatile char *>(_Last));

	mov	ecx, DWORD PTR __Last$[ebp]
	mov	DWORD PTR __Last_ch$[ebp], ecx

; 2242 : 	char * const _Dest_ch = const_cast<char *>(reinterpret_cast<volatile char *>(_Dest));

	mov	edx, DWORD PTR __Dest$[ebp]
	mov	DWORD PTR __Dest_ch$[ebp], edx

; 2243 : 	const size_t _Count = _Last_ch - _First_ch;

	mov	eax, DWORD PTR __Last_ch$[ebp]
	sub	eax, DWORD PTR __First_ch$[ebp]
	mov	DWORD PTR __Count$[ebp], eax

; 2244 : 	_CSTD memmove(_Dest_ch, _First_ch, _Count);

	mov	ecx, DWORD PTR __Count$[ebp]
	push	ecx
	mov	edx, DWORD PTR __First_ch$[ebp]
	push	edx
	mov	eax, DWORD PTR __Dest_ch$[ebp]
	push	eax
	call	_memmove
	add	esp, 12					; 0000000cH

; 2245 : 	return (reinterpret_cast<_OutIt>(_Dest_ch + _Count));

	mov	eax, DWORD PTR __Dest_ch$[ebp]
	add	eax, DWORD PTR __Count$[ebp]

; 2246 : 	}

	add	esp, 16					; 00000010H
	cmp	ebp, esp
	call	__RTC_CheckEsp
	mov	esp, ebp
	pop	ebp
	ret	0
??$_Copy_memmove@PANPAN@std@@YAPANPAN00@Z ENDP		; std::_Copy_memmove<double *,double *>
_TEXT	ENDS
; Function compile flags: /Odtp /RTCsu
; File c:\program files (x86)\microsoft visual studio\2017\community\vc\tools\msvc\14.11.25503\include\xmemory0
;	COMDAT ??$_Destroy_range@V?$allocator@UConnection@@@std@@@std@@YAXPAUConnection@@0AAV?$allocator@UConnection@@@0@@Z
_TEXT	SEGMENT
$T1 = -1						; size = 1
__First$ = 8						; size = 4
__Last$ = 12						; size = 4
__Al$ = 16						; size = 4
??$_Destroy_range@V?$allocator@UConnection@@@std@@@std@@YAXPAUConnection@@0AAV?$allocator@UConnection@@@0@@Z PROC ; std::_Destroy_range<std::allocator<Connection> >, COMDAT

; 1112 : 	{	// destroy [_First, _Last), choose optimization

	push	ebp
	mov	ebp, esp
	push	ecx
	mov	DWORD PTR [ebp-4], -858993460		; ccccccccH

; 1113 : 		// note that this is an optimization for debug mode codegen;
; 1114 : 		// in release mode the BE removes all of this
; 1115 : 	using _Val = typename _Alloc::value_type;
; 1116 : 	_Destroy_range1(_First, _Last, _Al, _Conjunction_t<

	movzx	eax, BYTE PTR $T1[ebp]
	push	eax
	mov	ecx, DWORD PTR __Al$[ebp]
	push	ecx
	mov	edx, DWORD PTR __Last$[ebp]
	push	edx
	mov	eax, DWORD PTR __First$[ebp]
	push	eax
	call	??$_Destroy_range1@V?$allocator@UConnection@@@std@@@std@@YAXPAUConnection@@0AAV?$allocator@UConnection@@@0@U?$integral_constant@_N$00@0@@Z ; std::_Destroy_range1<std::allocator<Connection> >
	add	esp, 16					; 00000010H

; 1117 : 		is_trivially_destructible<_Val>,
; 1118 : 		_Uses_default_destroy<_Alloc, _Val *>>());
; 1119 : 	}

	add	esp, 4
	cmp	ebp, esp
	call	__RTC_CheckEsp
	mov	esp, ebp
	pop	ebp
	ret	0
??$_Destroy_range@V?$allocator@UConnection@@@std@@@std@@YAXPAUConnection@@0AAV?$allocator@UConnection@@@0@@Z ENDP ; std::_Destroy_range<std::allocator<Connection> >
_TEXT	ENDS
; Function compile flags: /Odtp /RTCsu
; File c:\program files (x86)\microsoft visual studio\2017\community\vc\tools\msvc\14.11.25503\include\xmemory0
;	COMDAT ??$?0UConnection@@@?$allocator@U_Container_proxy@std@@@std@@QAE@ABV?$allocator@UConnection@@@1@@Z
_TEXT	SEGMENT
_this$ = -4						; size = 4
___formal$ = 8						; size = 4
??$?0UConnection@@@?$allocator@U_Container_proxy@std@@@std@@QAE@ABV?$allocator@UConnection@@@1@@Z PROC ; std::allocator<std::_Container_proxy>::allocator<std::_Container_proxy><Connection>, COMDAT
; _this$ = ecx

; 936  : 		{	// construct from a related allocator (do nothing)

	push	ebp
	mov	ebp, esp
	push	ecx
	mov	DWORD PTR [ebp-4], -858993460		; ccccccccH
	mov	DWORD PTR _this$[ebp], ecx

; 937  : 		}

	mov	eax, DWORD PTR _this$[ebp]
	mov	esp, ebp
	pop	ebp
	ret	4
??$?0UConnection@@@?$allocator@U_Container_proxy@std@@@std@@QAE@ABV?$allocator@UConnection@@@1@@Z ENDP ; std::allocator<std::_Container_proxy>::allocator<std::_Container_proxy><Connection>
_TEXT	ENDS
; Function compile flags: /Odtp /RTCsu
; File c:\program files (x86)\microsoft visual studio\2017\community\vc\tools\msvc\14.11.25503\include\vector
;	COMDAT ??$?0V?$allocator@VNeuron@@@std@@X@?$_Vector_alloc@U?$_Vec_base_types@VNeuron@@V?$allocator@VNeuron@@@std@@@std@@@std@@QAE@$$QAV?$allocator@VNeuron@@@1@@Z
_TEXT	SEGMENT
$T2 = -17						; size = 1
_this$ = -16						; size = 4
__$EHRec$ = -12						; size = 12
__Al$ = 8						; size = 4
??$?0V?$allocator@VNeuron@@@std@@X@?$_Vector_alloc@U?$_Vec_base_types@VNeuron@@V?$allocator@VNeuron@@@std@@@std@@@std@@QAE@$$QAV?$allocator@VNeuron@@@1@@Z PROC ; std::_Vector_alloc<std::_Vec_base_types<Neuron,std::allocator<Neuron> > >::_Vector_alloc<std::_Vec_base_types<Neuron,std::allocator<Neuron> > ><std::allocator<Neuron>,void>, COMDAT
; _this$ = ecx

; 500  : 		{	// construct allocator from _Al

	push	ebp
	mov	ebp, esp
	push	-1
	push	__ehhandler$??$?0V?$allocator@VNeuron@@@std@@X@?$_Vector_alloc@U?$_Vec_base_types@VNeuron@@V?$allocator@VNeuron@@@std@@@std@@@std@@QAE@$$QAV?$allocator@VNeuron@@@1@@Z
	mov	eax, DWORD PTR fs:0
	push	eax
	sub	esp, 8
	mov	DWORD PTR [ebp-20], -858993460		; ccccccccH
	mov	DWORD PTR [ebp-16], -858993460		; ccccccccH
	mov	eax, DWORD PTR ___security_cookie
	xor	eax, ebp
	push	eax
	lea	eax, DWORD PTR __$EHRec$[ebp]
	mov	DWORD PTR fs:0, eax
	mov	DWORD PTR _this$[ebp], ecx

; 498  : 		: _Mypair(_One_then_variadic_args_t(),

	mov	eax, DWORD PTR __Al$[ebp]
	push	eax
	call	??$forward@V?$allocator@VNeuron@@@std@@@std@@YA$$QAV?$allocator@VNeuron@@@0@AAV10@@Z ; std::forward<std::allocator<Neuron> >
	add	esp, 4
	push	eax
	movzx	ecx, BYTE PTR $T2[ebp]
	push	ecx
	mov	ecx, DWORD PTR _this$[ebp]
	call	??$?0V?$allocator@VNeuron@@@std@@$$V@?$_Compressed_pair@V?$allocator@VNeuron@@@std@@V?$_Vector_val@U?$_Simple_types@VNeuron@@@std@@@2@$00@std@@QAE@U_One_then_variadic_args_t@1@$$QAV?$allocator@VNeuron@@@1@@Z ; std::_Compressed_pair<std::allocator<Neuron>,std::_Vector_val<std::_Simple_types<Neuron> >,1>::_Compressed_pair<std::allocator<Neuron>,std::_Vector_val<std::_Simple_types<Neuron> >,1><std::allocator<Neuron> >
	mov	DWORD PTR __$EHRec$[ebp+8], 0

; 501  : 		_Alloc_proxy();

	mov	ecx, DWORD PTR _this$[ebp]
	call	?_Alloc_proxy@?$_Vector_alloc@U?$_Vec_base_types@VNeuron@@V?$allocator@VNeuron@@@std@@@std@@@std@@QAEXXZ ; std::_Vector_alloc<std::_Vec_base_types<Neuron,std::allocator<Neuron> > >::_Alloc_proxy

; 502  : 		}

	mov	DWORD PTR __$EHRec$[ebp+8], -1
	mov	eax, DWORD PTR _this$[ebp]
	mov	ecx, DWORD PTR __$EHRec$[ebp]
	mov	DWORD PTR fs:0, ecx
	pop	ecx
	add	esp, 20					; 00000014H
	cmp	ebp, esp
	call	__RTC_CheckEsp
	mov	esp, ebp
	pop	ebp
	ret	4
_TEXT	ENDS
;	COMDAT text$x
text$x	SEGMENT
__unwindfunclet$??$?0V?$allocator@VNeuron@@@std@@X@?$_Vector_alloc@U?$_Vec_base_types@VNeuron@@V?$allocator@VNeuron@@@std@@@std@@@std@@QAE@$$QAV?$allocator@VNeuron@@@1@@Z$0:
	mov	ecx, DWORD PTR _this$[ebp]
	jmp	??1?$_Compressed_pair@V?$allocator@VNeuron@@@std@@V?$_Vector_val@U?$_Simple_types@VNeuron@@@std@@@2@$00@std@@QAE@XZ
__ehhandler$??$?0V?$allocator@VNeuron@@@std@@X@?$_Vector_alloc@U?$_Vec_base_types@VNeuron@@V?$allocator@VNeuron@@@std@@@std@@@std@@QAE@$$QAV?$allocator@VNeuron@@@1@@Z:
	mov	edx, DWORD PTR [esp+8]
	lea	eax, DWORD PTR [edx+12]
	mov	ecx, DWORD PTR [edx-12]
	xor	ecx, eax
	call	@__security_check_cookie@4
	mov	eax, OFFSET __ehfuncinfo$??$?0V?$allocator@VNeuron@@@std@@X@?$_Vector_alloc@U?$_Vec_base_types@VNeuron@@V?$allocator@VNeuron@@@std@@@std@@@std@@QAE@$$QAV?$allocator@VNeuron@@@1@@Z
	jmp	___CxxFrameHandler3
text$x	ENDS
??$?0V?$allocator@VNeuron@@@std@@X@?$_Vector_alloc@U?$_Vec_base_types@VNeuron@@V?$allocator@VNeuron@@@std@@@std@@@std@@QAE@$$QAV?$allocator@VNeuron@@@1@@Z ENDP ; std::_Vector_alloc<std::_Vec_base_types<Neuron,std::allocator<Neuron> > >::_Vector_alloc<std::_Vec_base_types<Neuron,std::allocator<Neuron> > ><std::allocator<Neuron>,void>
; Function compile flags: /Odtp /RTCsu
; File c:\program files (x86)\microsoft visual studio\2017\community\vc\tools\msvc\14.11.25503\include\type_traits
;	COMDAT ??$move@AAV?$allocator@VNeuron@@@std@@@std@@YA$$QAV?$allocator@VNeuron@@@0@AAV10@@Z
_TEXT	SEGMENT
__Arg$ = 8						; size = 4
??$move@AAV?$allocator@VNeuron@@@std@@@std@@YA$$QAV?$allocator@VNeuron@@@0@AAV10@@Z PROC ; std::move<std::allocator<Neuron> &>, COMDAT

; 1606 : 	{	// forward _Arg as movable

	push	ebp
	mov	ebp, esp

; 1607 : 	return (static_cast<remove_reference_t<_Ty>&&>(_Arg));

	mov	eax, DWORD PTR __Arg$[ebp]

; 1608 : 	}

	pop	ebp
	ret	0
??$move@AAV?$allocator@VNeuron@@@std@@@std@@YA$$QAV?$allocator@VNeuron@@@0@AAV10@@Z ENDP ; std::move<std::allocator<Neuron> &>
_TEXT	ENDS
; Function compile flags: /Odtp /RTCsu
; File c:\program files (x86)\microsoft visual studio\2017\community\vc\tools\msvc\14.11.25503\include\vector
;	COMDAT ??$_Ucopy@PAUConnection@@@?$vector@UConnection@@V?$allocator@UConnection@@@std@@@std@@AAEPAUConnection@@PAU2@00@Z
_TEXT	SEGMENT
_this$ = -4						; size = 4
__First$ = 8						; size = 4
__Last$ = 12						; size = 4
__Dest$ = 16						; size = 4
??$_Ucopy@PAUConnection@@@?$vector@UConnection@@V?$allocator@UConnection@@@std@@@std@@AAEPAUConnection@@PAU2@00@Z PROC ; std::vector<Connection,std::allocator<Connection> >::_Ucopy<Connection *>, COMDAT
; _this$ = ecx

; 1913 : 		{	// copy [_First, _Last) to raw _Dest, using allocator

	push	ebp
	mov	ebp, esp
	push	ecx
	mov	DWORD PTR [ebp-4], -858993460		; ccccccccH
	mov	DWORD PTR _this$[ebp], ecx

; 1914 : 		return (_Uninitialized_copy(_First, _Last, _Dest, this->_Getal()));

	mov	ecx, DWORD PTR _this$[ebp]
	call	?_Getal@?$_Vector_alloc@U?$_Vec_base_types@UConnection@@V?$allocator@UConnection@@@std@@@std@@@std@@QAEAAV?$allocator@UConnection@@@2@XZ ; std::_Vector_alloc<std::_Vec_base_types<Connection,std::allocator<Connection> > >::_Getal
	push	eax
	mov	eax, DWORD PTR __Dest$[ebp]
	push	eax
	mov	ecx, DWORD PTR __Last$[ebp]
	push	ecx
	mov	edx, DWORD PTR __First$[ebp]
	push	edx
	call	??$_Uninitialized_copy@PAUConnection@@PAU1@V?$allocator@UConnection@@@std@@@std@@YAPAUConnection@@PAU1@00AAV?$allocator@UConnection@@@0@@Z ; std::_Uninitialized_copy<Connection *,Connection *,std::allocator<Connection> >
	add	esp, 16					; 00000010H

; 1915 : 		}

	add	esp, 4
	cmp	ebp, esp
	call	__RTC_CheckEsp
	mov	esp, ebp
	pop	ebp
	ret	12					; 0000000cH
??$_Ucopy@PAUConnection@@@?$vector@UConnection@@V?$allocator@UConnection@@@std@@@std@@AAEPAUConnection@@PAU2@00@Z ENDP ; std::vector<Connection,std::allocator<Connection> >::_Ucopy<Connection *>
_TEXT	ENDS
; Function compile flags: /Odtp /RTCsu
; File c:\program files (x86)\microsoft visual studio\2017\community\vc\tools\msvc\14.11.25503\include\vector
;	COMDAT ??$?0V?$allocator@UConnection@@@std@@X@?$_Vector_alloc@U?$_Vec_base_types@UConnection@@V?$allocator@UConnection@@@std@@@std@@@std@@QAE@$$QAV?$allocator@UConnection@@@1@@Z
_TEXT	SEGMENT
$T2 = -17						; size = 1
_this$ = -16						; size = 4
__$EHRec$ = -12						; size = 12
__Al$ = 8						; size = 4
??$?0V?$allocator@UConnection@@@std@@X@?$_Vector_alloc@U?$_Vec_base_types@UConnection@@V?$allocator@UConnection@@@std@@@std@@@std@@QAE@$$QAV?$allocator@UConnection@@@1@@Z PROC ; std::_Vector_alloc<std::_Vec_base_types<Connection,std::allocator<Connection> > >::_Vector_alloc<std::_Vec_base_types<Connection,std::allocator<Connection> > ><std::allocator<Connection>,void>, COMDAT
; _this$ = ecx

; 500  : 		{	// construct allocator from _Al

	push	ebp
	mov	ebp, esp
	push	-1
	push	__ehhandler$??$?0V?$allocator@UConnection@@@std@@X@?$_Vector_alloc@U?$_Vec_base_types@UConnection@@V?$allocator@UConnection@@@std@@@std@@@std@@QAE@$$QAV?$allocator@UConnection@@@1@@Z
	mov	eax, DWORD PTR fs:0
	push	eax
	sub	esp, 8
	mov	DWORD PTR [ebp-20], -858993460		; ccccccccH
	mov	DWORD PTR [ebp-16], -858993460		; ccccccccH
	mov	eax, DWORD PTR ___security_cookie
	xor	eax, ebp
	push	eax
	lea	eax, DWORD PTR __$EHRec$[ebp]
	mov	DWORD PTR fs:0, eax
	mov	DWORD PTR _this$[ebp], ecx

; 498  : 		: _Mypair(_One_then_variadic_args_t(),

	mov	eax, DWORD PTR __Al$[ebp]
	push	eax
	call	??$forward@V?$allocator@UConnection@@@std@@@std@@YA$$QAV?$allocator@UConnection@@@0@AAV10@@Z ; std::forward<std::allocator<Connection> >
	add	esp, 4
	push	eax
	movzx	ecx, BYTE PTR $T2[ebp]
	push	ecx
	mov	ecx, DWORD PTR _this$[ebp]
	call	??$?0V?$allocator@UConnection@@@std@@$$V@?$_Compressed_pair@V?$allocator@UConnection@@@std@@V?$_Vector_val@U?$_Simple_types@UConnection@@@std@@@2@$00@std@@QAE@U_One_then_variadic_args_t@1@$$QAV?$allocator@UConnection@@@1@@Z ; std::_Compressed_pair<std::allocator<Connection>,std::_Vector_val<std::_Simple_types<Connection> >,1>::_Compressed_pair<std::allocator<Connection>,std::_Vector_val<std::_Simple_types<Connection> >,1><std::allocator<Connection> >
	mov	DWORD PTR __$EHRec$[ebp+8], 0

; 501  : 		_Alloc_proxy();

	mov	ecx, DWORD PTR _this$[ebp]
	call	?_Alloc_proxy@?$_Vector_alloc@U?$_Vec_base_types@UConnection@@V?$allocator@UConnection@@@std@@@std@@@std@@QAEXXZ ; std::_Vector_alloc<std::_Vec_base_types<Connection,std::allocator<Connection> > >::_Alloc_proxy

; 502  : 		}

	mov	DWORD PTR __$EHRec$[ebp+8], -1
	mov	eax, DWORD PTR _this$[ebp]
	mov	ecx, DWORD PTR __$EHRec$[ebp]
	mov	DWORD PTR fs:0, ecx
	pop	ecx
	add	esp, 20					; 00000014H
	cmp	ebp, esp
	call	__RTC_CheckEsp
	mov	esp, ebp
	pop	ebp
	ret	4
_TEXT	ENDS
;	COMDAT text$x
text$x	SEGMENT
__unwindfunclet$??$?0V?$allocator@UConnection@@@std@@X@?$_Vector_alloc@U?$_Vec_base_types@UConnection@@V?$allocator@UConnection@@@std@@@std@@@std@@QAE@$$QAV?$allocator@UConnection@@@1@@Z$0:
	mov	ecx, DWORD PTR _this$[ebp]
	jmp	??1?$_Compressed_pair@V?$allocator@UConnection@@@std@@V?$_Vector_val@U?$_Simple_types@UConnection@@@std@@@2@$00@std@@QAE@XZ
__ehhandler$??$?0V?$allocator@UConnection@@@std@@X@?$_Vector_alloc@U?$_Vec_base_types@UConnection@@V?$allocator@UConnection@@@std@@@std@@@std@@QAE@$$QAV?$allocator@UConnection@@@1@@Z:
	mov	edx, DWORD PTR [esp+8]
	lea	eax, DWORD PTR [edx+12]
	mov	ecx, DWORD PTR [edx-12]
	xor	ecx, eax
	call	@__security_check_cookie@4
	mov	eax, OFFSET __ehfuncinfo$??$?0V?$allocator@UConnection@@@std@@X@?$_Vector_alloc@U?$_Vec_base_types@UConnection@@V?$allocator@UConnection@@@std@@@std@@@std@@QAE@$$QAV?$allocator@UConnection@@@1@@Z
	jmp	___CxxFrameHandler3
text$x	ENDS
??$?0V?$allocator@UConnection@@@std@@X@?$_Vector_alloc@U?$_Vec_base_types@UConnection@@V?$allocator@UConnection@@@std@@@std@@@std@@QAE@$$QAV?$allocator@UConnection@@@1@@Z ENDP ; std::_Vector_alloc<std::_Vec_base_types<Connection,std::allocator<Connection> > >::_Vector_alloc<std::_Vec_base_types<Connection,std::allocator<Connection> > ><std::allocator<Connection>,void>
; Function compile flags: /Odtp /RTCsu
; File c:\program files (x86)\microsoft visual studio\2017\community\vc\tools\msvc\14.11.25503\include\xutility
;	COMDAT ??$_Rechecked@PAVNeuron@@PAV1@@std@@YAAAPAVNeuron@@AAPAV1@PAV1@@Z
_TEXT	SEGMENT
__Dest$ = 8						; size = 4
__Src$ = 12						; size = 4
??$_Rechecked@PAVNeuron@@PAV1@@std@@YAAAPAVNeuron@@AAPAV1@PAV1@@Z PROC ; std::_Rechecked<Neuron *,Neuron *>, COMDAT

; 480  : 	{	// reset checked from unchecked, generic

	push	ebp
	mov	ebp, esp

; 481  : 	_Dest = _Src;

	mov	eax, DWORD PTR __Dest$[ebp]
	mov	ecx, DWORD PTR __Src$[ebp]
	mov	DWORD PTR [eax], ecx

; 482  : 	return (_Dest);

	mov	eax, DWORD PTR __Dest$[ebp]

; 483  : 	}

	pop	ebp
	ret	0
??$_Rechecked@PAVNeuron@@PAV1@@std@@YAAAPAVNeuron@@AAPAV1@PAV1@@Z ENDP ; std::_Rechecked<Neuron *,Neuron *>
_TEXT	ENDS
; Function compile flags: /Odtp /RTCsu
; File c:\program files (x86)\microsoft visual studio\2017\community\vc\tools\msvc\14.11.25503\include\xmemory
;	COMDAT ??$_Uninitialized_copy_al_unchecked@PAVNeuron@@PAV1@V?$allocator@VNeuron@@@std@@@std@@YAPAVNeuron@@PAV1@00AAV?$allocator@VNeuron@@@0@U_General_ptr_iterator_tag@0@U_Unused_parameter@0@@Z
_TEXT	SEGMENT
tv78 = -24						; size = 4
__Next$ = -20						; size = 4
__$EHRec$ = -16						; size = 16
__First$ = 8						; size = 4
__Last$ = 12						; size = 4
__Dest$ = 16						; size = 4
__Al$ = 20						; size = 4
___formal$ = 24						; size = 1
___formal$ = 28						; size = 1
??$_Uninitialized_copy_al_unchecked@PAVNeuron@@PAV1@V?$allocator@VNeuron@@@std@@@std@@YAPAVNeuron@@PAV1@00AAV?$allocator@VNeuron@@@0@U_General_ptr_iterator_tag@0@U_Unused_parameter@0@@Z PROC ; std::_Uninitialized_copy_al_unchecked<Neuron *,Neuron *,std::allocator<Neuron> >, COMDAT

; 86   : 	{	// copy [_First, _Last) to raw _Dest, using _Al, no special optimization

	push	ebp
	mov	ebp, esp
	push	-1
	push	__ehhandler$??$_Uninitialized_copy_al_unchecked@PAVNeuron@@PAV1@V?$allocator@VNeuron@@@std@@@std@@YAPAVNeuron@@PAV1@00AAV?$allocator@VNeuron@@@0@U_General_ptr_iterator_tag@0@U_Unused_parameter@0@@Z
	mov	eax, DWORD PTR fs:0
	push	eax
	push	ecx
	sub	esp, 8
	push	ebx
	push	esi
	push	edi
	mov	DWORD PTR [ebp-24], -858993460		; ccccccccH
	mov	DWORD PTR [ebp-20], -858993460		; ccccccccH
	mov	eax, DWORD PTR ___security_cookie
	xor	eax, ebp
	push	eax
	lea	eax, DWORD PTR __$EHRec$[ebp+4]
	mov	DWORD PTR fs:0, eax
	mov	DWORD PTR __$EHRec$[ebp], esp

; 87   : 	_FwdIt _Next = _Dest;

	mov	eax, DWORD PTR __Dest$[ebp]
	mov	DWORD PTR __Next$[ebp], eax

; 88   : 
; 89   : 	_TRY_BEGIN

	mov	DWORD PTR __$EHRec$[ebp+12], 0

; 90   : 	for (; _First != _Last; ++_Dest, (void)++_First)

	jmp	SHORT $LN4@Uninitiali
$LN2@Uninitiali:
	mov	ecx, DWORD PTR __Dest$[ebp]
	add	ecx, 40					; 00000028H
	mov	DWORD PTR __Dest$[ebp], ecx
	mov	edx, DWORD PTR __First$[ebp]
	add	edx, 40					; 00000028H
	mov	DWORD PTR __First$[ebp], edx
$LN4@Uninitiali:
	mov	eax, DWORD PTR __First$[ebp]
	cmp	eax, DWORD PTR __Last$[ebp]
	je	SHORT $LN3@Uninitiali

; 91   : 		{
; 92   : 		allocator_traits<_Alloc>::construct(_Al, _Unfancy(_Dest), *_First);

	mov	ecx, DWORD PTR __Dest$[ebp]
	push	ecx
	call	??$_Unfancy@VNeuron@@@std@@YAPAVNeuron@@PAV1@@Z ; std::_Unfancy<Neuron>
	add	esp, 4
	mov	DWORD PTR tv78[ebp], eax
	mov	edx, DWORD PTR __First$[ebp]
	push	edx
	mov	eax, DWORD PTR tv78[ebp]
	push	eax
	mov	ecx, DWORD PTR __Al$[ebp]
	push	ecx
	call	??$construct@VNeuron@@AAV1@@?$_Default_allocator_traits@V?$allocator@VNeuron@@@std@@@std@@SAXAAV?$allocator@VNeuron@@@1@QAVNeuron@@AAV3@@Z ; std::_Default_allocator_traits<std::allocator<Neuron> >::construct<Neuron,Neuron &>
	add	esp, 12					; 0000000cH

; 93   : 		}

	jmp	SHORT $LN2@Uninitiali
$LN3@Uninitiali:
	jmp	SHORT $LN7@Uninitiali
__catch$??$_Uninitialized_copy_al_unchecked@PAVNeuron@@PAV1@V?$allocator@VNeuron@@@std@@@std@@YAPAVNeuron@@PAV1@00AAV?$allocator@VNeuron@@@0@U_General_ptr_iterator_tag@0@U_Unused_parameter@0@@Z$0:

; 94   : 
; 95   : 	_CATCH_ALL
; 96   : 	_Destroy_range(_Next, _Dest, _Al);

	mov	edx, DWORD PTR __Al$[ebp]
	push	edx
	mov	eax, DWORD PTR __Dest$[ebp]
	push	eax
	mov	ecx, DWORD PTR __Next$[ebp]
	push	ecx
	call	??$_Destroy_range@V?$allocator@VNeuron@@@std@@@std@@YAXPAVNeuron@@0AAV?$allocator@VNeuron@@@0@@Z ; std::_Destroy_range<std::allocator<Neuron> >
	add	esp, 12					; 0000000cH

; 97   : 	_RERAISE;

	push	0
	push	0
	call	__CxxThrowException@8

; 98   : 	_CATCH_END

	mov	eax, $LN10@Uninitiali
	ret	0
$LN7@Uninitiali:
	mov	DWORD PTR __$EHRec$[ebp+12], -1
	jmp	SHORT __tryend$??$_Uninitialized_copy_al_unchecked@PAVNeuron@@PAV1@V?$allocator@VNeuron@@@std@@@std@@YAPAVNeuron@@PAV1@00AAV?$allocator@VNeuron@@@0@U_General_ptr_iterator_tag@0@U_Unused_parameter@0@@Z$1
$LN10@Uninitiali:
	mov	DWORD PTR __$EHRec$[ebp+12], -1
__tryend$??$_Uninitialized_copy_al_unchecked@PAVNeuron@@PAV1@V?$allocator@VNeuron@@@std@@@std@@YAPAVNeuron@@PAV1@00AAV?$allocator@VNeuron@@@0@U_General_ptr_iterator_tag@0@U_Unused_parameter@0@@Z$1:

; 99   : 
; 100  : 	return (_Dest);

	mov	eax, DWORD PTR __Dest$[ebp]
$LN6@Uninitiali:

; 101  : 	}

	mov	ecx, DWORD PTR __$EHRec$[ebp+4]
	mov	DWORD PTR fs:0, ecx
	pop	ecx
	pop	edi
	pop	esi
	pop	ebx
	add	esp, 24					; 00000018H
	cmp	ebp, esp
	call	__RTC_CheckEsp
	mov	esp, ebp
	pop	ebp
	ret	0
_TEXT	ENDS
;	COMDAT text$x
text$x	SEGMENT
__ehhandler$??$_Uninitialized_copy_al_unchecked@PAVNeuron@@PAV1@V?$allocator@VNeuron@@@std@@@std@@YAPAVNeuron@@PAV1@00AAV?$allocator@VNeuron@@@0@U_General_ptr_iterator_tag@0@U_Unused_parameter@0@@Z:
	mov	edx, DWORD PTR [esp+8]
	lea	eax, DWORD PTR [edx+12]
	mov	ecx, DWORD PTR [edx-28]
	xor	ecx, eax
	call	@__security_check_cookie@4
	mov	eax, OFFSET __ehfuncinfo$??$_Uninitialized_copy_al_unchecked@PAVNeuron@@PAV1@V?$allocator@VNeuron@@@std@@@std@@YAPAVNeuron@@PAV1@00AAV?$allocator@VNeuron@@@0@U_General_ptr_iterator_tag@0@U_Unused_parameter@0@@Z
	jmp	___CxxFrameHandler3
text$x	ENDS
??$_Uninitialized_copy_al_unchecked@PAVNeuron@@PAV1@V?$allocator@VNeuron@@@std@@@std@@YAPAVNeuron@@PAV1@00AAV?$allocator@VNeuron@@@0@U_General_ptr_iterator_tag@0@U_Unused_parameter@0@@Z ENDP ; std::_Uninitialized_copy_al_unchecked<Neuron *,Neuron *,std::allocator<Neuron> >
; Function compile flags: /Odtp /RTCsu
; File c:\program files (x86)\microsoft visual studio\2017\community\vc\tools\msvc\14.11.25503\include\xutility
;	COMDAT ??$_Ptr_copy_cat@VNeuron@@V1@@std@@YA?AU_General_ptr_iterator_tag@0@ABQAVNeuron@@0@Z
_TEXT	SEGMENT
$T1 = -1						; size = 1
___formal$ = 8						; size = 4
___formal$ = 12						; size = 4
??$_Ptr_copy_cat@VNeuron@@V1@@std@@YA?AU_General_ptr_iterator_tag@0@ABQAVNeuron@@0@Z PROC ; std::_Ptr_copy_cat<Neuron,Neuron>, COMDAT

; 871  : 	{	// return pointer copy optimization category for pointers

	push	ebp
	mov	ebp, esp
	push	ecx
	mov	DWORD PTR [ebp-4], -858993460		; ccccccccH

; 872  : 	return {};

	xor	eax, eax
	mov	BYTE PTR $T1[ebp], al
	mov	al, BYTE PTR $T1[ebp]

; 873  : 	}

	mov	esp, ebp
	pop	ebp
	ret	0
??$_Ptr_copy_cat@VNeuron@@V1@@std@@YA?AU_General_ptr_iterator_tag@0@ABQAVNeuron@@0@Z ENDP ; std::_Ptr_copy_cat<Neuron,Neuron>
_TEXT	ENDS
; Function compile flags: /Odtp /RTCsu
; File c:\program files (x86)\microsoft visual studio\2017\community\vc\tools\msvc\14.11.25503\include\xutility
;	COMDAT ??$_Unchecked@PAVNeuron@@@std@@YAPAVNeuron@@PAV1@@Z
_TEXT	SEGMENT
__Src$ = 8						; size = 4
??$_Unchecked@PAVNeuron@@@std@@YAPAVNeuron@@PAV1@@Z PROC ; std::_Unchecked<Neuron *>, COMDAT

; 449  : 	{	// construct unchecked from checked, generic

	push	ebp
	mov	ebp, esp

; 450  : 	return (_Src);

	mov	eax, DWORD PTR __Src$[ebp]

; 451  : 	}

	pop	ebp
	ret	0
??$_Unchecked@PAVNeuron@@@std@@YAPAVNeuron@@PAV1@@Z ENDP ; std::_Unchecked<Neuron *>
_TEXT	ENDS
; Function compile flags: /Odtp /RTCsu
; File c:\program files (x86)\microsoft visual studio\2017\community\vc\tools\msvc\14.11.25503\include\xmemory0
;	COMDAT ??$_Destroy_range1@V?$allocator@VNeuron@@@std@@@std@@YAXPAVNeuron@@0AAV?$allocator@VNeuron@@@0@U?$integral_constant@_N$0A@@0@@Z
_TEXT	SEGMENT
__First$ = 8						; size = 4
__Last$ = 12						; size = 4
__Al$ = 16						; size = 4
___formal$ = 20						; size = 1
??$_Destroy_range1@V?$allocator@VNeuron@@@std@@@std@@YAXPAVNeuron@@0AAV?$allocator@VNeuron@@@0@U?$integral_constant@_N$0A@@0@@Z PROC ; std::_Destroy_range1<std::allocator<Neuron> >, COMDAT

; 1091 : 	{	// destroy [_First, _Last), no special optimization

	push	ebp
	mov	ebp, esp

; 1092 : 	for (; _First != _Last; ++_First)

	jmp	SHORT $LN4@Destroy_ra
$LN2@Destroy_ra:
	mov	eax, DWORD PTR __First$[ebp]
	add	eax, 40					; 00000028H
	mov	DWORD PTR __First$[ebp], eax
$LN4@Destroy_ra:
	mov	ecx, DWORD PTR __First$[ebp]
	cmp	ecx, DWORD PTR __Last$[ebp]
	je	SHORT $LN1@Destroy_ra

; 1093 : 		{
; 1094 : 		allocator_traits<_Alloc>::destroy(_Al, _Unfancy(_First));

	mov	edx, DWORD PTR __First$[ebp]
	push	edx
	call	??$_Unfancy@VNeuron@@@std@@YAPAVNeuron@@PAV1@@Z ; std::_Unfancy<Neuron>
	add	esp, 4
	push	eax
	mov	eax, DWORD PTR __Al$[ebp]
	push	eax
	call	??$destroy@VNeuron@@@?$_Default_allocator_traits@V?$allocator@VNeuron@@@std@@@std@@SAXAAV?$allocator@VNeuron@@@1@QAVNeuron@@@Z ; std::_Default_allocator_traits<std::allocator<Neuron> >::destroy<Neuron>
	add	esp, 8

; 1095 : 		}

	jmp	SHORT $LN2@Destroy_ra
$LN1@Destroy_ra:

; 1096 : 	}

	cmp	ebp, esp
	call	__RTC_CheckEsp
	pop	ebp
	ret	0
??$_Destroy_range1@V?$allocator@VNeuron@@@std@@@std@@YAXPAVNeuron@@0AAV?$allocator@VNeuron@@@0@U?$integral_constant@_N$0A@@0@@Z ENDP ; std::_Destroy_range1<std::allocator<Neuron> >
_TEXT	ENDS
; Function compile flags: /Odtp /RTCsu
; File c:\program files (x86)\microsoft visual studio\2017\community\vc\tools\msvc\14.11.25503\include\xutility
;	COMDAT ??$_Rechecked@PANPAN@std@@YAAAPANAAPANPAN@Z
_TEXT	SEGMENT
__Dest$ = 8						; size = 4
__Src$ = 12						; size = 4
??$_Rechecked@PANPAN@std@@YAAAPANAAPANPAN@Z PROC	; std::_Rechecked<double *,double *>, COMDAT

; 480  : 	{	// reset checked from unchecked, generic

	push	ebp
	mov	ebp, esp

; 481  : 	_Dest = _Src;

	mov	eax, DWORD PTR __Dest$[ebp]
	mov	ecx, DWORD PTR __Src$[ebp]
	mov	DWORD PTR [eax], ecx

; 482  : 	return (_Dest);

	mov	eax, DWORD PTR __Dest$[ebp]

; 483  : 	}

	pop	ebp
	ret	0
??$_Rechecked@PANPAN@std@@YAAAPANAAPANPAN@Z ENDP	; std::_Rechecked<double *,double *>
_TEXT	ENDS
; Function compile flags: /Odtp /RTCsu
; File c:\program files (x86)\microsoft visual studio\2017\community\vc\tools\msvc\14.11.25503\include\xmemory
;	COMDAT ??$_Uninitialized_move_al_unchecked@NNV?$allocator@N@std@@@std@@YAPANPAN00AAV?$allocator@N@0@U_Really_trivial_ptr_iterator_tag@0@U?$integral_constant@_N$00@0@@Z
_TEXT	SEGMENT
__First$ = 8						; size = 4
__Last$ = 12						; size = 4
__Dest$ = 16						; size = 4
___formal$ = 20						; size = 4
___formal$ = 24						; size = 1
___formal$ = 28						; size = 1
??$_Uninitialized_move_al_unchecked@NNV?$allocator@N@std@@@std@@YAPANPAN00AAV?$allocator@N@0@U_Really_trivial_ptr_iterator_tag@0@U?$integral_constant@_N$00@0@@Z PROC ; std::_Uninitialized_move_al_unchecked<double,double,std::allocator<double> >, COMDAT

; 156  : 	{	// move [_First, _Last) to raw _Dest, using default _Alloc construct, memmove optimization

	push	ebp
	mov	ebp, esp

; 157  : 	return (_Copy_memmove(_First, _Last, _Dest));

	mov	eax, DWORD PTR __Dest$[ebp]
	push	eax
	mov	ecx, DWORD PTR __Last$[ebp]
	push	ecx
	mov	edx, DWORD PTR __First$[ebp]
	push	edx
	call	??$_Copy_memmove@PANPAN@std@@YAPANPAN00@Z ; std::_Copy_memmove<double *,double *>
	add	esp, 12					; 0000000cH

; 158  : 	}

	cmp	ebp, esp
	call	__RTC_CheckEsp
	pop	ebp
	ret	0
??$_Uninitialized_move_al_unchecked@NNV?$allocator@N@std@@@std@@YAPANPAN00AAV?$allocator@N@0@U_Really_trivial_ptr_iterator_tag@0@U?$integral_constant@_N$00@0@@Z ENDP ; std::_Uninitialized_move_al_unchecked<double,double,std::allocator<double> >
_TEXT	ENDS
; Function compile flags: /Odtp /RTCsu
; File c:\program files (x86)\microsoft visual studio\2017\community\vc\tools\msvc\14.11.25503\include\xutility
;	COMDAT ??$_Ptr_move_cat@NN@std@@YA?AU_Really_trivial_ptr_iterator_tag@0@ABQAN0@Z
_TEXT	SEGMENT
___$ReturnUdt$ = 8					; size = 4
___formal$ = 12						; size = 4
___formal$ = 16						; size = 4
??$_Ptr_move_cat@NN@std@@YA?AU_Really_trivial_ptr_iterator_tag@0@ABQAN0@Z PROC ; std::_Ptr_move_cat<double,double>, COMDAT

; 888  : 	{	// return pointer move optimization category for pointers

	push	ebp
	mov	ebp, esp

; 889  : 	return {};

	mov	eax, DWORD PTR ___$ReturnUdt$[ebp]

; 890  : 	}

	pop	ebp
	ret	0
??$_Ptr_move_cat@NN@std@@YA?AU_Really_trivial_ptr_iterator_tag@0@ABQAN0@Z ENDP ; std::_Ptr_move_cat<double,double>
_TEXT	ENDS
; Function compile flags: /Odtp /RTCsu
; File c:\program files (x86)\microsoft visual studio\2017\community\vc\tools\msvc\14.11.25503\include\xutility
;	COMDAT ??$_Unchecked@PAN@std@@YAPANPAN@Z
_TEXT	SEGMENT
__Src$ = 8						; size = 4
??$_Unchecked@PAN@std@@YAPANPAN@Z PROC			; std::_Unchecked<double *>, COMDAT

; 449  : 	{	// construct unchecked from checked, generic

	push	ebp
	mov	ebp, esp

; 450  : 	return (_Src);

	mov	eax, DWORD PTR __Src$[ebp]

; 451  : 	}

	pop	ebp
	ret	0
??$_Unchecked@PAN@std@@YAPANPAN@Z ENDP			; std::_Unchecked<double *>
_TEXT	ENDS
; Function compile flags: /Odtp /RTCsu
; File c:\program files (x86)\microsoft visual studio\2017\community\vc\tools\msvc\14.11.25503\include\xutility
;	COMDAT ??$_Rechecked@PAV?$vector@VNeuron@@V?$allocator@VNeuron@@@std@@@std@@PAV12@@std@@YAAAPAV?$vector@VNeuron@@V?$allocator@VNeuron@@@std@@@0@AAPAV10@PAV10@@Z
_TEXT	SEGMENT
__Dest$ = 8						; size = 4
__Src$ = 12						; size = 4
??$_Rechecked@PAV?$vector@VNeuron@@V?$allocator@VNeuron@@@std@@@std@@PAV12@@std@@YAAAPAV?$vector@VNeuron@@V?$allocator@VNeuron@@@std@@@0@AAPAV10@PAV10@@Z PROC ; std::_Rechecked<std::vector<Neuron,std::allocator<Neuron> > *,std::vector<Neuron,std::allocator<Neuron> > *>, COMDAT

; 480  : 	{	// reset checked from unchecked, generic

	push	ebp
	mov	ebp, esp

; 481  : 	_Dest = _Src;

	mov	eax, DWORD PTR __Dest$[ebp]
	mov	ecx, DWORD PTR __Src$[ebp]
	mov	DWORD PTR [eax], ecx

; 482  : 	return (_Dest);

	mov	eax, DWORD PTR __Dest$[ebp]

; 483  : 	}

	pop	ebp
	ret	0
??$_Rechecked@PAV?$vector@VNeuron@@V?$allocator@VNeuron@@@std@@@std@@PAV12@@std@@YAAAPAV?$vector@VNeuron@@V?$allocator@VNeuron@@@std@@@0@AAPAV10@PAV10@@Z ENDP ; std::_Rechecked<std::vector<Neuron,std::allocator<Neuron> > *,std::vector<Neuron,std::allocator<Neuron> > *>
_TEXT	ENDS
; Function compile flags: /Odtp /RTCsu
; File c:\program files (x86)\microsoft visual studio\2017\community\vc\tools\msvc\14.11.25503\include\xutility
;	COMDAT ??$?0U?$integral_constant@_N$00@std@@@_Unused_parameter@std@@QAE@$$QAU?$integral_constant@_N$00@1@@Z
_TEXT	SEGMENT
_this$ = -4						; size = 4
___formal$ = 8						; size = 4
??$?0U?$integral_constant@_N$00@std@@@_Unused_parameter@std@@QAE@$$QAU?$integral_constant@_N$00@1@@Z PROC ; std::_Unused_parameter::_Unused_parameter<std::integral_constant<bool,1> >, COMDAT
; _this$ = ecx

; 551  : 		constexpr _Unused_parameter(_Ty&&) _NOEXCEPT {}

	push	ebp
	mov	ebp, esp
	push	ecx
	mov	DWORD PTR [ebp-4], -858993460		; ccccccccH
	mov	DWORD PTR _this$[ebp], ecx
	mov	eax, DWORD PTR _this$[ebp]
	mov	esp, ebp
	pop	ebp
	ret	4
??$?0U?$integral_constant@_N$00@std@@@_Unused_parameter@std@@QAE@$$QAU?$integral_constant@_N$00@1@@Z ENDP ; std::_Unused_parameter::_Unused_parameter<std::integral_constant<bool,1> >
_TEXT	ENDS
; Function compile flags: /Odtp /RTCsu
; File c:\program files (x86)\microsoft visual studio\2017\community\vc\tools\msvc\14.11.25503\include\xmemory
;	COMDAT ??$_Uninitialized_move_al_unchecked@PAV?$vector@VNeuron@@V?$allocator@VNeuron@@@std@@@std@@PAV12@V?$allocator@V?$vector@VNeuron@@V?$allocator@VNeuron@@@std@@@std@@@2@@std@@YAPAV?$vector@VNeuron@@V?$allocator@VNeuron@@@std@@@0@PAV10@00AAV?$allocator@V?$vector@VNeuron@@V?$allocator@VNeuron@@@std@@@std@@@0@U_General_ptr_iterator_tag@0@U_Unused_parameter@0@@Z
_TEXT	SEGMENT
tv80 = -24						; size = 4
__Next$ = -20						; size = 4
__$EHRec$ = -16						; size = 16
__First$ = 8						; size = 4
__Last$ = 12						; size = 4
__Dest$ = 16						; size = 4
__Al$ = 20						; size = 4
___formal$ = 24						; size = 1
___formal$ = 28						; size = 1
??$_Uninitialized_move_al_unchecked@PAV?$vector@VNeuron@@V?$allocator@VNeuron@@@std@@@std@@PAV12@V?$allocator@V?$vector@VNeuron@@V?$allocator@VNeuron@@@std@@@std@@@2@@std@@YAPAV?$vector@VNeuron@@V?$allocator@VNeuron@@@std@@@0@PAV10@00AAV?$allocator@V?$vector@VNeuron@@V?$allocator@VNeuron@@@std@@@std@@@0@U_General_ptr_iterator_tag@0@U_Unused_parameter@0@@Z PROC ; std::_Uninitialized_move_al_unchecked<std::vector<Neuron,std::allocator<Neuron> > *,std::vector<Neuron,std::allocator<Neuron> > *,std::allocator<std::vector<Neuron,std::allocator<Neuron> > > >, COMDAT

; 134  : 	{	// move [_First, _Last) to raw _Dest, using _Al, no special optimization

	push	ebp
	mov	ebp, esp
	push	-1
	push	__ehhandler$??$_Uninitialized_move_al_unchecked@PAV?$vector@VNeuron@@V?$allocator@VNeuron@@@std@@@std@@PAV12@V?$allocator@V?$vector@VNeuron@@V?$allocator@VNeuron@@@std@@@std@@@2@@std@@YAPAV?$vector@VNeuron@@V?$allocator@VNeuron@@@std@@@0@PAV10@00AAV?$allocator@V?$vector@VNeuron@@V?$allocator@VNeuron@@@std@@@std@@@0@U_General_ptr_iterator_tag@0@U_Unused_parameter@0@@Z
	mov	eax, DWORD PTR fs:0
	push	eax
	push	ecx
	sub	esp, 8
	push	ebx
	push	esi
	push	edi
	mov	DWORD PTR [ebp-24], -858993460		; ccccccccH
	mov	DWORD PTR [ebp-20], -858993460		; ccccccccH
	mov	eax, DWORD PTR ___security_cookie
	xor	eax, ebp
	push	eax
	lea	eax, DWORD PTR __$EHRec$[ebp+4]
	mov	DWORD PTR fs:0, eax
	mov	DWORD PTR __$EHRec$[ebp], esp

; 135  : 	_FwdIt _Next = _Dest;

	mov	eax, DWORD PTR __Dest$[ebp]
	mov	DWORD PTR __Next$[ebp], eax

; 136  : 
; 137  : 	_TRY_BEGIN

	mov	DWORD PTR __$EHRec$[ebp+12], 0

; 138  : 	for (; _First != _Last; ++_Dest, (void)++_First)

	jmp	SHORT $LN4@Uninitiali
$LN2@Uninitiali:
	mov	ecx, DWORD PTR __Dest$[ebp]
	add	ecx, 16					; 00000010H
	mov	DWORD PTR __Dest$[ebp], ecx
	mov	edx, DWORD PTR __First$[ebp]
	add	edx, 16					; 00000010H
	mov	DWORD PTR __First$[ebp], edx
$LN4@Uninitiali:
	mov	eax, DWORD PTR __First$[ebp]
	cmp	eax, DWORD PTR __Last$[ebp]
	je	SHORT $LN3@Uninitiali

; 139  : 		{
; 140  : 		allocator_traits<_Alloc>::construct(_Al, _Unfancy(_Dest), _STD move(*_First));

	mov	ecx, DWORD PTR __Dest$[ebp]
	push	ecx
	call	??$_Unfancy@V?$vector@VNeuron@@V?$allocator@VNeuron@@@std@@@std@@@std@@YAPAV?$vector@VNeuron@@V?$allocator@VNeuron@@@std@@@0@PAV10@@Z ; std::_Unfancy<std::vector<Neuron,std::allocator<Neuron> > >
	add	esp, 4
	mov	DWORD PTR tv80[ebp], eax
	mov	edx, DWORD PTR __First$[ebp]
	push	edx
	call	??$move@AAV?$vector@VNeuron@@V?$allocator@VNeuron@@@std@@@std@@@std@@YA$$QAV?$vector@VNeuron@@V?$allocator@VNeuron@@@std@@@0@AAV10@@Z ; std::move<std::vector<Neuron,std::allocator<Neuron> > &>
	add	esp, 4
	push	eax
	mov	eax, DWORD PTR tv80[ebp]
	push	eax
	mov	ecx, DWORD PTR __Al$[ebp]
	push	ecx
	call	??$construct@V?$vector@VNeuron@@V?$allocator@VNeuron@@@std@@@std@@V12@@?$_Default_allocator_traits@V?$allocator@V?$vector@VNeuron@@V?$allocator@VNeuron@@@std@@@std@@@std@@@std@@SAXAAV?$allocator@V?$vector@VNeuron@@V?$allocator@VNeuron@@@std@@@std@@@1@QAV?$vector@VNeuron@@V?$allocator@VNeuron@@@std@@@1@$$QAV31@@Z ; std::_Default_allocator_traits<std::allocator<std::vector<Neuron,std::allocator<Neuron> > > >::construct<std::vector<Neuron,std::allocator<Neuron> >,std::vector<Neuron,std::allocator<Neuron> > >
	add	esp, 12					; 0000000cH

; 141  : 		}

	jmp	SHORT $LN2@Uninitiali
$LN3@Uninitiali:
	jmp	SHORT $LN7@Uninitiali
__catch$??$_Uninitialized_move_al_unchecked@PAV?$vector@VNeuron@@V?$allocator@VNeuron@@@std@@@std@@PAV12@V?$allocator@V?$vector@VNeuron@@V?$allocator@VNeuron@@@std@@@std@@@2@@std@@YAPAV?$vector@VNeuron@@V?$allocator@VNeuron@@@std@@@0@PAV10@00AAV?$allocator@V?$vector@VNeuron@@V?$allocator@VNeuron@@@std@@@std@@@0@U_General_ptr_iterator_tag@0@U_Unused_parameter@0@@Z$0:

; 142  : 
; 143  : 	_CATCH_ALL
; 144  : 	_Destroy_range(_Next, _Dest, _Al);

	mov	edx, DWORD PTR __Al$[ebp]
	push	edx
	mov	eax, DWORD PTR __Dest$[ebp]
	push	eax
	mov	ecx, DWORD PTR __Next$[ebp]
	push	ecx
	call	??$_Destroy_range@V?$allocator@V?$vector@VNeuron@@V?$allocator@VNeuron@@@std@@@std@@@std@@@std@@YAXPAV?$vector@VNeuron@@V?$allocator@VNeuron@@@std@@@0@0AAV?$allocator@V?$vector@VNeuron@@V?$allocator@VNeuron@@@std@@@std@@@0@@Z ; std::_Destroy_range<std::allocator<std::vector<Neuron,std::allocator<Neuron> > > >
	add	esp, 12					; 0000000cH

; 145  : 	_RERAISE;

	push	0
	push	0
	call	__CxxThrowException@8

; 146  : 	_CATCH_END

	mov	eax, $LN10@Uninitiali
	ret	0
$LN7@Uninitiali:
	mov	DWORD PTR __$EHRec$[ebp+12], -1
	jmp	SHORT __tryend$??$_Uninitialized_move_al_unchecked@PAV?$vector@VNeuron@@V?$allocator@VNeuron@@@std@@@std@@PAV12@V?$allocator@V?$vector@VNeuron@@V?$allocator@VNeuron@@@std@@@std@@@2@@std@@YAPAV?$vector@VNeuron@@V?$allocator@VNeuron@@@std@@@0@PAV10@00AAV?$allocator@V?$vector@VNeuron@@V?$allocator@VNeuron@@@std@@@std@@@0@U_General_ptr_iterator_tag@0@U_Unused_parameter@0@@Z$1
$LN10@Uninitiali:
	mov	DWORD PTR __$EHRec$[ebp+12], -1
__tryend$??$_Uninitialized_move_al_unchecked@PAV?$vector@VNeuron@@V?$allocator@VNeuron@@@std@@@std@@PAV12@V?$allocator@V?$vector@VNeuron@@V?$allocator@VNeuron@@@std@@@std@@@2@@std@@YAPAV?$vector@VNeuron@@V?$allocator@VNeuron@@@std@@@0@PAV10@00AAV?$allocator@V?$vector@VNeuron@@V?$allocator@VNeuron@@@std@@@std@@@0@U_General_ptr_iterator_tag@0@U_Unused_parameter@0@@Z$1:

; 147  : 
; 148  : 	return (_Dest);

	mov	eax, DWORD PTR __Dest$[ebp]
$LN6@Uninitiali:

; 149  : 	}

	mov	ecx, DWORD PTR __$EHRec$[ebp+4]
	mov	DWORD PTR fs:0, ecx
	pop	ecx
	pop	edi
	pop	esi
	pop	ebx
	add	esp, 24					; 00000018H
	cmp	ebp, esp
	call	__RTC_CheckEsp
	mov	esp, ebp
	pop	ebp
	ret	0
_TEXT	ENDS
;	COMDAT text$x
text$x	SEGMENT
__ehhandler$??$_Uninitialized_move_al_unchecked@PAV?$vector@VNeuron@@V?$allocator@VNeuron@@@std@@@std@@PAV12@V?$allocator@V?$vector@VNeuron@@V?$allocator@VNeuron@@@std@@@std@@@2@@std@@YAPAV?$vector@VNeuron@@V?$allocator@VNeuron@@@std@@@0@PAV10@00AAV?$allocator@V?$vector@VNeuron@@V?$allocator@VNeuron@@@std@@@std@@@0@U_General_ptr_iterator_tag@0@U_Unused_parameter@0@@Z:
	mov	edx, DWORD PTR [esp+8]
	lea	eax, DWORD PTR [edx+12]
	mov	ecx, DWORD PTR [edx-28]
	xor	ecx, eax
	call	@__security_check_cookie@4
	mov	eax, OFFSET __ehfuncinfo$??$_Uninitialized_move_al_unchecked@PAV?$vector@VNeuron@@V?$allocator@VNeuron@@@std@@@std@@PAV12@V?$allocator@V?$vector@VNeuron@@V?$allocator@VNeuron@@@std@@@std@@@2@@std@@YAPAV?$vector@VNeuron@@V?$allocator@VNeuron@@@std@@@0@PAV10@00AAV?$allocator@V?$vector@VNeuron@@V?$allocator@VNeuron@@@std@@@std@@@0@U_General_ptr_iterator_tag@0@U_Unused_parameter@0@@Z
	jmp	___CxxFrameHandler3
text$x	ENDS
??$_Uninitialized_move_al_unchecked@PAV?$vector@VNeuron@@V?$allocator@VNeuron@@@std@@@std@@PAV12@V?$allocator@V?$vector@VNeuron@@V?$allocator@VNeuron@@@std@@@std@@@2@@std@@YAPAV?$vector@VNeuron@@V?$allocator@VNeuron@@@std@@@0@PAV10@00AAV?$allocator@V?$vector@VNeuron@@V?$allocator@VNeuron@@@std@@@std@@@0@U_General_ptr_iterator_tag@0@U_Unused_parameter@0@@Z ENDP ; std::_Uninitialized_move_al_unchecked<std::vector<Neuron,std::allocator<Neuron> > *,std::vector<Neuron,std::allocator<Neuron> > *,std::allocator<std::vector<Neuron,std::allocator<Neuron> > > >
; Function compile flags: /Odtp /RTCsu
; File c:\program files (x86)\microsoft visual studio\2017\community\vc\tools\msvc\14.11.25503\include\xutility
;	COMDAT ??$_Ptr_move_cat@V?$vector@VNeuron@@V?$allocator@VNeuron@@@std@@@std@@V12@@std@@YA?AU_General_ptr_iterator_tag@0@ABQAV?$vector@VNeuron@@V?$allocator@VNeuron@@@std@@@0@0@Z
_TEXT	SEGMENT
$T1 = -1						; size = 1
___formal$ = 8						; size = 4
___formal$ = 12						; size = 4
??$_Ptr_move_cat@V?$vector@VNeuron@@V?$allocator@VNeuron@@@std@@@std@@V12@@std@@YA?AU_General_ptr_iterator_tag@0@ABQAV?$vector@VNeuron@@V?$allocator@VNeuron@@@std@@@0@0@Z PROC ; std::_Ptr_move_cat<std::vector<Neuron,std::allocator<Neuron> >,std::vector<Neuron,std::allocator<Neuron> > >, COMDAT

; 888  : 	{	// return pointer move optimization category for pointers

	push	ebp
	mov	ebp, esp
	push	ecx
	mov	DWORD PTR [ebp-4], -858993460		; ccccccccH

; 889  : 	return {};

	xor	eax, eax
	mov	BYTE PTR $T1[ebp], al
	mov	al, BYTE PTR $T1[ebp]

; 890  : 	}

	mov	esp, ebp
	pop	ebp
	ret	0
??$_Ptr_move_cat@V?$vector@VNeuron@@V?$allocator@VNeuron@@@std@@@std@@V12@@std@@YA?AU_General_ptr_iterator_tag@0@ABQAV?$vector@VNeuron@@V?$allocator@VNeuron@@@std@@@0@0@Z ENDP ; std::_Ptr_move_cat<std::vector<Neuron,std::allocator<Neuron> >,std::vector<Neuron,std::allocator<Neuron> > >
_TEXT	ENDS
; Function compile flags: /Odtp /RTCsu
; File c:\program files (x86)\microsoft visual studio\2017\community\vc\tools\msvc\14.11.25503\include\xutility
;	COMDAT ??$_Unchecked@PAV?$vector@VNeuron@@V?$allocator@VNeuron@@@std@@@std@@@std@@YAPAV?$vector@VNeuron@@V?$allocator@VNeuron@@@std@@@0@PAV10@@Z
_TEXT	SEGMENT
__Src$ = 8						; size = 4
??$_Unchecked@PAV?$vector@VNeuron@@V?$allocator@VNeuron@@@std@@@std@@@std@@YAPAV?$vector@VNeuron@@V?$allocator@VNeuron@@@std@@@0@PAV10@@Z PROC ; std::_Unchecked<std::vector<Neuron,std::allocator<Neuron> > *>, COMDAT

; 449  : 	{	// construct unchecked from checked, generic

	push	ebp
	mov	ebp, esp

; 450  : 	return (_Src);

	mov	eax, DWORD PTR __Src$[ebp]

; 451  : 	}

	pop	ebp
	ret	0
??$_Unchecked@PAV?$vector@VNeuron@@V?$allocator@VNeuron@@@std@@@std@@@std@@YAPAV?$vector@VNeuron@@V?$allocator@VNeuron@@@std@@@0@PAV10@@Z ENDP ; std::_Unchecked<std::vector<Neuron,std::allocator<Neuron> > *>
_TEXT	ENDS
; Function compile flags: /Odtp /RTCsu
; File c:\program files (x86)\microsoft visual studio\2017\community\vc\tools\msvc\14.11.25503\include\xmemory0
;	COMDAT ??$_Destroy_range1@V?$allocator@V?$vector@VNeuron@@V?$allocator@VNeuron@@@std@@@std@@@std@@@std@@YAXPAV?$vector@VNeuron@@V?$allocator@VNeuron@@@std@@@0@0AAV?$allocator@V?$vector@VNeuron@@V?$allocator@VNeuron@@@std@@@std@@@0@U?$integral_constant@_N$0A@@0@@Z
_TEXT	SEGMENT
__First$ = 8						; size = 4
__Last$ = 12						; size = 4
__Al$ = 16						; size = 4
___formal$ = 20						; size = 1
??$_Destroy_range1@V?$allocator@V?$vector@VNeuron@@V?$allocator@VNeuron@@@std@@@std@@@std@@@std@@YAXPAV?$vector@VNeuron@@V?$allocator@VNeuron@@@std@@@0@0AAV?$allocator@V?$vector@VNeuron@@V?$allocator@VNeuron@@@std@@@std@@@0@U?$integral_constant@_N$0A@@0@@Z PROC ; std::_Destroy_range1<std::allocator<std::vector<Neuron,std::allocator<Neuron> > > >, COMDAT

; 1091 : 	{	// destroy [_First, _Last), no special optimization

	push	ebp
	mov	ebp, esp

; 1092 : 	for (; _First != _Last; ++_First)

	jmp	SHORT $LN4@Destroy_ra
$LN2@Destroy_ra:
	mov	eax, DWORD PTR __First$[ebp]
	add	eax, 16					; 00000010H
	mov	DWORD PTR __First$[ebp], eax
$LN4@Destroy_ra:
	mov	ecx, DWORD PTR __First$[ebp]
	cmp	ecx, DWORD PTR __Last$[ebp]
	je	SHORT $LN1@Destroy_ra

; 1093 : 		{
; 1094 : 		allocator_traits<_Alloc>::destroy(_Al, _Unfancy(_First));

	mov	edx, DWORD PTR __First$[ebp]
	push	edx
	call	??$_Unfancy@V?$vector@VNeuron@@V?$allocator@VNeuron@@@std@@@std@@@std@@YAPAV?$vector@VNeuron@@V?$allocator@VNeuron@@@std@@@0@PAV10@@Z ; std::_Unfancy<std::vector<Neuron,std::allocator<Neuron> > >
	add	esp, 4
	push	eax
	mov	eax, DWORD PTR __Al$[ebp]
	push	eax
	call	??$destroy@V?$vector@VNeuron@@V?$allocator@VNeuron@@@std@@@std@@@?$_Default_allocator_traits@V?$allocator@V?$vector@VNeuron@@V?$allocator@VNeuron@@@std@@@std@@@std@@@std@@SAXAAV?$allocator@V?$vector@VNeuron@@V?$allocator@VNeuron@@@std@@@std@@@1@QAV?$vector@VNeuron@@V?$allocator@VNeuron@@@std@@@1@@Z ; std::_Default_allocator_traits<std::allocator<std::vector<Neuron,std::allocator<Neuron> > > >::destroy<std::vector<Neuron,std::allocator<Neuron> > >
	add	esp, 8

; 1095 : 		}

	jmp	SHORT $LN2@Destroy_ra
$LN1@Destroy_ra:

; 1096 : 	}

	cmp	ebp, esp
	call	__RTC_CheckEsp
	pop	ebp
	ret	0
??$_Destroy_range1@V?$allocator@V?$vector@VNeuron@@V?$allocator@VNeuron@@@std@@@std@@@std@@@std@@YAXPAV?$vector@VNeuron@@V?$allocator@VNeuron@@@std@@@0@0AAV?$allocator@V?$vector@VNeuron@@V?$allocator@VNeuron@@@std@@@std@@@0@U?$integral_constant@_N$0A@@0@@Z ENDP ; std::_Destroy_range1<std::allocator<std::vector<Neuron,std::allocator<Neuron> > > >
_TEXT	ENDS
; Function compile flags: /Odtp /RTCsu
; File c:\program files (x86)\microsoft visual studio\2017\community\vc\tools\msvc\14.11.25503\include\type_traits
;	COMDAT ??$forward@U_Container_proxy@std@@@std@@YA$$QAU_Container_proxy@0@AAU10@@Z
_TEXT	SEGMENT
__Arg$ = 8						; size = 4
??$forward@U_Container_proxy@std@@@std@@YA$$QAU_Container_proxy@0@AAU10@@Z PROC ; std::forward<std::_Container_proxy>, COMDAT

; 1591 : 	{	// forward an lvalue as either an lvalue or an rvalue

	push	ebp
	mov	ebp, esp

; 1592 : 	return (static_cast<_Ty&&>(_Arg));

	mov	eax, DWORD PTR __Arg$[ebp]

; 1593 : 	}

	pop	ebp
	ret	0
??$forward@U_Container_proxy@std@@@std@@YA$$QAU_Container_proxy@0@AAU10@@Z ENDP ; std::forward<std::_Container_proxy>
_TEXT	ENDS
; Function compile flags: /Odtp /RTCsu
; File c:\program files (x86)\microsoft visual studio\2017\community\vc\tools\msvc\14.11.25503\include\xmemory0
;	COMDAT ??$_Destroy_range1@V?$allocator@N@std@@@std@@YAXPAN0AAV?$allocator@N@0@U?$integral_constant@_N$00@0@@Z
_TEXT	SEGMENT
___formal$ = 8						; size = 4
___formal$ = 12						; size = 4
___formal$ = 16						; size = 4
___formal$ = 20						; size = 1
??$_Destroy_range1@V?$allocator@N@std@@@std@@YAXPAN0AAV?$allocator@N@0@U?$integral_constant@_N$00@0@@Z PROC ; std::_Destroy_range1<std::allocator<double> >, COMDAT

; 1103 : 	{	// destroy [_First, _Last), trivially destructible and default destroy

	push	ebp
	mov	ebp, esp

; 1104 : 		// nothing to do
; 1105 : 	}

	pop	ebp
	ret	0
??$_Destroy_range1@V?$allocator@N@std@@@std@@YAXPAN0AAV?$allocator@N@0@U?$integral_constant@_N$00@0@@Z ENDP ; std::_Destroy_range1<std::allocator<double> >
_TEXT	ENDS
; Function compile flags: /Odtp /RTCsu
; File c:\program files (x86)\microsoft visual studio\2017\community\vc\tools\msvc\14.11.25503\include\xmemory
;	COMDAT ??$_Uninitialized_copy@PAVNeuron@@PAV1@V?$allocator@VNeuron@@@std@@@std@@YAPAVNeuron@@PAV1@00AAV?$allocator@VNeuron@@@0@@Z
_TEXT	SEGMENT
$T1 = -34						; size = 1
$T2 = -33						; size = 1
__UDest$ = -24						; size = 4
__ULast$ = -16						; size = 4
__UFirst$ = -8						; size = 4
__First$ = 8						; size = 4
__Last$ = 12						; size = 4
__Dest$ = 16						; size = 4
__Al$ = 20						; size = 4
??$_Uninitialized_copy@PAVNeuron@@PAV1@V?$allocator@VNeuron@@@std@@@std@@YAPAVNeuron@@PAV1@00AAV?$allocator@VNeuron@@@0@@Z PROC ; std::_Uninitialized_copy<Neuron *,Neuron *,std::allocator<Neuron> >, COMDAT

; 116  : 	{	// copy [_First, _Last) to raw _Dest, using _Al

	push	ebp
	mov	ebp, esp
	sub	esp, 36					; 00000024H
	mov	eax, -858993460				; ccccccccH
	mov	DWORD PTR [ebp-36], eax
	mov	DWORD PTR [ebp-32], eax
	mov	DWORD PTR [ebp-28], eax
	mov	DWORD PTR [ebp-24], eax
	mov	DWORD PTR [ebp-20], eax
	mov	DWORD PTR [ebp-16], eax
	mov	DWORD PTR [ebp-12], eax
	mov	DWORD PTR [ebp-8], eax
	mov	DWORD PTR [ebp-4], eax

; 117  : 		// note: only called internally from elsewhere in the STL, debug checks
; 118  : 		// and deprecation warnings omitted
; 119  : 	const auto _UFirst = _Unchecked(_First);

	mov	eax, DWORD PTR __First$[ebp]
	push	eax
	call	??$_Unchecked@PAVNeuron@@@std@@YAPAVNeuron@@PAV1@@Z ; std::_Unchecked<Neuron *>
	add	esp, 4
	mov	DWORD PTR __UFirst$[ebp], eax

; 120  : 	const auto _ULast = _Unchecked(_Last);

	mov	ecx, DWORD PTR __Last$[ebp]
	push	ecx
	call	??$_Unchecked@PAVNeuron@@@std@@YAPAVNeuron@@PAV1@@Z ; std::_Unchecked<Neuron *>
	add	esp, 4
	mov	DWORD PTR __ULast$[ebp], eax

; 121  : 	const auto _UDest = _Unchecked(_Dest);

	mov	edx, DWORD PTR __Dest$[ebp]
	push	edx
	call	??$_Unchecked@PAVNeuron@@@std@@YAPAVNeuron@@PAV1@@Z ; std::_Unchecked<Neuron *>
	add	esp, 4
	mov	DWORD PTR __UDest$[ebp], eax

; 122  : 	return (_Rechecked(_Dest,

	lea	eax, DWORD PTR __UDest$[ebp]
	push	eax
	lea	ecx, DWORD PTR __UFirst$[ebp]
	push	ecx
	call	??$_Ptr_copy_cat@VNeuron@@V1@@std@@YA?AU_General_ptr_iterator_tag@0@ABQAVNeuron@@0@Z ; std::_Ptr_copy_cat<Neuron,Neuron>
	add	esp, 8
	mov	BYTE PTR $T1[ebp], al
	push	ecx
	mov	ecx, esp
	lea	edx, DWORD PTR $T2[ebp]
	push	edx
	call	??$?0U?$integral_constant@_N$00@std@@@_Unused_parameter@std@@QAE@$$QAU?$integral_constant@_N$00@1@@Z ; std::_Unused_parameter::_Unused_parameter<std::integral_constant<bool,1> >
	movzx	eax, BYTE PTR $T1[ebp]
	push	eax
	mov	ecx, DWORD PTR __Al$[ebp]
	push	ecx
	mov	edx, DWORD PTR __UDest$[ebp]
	push	edx
	mov	eax, DWORD PTR __ULast$[ebp]
	push	eax
	mov	ecx, DWORD PTR __UFirst$[ebp]
	push	ecx
	call	??$_Uninitialized_copy_al_unchecked@PAVNeuron@@PAV1@V?$allocator@VNeuron@@@std@@@std@@YAPAVNeuron@@PAV1@00AAV?$allocator@VNeuron@@@0@U_General_ptr_iterator_tag@0@U_Unused_parameter@0@@Z ; std::_Uninitialized_copy_al_unchecked<Neuron *,Neuron *,std::allocator<Neuron> >
	add	esp, 24					; 00000018H
	push	eax
	lea	edx, DWORD PTR __Dest$[ebp]
	push	edx
	call	??$_Rechecked@PAVNeuron@@PAV1@@std@@YAAAPAVNeuron@@AAPAV1@PAV1@@Z ; std::_Rechecked<Neuron *,Neuron *>
	add	esp, 8
	mov	eax, DWORD PTR [eax]

; 123  : 		_Uninitialized_copy_al_unchecked(_UFirst, _ULast, _UDest, _Al,
; 124  : 			_Ptr_copy_cat(_UFirst, _UDest),
; 125  : 			_Uses_default_construct_t<_Alloc, decltype(_Unfancy(_UDest)), decltype(*_UFirst)>())));
; 126  : 	}

	push	edx
	mov	ecx, ebp
	push	eax
	lea	edx, DWORD PTR $LN6@Uninitiali
	call	@_RTC_CheckStackVars@8
	pop	eax
	pop	edx
	add	esp, 36					; 00000024H
	cmp	ebp, esp
	call	__RTC_CheckEsp
	mov	esp, ebp
	pop	ebp
	ret	0
	npad	3
$LN6@Uninitiali:
	DD	2
	DD	$LN5@Uninitiali
$LN5@Uninitiali:
	DD	-8					; fffffff8H
	DD	4
	DD	$LN3@Uninitiali
	DD	-24					; ffffffe8H
	DD	4
	DD	$LN4@Uninitiali
$LN4@Uninitiali:
	DB	95					; 0000005fH
	DB	85					; 00000055H
	DB	68					; 00000044H
	DB	101					; 00000065H
	DB	115					; 00000073H
	DB	116					; 00000074H
	DB	0
$LN3@Uninitiali:
	DB	95					; 0000005fH
	DB	85					; 00000055H
	DB	70					; 00000046H
	DB	105					; 00000069H
	DB	114					; 00000072H
	DB	115					; 00000073H
	DB	116					; 00000074H
	DB	0
??$_Uninitialized_copy@PAVNeuron@@PAV1@V?$allocator@VNeuron@@@std@@@std@@YAPAVNeuron@@PAV1@00AAV?$allocator@VNeuron@@@0@@Z ENDP ; std::_Uninitialized_copy<Neuron *,Neuron *,std::allocator<Neuron> >
_TEXT	ENDS
; Function compile flags: /Odtp /RTCsu
; File c:\program files (x86)\microsoft visual studio\2017\community\vc\tools\msvc\14.11.25503\include\xmemory0
;	COMDAT ??$_Destroy_range@V?$allocator@VNeuron@@@std@@@std@@YAXPAVNeuron@@0AAV?$allocator@VNeuron@@@0@@Z
_TEXT	SEGMENT
$T1 = -1						; size = 1
__First$ = 8						; size = 4
__Last$ = 12						; size = 4
__Al$ = 16						; size = 4
??$_Destroy_range@V?$allocator@VNeuron@@@std@@@std@@YAXPAVNeuron@@0AAV?$allocator@VNeuron@@@0@@Z PROC ; std::_Destroy_range<std::allocator<Neuron> >, COMDAT

; 1112 : 	{	// destroy [_First, _Last), choose optimization

	push	ebp
	mov	ebp, esp
	push	ecx
	mov	DWORD PTR [ebp-4], -858993460		; ccccccccH

; 1113 : 		// note that this is an optimization for debug mode codegen;
; 1114 : 		// in release mode the BE removes all of this
; 1115 : 	using _Val = typename _Alloc::value_type;
; 1116 : 	_Destroy_range1(_First, _Last, _Al, _Conjunction_t<

	movzx	eax, BYTE PTR $T1[ebp]
	push	eax
	mov	ecx, DWORD PTR __Al$[ebp]
	push	ecx
	mov	edx, DWORD PTR __Last$[ebp]
	push	edx
	mov	eax, DWORD PTR __First$[ebp]
	push	eax
	call	??$_Destroy_range1@V?$allocator@VNeuron@@@std@@@std@@YAXPAVNeuron@@0AAV?$allocator@VNeuron@@@0@U?$integral_constant@_N$0A@@0@@Z ; std::_Destroy_range1<std::allocator<Neuron> >
	add	esp, 16					; 00000010H

; 1117 : 		is_trivially_destructible<_Val>,
; 1118 : 		_Uses_default_destroy<_Alloc, _Val *>>());
; 1119 : 	}

	add	esp, 4
	cmp	ebp, esp
	call	__RTC_CheckEsp
	mov	esp, ebp
	pop	ebp
	ret	0
??$_Destroy_range@V?$allocator@VNeuron@@@std@@@std@@YAXPAVNeuron@@0AAV?$allocator@VNeuron@@@0@@Z ENDP ; std::_Destroy_range<std::allocator<Neuron> >
_TEXT	ENDS
; Function compile flags: /Odtp /RTCsu
; File c:\program files (x86)\microsoft visual studio\2017\community\vc\tools\msvc\14.11.25503\include\xmemory
;	COMDAT ??$_Uninitialized_move@PANPANV?$allocator@N@std@@@std@@YAPANPAN00AAV?$allocator@N@0@@Z
_TEXT	SEGMENT
$T1 = -30						; size = 1
$T2 = -29						; size = 1
__UDest$ = -24						; size = 4
__ULast$ = -16						; size = 4
__UFirst$ = -8						; size = 4
__First$ = 8						; size = 4
__Last$ = 12						; size = 4
__Dest$ = 16						; size = 4
__Al$ = 20						; size = 4
??$_Uninitialized_move@PANPANV?$allocator@N@std@@@std@@YAPANPAN00AAV?$allocator@N@0@@Z PROC ; std::_Uninitialized_move<double *,double *,std::allocator<double> >, COMDAT

; 164  : 	{	// move [_First, _Last) to raw _Dest, using _Al

	push	ebp
	mov	ebp, esp
	sub	esp, 32					; 00000020H
	mov	eax, -858993460				; ccccccccH
	mov	DWORD PTR [ebp-32], eax
	mov	DWORD PTR [ebp-28], eax
	mov	DWORD PTR [ebp-24], eax
	mov	DWORD PTR [ebp-20], eax
	mov	DWORD PTR [ebp-16], eax
	mov	DWORD PTR [ebp-12], eax
	mov	DWORD PTR [ebp-8], eax
	mov	DWORD PTR [ebp-4], eax

; 165  : 		// note: only called internally from elsewhere in the STL, debug checks
; 166  : 		// and deprecation warnings omitted
; 167  : 	const auto _UFirst = _Unchecked(_First);

	mov	eax, DWORD PTR __First$[ebp]
	push	eax
	call	??$_Unchecked@PAN@std@@YAPANPAN@Z	; std::_Unchecked<double *>
	add	esp, 4
	mov	DWORD PTR __UFirst$[ebp], eax

; 168  : 	const auto _ULast = _Unchecked(_Last);

	mov	ecx, DWORD PTR __Last$[ebp]
	push	ecx
	call	??$_Unchecked@PAN@std@@YAPANPAN@Z	; std::_Unchecked<double *>
	add	esp, 4
	mov	DWORD PTR __ULast$[ebp], eax

; 169  : 	const auto _UDest = _Unchecked(_Dest);

	mov	edx, DWORD PTR __Dest$[ebp]
	push	edx
	call	??$_Unchecked@PAN@std@@YAPANPAN@Z	; std::_Unchecked<double *>
	add	esp, 4
	mov	DWORD PTR __UDest$[ebp], eax

; 170  : 	return (_Rechecked(_Dest,

	movzx	eax, BYTE PTR $T2[ebp]
	push	eax
	lea	ecx, DWORD PTR __UDest$[ebp]
	push	ecx
	lea	edx, DWORD PTR __UFirst$[ebp]
	push	edx
	lea	eax, DWORD PTR $T1[ebp]
	push	eax
	call	??$_Ptr_move_cat@NN@std@@YA?AU_Really_trivial_ptr_iterator_tag@0@ABQAN0@Z ; std::_Ptr_move_cat<double,double>
	add	esp, 12					; 0000000cH
	mov	cl, BYTE PTR [eax]
	movzx	edx, cl
	push	edx
	mov	eax, DWORD PTR __Al$[ebp]
	push	eax
	mov	ecx, DWORD PTR __UDest$[ebp]
	push	ecx
	mov	edx, DWORD PTR __ULast$[ebp]
	push	edx
	mov	eax, DWORD PTR __UFirst$[ebp]
	push	eax
	call	??$_Uninitialized_move_al_unchecked@NNV?$allocator@N@std@@@std@@YAPANPAN00AAV?$allocator@N@0@U_Really_trivial_ptr_iterator_tag@0@U?$integral_constant@_N$00@0@@Z ; std::_Uninitialized_move_al_unchecked<double,double,std::allocator<double> >
	add	esp, 24					; 00000018H
	push	eax
	lea	ecx, DWORD PTR __Dest$[ebp]
	push	ecx
	call	??$_Rechecked@PANPAN@std@@YAAAPANAAPANPAN@Z ; std::_Rechecked<double *,double *>
	add	esp, 8
	mov	eax, DWORD PTR [eax]

; 171  : 		_Uninitialized_move_al_unchecked(_UFirst, _ULast, _UDest, _Al,
; 172  : 			_Ptr_move_cat(_UFirst, _UDest),
; 173  : 			_Uses_default_construct_t<_Alloc, decltype(_Unfancy(_UDest)), decltype(_STD move(*_UFirst))>())));
; 174  : 	}

	push	edx
	mov	ecx, ebp
	push	eax
	lea	edx, DWORD PTR $LN6@Uninitiali
	call	@_RTC_CheckStackVars@8
	pop	eax
	pop	edx
	add	esp, 32					; 00000020H
	cmp	ebp, esp
	call	__RTC_CheckEsp
	mov	esp, ebp
	pop	ebp
	ret	0
	npad	3
$LN6@Uninitiali:
	DD	2
	DD	$LN5@Uninitiali
$LN5@Uninitiali:
	DD	-8					; fffffff8H
	DD	4
	DD	$LN3@Uninitiali
	DD	-24					; ffffffe8H
	DD	4
	DD	$LN4@Uninitiali
$LN4@Uninitiali:
	DB	95					; 0000005fH
	DB	85					; 00000055H
	DB	68					; 00000044H
	DB	101					; 00000065H
	DB	115					; 00000073H
	DB	116					; 00000074H
	DB	0
$LN3@Uninitiali:
	DB	95					; 0000005fH
	DB	85					; 00000055H
	DB	70					; 00000046H
	DB	105					; 00000069H
	DB	114					; 00000072H
	DB	115					; 00000073H
	DB	116					; 00000074H
	DB	0
??$_Uninitialized_move@PANPANV?$allocator@N@std@@@std@@YAPANPAN00AAV?$allocator@N@0@@Z ENDP ; std::_Uninitialized_move<double *,double *,std::allocator<double> >
_TEXT	ENDS
; Function compile flags: /Odtp /RTCsu
; File c:\program files (x86)\microsoft visual studio\2017\community\vc\tools\msvc\14.11.25503\include\xmemory
;	COMDAT ??$_Uninitialized_move@PAV?$vector@VNeuron@@V?$allocator@VNeuron@@@std@@@std@@PAV12@V?$allocator@V?$vector@VNeuron@@V?$allocator@VNeuron@@@std@@@std@@@2@@std@@YAPAV?$vector@VNeuron@@V?$allocator@VNeuron@@@std@@@0@PAV10@00AAV?$allocator@V?$vector@VNeuron@@V?$allocator@VNeuron@@@std@@@std@@@0@@Z
_TEXT	SEGMENT
$T1 = -34						; size = 1
$T2 = -33						; size = 1
__UDest$ = -24						; size = 4
__ULast$ = -16						; size = 4
__UFirst$ = -8						; size = 4
__First$ = 8						; size = 4
__Last$ = 12						; size = 4
__Dest$ = 16						; size = 4
__Al$ = 20						; size = 4
??$_Uninitialized_move@PAV?$vector@VNeuron@@V?$allocator@VNeuron@@@std@@@std@@PAV12@V?$allocator@V?$vector@VNeuron@@V?$allocator@VNeuron@@@std@@@std@@@2@@std@@YAPAV?$vector@VNeuron@@V?$allocator@VNeuron@@@std@@@0@PAV10@00AAV?$allocator@V?$vector@VNeuron@@V?$allocator@VNeuron@@@std@@@std@@@0@@Z PROC ; std::_Uninitialized_move<std::vector<Neuron,std::allocator<Neuron> > *,std::vector<Neuron,std::allocator<Neuron> > *,std::allocator<std::vector<Neuron,std::allocator<Neuron> > > >, COMDAT

; 164  : 	{	// move [_First, _Last) to raw _Dest, using _Al

	push	ebp
	mov	ebp, esp
	sub	esp, 36					; 00000024H
	mov	eax, -858993460				; ccccccccH
	mov	DWORD PTR [ebp-36], eax
	mov	DWORD PTR [ebp-32], eax
	mov	DWORD PTR [ebp-28], eax
	mov	DWORD PTR [ebp-24], eax
	mov	DWORD PTR [ebp-20], eax
	mov	DWORD PTR [ebp-16], eax
	mov	DWORD PTR [ebp-12], eax
	mov	DWORD PTR [ebp-8], eax
	mov	DWORD PTR [ebp-4], eax

; 165  : 		// note: only called internally from elsewhere in the STL, debug checks
; 166  : 		// and deprecation warnings omitted
; 167  : 	const auto _UFirst = _Unchecked(_First);

	mov	eax, DWORD PTR __First$[ebp]
	push	eax
	call	??$_Unchecked@PAV?$vector@VNeuron@@V?$allocator@VNeuron@@@std@@@std@@@std@@YAPAV?$vector@VNeuron@@V?$allocator@VNeuron@@@std@@@0@PAV10@@Z ; std::_Unchecked<std::vector<Neuron,std::allocator<Neuron> > *>
	add	esp, 4
	mov	DWORD PTR __UFirst$[ebp], eax

; 168  : 	const auto _ULast = _Unchecked(_Last);

	mov	ecx, DWORD PTR __Last$[ebp]
	push	ecx
	call	??$_Unchecked@PAV?$vector@VNeuron@@V?$allocator@VNeuron@@@std@@@std@@@std@@YAPAV?$vector@VNeuron@@V?$allocator@VNeuron@@@std@@@0@PAV10@@Z ; std::_Unchecked<std::vector<Neuron,std::allocator<Neuron> > *>
	add	esp, 4
	mov	DWORD PTR __ULast$[ebp], eax

; 169  : 	const auto _UDest = _Unchecked(_Dest);

	mov	edx, DWORD PTR __Dest$[ebp]
	push	edx
	call	??$_Unchecked@PAV?$vector@VNeuron@@V?$allocator@VNeuron@@@std@@@std@@@std@@YAPAV?$vector@VNeuron@@V?$allocator@VNeuron@@@std@@@0@PAV10@@Z ; std::_Unchecked<std::vector<Neuron,std::allocator<Neuron> > *>
	add	esp, 4
	mov	DWORD PTR __UDest$[ebp], eax

; 170  : 	return (_Rechecked(_Dest,

	lea	eax, DWORD PTR __UDest$[ebp]
	push	eax
	lea	ecx, DWORD PTR __UFirst$[ebp]
	push	ecx
	call	??$_Ptr_move_cat@V?$vector@VNeuron@@V?$allocator@VNeuron@@@std@@@std@@V12@@std@@YA?AU_General_ptr_iterator_tag@0@ABQAV?$vector@VNeuron@@V?$allocator@VNeuron@@@std@@@0@0@Z ; std::_Ptr_move_cat<std::vector<Neuron,std::allocator<Neuron> >,std::vector<Neuron,std::allocator<Neuron> > >
	add	esp, 8
	mov	BYTE PTR $T1[ebp], al
	push	ecx
	mov	ecx, esp
	lea	edx, DWORD PTR $T2[ebp]
	push	edx
	call	??$?0U?$integral_constant@_N$00@std@@@_Unused_parameter@std@@QAE@$$QAU?$integral_constant@_N$00@1@@Z ; std::_Unused_parameter::_Unused_parameter<std::integral_constant<bool,1> >
	movzx	eax, BYTE PTR $T1[ebp]
	push	eax
	mov	ecx, DWORD PTR __Al$[ebp]
	push	ecx
	mov	edx, DWORD PTR __UDest$[ebp]
	push	edx
	mov	eax, DWORD PTR __ULast$[ebp]
	push	eax
	mov	ecx, DWORD PTR __UFirst$[ebp]
	push	ecx
	call	??$_Uninitialized_move_al_unchecked@PAV?$vector@VNeuron@@V?$allocator@VNeuron@@@std@@@std@@PAV12@V?$allocator@V?$vector@VNeuron@@V?$allocator@VNeuron@@@std@@@std@@@2@@std@@YAPAV?$vector@VNeuron@@V?$allocator@VNeuron@@@std@@@0@PAV10@00AAV?$allocator@V?$vector@VNeuron@@V?$allocator@VNeuron@@@std@@@std@@@0@U_General_ptr_iterator_tag@0@U_Unused_parameter@0@@Z ; std::_Uninitialized_move_al_unchecked<std::vector<Neuron,std::allocator<Neuron> > *,std::vector<Neuron,std::allocator<Neuron> > *,std::allocator<std::vector<Neuron,std::allocator<Neuron> > > >
	add	esp, 24					; 00000018H
	push	eax
	lea	edx, DWORD PTR __Dest$[ebp]
	push	edx
	call	??$_Rechecked@PAV?$vector@VNeuron@@V?$allocator@VNeuron@@@std@@@std@@PAV12@@std@@YAAAPAV?$vector@VNeuron@@V?$allocator@VNeuron@@@std@@@0@AAPAV10@PAV10@@Z ; std::_Rechecked<std::vector<Neuron,std::allocator<Neuron> > *,std::vector<Neuron,std::allocator<Neuron> > *>
	add	esp, 8
	mov	eax, DWORD PTR [eax]

; 171  : 		_Uninitialized_move_al_unchecked(_UFirst, _ULast, _UDest, _Al,
; 172  : 			_Ptr_move_cat(_UFirst, _UDest),
; 173  : 			_Uses_default_construct_t<_Alloc, decltype(_Unfancy(_UDest)), decltype(_STD move(*_UFirst))>())));
; 174  : 	}

	push	edx
	mov	ecx, ebp
	push	eax
	lea	edx, DWORD PTR $LN6@Uninitiali
	call	@_RTC_CheckStackVars@8
	pop	eax
	pop	edx
	add	esp, 36					; 00000024H
	cmp	ebp, esp
	call	__RTC_CheckEsp
	mov	esp, ebp
	pop	ebp
	ret	0
	npad	3
$LN6@Uninitiali:
	DD	2
	DD	$LN5@Uninitiali
$LN5@Uninitiali:
	DD	-8					; fffffff8H
	DD	4
	DD	$LN3@Uninitiali
	DD	-24					; ffffffe8H
	DD	4
	DD	$LN4@Uninitiali
$LN4@Uninitiali:
	DB	95					; 0000005fH
	DB	85					; 00000055H
	DB	68					; 00000044H
	DB	101					; 00000065H
	DB	115					; 00000073H
	DB	116					; 00000074H
	DB	0
$LN3@Uninitiali:
	DB	95					; 0000005fH
	DB	85					; 00000055H
	DB	70					; 00000046H
	DB	105					; 00000069H
	DB	114					; 00000072H
	DB	115					; 00000073H
	DB	116					; 00000074H
	DB	0
??$_Uninitialized_move@PAV?$vector@VNeuron@@V?$allocator@VNeuron@@@std@@@std@@PAV12@V?$allocator@V?$vector@VNeuron@@V?$allocator@VNeuron@@@std@@@std@@@2@@std@@YAPAV?$vector@VNeuron@@V?$allocator@VNeuron@@@std@@@0@PAV10@00AAV?$allocator@V?$vector@VNeuron@@V?$allocator@VNeuron@@@std@@@std@@@0@@Z ENDP ; std::_Uninitialized_move<std::vector<Neuron,std::allocator<Neuron> > *,std::vector<Neuron,std::allocator<Neuron> > *,std::allocator<std::vector<Neuron,std::allocator<Neuron> > > >
_TEXT	ENDS
; Function compile flags: /Odtp /RTCsu
; File c:\program files (x86)\microsoft visual studio\2017\community\vc\tools\msvc\14.11.25503\include\xmemory0
;	COMDAT ??$_Destroy_range@V?$allocator@V?$vector@VNeuron@@V?$allocator@VNeuron@@@std@@@std@@@std@@@std@@YAXPAV?$vector@VNeuron@@V?$allocator@VNeuron@@@std@@@0@0AAV?$allocator@V?$vector@VNeuron@@V?$allocator@VNeuron@@@std@@@std@@@0@@Z
_TEXT	SEGMENT
$T1 = -1						; size = 1
__First$ = 8						; size = 4
__Last$ = 12						; size = 4
__Al$ = 16						; size = 4
??$_Destroy_range@V?$allocator@V?$vector@VNeuron@@V?$allocator@VNeuron@@@std@@@std@@@std@@@std@@YAXPAV?$vector@VNeuron@@V?$allocator@VNeuron@@@std@@@0@0AAV?$allocator@V?$vector@VNeuron@@V?$allocator@VNeuron@@@std@@@std@@@0@@Z PROC ; std::_Destroy_range<std::allocator<std::vector<Neuron,std::allocator<Neuron> > > >, COMDAT

; 1112 : 	{	// destroy [_First, _Last), choose optimization

	push	ebp
	mov	ebp, esp
	push	ecx
	mov	DWORD PTR [ebp-4], -858993460		; ccccccccH

; 1113 : 		// note that this is an optimization for debug mode codegen;
; 1114 : 		// in release mode the BE removes all of this
; 1115 : 	using _Val = typename _Alloc::value_type;
; 1116 : 	_Destroy_range1(_First, _Last, _Al, _Conjunction_t<

	movzx	eax, BYTE PTR $T1[ebp]
	push	eax
	mov	ecx, DWORD PTR __Al$[ebp]
	push	ecx
	mov	edx, DWORD PTR __Last$[ebp]
	push	edx
	mov	eax, DWORD PTR __First$[ebp]
	push	eax
	call	??$_Destroy_range1@V?$allocator@V?$vector@VNeuron@@V?$allocator@VNeuron@@@std@@@std@@@std@@@std@@YAXPAV?$vector@VNeuron@@V?$allocator@VNeuron@@@std@@@0@0AAV?$allocator@V?$vector@VNeuron@@V?$allocator@VNeuron@@@std@@@std@@@0@U?$integral_constant@_N$0A@@0@@Z ; std::_Destroy_range1<std::allocator<std::vector<Neuron,std::allocator<Neuron> > > >
	add	esp, 16					; 00000010H

; 1117 : 		is_trivially_destructible<_Val>,
; 1118 : 		_Uses_default_destroy<_Alloc, _Val *>>());
; 1119 : 	}

	add	esp, 4
	cmp	ebp, esp
	call	__RTC_CheckEsp
	mov	esp, ebp
	pop	ebp
	ret	0
??$_Destroy_range@V?$allocator@V?$vector@VNeuron@@V?$allocator@VNeuron@@@std@@@std@@@std@@@std@@YAXPAV?$vector@VNeuron@@V?$allocator@VNeuron@@@std@@@0@0AAV?$allocator@V?$vector@VNeuron@@V?$allocator@VNeuron@@@std@@@std@@@0@@Z ENDP ; std::_Destroy_range<std::allocator<std::vector<Neuron,std::allocator<Neuron> > > >
_TEXT	ENDS
; Function compile flags: /Odtp /RTCsu
; File c:\program files (x86)\microsoft visual studio\2017\community\vc\tools\msvc\14.11.25503\include\xstddef
;	COMDAT ??$addressof@V?$_Vector_val@U?$_Simple_types@V?$vector@VNeuron@@V?$allocator@VNeuron@@@std@@@std@@@std@@@std@@@std@@YAPAV?$_Vector_val@U?$_Simple_types@V?$vector@VNeuron@@V?$allocator@VNeuron@@@std@@@std@@@std@@@0@AAV10@@Z
_TEXT	SEGMENT
__Val$ = 8						; size = 4
??$addressof@V?$_Vector_val@U?$_Simple_types@V?$vector@VNeuron@@V?$allocator@VNeuron@@@std@@@std@@@std@@@std@@@std@@YAPAV?$_Vector_val@U?$_Simple_types@V?$vector@VNeuron@@V?$allocator@VNeuron@@@std@@@std@@@std@@@0@AAV10@@Z PROC ; std::addressof<std::_Vector_val<std::_Simple_types<std::vector<Neuron,std::allocator<Neuron> > > > >, COMDAT

; 248  : 	{	// return address of _Val

	push	ebp
	mov	ebp, esp

; 249  : 	return (__builtin_addressof(_Val));

	mov	eax, DWORD PTR __Val$[ebp]

; 250  : 	}

	pop	ebp
	ret	0
??$addressof@V?$_Vector_val@U?$_Simple_types@V?$vector@VNeuron@@V?$allocator@VNeuron@@@std@@@std@@@std@@@std@@@std@@YAPAV?$_Vector_val@U?$_Simple_types@V?$vector@VNeuron@@V?$allocator@VNeuron@@@std@@@std@@@std@@@0@AAV10@@Z ENDP ; std::addressof<std::_Vector_val<std::_Simple_types<std::vector<Neuron,std::allocator<Neuron> > > > >
_TEXT	ENDS
; Function compile flags: /Odtp /RTCsu
; File c:\program files (x86)\microsoft visual studio\2017\community\vc\tools\msvc\14.11.25503\include\xmemory0
;	COMDAT ??$?0V?$vector@VNeuron@@V?$allocator@VNeuron@@@std@@@std@@@?$allocator@U_Container_proxy@std@@@std@@QAE@ABV?$allocator@V?$vector@VNeuron@@V?$allocator@VNeuron@@@std@@@std@@@1@@Z
_TEXT	SEGMENT
_this$ = -4						; size = 4
___formal$ = 8						; size = 4
??$?0V?$vector@VNeuron@@V?$allocator@VNeuron@@@std@@@std@@@?$allocator@U_Container_proxy@std@@@std@@QAE@ABV?$allocator@V?$vector@VNeuron@@V?$allocator@VNeuron@@@std@@@std@@@1@@Z PROC ; std::allocator<std::_Container_proxy>::allocator<std::_Container_proxy><std::vector<Neuron,std::allocator<Neuron> > >, COMDAT
; _this$ = ecx

; 936  : 		{	// construct from a related allocator (do nothing)

	push	ebp
	mov	ebp, esp
	push	ecx
	mov	DWORD PTR [ebp-4], -858993460		; ccccccccH
	mov	DWORD PTR _this$[ebp], ecx

; 937  : 		}

	mov	eax, DWORD PTR _this$[ebp]
	mov	esp, ebp
	pop	ebp
	ret	4
??$?0V?$vector@VNeuron@@V?$allocator@VNeuron@@@std@@@std@@@?$allocator@U_Container_proxy@std@@@std@@QAE@ABV?$allocator@V?$vector@VNeuron@@V?$allocator@VNeuron@@@std@@@std@@@1@@Z ENDP ; std::allocator<std::_Container_proxy>::allocator<std::_Container_proxy><std::vector<Neuron,std::allocator<Neuron> > >
_TEXT	ENDS
; Function compile flags: /Odtp /RTCsu
; File c:\program files (x86)\microsoft visual studio\2017\community\vc\tools\msvc\14.11.25503\include\xstddef
;	COMDAT ??$addressof@V?$_Vector_val@U?$_Simple_types@VNeuron@@@std@@@std@@@std@@YAPAV?$_Vector_val@U?$_Simple_types@VNeuron@@@std@@@0@AAV10@@Z
_TEXT	SEGMENT
__Val$ = 8						; size = 4
??$addressof@V?$_Vector_val@U?$_Simple_types@VNeuron@@@std@@@std@@@std@@YAPAV?$_Vector_val@U?$_Simple_types@VNeuron@@@std@@@0@AAV10@@Z PROC ; std::addressof<std::_Vector_val<std::_Simple_types<Neuron> > >, COMDAT

; 248  : 	{	// return address of _Val

	push	ebp
	mov	ebp, esp

; 249  : 	return (__builtin_addressof(_Val));

	mov	eax, DWORD PTR __Val$[ebp]

; 250  : 	}

	pop	ebp
	ret	0
??$addressof@V?$_Vector_val@U?$_Simple_types@VNeuron@@@std@@@std@@@std@@YAPAV?$_Vector_val@U?$_Simple_types@VNeuron@@@std@@@0@AAV10@@Z ENDP ; std::addressof<std::_Vector_val<std::_Simple_types<Neuron> > >
_TEXT	ENDS
; Function compile flags: /Odtp /RTCsu
; File c:\program files (x86)\microsoft visual studio\2017\community\vc\tools\msvc\14.11.25503\include\xmemory0
;	COMDAT ??$construct@U_Container_proxy@std@@U12@@?$_Default_allocator_traits@V?$allocator@U_Container_proxy@std@@@std@@@std@@SAXAAV?$allocator@U_Container_proxy@std@@@1@QAU_Container_proxy@1@$$QAU31@@Z
_TEXT	SEGMENT
$T1 = -4						; size = 4
___formal$ = 8						; size = 4
__Ptr$ = 12						; size = 4
_<_Args_0>$ = 16					; size = 4
??$construct@U_Container_proxy@std@@U12@@?$_Default_allocator_traits@V?$allocator@U_Container_proxy@std@@@std@@@std@@SAXAAV?$allocator@U_Container_proxy@std@@@1@QAU_Container_proxy@1@$$QAU31@@Z PROC ; std::_Default_allocator_traits<std::allocator<std::_Container_proxy> >::construct<std::_Container_proxy,std::_Container_proxy>, COMDAT

; 854  : 		{	// construct _Objty(_Types...) at _Ptr

	push	ebp
	mov	ebp, esp
	push	ecx
	mov	DWORD PTR [ebp-4], -858993460		; ccccccccH

; 855  : 		::new (const_cast<void *>(static_cast<const volatile void *>(_Ptr)))

	mov	eax, DWORD PTR __Ptr$[ebp]
	push	eax
	push	8
	call	??2@YAPAXIPAX@Z				; operator new
	add	esp, 8
	mov	DWORD PTR $T1[ebp], eax
	mov	ecx, DWORD PTR _<_Args_0>$[ebp]
	push	ecx
	call	??$forward@U_Container_proxy@std@@@std@@YA$$QAU_Container_proxy@0@AAU10@@Z ; std::forward<std::_Container_proxy>
	add	esp, 4
	mov	edx, DWORD PTR [eax]
	mov	eax, DWORD PTR [eax+4]
	mov	ecx, DWORD PTR $T1[ebp]
	mov	DWORD PTR [ecx], edx
	mov	DWORD PTR [ecx+4], eax

; 856  : 			_Objty(_STD forward<_Types>(_Args)...);
; 857  : 		}

	add	esp, 4
	cmp	ebp, esp
	call	__RTC_CheckEsp
	mov	esp, ebp
	pop	ebp
	ret	0
??$construct@U_Container_proxy@std@@U12@@?$_Default_allocator_traits@V?$allocator@U_Container_proxy@std@@@std@@@std@@SAXAAV?$allocator@U_Container_proxy@std@@@1@QAU_Container_proxy@1@$$QAU31@@Z ENDP ; std::_Default_allocator_traits<std::allocator<std::_Container_proxy> >::construct<std::_Container_proxy,std::_Container_proxy>
_TEXT	ENDS
; Function compile flags: /Odtp /RTCsu
; File c:\program files (x86)\microsoft visual studio\2017\community\vc\tools\msvc\14.11.25503\include\xstddef
;	COMDAT ??$_Unfancy@U_Container_proxy@std@@@std@@YAPAU_Container_proxy@0@PAU10@@Z
_TEXT	SEGMENT
__Ptr$ = 8						; size = 4
??$_Unfancy@U_Container_proxy@std@@@std@@YAPAU_Container_proxy@0@PAU10@@Z PROC ; std::_Unfancy<std::_Container_proxy>, COMDAT

; 264  : 	{	// do nothing for plain pointers

	push	ebp
	mov	ebp, esp

; 265  : 	return (_Ptr);

	mov	eax, DWORD PTR __Ptr$[ebp]

; 266  : 	}

	pop	ebp
	ret	0
??$_Unfancy@U_Container_proxy@std@@@std@@YAPAU_Container_proxy@0@PAU10@@Z ENDP ; std::_Unfancy<std::_Container_proxy>
_TEXT	ENDS
; Function compile flags: /Odtp /RTCsu
; File c:\program files (x86)\microsoft visual studio\2017\community\vc\tools\msvc\14.11.25503\include\xmemory0
;	COMDAT ??$_Deallocate_plain@V?$allocator@U_Container_proxy@std@@@std@@$0A@@std@@YAXAAV?$allocator@U_Container_proxy@std@@@0@QAU_Container_proxy@0@@Z
_TEXT	SEGMENT
__Al$ = 8						; size = 4
__Ptr$ = 12						; size = 4
??$_Deallocate_plain@V?$allocator@U_Container_proxy@std@@@std@@$0A@@std@@YAXAAV?$allocator@U_Container_proxy@std@@@0@QAU_Container_proxy@0@@Z PROC ; std::_Deallocate_plain<std::allocator<std::_Container_proxy>,0>, COMDAT

; 1220 : 	{	// deallocate a plain pointer using an allocator, non-fancy pointers special case

	push	ebp
	mov	ebp, esp

; 1221 : 	allocator_traits<_Alloc>::deallocate(_Al, _Ptr, 1);

	push	1
	mov	eax, DWORD PTR __Ptr$[ebp]
	push	eax
	mov	ecx, DWORD PTR __Al$[ebp]
	push	ecx
	call	?deallocate@?$_Default_allocator_traits@V?$allocator@U_Container_proxy@std@@@std@@@std@@SAXAAV?$allocator@U_Container_proxy@std@@@2@QAU_Container_proxy@2@I@Z ; std::_Default_allocator_traits<std::allocator<std::_Container_proxy> >::deallocate
	add	esp, 12					; 0000000cH

; 1222 : 	}

	cmp	ebp, esp
	call	__RTC_CheckEsp
	pop	ebp
	ret	0
??$_Deallocate_plain@V?$allocator@U_Container_proxy@std@@@std@@$0A@@std@@YAXAAV?$allocator@U_Container_proxy@std@@@0@QAU_Container_proxy@0@@Z ENDP ; std::_Deallocate_plain<std::allocator<std::_Container_proxy>,0>
_TEXT	ENDS
; Function compile flags: /Odtp /RTCsu
; File c:\program files (x86)\microsoft visual studio\2017\community\vc\tools\msvc\14.11.25503\include\xmemory0
;	COMDAT ??$destroy@U_Container_proxy@std@@@?$_Default_allocator_traits@V?$allocator@U_Container_proxy@std@@@std@@@std@@SAXAAV?$allocator@U_Container_proxy@std@@@1@QAU_Container_proxy@1@@Z
_TEXT	SEGMENT
___formal$ = 8						; size = 4
__Ptr$ = 12						; size = 4
??$destroy@U_Container_proxy@std@@@?$_Default_allocator_traits@V?$allocator@U_Container_proxy@std@@@std@@@std@@SAXAAV?$allocator@U_Container_proxy@std@@@1@QAU_Container_proxy@1@@Z PROC ; std::_Default_allocator_traits<std::allocator<std::_Container_proxy> >::destroy<std::_Container_proxy>, COMDAT

; 861  : 		{	// destroy object at _Ptr

	push	ebp
	mov	ebp, esp

; 862  : 		_Ptr->~_Uty();
; 863  : 		}

	pop	ebp
	ret	0
??$destroy@U_Container_proxy@std@@@?$_Default_allocator_traits@V?$allocator@U_Container_proxy@std@@@std@@@std@@SAXAAV?$allocator@U_Container_proxy@std@@@1@QAU_Container_proxy@1@@Z ENDP ; std::_Default_allocator_traits<std::allocator<std::_Container_proxy> >::destroy<std::_Container_proxy>
_TEXT	ENDS
; Function compile flags: /Odtp /RTCsu
; File c:\program files (x86)\microsoft visual studio\2017\community\vc\tools\msvc\14.11.25503\include\xmemory0
;	COMDAT ?deallocate@?$_Default_allocator_traits@V?$allocator@U_Container_proxy@std@@@std@@@std@@SAXAAV?$allocator@U_Container_proxy@std@@@2@QAU_Container_proxy@2@I@Z
_TEXT	SEGMENT
___formal$ = 8						; size = 4
__Ptr$ = 12						; size = 4
__Count$ = 16						; size = 4
?deallocate@?$_Default_allocator_traits@V?$allocator@U_Container_proxy@std@@@std@@@std@@SAXAAV?$allocator@U_Container_proxy@std@@@2@QAU_Container_proxy@2@I@Z PROC ; std::_Default_allocator_traits<std::allocator<std::_Container_proxy> >::deallocate, COMDAT

; 847  : 		{	// deallocate _Count elements at _Ptr

	push	ebp
	mov	ebp, esp

; 848  : 		_Deallocate(_Ptr, _Count, sizeof(value_type));

	push	8
	mov	eax, DWORD PTR __Count$[ebp]
	push	eax
	mov	ecx, DWORD PTR __Ptr$[ebp]
	push	ecx
	call	?_Deallocate@std@@YAXPAXII@Z		; std::_Deallocate
	add	esp, 12					; 0000000cH

; 849  : 		}

	cmp	ebp, esp
	call	__RTC_CheckEsp
	pop	ebp
	ret	0
?deallocate@?$_Default_allocator_traits@V?$allocator@U_Container_proxy@std@@@std@@@std@@SAXAAV?$allocator@U_Container_proxy@std@@@2@QAU_Container_proxy@2@I@Z ENDP ; std::_Default_allocator_traits<std::allocator<std::_Container_proxy> >::deallocate
_TEXT	ENDS
; Function compile flags: /Odtp /RTCsu
; File c:\program files (x86)\microsoft visual studio\2017\community\vc\tools\msvc\14.11.25503\include\xmemory0
;	COMDAT ??$?0VNeuron@@@?$allocator@U_Container_proxy@std@@@std@@QAE@ABV?$allocator@VNeuron@@@1@@Z
_TEXT	SEGMENT
_this$ = -4						; size = 4
___formal$ = 8						; size = 4
??$?0VNeuron@@@?$allocator@U_Container_proxy@std@@@std@@QAE@ABV?$allocator@VNeuron@@@1@@Z PROC ; std::allocator<std::_Container_proxy>::allocator<std::_Container_proxy><Neuron>, COMDAT
; _this$ = ecx

; 936  : 		{	// construct from a related allocator (do nothing)

	push	ebp
	mov	ebp, esp
	push	ecx
	mov	DWORD PTR [ebp-4], -858993460		; ccccccccH
	mov	DWORD PTR _this$[ebp], ecx

; 937  : 		}

	mov	eax, DWORD PTR _this$[ebp]
	mov	esp, ebp
	pop	ebp
	ret	4
??$?0VNeuron@@@?$allocator@U_Container_proxy@std@@@std@@QAE@ABV?$allocator@VNeuron@@@1@@Z ENDP ; std::allocator<std::_Container_proxy>::allocator<std::_Container_proxy><Neuron>
_TEXT	ENDS
; Function compile flags: /Odtp /RTCsu
; File c:\program files (x86)\microsoft visual studio\2017\community\vc\tools\msvc\14.11.25503\include\xmemory0
;	COMDAT ?allocate@?$allocator@U_Container_proxy@std@@@std@@QAEPAU_Container_proxy@2@I@Z
_TEXT	SEGMENT
_this$ = -4						; size = 4
__Count$ = 8						; size = 4
?allocate@?$allocator@U_Container_proxy@std@@@std@@QAEPAU_Container_proxy@2@I@Z PROC ; std::allocator<std::_Container_proxy>::allocate, COMDAT
; _this$ = ecx

; 945  : 		{	// allocate array of _Count elements

	push	ebp
	mov	ebp, esp
	push	ecx
	mov	DWORD PTR [ebp-4], -858993460		; ccccccccH
	mov	DWORD PTR _this$[ebp], ecx

; 946  : 		return (static_cast<pointer>(_Allocate(_Count, sizeof(_Ty))));

	push	1
	push	8
	mov	eax, DWORD PTR __Count$[ebp]
	push	eax
	call	?_Allocate@std@@YAPAXII_N@Z		; std::_Allocate
	add	esp, 12					; 0000000cH

; 947  : 		}

	add	esp, 4
	cmp	ebp, esp
	call	__RTC_CheckEsp
	mov	esp, ebp
	pop	ebp
	ret	4
?allocate@?$allocator@U_Container_proxy@std@@@std@@QAEPAU_Container_proxy@2@I@Z ENDP ; std::allocator<std::_Container_proxy>::allocate
_TEXT	ENDS
; Function compile flags: /Odtp /RTCsu
; File c:\program files (x86)\microsoft visual studio\2017\community\vc\tools\msvc\14.11.25503\include\xmemory0
;	COMDAT ??$_Destroy_range@V?$allocator@N@std@@@std@@YAXPAN0AAV?$allocator@N@0@@Z
_TEXT	SEGMENT
$T1 = -1						; size = 1
__First$ = 8						; size = 4
__Last$ = 12						; size = 4
__Al$ = 16						; size = 4
??$_Destroy_range@V?$allocator@N@std@@@std@@YAXPAN0AAV?$allocator@N@0@@Z PROC ; std::_Destroy_range<std::allocator<double> >, COMDAT

; 1112 : 	{	// destroy [_First, _Last), choose optimization

	push	ebp
	mov	ebp, esp
	push	ecx
	mov	DWORD PTR [ebp-4], -858993460		; ccccccccH

; 1113 : 		// note that this is an optimization for debug mode codegen;
; 1114 : 		// in release mode the BE removes all of this
; 1115 : 	using _Val = typename _Alloc::value_type;
; 1116 : 	_Destroy_range1(_First, _Last, _Al, _Conjunction_t<

	movzx	eax, BYTE PTR $T1[ebp]
	push	eax
	mov	ecx, DWORD PTR __Al$[ebp]
	push	ecx
	mov	edx, DWORD PTR __Last$[ebp]
	push	edx
	mov	eax, DWORD PTR __First$[ebp]
	push	eax
	call	??$_Destroy_range1@V?$allocator@N@std@@@std@@YAXPAN0AAV?$allocator@N@0@U?$integral_constant@_N$00@0@@Z ; std::_Destroy_range1<std::allocator<double> >
	add	esp, 16					; 00000010H

; 1117 : 		is_trivially_destructible<_Val>,
; 1118 : 		_Uses_default_destroy<_Alloc, _Val *>>());
; 1119 : 	}

	add	esp, 4
	cmp	ebp, esp
	call	__RTC_CheckEsp
	mov	esp, ebp
	pop	ebp
	ret	0
??$_Destroy_range@V?$allocator@N@std@@@std@@YAXPAN0AAV?$allocator@N@0@@Z ENDP ; std::_Destroy_range<std::allocator<double> >
_TEXT	ENDS
; Function compile flags: /Odtp /RTCsu
; File c:\program files (x86)\microsoft visual studio\2017\community\vc\tools\msvc\14.11.25503\include\utility
;	COMDAT ??$_Min_value@I@std@@YAABIABI0@Z
_TEXT	SEGMENT
tv65 = -8						; size = 4
$T1 = -4						; size = 4
__Left$ = 8						; size = 4
__Right$ = 12						; size = 4
??$_Min_value@I@std@@YAABIABI0@Z PROC			; std::_Min_value<unsigned int>, COMDAT

; 22   : 	{	// return smaller of _Left and _Right

	push	ebp
	mov	ebp, esp
	sub	esp, 8
	mov	DWORD PTR [ebp-8], -858993460		; ccccccccH
	mov	DWORD PTR [ebp-4], -858993460		; ccccccccH

; 23   : 	return (_Right < _Left ? _Right : _Left);

	mov	eax, DWORD PTR __Right$[ebp]
	mov	ecx, DWORD PTR __Left$[ebp]
	mov	edx, DWORD PTR [eax]
	cmp	edx, DWORD PTR [ecx]
	jae	SHORT $LN3@Min_value
	mov	eax, DWORD PTR __Right$[ebp]
	mov	DWORD PTR tv65[ebp], eax
	jmp	SHORT $LN4@Min_value
$LN3@Min_value:
	mov	ecx, DWORD PTR __Left$[ebp]
	mov	DWORD PTR tv65[ebp], ecx
$LN4@Min_value:
	mov	edx, DWORD PTR tv65[ebp]
	mov	DWORD PTR $T1[ebp], edx
	mov	eax, DWORD PTR $T1[ebp]

; 24   : 	}

	mov	esp, ebp
	pop	ebp
	ret	0
??$_Min_value@I@std@@YAABIABI0@Z ENDP			; std::_Min_value<unsigned int>
_TEXT	ENDS
; Function compile flags: /Odtp /RTCsu
; File c:\program files (x86)\microsoft visual studio\2017\community\vc\tools\msvc\14.11.25503\include\xutility
;	COMDAT ??$?0$$V@?$_Compressed_pair@V?$allocator@V?$vector@VNeuron@@V?$allocator@VNeuron@@@std@@@std@@@std@@V?$_Vector_val@U?$_Simple_types@V?$vector@VNeuron@@V?$allocator@VNeuron@@@std@@@std@@@std@@@2@$00@std@@QAE@U_Zero_then_variadic_args_t@1@@Z
_TEXT	SEGMENT
_this$ = -4						; size = 4
___formal$ = 8						; size = 1
??$?0$$V@?$_Compressed_pair@V?$allocator@V?$vector@VNeuron@@V?$allocator@VNeuron@@@std@@@std@@@std@@V?$_Vector_val@U?$_Simple_types@V?$vector@VNeuron@@V?$allocator@VNeuron@@@std@@@std@@@std@@@2@$00@std@@QAE@U_Zero_then_variadic_args_t@1@@Z PROC ; std::_Compressed_pair<std::allocator<std::vector<Neuron,std::allocator<Neuron> > >,std::_Vector_val<std::_Simple_types<std::vector<Neuron,std::allocator<Neuron> > > >,1>::_Compressed_pair<std::allocator<std::vector<Neuron,std::allocator<Neuron> > >,std::_Vector_val<std::_Simple_types<std::vector<Neuron,std::allocator<Neuron> > > >,1><>, COMDAT
; _this$ = ecx

; 303  : 		{	// construct from forwarded values

	push	ebp
	mov	ebp, esp
	push	ecx
	mov	DWORD PTR [ebp-4], -858993460		; ccccccccH
	mov	DWORD PTR _this$[ebp], ecx

; 302  : 		: _Ty1(), _Myval2(_STD forward<_Other2>(_Val2)...)

	mov	ecx, DWORD PTR _this$[ebp]
	call	??0?$allocator@V?$vector@VNeuron@@V?$allocator@VNeuron@@@std@@@std@@@std@@QAE@XZ ; std::allocator<std::vector<Neuron,std::allocator<Neuron> > >::allocator<std::vector<Neuron,std::allocator<Neuron> > >
	mov	ecx, DWORD PTR _this$[ebp]
	call	??0?$_Vector_val@U?$_Simple_types@V?$vector@VNeuron@@V?$allocator@VNeuron@@@std@@@std@@@std@@@std@@QAE@XZ ; std::_Vector_val<std::_Simple_types<std::vector<Neuron,std::allocator<Neuron> > > >::_Vector_val<std::_Simple_types<std::vector<Neuron,std::allocator<Neuron> > > >

; 304  : 		}

	mov	eax, DWORD PTR _this$[ebp]
	add	esp, 4
	cmp	ebp, esp
	call	__RTC_CheckEsp
	mov	esp, ebp
	pop	ebp
	ret	4
??$?0$$V@?$_Compressed_pair@V?$allocator@V?$vector@VNeuron@@V?$allocator@VNeuron@@@std@@@std@@@std@@V?$_Vector_val@U?$_Simple_types@V?$vector@VNeuron@@V?$allocator@VNeuron@@@std@@@std@@@std@@@2@$00@std@@QAE@U_Zero_then_variadic_args_t@1@@Z ENDP ; std::_Compressed_pair<std::allocator<std::vector<Neuron,std::allocator<Neuron> > >,std::_Vector_val<std::_Simple_types<std::vector<Neuron,std::allocator<Neuron> > > >,1>::_Compressed_pair<std::allocator<std::vector<Neuron,std::allocator<Neuron> > >,std::_Vector_val<std::_Simple_types<std::vector<Neuron,std::allocator<Neuron> > > >,1><>
_TEXT	ENDS
; Function compile flags: /Odtp /RTCsu
; File c:\program files (x86)\microsoft visual studio\2017\community\vc\tools\msvc\14.11.25503\include\xutility
;	COMDAT ??$?0$$V@?$_Compressed_pair@V?$allocator@VNeuron@@@std@@V?$_Vector_val@U?$_Simple_types@VNeuron@@@std@@@2@$00@std@@QAE@U_Zero_then_variadic_args_t@1@@Z
_TEXT	SEGMENT
_this$ = -4						; size = 4
___formal$ = 8						; size = 1
??$?0$$V@?$_Compressed_pair@V?$allocator@VNeuron@@@std@@V?$_Vector_val@U?$_Simple_types@VNeuron@@@std@@@2@$00@std@@QAE@U_Zero_then_variadic_args_t@1@@Z PROC ; std::_Compressed_pair<std::allocator<Neuron>,std::_Vector_val<std::_Simple_types<Neuron> >,1>::_Compressed_pair<std::allocator<Neuron>,std::_Vector_val<std::_Simple_types<Neuron> >,1><>, COMDAT
; _this$ = ecx

; 303  : 		{	// construct from forwarded values

	push	ebp
	mov	ebp, esp
	push	ecx
	mov	DWORD PTR [ebp-4], -858993460		; ccccccccH
	mov	DWORD PTR _this$[ebp], ecx

; 302  : 		: _Ty1(), _Myval2(_STD forward<_Other2>(_Val2)...)

	mov	ecx, DWORD PTR _this$[ebp]
	call	??0?$allocator@VNeuron@@@std@@QAE@XZ	; std::allocator<Neuron>::allocator<Neuron>
	mov	ecx, DWORD PTR _this$[ebp]
	call	??0?$_Vector_val@U?$_Simple_types@VNeuron@@@std@@@std@@QAE@XZ ; std::_Vector_val<std::_Simple_types<Neuron> >::_Vector_val<std::_Simple_types<Neuron> >

; 304  : 		}

	mov	eax, DWORD PTR _this$[ebp]
	add	esp, 4
	cmp	ebp, esp
	call	__RTC_CheckEsp
	mov	esp, ebp
	pop	ebp
	ret	4
??$?0$$V@?$_Compressed_pair@V?$allocator@VNeuron@@@std@@V?$_Vector_val@U?$_Simple_types@VNeuron@@@std@@@2@$00@std@@QAE@U_Zero_then_variadic_args_t@1@@Z ENDP ; std::_Compressed_pair<std::allocator<Neuron>,std::_Vector_val<std::_Simple_types<Neuron> >,1>::_Compressed_pair<std::allocator<Neuron>,std::_Vector_val<std::_Simple_types<Neuron> >,1><>
_TEXT	ENDS
; Function compile flags: /Odtp /RTCsu
; File c:\program files (x86)\microsoft visual studio\2017\community\vc\tools\msvc\14.11.25503\include\xmemory0
;	COMDAT ??$destroy@VNeuron@@@?$_Default_allocator_traits@V?$allocator@VNeuron@@@std@@@std@@SAXAAV?$allocator@VNeuron@@@1@QAVNeuron@@@Z
_TEXT	SEGMENT
___formal$ = 8						; size = 4
__Ptr$ = 12						; size = 4
??$destroy@VNeuron@@@?$_Default_allocator_traits@V?$allocator@VNeuron@@@std@@@std@@SAXAAV?$allocator@VNeuron@@@1@QAVNeuron@@@Z PROC ; std::_Default_allocator_traits<std::allocator<Neuron> >::destroy<Neuron>, COMDAT

; 861  : 		{	// destroy object at _Ptr

	push	ebp
	mov	ebp, esp

; 862  : 		_Ptr->~_Uty();

	push	0
	mov	ecx, DWORD PTR __Ptr$[ebp]
	call	??_GNeuron@@QAEPAXI@Z

; 863  : 		}

	cmp	ebp, esp
	call	__RTC_CheckEsp
	pop	ebp
	ret	0
??$destroy@VNeuron@@@?$_Default_allocator_traits@V?$allocator@VNeuron@@@std@@@std@@SAXAAV?$allocator@VNeuron@@@1@QAVNeuron@@@Z ENDP ; std::_Default_allocator_traits<std::allocator<Neuron> >::destroy<Neuron>
_TEXT	ENDS
; Function compile flags: /Odtp /RTCsu
; File c:\program files (x86)\microsoft visual studio\2017\community\vc\tools\msvc\14.11.25503\include\xmemory0
;	COMDAT ??$construct@VNeuron@@V1@@?$_Default_allocator_traits@V?$allocator@VNeuron@@@std@@@std@@SAXAAV?$allocator@VNeuron@@@1@QAVNeuron@@$$QAV3@@Z
_TEXT	SEGMENT
$T2 = -20						; size = 4
$T3 = -16						; size = 4
__$EHRec$ = -12						; size = 12
___formal$ = 8						; size = 4
__Ptr$ = 12						; size = 4
_<_Args_0>$ = 16					; size = 4
??$construct@VNeuron@@V1@@?$_Default_allocator_traits@V?$allocator@VNeuron@@@std@@@std@@SAXAAV?$allocator@VNeuron@@@1@QAVNeuron@@$$QAV3@@Z PROC ; std::_Default_allocator_traits<std::allocator<Neuron> >::construct<Neuron,Neuron>, COMDAT

; 854  : 		{	// construct _Objty(_Types...) at _Ptr

	push	ebp
	mov	ebp, esp
	push	-1
	push	__ehhandler$??$construct@VNeuron@@V1@@?$_Default_allocator_traits@V?$allocator@VNeuron@@@std@@@std@@SAXAAV?$allocator@VNeuron@@@1@QAVNeuron@@$$QAV3@@Z
	mov	eax, DWORD PTR fs:0
	push	eax
	sub	esp, 8
	mov	DWORD PTR [ebp-20], -858993460		; ccccccccH
	mov	DWORD PTR [ebp-16], -858993460		; ccccccccH
	mov	eax, DWORD PTR ___security_cookie
	xor	eax, ebp
	push	eax
	lea	eax, DWORD PTR __$EHRec$[ebp]
	mov	DWORD PTR fs:0, eax

; 855  : 		::new (const_cast<void *>(static_cast<const volatile void *>(_Ptr)))

	mov	eax, DWORD PTR __Ptr$[ebp]
	push	eax
	push	40					; 00000028H
	call	??2@YAPAXIPAX@Z				; operator new
	add	esp, 8
	mov	DWORD PTR $T2[ebp], eax
	mov	DWORD PTR __$EHRec$[ebp+8], 0
	mov	ecx, DWORD PTR _<_Args_0>$[ebp]
	push	ecx
	call	??$forward@VNeuron@@@std@@YA$$QAVNeuron@@AAV1@@Z ; std::forward<Neuron>
	add	esp, 4
	push	eax
	mov	ecx, DWORD PTR $T2[ebp]
	call	??0Neuron@@QAE@ABV0@@Z
	mov	DWORD PTR $T3[ebp], eax
	mov	DWORD PTR __$EHRec$[ebp+8], -1

; 856  : 			_Objty(_STD forward<_Types>(_Args)...);
; 857  : 		}

	mov	ecx, DWORD PTR __$EHRec$[ebp]
	mov	DWORD PTR fs:0, ecx
	pop	ecx
	add	esp, 20					; 00000014H
	cmp	ebp, esp
	call	__RTC_CheckEsp
	mov	esp, ebp
	pop	ebp
	ret	0
_TEXT	ENDS
;	COMDAT text$x
text$x	SEGMENT
__unwindfunclet$??$construct@VNeuron@@V1@@?$_Default_allocator_traits@V?$allocator@VNeuron@@@std@@@std@@SAXAAV?$allocator@VNeuron@@@1@QAVNeuron@@$$QAV3@@Z$0:
	mov	eax, DWORD PTR __Ptr$[ebp]
	push	eax
	mov	eax, DWORD PTR $T2[ebp]
	push	eax
	call	??3@YAXPAX0@Z				; operator delete
	add	esp, 8
	ret	0
__ehhandler$??$construct@VNeuron@@V1@@?$_Default_allocator_traits@V?$allocator@VNeuron@@@std@@@std@@SAXAAV?$allocator@VNeuron@@@1@QAVNeuron@@$$QAV3@@Z:
	mov	edx, DWORD PTR [esp+8]
	lea	eax, DWORD PTR [edx+12]
	mov	ecx, DWORD PTR [edx-12]
	xor	ecx, eax
	call	@__security_check_cookie@4
	mov	eax, OFFSET __ehfuncinfo$??$construct@VNeuron@@V1@@?$_Default_allocator_traits@V?$allocator@VNeuron@@@std@@@std@@SAXAAV?$allocator@VNeuron@@@1@QAVNeuron@@$$QAV3@@Z
	jmp	___CxxFrameHandler3
text$x	ENDS
??$construct@VNeuron@@V1@@?$_Default_allocator_traits@V?$allocator@VNeuron@@@std@@@std@@SAXAAV?$allocator@VNeuron@@@1@QAVNeuron@@$$QAV3@@Z ENDP ; std::_Default_allocator_traits<std::allocator<Neuron> >::construct<Neuron,Neuron>
; Function compile flags: /Odtp /RTCsu
; File c:\program files (x86)\microsoft visual studio\2017\community\vc\tools\msvc\14.11.25503\include\xstddef
;	COMDAT ??$_Unfancy@VNeuron@@@std@@YAPAVNeuron@@PAV1@@Z
_TEXT	SEGMENT
__Ptr$ = 8						; size = 4
??$_Unfancy@VNeuron@@@std@@YAPAVNeuron@@PAV1@@Z PROC	; std::_Unfancy<Neuron>, COMDAT

; 264  : 	{	// do nothing for plain pointers

	push	ebp
	mov	ebp, esp

; 265  : 	return (_Ptr);

	mov	eax, DWORD PTR __Ptr$[ebp]

; 266  : 	}

	pop	ebp
	ret	0
??$_Unfancy@VNeuron@@@std@@YAPAVNeuron@@PAV1@@Z ENDP	; std::_Unfancy<Neuron>
_TEXT	ENDS
; Function compile flags: /Odtp /RTCsu
; File c:\program files (x86)\microsoft visual studio\2017\community\vc\tools\msvc\14.11.25503\include\vector
;	COMDAT ??$_Emplace_back_with_unused_capacity@VNeuron@@@?$vector@VNeuron@@V?$allocator@VNeuron@@@std@@@std@@AAEX$$QAVNeuron@@@Z
_TEXT	SEGMENT
tv136 = -8						; size = 4
_this$ = -4						; size = 4
_<_Val_0>$ = 8						; size = 4
??$_Emplace_back_with_unused_capacity@VNeuron@@@?$vector@VNeuron@@V?$allocator@VNeuron@@@std@@@std@@AAEX$$QAVNeuron@@@Z PROC ; std::vector<Neuron,std::allocator<Neuron> >::_Emplace_back_with_unused_capacity<Neuron>, COMDAT
; _this$ = ecx

; 927  : 		{	// insert by perfectly forwarding into element at end, provide strong guarantee

	push	ebp
	mov	ebp, esp
	sub	esp, 8
	mov	DWORD PTR [ebp-8], -858993460		; ccccccccH
	mov	DWORD PTR [ebp-4], -858993460		; ccccccccH
	mov	DWORD PTR _this$[ebp], ecx

; 928  : 			// Pre: _Has_unused_capacity()
; 929  : 		_Alty_traits::construct(this->_Getal(), _Unfancy(this->_Mylast()), _STD forward<_Valty>(_Val)...);

	mov	eax, DWORD PTR _<_Val_0>$[ebp]
	push	eax
	call	??$forward@VNeuron@@@std@@YA$$QAVNeuron@@AAV1@@Z ; std::forward<Neuron>
	add	esp, 4
	push	eax
	mov	ecx, DWORD PTR _this$[ebp]
	call	?_Mylast@?$_Vector_alloc@U?$_Vec_base_types@VNeuron@@V?$allocator@VNeuron@@@std@@@std@@@std@@QAEAAPAVNeuron@@XZ ; std::_Vector_alloc<std::_Vec_base_types<Neuron,std::allocator<Neuron> > >::_Mylast
	mov	ecx, DWORD PTR [eax]
	push	ecx
	call	??$_Unfancy@VNeuron@@@std@@YAPAVNeuron@@PAV1@@Z ; std::_Unfancy<Neuron>
	add	esp, 4
	push	eax
	mov	ecx, DWORD PTR _this$[ebp]
	call	?_Getal@?$_Vector_alloc@U?$_Vec_base_types@VNeuron@@V?$allocator@VNeuron@@@std@@@std@@@std@@QAEAAV?$allocator@VNeuron@@@2@XZ ; std::_Vector_alloc<std::_Vec_base_types<Neuron,std::allocator<Neuron> > >::_Getal
	push	eax
	call	??$construct@VNeuron@@V1@@?$_Default_allocator_traits@V?$allocator@VNeuron@@@std@@@std@@SAXAAV?$allocator@VNeuron@@@1@QAVNeuron@@$$QAV3@@Z ; std::_Default_allocator_traits<std::allocator<Neuron> >::construct<Neuron,Neuron>
	add	esp, 12					; 0000000cH

; 930  : 		_Orphan_range(this->_Mylast(), this->_Mylast());

	mov	ecx, DWORD PTR _this$[ebp]
	call	?_Mylast@?$_Vector_alloc@U?$_Vec_base_types@VNeuron@@V?$allocator@VNeuron@@@std@@@std@@@std@@QAEAAPAVNeuron@@XZ ; std::_Vector_alloc<std::_Vec_base_types<Neuron,std::allocator<Neuron> > >::_Mylast
	mov	edx, DWORD PTR [eax]
	push	edx
	mov	ecx, DWORD PTR _this$[ebp]
	call	?_Mylast@?$_Vector_alloc@U?$_Vec_base_types@VNeuron@@V?$allocator@VNeuron@@@std@@@std@@@std@@QAEAAPAVNeuron@@XZ ; std::_Vector_alloc<std::_Vec_base_types<Neuron,std::allocator<Neuron> > >::_Mylast
	mov	eax, DWORD PTR [eax]
	push	eax
	mov	ecx, DWORD PTR _this$[ebp]
	call	?_Orphan_range@?$vector@VNeuron@@V?$allocator@VNeuron@@@std@@@std@@ABEXPAVNeuron@@0@Z ; std::vector<Neuron,std::allocator<Neuron> >::_Orphan_range

; 931  : 		++this->_Mylast();

	mov	ecx, DWORD PTR _this$[ebp]
	call	?_Mylast@?$_Vector_alloc@U?$_Vec_base_types@VNeuron@@V?$allocator@VNeuron@@@std@@@std@@@std@@QAEAAPAVNeuron@@XZ ; std::_Vector_alloc<std::_Vec_base_types<Neuron,std::allocator<Neuron> > >::_Mylast
	mov	DWORD PTR tv136[ebp], eax
	mov	ecx, DWORD PTR tv136[ebp]
	mov	edx, DWORD PTR [ecx]
	add	edx, 40					; 00000028H
	mov	eax, DWORD PTR tv136[ebp]
	mov	DWORD PTR [eax], edx

; 932  : 		}

	add	esp, 8
	cmp	ebp, esp
	call	__RTC_CheckEsp
	mov	esp, ebp
	pop	ebp
	ret	4
??$_Emplace_back_with_unused_capacity@VNeuron@@@?$vector@VNeuron@@V?$allocator@VNeuron@@@std@@@std@@AAEX$$QAVNeuron@@@Z ENDP ; std::vector<Neuron,std::allocator<Neuron> >::_Emplace_back_with_unused_capacity<Neuron>
_TEXT	ENDS
; Function compile flags: /Odtp /RTCsu
; File c:\program files (x86)\microsoft visual studio\2017\community\vc\tools\msvc\14.11.25503\include\type_traits
;	COMDAT ??$forward@VNeuron@@@std@@YA$$QAVNeuron@@AAV1@@Z
_TEXT	SEGMENT
__Arg$ = 8						; size = 4
??$forward@VNeuron@@@std@@YA$$QAVNeuron@@AAV1@@Z PROC	; std::forward<Neuron>, COMDAT

; 1591 : 	{	// forward an lvalue as either an lvalue or an rvalue

	push	ebp
	mov	ebp, esp

; 1592 : 	return (static_cast<_Ty&&>(_Arg));

	mov	eax, DWORD PTR __Arg$[ebp]

; 1593 : 	}

	pop	ebp
	ret	0
??$forward@VNeuron@@@std@@YA$$QAVNeuron@@AAV1@@Z ENDP	; std::forward<Neuron>
_TEXT	ENDS
; Function compile flags: /Odtp /RTCsu
; File c:\program files (x86)\microsoft visual studio\2017\community\vc\tools\msvc\14.11.25503\include\vector
;	COMDAT ??$emplace_back@VNeuron@@@?$vector@VNeuron@@V?$allocator@VNeuron@@@std@@@std@@QAE@$$QAVNeuron@@@Z
_TEXT	SEGMENT
tv174 = -48						; size = 4
__Al$2 = -44						; size = 4
__Newvec$3 = -40					; size = 4
__Emplaced$4 = -33					; size = 1
__Newcapacity$5 = -32					; size = 4
__Newsize$6 = -28					; size = 4
__Oldsize$7 = -24					; size = 4
_this$ = -20						; size = 4
__$EHRec$ = -16						; size = 16
_<_Val_0>$ = 8						; size = 4
??$emplace_back@VNeuron@@@?$vector@VNeuron@@V?$allocator@VNeuron@@@std@@@std@@QAE@$$QAVNeuron@@@Z PROC ; std::vector<Neuron,std::allocator<Neuron> >::emplace_back<Neuron>, COMDAT
; _this$ = ecx

; 937  : 		{	// insert by perfectly forwarding into element at end, provide strong guarantee

	push	ebp
	mov	ebp, esp
	push	-1
	push	__ehhandler$??$emplace_back@VNeuron@@@?$vector@VNeuron@@V?$allocator@VNeuron@@@std@@@std@@QAE@$$QAVNeuron@@@Z
	mov	eax, DWORD PTR fs:0
	push	eax
	push	ecx
	sub	esp, 32					; 00000020H
	push	ebx
	push	esi
	push	edi
	mov	eax, -858993460				; ccccccccH
	mov	DWORD PTR [ebp-48], eax
	mov	DWORD PTR [ebp-44], eax
	mov	DWORD PTR [ebp-40], eax
	mov	DWORD PTR [ebp-36], eax
	mov	DWORD PTR [ebp-32], eax
	mov	DWORD PTR [ebp-28], eax
	mov	DWORD PTR [ebp-24], eax
	mov	DWORD PTR [ebp-20], eax
	mov	eax, DWORD PTR ___security_cookie
	xor	eax, ebp
	push	eax
	lea	eax, DWORD PTR __$EHRec$[ebp+4]
	mov	DWORD PTR fs:0, eax
	mov	DWORD PTR __$EHRec$[ebp], esp
	mov	DWORD PTR _this$[ebp], ecx

; 938  : 		if (_Has_unused_capacity())

	mov	ecx, DWORD PTR _this$[ebp]
	call	?_Has_unused_capacity@?$vector@VNeuron@@V?$allocator@VNeuron@@@std@@@std@@ABE_NXZ ; std::vector<Neuron,std::allocator<Neuron> >::_Has_unused_capacity
	movzx	eax, al
	test	eax, eax
	je	SHORT $LN2@emplace_ba

; 939  : 			{
; 940  : 			_Emplace_back_with_unused_capacity(_STD forward<_Valty>(_Val)...);

	mov	ecx, DWORD PTR _<_Val_0>$[ebp]
	push	ecx
	call	??$forward@VNeuron@@@std@@YA$$QAVNeuron@@AAV1@@Z ; std::forward<Neuron>
	add	esp, 4
	push	eax
	mov	ecx, DWORD PTR _this$[ebp]
	call	??$_Emplace_back_with_unused_capacity@VNeuron@@@?$vector@VNeuron@@V?$allocator@VNeuron@@@std@@@std@@AAEX$$QAVNeuron@@@Z ; std::vector<Neuron,std::allocator<Neuron> >::_Emplace_back_with_unused_capacity<Neuron>

; 941  : 			}
; 942  : 		else

	jmp	$LN7@emplace_ba
$LN2@emplace_ba:

; 943  : 			{	// reallocate
; 944  : 			const size_type _Oldsize = size();

	mov	ecx, DWORD PTR _this$[ebp]
	call	?size@?$vector@VNeuron@@V?$allocator@VNeuron@@@std@@@std@@QBEIXZ ; std::vector<Neuron,std::allocator<Neuron> >::size
	mov	DWORD PTR __Oldsize$7[ebp], eax

; 945  : 
; 946  : 			if (_Oldsize == max_size())

	mov	ecx, DWORD PTR _this$[ebp]
	call	?max_size@?$vector@VNeuron@@V?$allocator@VNeuron@@@std@@@std@@QBEIXZ ; std::vector<Neuron,std::allocator<Neuron> >::max_size
	cmp	DWORD PTR __Oldsize$7[ebp], eax
	jne	SHORT $LN4@emplace_ba

; 947  : 				{
; 948  : 				_Xlength();

	call	?_Xlength@?$vector@VNeuron@@V?$allocator@VNeuron@@@std@@@std@@CAXXZ ; std::vector<Neuron,std::allocator<Neuron> >::_Xlength
$LN4@emplace_ba:

; 949  : 				}
; 950  : 
; 951  : 			const size_type _Newsize = _Oldsize + 1;

	mov	edx, DWORD PTR __Oldsize$7[ebp]
	add	edx, 1
	mov	DWORD PTR __Newsize$6[ebp], edx

; 952  : 			const size_type _Newcapacity = _Calculate_growth(_Newsize);

	mov	eax, DWORD PTR __Newsize$6[ebp]
	push	eax
	mov	ecx, DWORD PTR _this$[ebp]
	call	?_Calculate_growth@?$vector@VNeuron@@V?$allocator@VNeuron@@@std@@@std@@ABEII@Z ; std::vector<Neuron,std::allocator<Neuron> >::_Calculate_growth
	mov	DWORD PTR __Newcapacity$5[ebp], eax

; 953  : 			bool _Emplaced = false;

	mov	BYTE PTR __Emplaced$4[ebp], 0

; 954  : 			const pointer _Newvec = this->_Getal().allocate(_Newcapacity);

	mov	ecx, DWORD PTR __Newcapacity$5[ebp]
	push	ecx
	mov	ecx, DWORD PTR _this$[ebp]
	call	?_Getal@?$_Vector_alloc@U?$_Vec_base_types@VNeuron@@V?$allocator@VNeuron@@@std@@@std@@@std@@QAEAAV?$allocator@VNeuron@@@2@XZ ; std::_Vector_alloc<std::_Vec_base_types<Neuron,std::allocator<Neuron> > >::_Getal
	mov	ecx, eax
	call	?allocate@?$allocator@VNeuron@@@std@@QAEPAVNeuron@@I@Z ; std::allocator<Neuron>::allocate
	mov	DWORD PTR __Newvec$3[ebp], eax

; 955  : 			_Alty& _Al = this->_Getal();

	mov	ecx, DWORD PTR _this$[ebp]
	call	?_Getal@?$_Vector_alloc@U?$_Vec_base_types@VNeuron@@V?$allocator@VNeuron@@@std@@@std@@@std@@QAEAAV?$allocator@VNeuron@@@2@XZ ; std::_Vector_alloc<std::_Vec_base_types<Neuron,std::allocator<Neuron> > >::_Getal
	mov	DWORD PTR __Al$2[ebp], eax

; 956  : 
; 957  : 			_TRY_BEGIN

	mov	DWORD PTR __$EHRec$[ebp+12], 0

; 958  : 			_Alty_traits::construct(_Al, _Unfancy(_Newvec + _Oldsize), _STD forward<_Valty>(_Val)...);

	imul	edx, DWORD PTR __Oldsize$7[ebp], 40
	add	edx, DWORD PTR __Newvec$3[ebp]
	push	edx
	call	??$_Unfancy@VNeuron@@@std@@YAPAVNeuron@@PAV1@@Z ; std::_Unfancy<Neuron>
	add	esp, 4
	mov	DWORD PTR tv174[ebp], eax
	mov	eax, DWORD PTR _<_Val_0>$[ebp]
	push	eax
	call	??$forward@VNeuron@@@std@@YA$$QAVNeuron@@AAV1@@Z ; std::forward<Neuron>
	add	esp, 4
	push	eax
	mov	ecx, DWORD PTR tv174[ebp]
	push	ecx
	mov	edx, DWORD PTR __Al$2[ebp]
	push	edx
	call	??$construct@VNeuron@@V1@@?$_Default_allocator_traits@V?$allocator@VNeuron@@@std@@@std@@SAXAAV?$allocator@VNeuron@@@1@QAVNeuron@@$$QAV3@@Z ; std::_Default_allocator_traits<std::allocator<Neuron> >::construct<Neuron,Neuron>
	add	esp, 12					; 0000000cH

; 959  : 			_Emplaced = true;

	mov	BYTE PTR __Emplaced$4[ebp], 1

; 960  : 			_Umove_if_noexcept(this->_Myfirst(), this->_Mylast(), _Newvec);

	mov	eax, DWORD PTR __Newvec$3[ebp]
	push	eax
	mov	ecx, DWORD PTR _this$[ebp]
	call	?_Mylast@?$_Vector_alloc@U?$_Vec_base_types@VNeuron@@V?$allocator@VNeuron@@@std@@@std@@@std@@QAEAAPAVNeuron@@XZ ; std::_Vector_alloc<std::_Vec_base_types<Neuron,std::allocator<Neuron> > >::_Mylast
	mov	ecx, DWORD PTR [eax]
	push	ecx
	mov	ecx, DWORD PTR _this$[ebp]
	call	?_Myfirst@?$_Vector_alloc@U?$_Vec_base_types@VNeuron@@V?$allocator@VNeuron@@@std@@@std@@@std@@QAEAAPAVNeuron@@XZ ; std::_Vector_alloc<std::_Vec_base_types<Neuron,std::allocator<Neuron> > >::_Myfirst
	mov	edx, DWORD PTR [eax]
	push	edx
	mov	ecx, DWORD PTR _this$[ebp]
	call	?_Umove_if_noexcept@?$vector@VNeuron@@V?$allocator@VNeuron@@@std@@@std@@AAEXPAVNeuron@@00@Z ; std::vector<Neuron,std::allocator<Neuron> >::_Umove_if_noexcept
	jmp	SHORT $LN8@emplace_ba
__catch$??$emplace_back@VNeuron@@@?$vector@VNeuron@@V?$allocator@VNeuron@@@std@@@std@@QAE@$$QAVNeuron@@@Z$0:

; 961  : 			_CATCH_ALL
; 962  : 			if (_Emplaced)

	movzx	eax, BYTE PTR __Emplaced$4[ebp]
	test	eax, eax
	je	SHORT $LN6@emplace_ba

; 963  : 				{
; 964  : 				_Alty_traits::destroy(_Al, _Unfancy(_Newvec + _Oldsize));

	imul	ecx, DWORD PTR __Oldsize$7[ebp], 40
	add	ecx, DWORD PTR __Newvec$3[ebp]
	push	ecx
	call	??$_Unfancy@VNeuron@@@std@@YAPAVNeuron@@PAV1@@Z ; std::_Unfancy<Neuron>
	add	esp, 4
	push	eax
	mov	edx, DWORD PTR __Al$2[ebp]
	push	edx
	call	??$destroy@VNeuron@@@?$_Default_allocator_traits@V?$allocator@VNeuron@@@std@@@std@@SAXAAV?$allocator@VNeuron@@@1@QAVNeuron@@@Z ; std::_Default_allocator_traits<std::allocator<Neuron> >::destroy<Neuron>
	add	esp, 8
$LN6@emplace_ba:

; 965  : 				}
; 966  : 
; 967  : 			_Al.deallocate(_Newvec, _Newcapacity);

	mov	eax, DWORD PTR __Newcapacity$5[ebp]
	push	eax
	mov	ecx, DWORD PTR __Newvec$3[ebp]
	push	ecx
	mov	ecx, DWORD PTR __Al$2[ebp]
	call	?deallocate@?$allocator@VNeuron@@@std@@QAEXQAVNeuron@@I@Z ; std::allocator<Neuron>::deallocate

; 968  : 			_RERAISE;

	push	0
	push	0
	call	__CxxThrowException@8

; 969  : 			_CATCH_END

	mov	eax, $LN11@emplace_ba
	ret	0
$LN8@emplace_ba:
	mov	DWORD PTR __$EHRec$[ebp+12], -1
	jmp	SHORT __tryend$??$emplace_back@VNeuron@@@?$vector@VNeuron@@V?$allocator@VNeuron@@@std@@@std@@QAE@$$QAVNeuron@@@Z$1
$LN11@emplace_ba:
	mov	DWORD PTR __$EHRec$[ebp+12], -1
__tryend$??$emplace_back@VNeuron@@@?$vector@VNeuron@@V?$allocator@VNeuron@@@std@@@std@@QAE@$$QAVNeuron@@@Z$1:

; 970  : 
; 971  : 			_Change_array(_Newvec, _Newsize, _Newcapacity);

	mov	edx, DWORD PTR __Newcapacity$5[ebp]
	push	edx
	mov	eax, DWORD PTR __Newsize$6[ebp]
	push	eax
	mov	ecx, DWORD PTR __Newvec$3[ebp]
	push	ecx
	mov	ecx, DWORD PTR _this$[ebp]
	call	?_Change_array@?$vector@VNeuron@@V?$allocator@VNeuron@@@std@@@std@@AAEXQAVNeuron@@II@Z ; std::vector<Neuron,std::allocator<Neuron> >::_Change_array
$LN7@emplace_ba:

; 972  : 			}
; 973  : 
; 974  : #if _HAS_CXX17
; 975  : 		return (this->_Mylast()[-1]);
; 976  : #endif /* _HAS_CXX17 */
; 977  : 		}

	mov	ecx, DWORD PTR __$EHRec$[ebp+4]
	mov	DWORD PTR fs:0, ecx
	pop	ecx
	pop	edi
	pop	esi
	pop	ebx
	add	esp, 48					; 00000030H
	cmp	ebp, esp
	call	__RTC_CheckEsp
	mov	esp, ebp
	pop	ebp
	ret	4
_TEXT	ENDS
;	COMDAT text$x
text$x	SEGMENT
__ehhandler$??$emplace_back@VNeuron@@@?$vector@VNeuron@@V?$allocator@VNeuron@@@std@@@std@@QAE@$$QAVNeuron@@@Z:
	mov	edx, DWORD PTR [esp+8]
	lea	eax, DWORD PTR [edx+12]
	mov	ecx, DWORD PTR [edx-52]
	xor	ecx, eax
	call	@__security_check_cookie@4
	mov	eax, OFFSET __ehfuncinfo$??$emplace_back@VNeuron@@@?$vector@VNeuron@@V?$allocator@VNeuron@@@std@@@std@@QAE@$$QAVNeuron@@@Z
	jmp	___CxxFrameHandler3
text$x	ENDS
??$emplace_back@VNeuron@@@?$vector@VNeuron@@V?$allocator@VNeuron@@@std@@@std@@QAE@$$QAVNeuron@@@Z ENDP ; std::vector<Neuron,std::allocator<Neuron> >::emplace_back<Neuron>
; Function compile flags: /Odtp /RTCsu
; File c:\program files (x86)\microsoft visual studio\2017\community\vc\tools\msvc\14.11.25503\include\type_traits
;	COMDAT ??$move@AAVNeuron@@@std@@YA$$QAVNeuron@@AAV1@@Z
_TEXT	SEGMENT
__Arg$ = 8						; size = 4
??$move@AAVNeuron@@@std@@YA$$QAVNeuron@@AAV1@@Z PROC	; std::move<Neuron &>, COMDAT

; 1606 : 	{	// forward _Arg as movable

	push	ebp
	mov	ebp, esp

; 1607 : 	return (static_cast<remove_reference_t<_Ty>&&>(_Arg));

	mov	eax, DWORD PTR __Arg$[ebp]

; 1608 : 	}

	pop	ebp
	ret	0
??$move@AAVNeuron@@@std@@YA$$QAVNeuron@@AAV1@@Z ENDP	; std::move<Neuron &>
_TEXT	ENDS
; Function compile flags: /Odtp /RTCsu
; File c:\program files (x86)\microsoft visual studio\2017\community\vc\tools\msvc\14.11.25503\include\xmemory0
;	COMDAT ??$destroy@N@?$_Default_allocator_traits@V?$allocator@N@std@@@std@@SAXAAV?$allocator@N@1@QAN@Z
_TEXT	SEGMENT
___formal$ = 8						; size = 4
__Ptr$ = 12						; size = 4
??$destroy@N@?$_Default_allocator_traits@V?$allocator@N@std@@@std@@SAXAAV?$allocator@N@1@QAN@Z PROC ; std::_Default_allocator_traits<std::allocator<double> >::destroy<double>, COMDAT

; 861  : 		{	// destroy object at _Ptr

	push	ebp
	mov	ebp, esp

; 862  : 		_Ptr->~_Uty();
; 863  : 		}

	pop	ebp
	ret	0
??$destroy@N@?$_Default_allocator_traits@V?$allocator@N@std@@@std@@SAXAAV?$allocator@N@1@QAN@Z ENDP ; std::_Default_allocator_traits<std::allocator<double> >::destroy<double>
_TEXT	ENDS
; Function compile flags: /Odtp /RTCsu
; File c:\program files (x86)\microsoft visual studio\2017\community\vc\tools\msvc\14.11.25503\include\xmemory0
;	COMDAT ??$construct@NN@?$_Default_allocator_traits@V?$allocator@N@std@@@std@@SAXAAV?$allocator@N@1@QAN$$QAN@Z
_TEXT	SEGMENT
$T1 = -4						; size = 4
___formal$ = 8						; size = 4
__Ptr$ = 12						; size = 4
_<_Args_0>$ = 16					; size = 4
??$construct@NN@?$_Default_allocator_traits@V?$allocator@N@std@@@std@@SAXAAV?$allocator@N@1@QAN$$QAN@Z PROC ; std::_Default_allocator_traits<std::allocator<double> >::construct<double,double>, COMDAT

; 854  : 		{	// construct _Objty(_Types...) at _Ptr

	push	ebp
	mov	ebp, esp
	push	ecx
	mov	DWORD PTR [ebp-4], -858993460		; ccccccccH

; 855  : 		::new (const_cast<void *>(static_cast<const volatile void *>(_Ptr)))

	mov	eax, DWORD PTR __Ptr$[ebp]
	push	eax
	push	8
	call	??2@YAPAXIPAX@Z				; operator new
	add	esp, 8
	mov	DWORD PTR $T1[ebp], eax
	mov	ecx, DWORD PTR _<_Args_0>$[ebp]
	push	ecx
	call	??$forward@N@std@@YA$$QANAAN@Z		; std::forward<double>
	add	esp, 4
	mov	edx, DWORD PTR $T1[ebp]
	movsd	xmm0, QWORD PTR [eax]
	movsd	QWORD PTR [edx], xmm0

; 856  : 			_Objty(_STD forward<_Types>(_Args)...);
; 857  : 		}

	add	esp, 4
	cmp	ebp, esp
	call	__RTC_CheckEsp
	mov	esp, ebp
	pop	ebp
	ret	0
??$construct@NN@?$_Default_allocator_traits@V?$allocator@N@std@@@std@@SAXAAV?$allocator@N@1@QAN$$QAN@Z ENDP ; std::_Default_allocator_traits<std::allocator<double> >::construct<double,double>
_TEXT	ENDS
; Function compile flags: /Odtp /RTCsu
; File c:\program files (x86)\microsoft visual studio\2017\community\vc\tools\msvc\14.11.25503\include\xstddef
;	COMDAT ??$_Unfancy@N@std@@YAPANPAN@Z
_TEXT	SEGMENT
__Ptr$ = 8						; size = 4
??$_Unfancy@N@std@@YAPANPAN@Z PROC			; std::_Unfancy<double>, COMDAT

; 264  : 	{	// do nothing for plain pointers

	push	ebp
	mov	ebp, esp

; 265  : 	return (_Ptr);

	mov	eax, DWORD PTR __Ptr$[ebp]

; 266  : 	}

	pop	ebp
	ret	0
??$_Unfancy@N@std@@YAPANPAN@Z ENDP			; std::_Unfancy<double>
_TEXT	ENDS
; Function compile flags: /Odtp /RTCsu
; File c:\program files (x86)\microsoft visual studio\2017\community\vc\tools\msvc\14.11.25503\include\vector
;	COMDAT ??$_Emplace_back_with_unused_capacity@N@?$vector@NV?$allocator@N@std@@@std@@AAEX$$QAN@Z
_TEXT	SEGMENT
tv136 = -8						; size = 4
_this$ = -4						; size = 4
_<_Val_0>$ = 8						; size = 4
??$_Emplace_back_with_unused_capacity@N@?$vector@NV?$allocator@N@std@@@std@@AAEX$$QAN@Z PROC ; std::vector<double,std::allocator<double> >::_Emplace_back_with_unused_capacity<double>, COMDAT
; _this$ = ecx

; 927  : 		{	// insert by perfectly forwarding into element at end, provide strong guarantee

	push	ebp
	mov	ebp, esp
	sub	esp, 8
	mov	DWORD PTR [ebp-8], -858993460		; ccccccccH
	mov	DWORD PTR [ebp-4], -858993460		; ccccccccH
	mov	DWORD PTR _this$[ebp], ecx

; 928  : 			// Pre: _Has_unused_capacity()
; 929  : 		_Alty_traits::construct(this->_Getal(), _Unfancy(this->_Mylast()), _STD forward<_Valty>(_Val)...);

	mov	eax, DWORD PTR _<_Val_0>$[ebp]
	push	eax
	call	??$forward@N@std@@YA$$QANAAN@Z		; std::forward<double>
	add	esp, 4
	push	eax
	mov	ecx, DWORD PTR _this$[ebp]
	call	?_Mylast@?$_Vector_alloc@U?$_Vec_base_types@NV?$allocator@N@std@@@std@@@std@@QAEAAPANXZ ; std::_Vector_alloc<std::_Vec_base_types<double,std::allocator<double> > >::_Mylast
	mov	ecx, DWORD PTR [eax]
	push	ecx
	call	??$_Unfancy@N@std@@YAPANPAN@Z		; std::_Unfancy<double>
	add	esp, 4
	push	eax
	mov	ecx, DWORD PTR _this$[ebp]
	call	?_Getal@?$_Vector_alloc@U?$_Vec_base_types@NV?$allocator@N@std@@@std@@@std@@QAEAAV?$allocator@N@2@XZ ; std::_Vector_alloc<std::_Vec_base_types<double,std::allocator<double> > >::_Getal
	push	eax
	call	??$construct@NN@?$_Default_allocator_traits@V?$allocator@N@std@@@std@@SAXAAV?$allocator@N@1@QAN$$QAN@Z ; std::_Default_allocator_traits<std::allocator<double> >::construct<double,double>
	add	esp, 12					; 0000000cH

; 930  : 		_Orphan_range(this->_Mylast(), this->_Mylast());

	mov	ecx, DWORD PTR _this$[ebp]
	call	?_Mylast@?$_Vector_alloc@U?$_Vec_base_types@NV?$allocator@N@std@@@std@@@std@@QAEAAPANXZ ; std::_Vector_alloc<std::_Vec_base_types<double,std::allocator<double> > >::_Mylast
	mov	edx, DWORD PTR [eax]
	push	edx
	mov	ecx, DWORD PTR _this$[ebp]
	call	?_Mylast@?$_Vector_alloc@U?$_Vec_base_types@NV?$allocator@N@std@@@std@@@std@@QAEAAPANXZ ; std::_Vector_alloc<std::_Vec_base_types<double,std::allocator<double> > >::_Mylast
	mov	eax, DWORD PTR [eax]
	push	eax
	mov	ecx, DWORD PTR _this$[ebp]
	call	?_Orphan_range@?$vector@NV?$allocator@N@std@@@std@@ABEXPAN0@Z ; std::vector<double,std::allocator<double> >::_Orphan_range

; 931  : 		++this->_Mylast();

	mov	ecx, DWORD PTR _this$[ebp]
	call	?_Mylast@?$_Vector_alloc@U?$_Vec_base_types@NV?$allocator@N@std@@@std@@@std@@QAEAAPANXZ ; std::_Vector_alloc<std::_Vec_base_types<double,std::allocator<double> > >::_Mylast
	mov	DWORD PTR tv136[ebp], eax
	mov	ecx, DWORD PTR tv136[ebp]
	mov	edx, DWORD PTR [ecx]
	add	edx, 8
	mov	eax, DWORD PTR tv136[ebp]
	mov	DWORD PTR [eax], edx

; 932  : 		}

	add	esp, 8
	cmp	ebp, esp
	call	__RTC_CheckEsp
	mov	esp, ebp
	pop	ebp
	ret	4
??$_Emplace_back_with_unused_capacity@N@?$vector@NV?$allocator@N@std@@@std@@AAEX$$QAN@Z ENDP ; std::vector<double,std::allocator<double> >::_Emplace_back_with_unused_capacity<double>
_TEXT	ENDS
; Function compile flags: /Odtp /RTCsu
; File c:\program files (x86)\microsoft visual studio\2017\community\vc\tools\msvc\14.11.25503\include\type_traits
;	COMDAT ??$forward@N@std@@YA$$QANAAN@Z
_TEXT	SEGMENT
__Arg$ = 8						; size = 4
??$forward@N@std@@YA$$QANAAN@Z PROC			; std::forward<double>, COMDAT

; 1591 : 	{	// forward an lvalue as either an lvalue or an rvalue

	push	ebp
	mov	ebp, esp

; 1592 : 	return (static_cast<_Ty&&>(_Arg));

	mov	eax, DWORD PTR __Arg$[ebp]

; 1593 : 	}

	pop	ebp
	ret	0
??$forward@N@std@@YA$$QANAAN@Z ENDP			; std::forward<double>
_TEXT	ENDS
; Function compile flags: /Odtp /RTCsu
; File c:\program files (x86)\microsoft visual studio\2017\community\vc\tools\msvc\14.11.25503\include\vector
;	COMDAT ??$emplace_back@N@?$vector@NV?$allocator@N@std@@@std@@QAE@$$QAN@Z
_TEXT	SEGMENT
tv174 = -48						; size = 4
__Al$2 = -44						; size = 4
__Newvec$3 = -40					; size = 4
__Emplaced$4 = -33					; size = 1
__Newcapacity$5 = -32					; size = 4
__Newsize$6 = -28					; size = 4
__Oldsize$7 = -24					; size = 4
_this$ = -20						; size = 4
__$EHRec$ = -16						; size = 16
_<_Val_0>$ = 8						; size = 4
??$emplace_back@N@?$vector@NV?$allocator@N@std@@@std@@QAE@$$QAN@Z PROC ; std::vector<double,std::allocator<double> >::emplace_back<double>, COMDAT
; _this$ = ecx

; 937  : 		{	// insert by perfectly forwarding into element at end, provide strong guarantee

	push	ebp
	mov	ebp, esp
	push	-1
	push	__ehhandler$??$emplace_back@N@?$vector@NV?$allocator@N@std@@@std@@QAE@$$QAN@Z
	mov	eax, DWORD PTR fs:0
	push	eax
	push	ecx
	sub	esp, 32					; 00000020H
	push	ebx
	push	esi
	push	edi
	mov	eax, -858993460				; ccccccccH
	mov	DWORD PTR [ebp-48], eax
	mov	DWORD PTR [ebp-44], eax
	mov	DWORD PTR [ebp-40], eax
	mov	DWORD PTR [ebp-36], eax
	mov	DWORD PTR [ebp-32], eax
	mov	DWORD PTR [ebp-28], eax
	mov	DWORD PTR [ebp-24], eax
	mov	DWORD PTR [ebp-20], eax
	mov	eax, DWORD PTR ___security_cookie
	xor	eax, ebp
	push	eax
	lea	eax, DWORD PTR __$EHRec$[ebp+4]
	mov	DWORD PTR fs:0, eax
	mov	DWORD PTR __$EHRec$[ebp], esp
	mov	DWORD PTR _this$[ebp], ecx

; 938  : 		if (_Has_unused_capacity())

	mov	ecx, DWORD PTR _this$[ebp]
	call	?_Has_unused_capacity@?$vector@NV?$allocator@N@std@@@std@@ABE_NXZ ; std::vector<double,std::allocator<double> >::_Has_unused_capacity
	movzx	eax, al
	test	eax, eax
	je	SHORT $LN2@emplace_ba

; 939  : 			{
; 940  : 			_Emplace_back_with_unused_capacity(_STD forward<_Valty>(_Val)...);

	mov	ecx, DWORD PTR _<_Val_0>$[ebp]
	push	ecx
	call	??$forward@N@std@@YA$$QANAAN@Z		; std::forward<double>
	add	esp, 4
	push	eax
	mov	ecx, DWORD PTR _this$[ebp]
	call	??$_Emplace_back_with_unused_capacity@N@?$vector@NV?$allocator@N@std@@@std@@AAEX$$QAN@Z ; std::vector<double,std::allocator<double> >::_Emplace_back_with_unused_capacity<double>

; 941  : 			}
; 942  : 		else

	jmp	$LN7@emplace_ba
$LN2@emplace_ba:

; 943  : 			{	// reallocate
; 944  : 			const size_type _Oldsize = size();

	mov	ecx, DWORD PTR _this$[ebp]
	call	?size@?$vector@NV?$allocator@N@std@@@std@@QBEIXZ ; std::vector<double,std::allocator<double> >::size
	mov	DWORD PTR __Oldsize$7[ebp], eax

; 945  : 
; 946  : 			if (_Oldsize == max_size())

	mov	ecx, DWORD PTR _this$[ebp]
	call	?max_size@?$vector@NV?$allocator@N@std@@@std@@QBEIXZ ; std::vector<double,std::allocator<double> >::max_size
	cmp	DWORD PTR __Oldsize$7[ebp], eax
	jne	SHORT $LN4@emplace_ba

; 947  : 				{
; 948  : 				_Xlength();

	call	?_Xlength@?$vector@NV?$allocator@N@std@@@std@@CAXXZ ; std::vector<double,std::allocator<double> >::_Xlength
$LN4@emplace_ba:

; 949  : 				}
; 950  : 
; 951  : 			const size_type _Newsize = _Oldsize + 1;

	mov	edx, DWORD PTR __Oldsize$7[ebp]
	add	edx, 1
	mov	DWORD PTR __Newsize$6[ebp], edx

; 952  : 			const size_type _Newcapacity = _Calculate_growth(_Newsize);

	mov	eax, DWORD PTR __Newsize$6[ebp]
	push	eax
	mov	ecx, DWORD PTR _this$[ebp]
	call	?_Calculate_growth@?$vector@NV?$allocator@N@std@@@std@@ABEII@Z ; std::vector<double,std::allocator<double> >::_Calculate_growth
	mov	DWORD PTR __Newcapacity$5[ebp], eax

; 953  : 			bool _Emplaced = false;

	mov	BYTE PTR __Emplaced$4[ebp], 0

; 954  : 			const pointer _Newvec = this->_Getal().allocate(_Newcapacity);

	mov	ecx, DWORD PTR __Newcapacity$5[ebp]
	push	ecx
	mov	ecx, DWORD PTR _this$[ebp]
	call	?_Getal@?$_Vector_alloc@U?$_Vec_base_types@NV?$allocator@N@std@@@std@@@std@@QAEAAV?$allocator@N@2@XZ ; std::_Vector_alloc<std::_Vec_base_types<double,std::allocator<double> > >::_Getal
	mov	ecx, eax
	call	?allocate@?$allocator@N@std@@QAEPANI@Z	; std::allocator<double>::allocate
	mov	DWORD PTR __Newvec$3[ebp], eax

; 955  : 			_Alty& _Al = this->_Getal();

	mov	ecx, DWORD PTR _this$[ebp]
	call	?_Getal@?$_Vector_alloc@U?$_Vec_base_types@NV?$allocator@N@std@@@std@@@std@@QAEAAV?$allocator@N@2@XZ ; std::_Vector_alloc<std::_Vec_base_types<double,std::allocator<double> > >::_Getal
	mov	DWORD PTR __Al$2[ebp], eax

; 956  : 
; 957  : 			_TRY_BEGIN

	mov	DWORD PTR __$EHRec$[ebp+12], 0

; 958  : 			_Alty_traits::construct(_Al, _Unfancy(_Newvec + _Oldsize), _STD forward<_Valty>(_Val)...);

	mov	edx, DWORD PTR __Oldsize$7[ebp]
	mov	eax, DWORD PTR __Newvec$3[ebp]
	lea	ecx, DWORD PTR [eax+edx*8]
	push	ecx
	call	??$_Unfancy@N@std@@YAPANPAN@Z		; std::_Unfancy<double>
	add	esp, 4
	mov	DWORD PTR tv174[ebp], eax
	mov	edx, DWORD PTR _<_Val_0>$[ebp]
	push	edx
	call	??$forward@N@std@@YA$$QANAAN@Z		; std::forward<double>
	add	esp, 4
	push	eax
	mov	eax, DWORD PTR tv174[ebp]
	push	eax
	mov	ecx, DWORD PTR __Al$2[ebp]
	push	ecx
	call	??$construct@NN@?$_Default_allocator_traits@V?$allocator@N@std@@@std@@SAXAAV?$allocator@N@1@QAN$$QAN@Z ; std::_Default_allocator_traits<std::allocator<double> >::construct<double,double>
	add	esp, 12					; 0000000cH

; 959  : 			_Emplaced = true;

	mov	BYTE PTR __Emplaced$4[ebp], 1

; 960  : 			_Umove_if_noexcept(this->_Myfirst(), this->_Mylast(), _Newvec);

	mov	edx, DWORD PTR __Newvec$3[ebp]
	push	edx
	mov	ecx, DWORD PTR _this$[ebp]
	call	?_Mylast@?$_Vector_alloc@U?$_Vec_base_types@NV?$allocator@N@std@@@std@@@std@@QAEAAPANXZ ; std::_Vector_alloc<std::_Vec_base_types<double,std::allocator<double> > >::_Mylast
	mov	eax, DWORD PTR [eax]
	push	eax
	mov	ecx, DWORD PTR _this$[ebp]
	call	?_Myfirst@?$_Vector_alloc@U?$_Vec_base_types@NV?$allocator@N@std@@@std@@@std@@QAEAAPANXZ ; std::_Vector_alloc<std::_Vec_base_types<double,std::allocator<double> > >::_Myfirst
	mov	ecx, DWORD PTR [eax]
	push	ecx
	mov	ecx, DWORD PTR _this$[ebp]
	call	?_Umove_if_noexcept@?$vector@NV?$allocator@N@std@@@std@@AAEXPAN00@Z ; std::vector<double,std::allocator<double> >::_Umove_if_noexcept
	jmp	SHORT $LN8@emplace_ba
__catch$??$emplace_back@N@?$vector@NV?$allocator@N@std@@@std@@QAE@$$QAN@Z$0:

; 961  : 			_CATCH_ALL
; 962  : 			if (_Emplaced)

	movzx	edx, BYTE PTR __Emplaced$4[ebp]
	test	edx, edx
	je	SHORT $LN6@emplace_ba

; 963  : 				{
; 964  : 				_Alty_traits::destroy(_Al, _Unfancy(_Newvec + _Oldsize));

	mov	eax, DWORD PTR __Oldsize$7[ebp]
	mov	ecx, DWORD PTR __Newvec$3[ebp]
	lea	edx, DWORD PTR [ecx+eax*8]
	push	edx
	call	??$_Unfancy@N@std@@YAPANPAN@Z		; std::_Unfancy<double>
	add	esp, 4
	push	eax
	mov	eax, DWORD PTR __Al$2[ebp]
	push	eax
	call	??$destroy@N@?$_Default_allocator_traits@V?$allocator@N@std@@@std@@SAXAAV?$allocator@N@1@QAN@Z ; std::_Default_allocator_traits<std::allocator<double> >::destroy<double>
	add	esp, 8
$LN6@emplace_ba:

; 965  : 				}
; 966  : 
; 967  : 			_Al.deallocate(_Newvec, _Newcapacity);

	mov	ecx, DWORD PTR __Newcapacity$5[ebp]
	push	ecx
	mov	edx, DWORD PTR __Newvec$3[ebp]
	push	edx
	mov	ecx, DWORD PTR __Al$2[ebp]
	call	?deallocate@?$allocator@N@std@@QAEXQANI@Z ; std::allocator<double>::deallocate

; 968  : 			_RERAISE;

	push	0
	push	0
	call	__CxxThrowException@8

; 969  : 			_CATCH_END

	mov	eax, $LN11@emplace_ba
	ret	0
$LN8@emplace_ba:
	mov	DWORD PTR __$EHRec$[ebp+12], -1
	jmp	SHORT __tryend$??$emplace_back@N@?$vector@NV?$allocator@N@std@@@std@@QAE@$$QAN@Z$1
$LN11@emplace_ba:
	mov	DWORD PTR __$EHRec$[ebp+12], -1
__tryend$??$emplace_back@N@?$vector@NV?$allocator@N@std@@@std@@QAE@$$QAN@Z$1:

; 970  : 
; 971  : 			_Change_array(_Newvec, _Newsize, _Newcapacity);

	mov	eax, DWORD PTR __Newcapacity$5[ebp]
	push	eax
	mov	ecx, DWORD PTR __Newsize$6[ebp]
	push	ecx
	mov	edx, DWORD PTR __Newvec$3[ebp]
	push	edx
	mov	ecx, DWORD PTR _this$[ebp]
	call	?_Change_array@?$vector@NV?$allocator@N@std@@@std@@AAEXQANII@Z ; std::vector<double,std::allocator<double> >::_Change_array
$LN7@emplace_ba:

; 972  : 			}
; 973  : 
; 974  : #if _HAS_CXX17
; 975  : 		return (this->_Mylast()[-1]);
; 976  : #endif /* _HAS_CXX17 */
; 977  : 		}

	mov	ecx, DWORD PTR __$EHRec$[ebp+4]
	mov	DWORD PTR fs:0, ecx
	pop	ecx
	pop	edi
	pop	esi
	pop	ebx
	add	esp, 48					; 00000030H
	cmp	ebp, esp
	call	__RTC_CheckEsp
	mov	esp, ebp
	pop	ebp
	ret	4
_TEXT	ENDS
;	COMDAT text$x
text$x	SEGMENT
__ehhandler$??$emplace_back@N@?$vector@NV?$allocator@N@std@@@std@@QAE@$$QAN@Z:
	mov	edx, DWORD PTR [esp+8]
	lea	eax, DWORD PTR [edx+12]
	mov	ecx, DWORD PTR [edx-52]
	xor	ecx, eax
	call	@__security_check_cookie@4
	mov	eax, OFFSET __ehfuncinfo$??$emplace_back@N@?$vector@NV?$allocator@N@std@@@std@@QAE@$$QAN@Z
	jmp	___CxxFrameHandler3
text$x	ENDS
??$emplace_back@N@?$vector@NV?$allocator@N@std@@@std@@QAE@$$QAN@Z ENDP ; std::vector<double,std::allocator<double> >::emplace_back<double>
; Function compile flags: /Odtp /RTCsu
; File c:\program files (x86)\microsoft visual studio\2017\community\vc\tools\msvc\14.11.25503\include\type_traits
;	COMDAT ??$move@AAN@std@@YA$$QANAAN@Z
_TEXT	SEGMENT
__Arg$ = 8						; size = 4
??$move@AAN@std@@YA$$QANAAN@Z PROC			; std::move<double &>, COMDAT

; 1606 : 	{	// forward _Arg as movable

	push	ebp
	mov	ebp, esp

; 1607 : 	return (static_cast<remove_reference_t<_Ty>&&>(_Arg));

	mov	eax, DWORD PTR __Arg$[ebp]

; 1608 : 	}

	pop	ebp
	ret	0
??$move@AAN@std@@YA$$QANAAN@Z ENDP			; std::move<double &>
_TEXT	ENDS
; Function compile flags: /Odtp /RTCsu
; File c:\program files (x86)\microsoft visual studio\2017\community\vc\tools\msvc\14.11.25503\include\xmemory0
;	COMDAT ??$destroy@V?$vector@VNeuron@@V?$allocator@VNeuron@@@std@@@std@@@?$_Default_allocator_traits@V?$allocator@V?$vector@VNeuron@@V?$allocator@VNeuron@@@std@@@std@@@std@@@std@@SAXAAV?$allocator@V?$vector@VNeuron@@V?$allocator@VNeuron@@@std@@@std@@@1@QAV?$vector@VNeuron@@V?$allocator@VNeuron@@@std@@@1@@Z
_TEXT	SEGMENT
___formal$ = 8						; size = 4
__Ptr$ = 12						; size = 4
??$destroy@V?$vector@VNeuron@@V?$allocator@VNeuron@@@std@@@std@@@?$_Default_allocator_traits@V?$allocator@V?$vector@VNeuron@@V?$allocator@VNeuron@@@std@@@std@@@std@@@std@@SAXAAV?$allocator@V?$vector@VNeuron@@V?$allocator@VNeuron@@@std@@@std@@@1@QAV?$vector@VNeuron@@V?$allocator@VNeuron@@@std@@@1@@Z PROC ; std::_Default_allocator_traits<std::allocator<std::vector<Neuron,std::allocator<Neuron> > > >::destroy<std::vector<Neuron,std::allocator<Neuron> > >, COMDAT

; 861  : 		{	// destroy object at _Ptr

	push	ebp
	mov	ebp, esp

; 862  : 		_Ptr->~_Uty();

	push	0
	mov	ecx, DWORD PTR __Ptr$[ebp]
	call	??_G?$vector@VNeuron@@V?$allocator@VNeuron@@@std@@@std@@QAEPAXI@Z

; 863  : 		}

	cmp	ebp, esp
	call	__RTC_CheckEsp
	pop	ebp
	ret	0
??$destroy@V?$vector@VNeuron@@V?$allocator@VNeuron@@@std@@@std@@@?$_Default_allocator_traits@V?$allocator@V?$vector@VNeuron@@V?$allocator@VNeuron@@@std@@@std@@@std@@@std@@SAXAAV?$allocator@V?$vector@VNeuron@@V?$allocator@VNeuron@@@std@@@std@@@1@QAV?$vector@VNeuron@@V?$allocator@VNeuron@@@std@@@1@@Z ENDP ; std::_Default_allocator_traits<std::allocator<std::vector<Neuron,std::allocator<Neuron> > > >::destroy<std::vector<Neuron,std::allocator<Neuron> > >
_TEXT	ENDS
; Function compile flags: /Odtp /RTCsu
; File c:\program files (x86)\microsoft visual studio\2017\community\vc\tools\msvc\14.11.25503\include\xmemory0
;	COMDAT ??$construct@V?$vector@VNeuron@@V?$allocator@VNeuron@@@std@@@std@@V12@@?$_Default_allocator_traits@V?$allocator@V?$vector@VNeuron@@V?$allocator@VNeuron@@@std@@@std@@@std@@@std@@SAXAAV?$allocator@V?$vector@VNeuron@@V?$allocator@VNeuron@@@std@@@std@@@1@QAV?$vector@VNeuron@@V?$allocator@VNeuron@@@std@@@1@$$QAV31@@Z
_TEXT	SEGMENT
$T1 = -4						; size = 4
___formal$ = 8						; size = 4
__Ptr$ = 12						; size = 4
_<_Args_0>$ = 16					; size = 4
??$construct@V?$vector@VNeuron@@V?$allocator@VNeuron@@@std@@@std@@V12@@?$_Default_allocator_traits@V?$allocator@V?$vector@VNeuron@@V?$allocator@VNeuron@@@std@@@std@@@std@@@std@@SAXAAV?$allocator@V?$vector@VNeuron@@V?$allocator@VNeuron@@@std@@@std@@@1@QAV?$vector@VNeuron@@V?$allocator@VNeuron@@@std@@@1@$$QAV31@@Z PROC ; std::_Default_allocator_traits<std::allocator<std::vector<Neuron,std::allocator<Neuron> > > >::construct<std::vector<Neuron,std::allocator<Neuron> >,std::vector<Neuron,std::allocator<Neuron> > >, COMDAT

; 854  : 		{	// construct _Objty(_Types...) at _Ptr

	push	ebp
	mov	ebp, esp
	push	ecx
	mov	DWORD PTR [ebp-4], -858993460		; ccccccccH

; 855  : 		::new (const_cast<void *>(static_cast<const volatile void *>(_Ptr)))

	mov	eax, DWORD PTR __Ptr$[ebp]
	push	eax
	push	16					; 00000010H
	call	??2@YAPAXIPAX@Z				; operator new
	add	esp, 8
	mov	DWORD PTR $T1[ebp], eax
	mov	ecx, DWORD PTR _<_Args_0>$[ebp]
	push	ecx
	call	??$forward@V?$vector@VNeuron@@V?$allocator@VNeuron@@@std@@@std@@@std@@YA$$QAV?$vector@VNeuron@@V?$allocator@VNeuron@@@std@@@0@AAV10@@Z ; std::forward<std::vector<Neuron,std::allocator<Neuron> > >
	add	esp, 4
	push	eax
	mov	ecx, DWORD PTR $T1[ebp]
	call	??0?$vector@VNeuron@@V?$allocator@VNeuron@@@std@@@std@@QAE@$$QAV01@@Z ; std::vector<Neuron,std::allocator<Neuron> >::vector<Neuron,std::allocator<Neuron> >

; 856  : 			_Objty(_STD forward<_Types>(_Args)...);
; 857  : 		}

	add	esp, 4
	cmp	ebp, esp
	call	__RTC_CheckEsp
	mov	esp, ebp
	pop	ebp
	ret	0
??$construct@V?$vector@VNeuron@@V?$allocator@VNeuron@@@std@@@std@@V12@@?$_Default_allocator_traits@V?$allocator@V?$vector@VNeuron@@V?$allocator@VNeuron@@@std@@@std@@@std@@@std@@SAXAAV?$allocator@V?$vector@VNeuron@@V?$allocator@VNeuron@@@std@@@std@@@1@QAV?$vector@VNeuron@@V?$allocator@VNeuron@@@std@@@1@$$QAV31@@Z ENDP ; std::_Default_allocator_traits<std::allocator<std::vector<Neuron,std::allocator<Neuron> > > >::construct<std::vector<Neuron,std::allocator<Neuron> >,std::vector<Neuron,std::allocator<Neuron> > >
_TEXT	ENDS
; Function compile flags: /Odtp /RTCsu
; File c:\program files (x86)\microsoft visual studio\2017\community\vc\tools\msvc\14.11.25503\include\xstddef
;	COMDAT ??$_Unfancy@V?$vector@VNeuron@@V?$allocator@VNeuron@@@std@@@std@@@std@@YAPAV?$vector@VNeuron@@V?$allocator@VNeuron@@@std@@@0@PAV10@@Z
_TEXT	SEGMENT
__Ptr$ = 8						; size = 4
??$_Unfancy@V?$vector@VNeuron@@V?$allocator@VNeuron@@@std@@@std@@@std@@YAPAV?$vector@VNeuron@@V?$allocator@VNeuron@@@std@@@0@PAV10@@Z PROC ; std::_Unfancy<std::vector<Neuron,std::allocator<Neuron> > >, COMDAT

; 264  : 	{	// do nothing for plain pointers

	push	ebp
	mov	ebp, esp

; 265  : 	return (_Ptr);

	mov	eax, DWORD PTR __Ptr$[ebp]

; 266  : 	}

	pop	ebp
	ret	0
??$_Unfancy@V?$vector@VNeuron@@V?$allocator@VNeuron@@@std@@@std@@@std@@YAPAV?$vector@VNeuron@@V?$allocator@VNeuron@@@std@@@0@PAV10@@Z ENDP ; std::_Unfancy<std::vector<Neuron,std::allocator<Neuron> > >
_TEXT	ENDS
; Function compile flags: /Odtp /RTCsu
; File c:\program files (x86)\microsoft visual studio\2017\community\vc\tools\msvc\14.11.25503\include\vector
;	COMDAT ??$_Emplace_back_with_unused_capacity@V?$vector@VNeuron@@V?$allocator@VNeuron@@@std@@@std@@@?$vector@V?$vector@VNeuron@@V?$allocator@VNeuron@@@std@@@std@@V?$allocator@V?$vector@VNeuron@@V?$allocator@VNeuron@@@std@@@std@@@2@@std@@AAEX$$QAV?$vector@VNeuron@@V?$allocator@VNeuron@@@std@@@1@@Z
_TEXT	SEGMENT
tv136 = -8						; size = 4
_this$ = -4						; size = 4
_<_Val_0>$ = 8						; size = 4
??$_Emplace_back_with_unused_capacity@V?$vector@VNeuron@@V?$allocator@VNeuron@@@std@@@std@@@?$vector@V?$vector@VNeuron@@V?$allocator@VNeuron@@@std@@@std@@V?$allocator@V?$vector@VNeuron@@V?$allocator@VNeuron@@@std@@@std@@@2@@std@@AAEX$$QAV?$vector@VNeuron@@V?$allocator@VNeuron@@@std@@@1@@Z PROC ; std::vector<std::vector<Neuron,std::allocator<Neuron> >,std::allocator<std::vector<Neuron,std::allocator<Neuron> > > >::_Emplace_back_with_unused_capacity<std::vector<Neuron,std::allocator<Neuron> > >, COMDAT
; _this$ = ecx

; 927  : 		{	// insert by perfectly forwarding into element at end, provide strong guarantee

	push	ebp
	mov	ebp, esp
	sub	esp, 8
	mov	DWORD PTR [ebp-8], -858993460		; ccccccccH
	mov	DWORD PTR [ebp-4], -858993460		; ccccccccH
	mov	DWORD PTR _this$[ebp], ecx

; 928  : 			// Pre: _Has_unused_capacity()
; 929  : 		_Alty_traits::construct(this->_Getal(), _Unfancy(this->_Mylast()), _STD forward<_Valty>(_Val)...);

	mov	eax, DWORD PTR _<_Val_0>$[ebp]
	push	eax
	call	??$forward@V?$vector@VNeuron@@V?$allocator@VNeuron@@@std@@@std@@@std@@YA$$QAV?$vector@VNeuron@@V?$allocator@VNeuron@@@std@@@0@AAV10@@Z ; std::forward<std::vector<Neuron,std::allocator<Neuron> > >
	add	esp, 4
	push	eax
	mov	ecx, DWORD PTR _this$[ebp]
	call	?_Mylast@?$_Vector_alloc@U?$_Vec_base_types@V?$vector@VNeuron@@V?$allocator@VNeuron@@@std@@@std@@V?$allocator@V?$vector@VNeuron@@V?$allocator@VNeuron@@@std@@@std@@@2@@std@@@std@@QAEAAPAV?$vector@VNeuron@@V?$allocator@VNeuron@@@std@@@2@XZ ; std::_Vector_alloc<std::_Vec_base_types<std::vector<Neuron,std::allocator<Neuron> >,std::allocator<std::vector<Neuron,std::allocator<Neuron> > > > >::_Mylast
	mov	ecx, DWORD PTR [eax]
	push	ecx
	call	??$_Unfancy@V?$vector@VNeuron@@V?$allocator@VNeuron@@@std@@@std@@@std@@YAPAV?$vector@VNeuron@@V?$allocator@VNeuron@@@std@@@0@PAV10@@Z ; std::_Unfancy<std::vector<Neuron,std::allocator<Neuron> > >
	add	esp, 4
	push	eax
	mov	ecx, DWORD PTR _this$[ebp]
	call	?_Getal@?$_Vector_alloc@U?$_Vec_base_types@V?$vector@VNeuron@@V?$allocator@VNeuron@@@std@@@std@@V?$allocator@V?$vector@VNeuron@@V?$allocator@VNeuron@@@std@@@std@@@2@@std@@@std@@QAEAAV?$allocator@V?$vector@VNeuron@@V?$allocator@VNeuron@@@std@@@std@@@2@XZ ; std::_Vector_alloc<std::_Vec_base_types<std::vector<Neuron,std::allocator<Neuron> >,std::allocator<std::vector<Neuron,std::allocator<Neuron> > > > >::_Getal
	push	eax
	call	??$construct@V?$vector@VNeuron@@V?$allocator@VNeuron@@@std@@@std@@V12@@?$_Default_allocator_traits@V?$allocator@V?$vector@VNeuron@@V?$allocator@VNeuron@@@std@@@std@@@std@@@std@@SAXAAV?$allocator@V?$vector@VNeuron@@V?$allocator@VNeuron@@@std@@@std@@@1@QAV?$vector@VNeuron@@V?$allocator@VNeuron@@@std@@@1@$$QAV31@@Z ; std::_Default_allocator_traits<std::allocator<std::vector<Neuron,std::allocator<Neuron> > > >::construct<std::vector<Neuron,std::allocator<Neuron> >,std::vector<Neuron,std::allocator<Neuron> > >
	add	esp, 12					; 0000000cH

; 930  : 		_Orphan_range(this->_Mylast(), this->_Mylast());

	mov	ecx, DWORD PTR _this$[ebp]
	call	?_Mylast@?$_Vector_alloc@U?$_Vec_base_types@V?$vector@VNeuron@@V?$allocator@VNeuron@@@std@@@std@@V?$allocator@V?$vector@VNeuron@@V?$allocator@VNeuron@@@std@@@std@@@2@@std@@@std@@QAEAAPAV?$vector@VNeuron@@V?$allocator@VNeuron@@@std@@@2@XZ ; std::_Vector_alloc<std::_Vec_base_types<std::vector<Neuron,std::allocator<Neuron> >,std::allocator<std::vector<Neuron,std::allocator<Neuron> > > > >::_Mylast
	mov	edx, DWORD PTR [eax]
	push	edx
	mov	ecx, DWORD PTR _this$[ebp]
	call	?_Mylast@?$_Vector_alloc@U?$_Vec_base_types@V?$vector@VNeuron@@V?$allocator@VNeuron@@@std@@@std@@V?$allocator@V?$vector@VNeuron@@V?$allocator@VNeuron@@@std@@@std@@@2@@std@@@std@@QAEAAPAV?$vector@VNeuron@@V?$allocator@VNeuron@@@std@@@2@XZ ; std::_Vector_alloc<std::_Vec_base_types<std::vector<Neuron,std::allocator<Neuron> >,std::allocator<std::vector<Neuron,std::allocator<Neuron> > > > >::_Mylast
	mov	eax, DWORD PTR [eax]
	push	eax
	mov	ecx, DWORD PTR _this$[ebp]
	call	?_Orphan_range@?$vector@V?$vector@VNeuron@@V?$allocator@VNeuron@@@std@@@std@@V?$allocator@V?$vector@VNeuron@@V?$allocator@VNeuron@@@std@@@std@@@2@@std@@ABEXPAV?$vector@VNeuron@@V?$allocator@VNeuron@@@std@@@2@0@Z ; std::vector<std::vector<Neuron,std::allocator<Neuron> >,std::allocator<std::vector<Neuron,std::allocator<Neuron> > > >::_Orphan_range

; 931  : 		++this->_Mylast();

	mov	ecx, DWORD PTR _this$[ebp]
	call	?_Mylast@?$_Vector_alloc@U?$_Vec_base_types@V?$vector@VNeuron@@V?$allocator@VNeuron@@@std@@@std@@V?$allocator@V?$vector@VNeuron@@V?$allocator@VNeuron@@@std@@@std@@@2@@std@@@std@@QAEAAPAV?$vector@VNeuron@@V?$allocator@VNeuron@@@std@@@2@XZ ; std::_Vector_alloc<std::_Vec_base_types<std::vector<Neuron,std::allocator<Neuron> >,std::allocator<std::vector<Neuron,std::allocator<Neuron> > > > >::_Mylast
	mov	DWORD PTR tv136[ebp], eax
	mov	ecx, DWORD PTR tv136[ebp]
	mov	edx, DWORD PTR [ecx]
	add	edx, 16					; 00000010H
	mov	eax, DWORD PTR tv136[ebp]
	mov	DWORD PTR [eax], edx

; 932  : 		}

	add	esp, 8
	cmp	ebp, esp
	call	__RTC_CheckEsp
	mov	esp, ebp
	pop	ebp
	ret	4
??$_Emplace_back_with_unused_capacity@V?$vector@VNeuron@@V?$allocator@VNeuron@@@std@@@std@@@?$vector@V?$vector@VNeuron@@V?$allocator@VNeuron@@@std@@@std@@V?$allocator@V?$vector@VNeuron@@V?$allocator@VNeuron@@@std@@@std@@@2@@std@@AAEX$$QAV?$vector@VNeuron@@V?$allocator@VNeuron@@@std@@@1@@Z ENDP ; std::vector<std::vector<Neuron,std::allocator<Neuron> >,std::allocator<std::vector<Neuron,std::allocator<Neuron> > > >::_Emplace_back_with_unused_capacity<std::vector<Neuron,std::allocator<Neuron> > >
_TEXT	ENDS
; Function compile flags: /Odtp /RTCsu
; File c:\program files (x86)\microsoft visual studio\2017\community\vc\tools\msvc\14.11.25503\include\type_traits
;	COMDAT ??$forward@V?$vector@VNeuron@@V?$allocator@VNeuron@@@std@@@std@@@std@@YA$$QAV?$vector@VNeuron@@V?$allocator@VNeuron@@@std@@@0@AAV10@@Z
_TEXT	SEGMENT
__Arg$ = 8						; size = 4
??$forward@V?$vector@VNeuron@@V?$allocator@VNeuron@@@std@@@std@@@std@@YA$$QAV?$vector@VNeuron@@V?$allocator@VNeuron@@@std@@@0@AAV10@@Z PROC ; std::forward<std::vector<Neuron,std::allocator<Neuron> > >, COMDAT

; 1591 : 	{	// forward an lvalue as either an lvalue or an rvalue

	push	ebp
	mov	ebp, esp

; 1592 : 	return (static_cast<_Ty&&>(_Arg));

	mov	eax, DWORD PTR __Arg$[ebp]

; 1593 : 	}

	pop	ebp
	ret	0
??$forward@V?$vector@VNeuron@@V?$allocator@VNeuron@@@std@@@std@@@std@@YA$$QAV?$vector@VNeuron@@V?$allocator@VNeuron@@@std@@@0@AAV10@@Z ENDP ; std::forward<std::vector<Neuron,std::allocator<Neuron> > >
_TEXT	ENDS
; Function compile flags: /Odtp /RTCsu
; File c:\program files (x86)\microsoft visual studio\2017\community\vc\tools\msvc\14.11.25503\include\vector
;	COMDAT ??$emplace_back@V?$vector@VNeuron@@V?$allocator@VNeuron@@@std@@@std@@@?$vector@V?$vector@VNeuron@@V?$allocator@VNeuron@@@std@@@std@@V?$allocator@V?$vector@VNeuron@@V?$allocator@VNeuron@@@std@@@std@@@2@@std@@QAE@$$QAV?$vector@VNeuron@@V?$allocator@VNeuron@@@std@@@1@@Z
_TEXT	SEGMENT
tv174 = -48						; size = 4
__Al$2 = -44						; size = 4
__Newvec$3 = -40					; size = 4
__Emplaced$4 = -33					; size = 1
__Newcapacity$5 = -32					; size = 4
__Newsize$6 = -28					; size = 4
__Oldsize$7 = -24					; size = 4
_this$ = -20						; size = 4
__$EHRec$ = -16						; size = 16
_<_Val_0>$ = 8						; size = 4
??$emplace_back@V?$vector@VNeuron@@V?$allocator@VNeuron@@@std@@@std@@@?$vector@V?$vector@VNeuron@@V?$allocator@VNeuron@@@std@@@std@@V?$allocator@V?$vector@VNeuron@@V?$allocator@VNeuron@@@std@@@std@@@2@@std@@QAE@$$QAV?$vector@VNeuron@@V?$allocator@VNeuron@@@std@@@1@@Z PROC ; std::vector<std::vector<Neuron,std::allocator<Neuron> >,std::allocator<std::vector<Neuron,std::allocator<Neuron> > > >::emplace_back<std::vector<Neuron,std::allocator<Neuron> > >, COMDAT
; _this$ = ecx

; 937  : 		{	// insert by perfectly forwarding into element at end, provide strong guarantee

	push	ebp
	mov	ebp, esp
	push	-1
	push	__ehhandler$??$emplace_back@V?$vector@VNeuron@@V?$allocator@VNeuron@@@std@@@std@@@?$vector@V?$vector@VNeuron@@V?$allocator@VNeuron@@@std@@@std@@V?$allocator@V?$vector@VNeuron@@V?$allocator@VNeuron@@@std@@@std@@@2@@std@@QAE@$$QAV?$vector@VNeuron@@V?$allocator@VNeuron@@@std@@@1@@Z
	mov	eax, DWORD PTR fs:0
	push	eax
	push	ecx
	sub	esp, 32					; 00000020H
	push	ebx
	push	esi
	push	edi
	mov	eax, -858993460				; ccccccccH
	mov	DWORD PTR [ebp-48], eax
	mov	DWORD PTR [ebp-44], eax
	mov	DWORD PTR [ebp-40], eax
	mov	DWORD PTR [ebp-36], eax
	mov	DWORD PTR [ebp-32], eax
	mov	DWORD PTR [ebp-28], eax
	mov	DWORD PTR [ebp-24], eax
	mov	DWORD PTR [ebp-20], eax
	mov	eax, DWORD PTR ___security_cookie
	xor	eax, ebp
	push	eax
	lea	eax, DWORD PTR __$EHRec$[ebp+4]
	mov	DWORD PTR fs:0, eax
	mov	DWORD PTR __$EHRec$[ebp], esp
	mov	DWORD PTR _this$[ebp], ecx

; 938  : 		if (_Has_unused_capacity())

	mov	ecx, DWORD PTR _this$[ebp]
	call	?_Has_unused_capacity@?$vector@V?$vector@VNeuron@@V?$allocator@VNeuron@@@std@@@std@@V?$allocator@V?$vector@VNeuron@@V?$allocator@VNeuron@@@std@@@std@@@2@@std@@ABE_NXZ ; std::vector<std::vector<Neuron,std::allocator<Neuron> >,std::allocator<std::vector<Neuron,std::allocator<Neuron> > > >::_Has_unused_capacity
	movzx	eax, al
	test	eax, eax
	je	SHORT $LN2@emplace_ba

; 939  : 			{
; 940  : 			_Emplace_back_with_unused_capacity(_STD forward<_Valty>(_Val)...);

	mov	ecx, DWORD PTR _<_Val_0>$[ebp]
	push	ecx
	call	??$forward@V?$vector@VNeuron@@V?$allocator@VNeuron@@@std@@@std@@@std@@YA$$QAV?$vector@VNeuron@@V?$allocator@VNeuron@@@std@@@0@AAV10@@Z ; std::forward<std::vector<Neuron,std::allocator<Neuron> > >
	add	esp, 4
	push	eax
	mov	ecx, DWORD PTR _this$[ebp]
	call	??$_Emplace_back_with_unused_capacity@V?$vector@VNeuron@@V?$allocator@VNeuron@@@std@@@std@@@?$vector@V?$vector@VNeuron@@V?$allocator@VNeuron@@@std@@@std@@V?$allocator@V?$vector@VNeuron@@V?$allocator@VNeuron@@@std@@@std@@@2@@std@@AAEX$$QAV?$vector@VNeuron@@V?$allocator@VNeuron@@@std@@@1@@Z ; std::vector<std::vector<Neuron,std::allocator<Neuron> >,std::allocator<std::vector<Neuron,std::allocator<Neuron> > > >::_Emplace_back_with_unused_capacity<std::vector<Neuron,std::allocator<Neuron> > >

; 941  : 			}
; 942  : 		else

	jmp	$LN7@emplace_ba
$LN2@emplace_ba:

; 943  : 			{	// reallocate
; 944  : 			const size_type _Oldsize = size();

	mov	ecx, DWORD PTR _this$[ebp]
	call	?size@?$vector@V?$vector@VNeuron@@V?$allocator@VNeuron@@@std@@@std@@V?$allocator@V?$vector@VNeuron@@V?$allocator@VNeuron@@@std@@@std@@@2@@std@@QBEIXZ ; std::vector<std::vector<Neuron,std::allocator<Neuron> >,std::allocator<std::vector<Neuron,std::allocator<Neuron> > > >::size
	mov	DWORD PTR __Oldsize$7[ebp], eax

; 945  : 
; 946  : 			if (_Oldsize == max_size())

	mov	ecx, DWORD PTR _this$[ebp]
	call	?max_size@?$vector@V?$vector@VNeuron@@V?$allocator@VNeuron@@@std@@@std@@V?$allocator@V?$vector@VNeuron@@V?$allocator@VNeuron@@@std@@@std@@@2@@std@@QBEIXZ ; std::vector<std::vector<Neuron,std::allocator<Neuron> >,std::allocator<std::vector<Neuron,std::allocator<Neuron> > > >::max_size
	cmp	DWORD PTR __Oldsize$7[ebp], eax
	jne	SHORT $LN4@emplace_ba

; 947  : 				{
; 948  : 				_Xlength();

	call	?_Xlength@?$vector@V?$vector@VNeuron@@V?$allocator@VNeuron@@@std@@@std@@V?$allocator@V?$vector@VNeuron@@V?$allocator@VNeuron@@@std@@@std@@@2@@std@@CAXXZ ; std::vector<std::vector<Neuron,std::allocator<Neuron> >,std::allocator<std::vector<Neuron,std::allocator<Neuron> > > >::_Xlength
$LN4@emplace_ba:

; 949  : 				}
; 950  : 
; 951  : 			const size_type _Newsize = _Oldsize + 1;

	mov	edx, DWORD PTR __Oldsize$7[ebp]
	add	edx, 1
	mov	DWORD PTR __Newsize$6[ebp], edx

; 952  : 			const size_type _Newcapacity = _Calculate_growth(_Newsize);

	mov	eax, DWORD PTR __Newsize$6[ebp]
	push	eax
	mov	ecx, DWORD PTR _this$[ebp]
	call	?_Calculate_growth@?$vector@V?$vector@VNeuron@@V?$allocator@VNeuron@@@std@@@std@@V?$allocator@V?$vector@VNeuron@@V?$allocator@VNeuron@@@std@@@std@@@2@@std@@ABEII@Z ; std::vector<std::vector<Neuron,std::allocator<Neuron> >,std::allocator<std::vector<Neuron,std::allocator<Neuron> > > >::_Calculate_growth
	mov	DWORD PTR __Newcapacity$5[ebp], eax

; 953  : 			bool _Emplaced = false;

	mov	BYTE PTR __Emplaced$4[ebp], 0

; 954  : 			const pointer _Newvec = this->_Getal().allocate(_Newcapacity);

	mov	ecx, DWORD PTR __Newcapacity$5[ebp]
	push	ecx
	mov	ecx, DWORD PTR _this$[ebp]
	call	?_Getal@?$_Vector_alloc@U?$_Vec_base_types@V?$vector@VNeuron@@V?$allocator@VNeuron@@@std@@@std@@V?$allocator@V?$vector@VNeuron@@V?$allocator@VNeuron@@@std@@@std@@@2@@std@@@std@@QAEAAV?$allocator@V?$vector@VNeuron@@V?$allocator@VNeuron@@@std@@@std@@@2@XZ ; std::_Vector_alloc<std::_Vec_base_types<std::vector<Neuron,std::allocator<Neuron> >,std::allocator<std::vector<Neuron,std::allocator<Neuron> > > > >::_Getal
	mov	ecx, eax
	call	?allocate@?$allocator@V?$vector@VNeuron@@V?$allocator@VNeuron@@@std@@@std@@@std@@QAEPAV?$vector@VNeuron@@V?$allocator@VNeuron@@@std@@@2@I@Z ; std::allocator<std::vector<Neuron,std::allocator<Neuron> > >::allocate
	mov	DWORD PTR __Newvec$3[ebp], eax

; 955  : 			_Alty& _Al = this->_Getal();

	mov	ecx, DWORD PTR _this$[ebp]
	call	?_Getal@?$_Vector_alloc@U?$_Vec_base_types@V?$vector@VNeuron@@V?$allocator@VNeuron@@@std@@@std@@V?$allocator@V?$vector@VNeuron@@V?$allocator@VNeuron@@@std@@@std@@@2@@std@@@std@@QAEAAV?$allocator@V?$vector@VNeuron@@V?$allocator@VNeuron@@@std@@@std@@@2@XZ ; std::_Vector_alloc<std::_Vec_base_types<std::vector<Neuron,std::allocator<Neuron> >,std::allocator<std::vector<Neuron,std::allocator<Neuron> > > > >::_Getal
	mov	DWORD PTR __Al$2[ebp], eax

; 956  : 
; 957  : 			_TRY_BEGIN

	mov	DWORD PTR __$EHRec$[ebp+12], 0

; 958  : 			_Alty_traits::construct(_Al, _Unfancy(_Newvec + _Oldsize), _STD forward<_Valty>(_Val)...);

	mov	edx, DWORD PTR __Oldsize$7[ebp]
	shl	edx, 4
	add	edx, DWORD PTR __Newvec$3[ebp]
	push	edx
	call	??$_Unfancy@V?$vector@VNeuron@@V?$allocator@VNeuron@@@std@@@std@@@std@@YAPAV?$vector@VNeuron@@V?$allocator@VNeuron@@@std@@@0@PAV10@@Z ; std::_Unfancy<std::vector<Neuron,std::allocator<Neuron> > >
	add	esp, 4
	mov	DWORD PTR tv174[ebp], eax
	mov	eax, DWORD PTR _<_Val_0>$[ebp]
	push	eax
	call	??$forward@V?$vector@VNeuron@@V?$allocator@VNeuron@@@std@@@std@@@std@@YA$$QAV?$vector@VNeuron@@V?$allocator@VNeuron@@@std@@@0@AAV10@@Z ; std::forward<std::vector<Neuron,std::allocator<Neuron> > >
	add	esp, 4
	push	eax
	mov	ecx, DWORD PTR tv174[ebp]
	push	ecx
	mov	edx, DWORD PTR __Al$2[ebp]
	push	edx
	call	??$construct@V?$vector@VNeuron@@V?$allocator@VNeuron@@@std@@@std@@V12@@?$_Default_allocator_traits@V?$allocator@V?$vector@VNeuron@@V?$allocator@VNeuron@@@std@@@std@@@std@@@std@@SAXAAV?$allocator@V?$vector@VNeuron@@V?$allocator@VNeuron@@@std@@@std@@@1@QAV?$vector@VNeuron@@V?$allocator@VNeuron@@@std@@@1@$$QAV31@@Z ; std::_Default_allocator_traits<std::allocator<std::vector<Neuron,std::allocator<Neuron> > > >::construct<std::vector<Neuron,std::allocator<Neuron> >,std::vector<Neuron,std::allocator<Neuron> > >
	add	esp, 12					; 0000000cH

; 959  : 			_Emplaced = true;

	mov	BYTE PTR __Emplaced$4[ebp], 1

; 960  : 			_Umove_if_noexcept(this->_Myfirst(), this->_Mylast(), _Newvec);

	mov	eax, DWORD PTR __Newvec$3[ebp]
	push	eax
	mov	ecx, DWORD PTR _this$[ebp]
	call	?_Mylast@?$_Vector_alloc@U?$_Vec_base_types@V?$vector@VNeuron@@V?$allocator@VNeuron@@@std@@@std@@V?$allocator@V?$vector@VNeuron@@V?$allocator@VNeuron@@@std@@@std@@@2@@std@@@std@@QAEAAPAV?$vector@VNeuron@@V?$allocator@VNeuron@@@std@@@2@XZ ; std::_Vector_alloc<std::_Vec_base_types<std::vector<Neuron,std::allocator<Neuron> >,std::allocator<std::vector<Neuron,std::allocator<Neuron> > > > >::_Mylast
	mov	ecx, DWORD PTR [eax]
	push	ecx
	mov	ecx, DWORD PTR _this$[ebp]
	call	?_Myfirst@?$_Vector_alloc@U?$_Vec_base_types@V?$vector@VNeuron@@V?$allocator@VNeuron@@@std@@@std@@V?$allocator@V?$vector@VNeuron@@V?$allocator@VNeuron@@@std@@@std@@@2@@std@@@std@@QAEAAPAV?$vector@VNeuron@@V?$allocator@VNeuron@@@std@@@2@XZ ; std::_Vector_alloc<std::_Vec_base_types<std::vector<Neuron,std::allocator<Neuron> >,std::allocator<std::vector<Neuron,std::allocator<Neuron> > > > >::_Myfirst
	mov	edx, DWORD PTR [eax]
	push	edx
	mov	ecx, DWORD PTR _this$[ebp]
	call	?_Umove_if_noexcept@?$vector@V?$vector@VNeuron@@V?$allocator@VNeuron@@@std@@@std@@V?$allocator@V?$vector@VNeuron@@V?$allocator@VNeuron@@@std@@@std@@@2@@std@@AAEXPAV?$vector@VNeuron@@V?$allocator@VNeuron@@@std@@@2@00@Z ; std::vector<std::vector<Neuron,std::allocator<Neuron> >,std::allocator<std::vector<Neuron,std::allocator<Neuron> > > >::_Umove_if_noexcept
	jmp	SHORT $LN8@emplace_ba
__catch$??$emplace_back@V?$vector@VNeuron@@V?$allocator@VNeuron@@@std@@@std@@@?$vector@V?$vector@VNeuron@@V?$allocator@VNeuron@@@std@@@std@@V?$allocator@V?$vector@VNeuron@@V?$allocator@VNeuron@@@std@@@std@@@2@@std@@QAE@$$QAV?$vector@VNeuron@@V?$allocator@VNeuron@@@std@@@1@@Z$0:

; 961  : 			_CATCH_ALL
; 962  : 			if (_Emplaced)

	movzx	eax, BYTE PTR __Emplaced$4[ebp]
	test	eax, eax
	je	SHORT $LN6@emplace_ba

; 963  : 				{
; 964  : 				_Alty_traits::destroy(_Al, _Unfancy(_Newvec + _Oldsize));

	mov	ecx, DWORD PTR __Oldsize$7[ebp]
	shl	ecx, 4
	add	ecx, DWORD PTR __Newvec$3[ebp]
	push	ecx
	call	??$_Unfancy@V?$vector@VNeuron@@V?$allocator@VNeuron@@@std@@@std@@@std@@YAPAV?$vector@VNeuron@@V?$allocator@VNeuron@@@std@@@0@PAV10@@Z ; std::_Unfancy<std::vector<Neuron,std::allocator<Neuron> > >
	add	esp, 4
	push	eax
	mov	edx, DWORD PTR __Al$2[ebp]
	push	edx
	call	??$destroy@V?$vector@VNeuron@@V?$allocator@VNeuron@@@std@@@std@@@?$_Default_allocator_traits@V?$allocator@V?$vector@VNeuron@@V?$allocator@VNeuron@@@std@@@std@@@std@@@std@@SAXAAV?$allocator@V?$vector@VNeuron@@V?$allocator@VNeuron@@@std@@@std@@@1@QAV?$vector@VNeuron@@V?$allocator@VNeuron@@@std@@@1@@Z ; std::_Default_allocator_traits<std::allocator<std::vector<Neuron,std::allocator<Neuron> > > >::destroy<std::vector<Neuron,std::allocator<Neuron> > >
	add	esp, 8
$LN6@emplace_ba:

; 965  : 				}
; 966  : 
; 967  : 			_Al.deallocate(_Newvec, _Newcapacity);

	mov	eax, DWORD PTR __Newcapacity$5[ebp]
	push	eax
	mov	ecx, DWORD PTR __Newvec$3[ebp]
	push	ecx
	mov	ecx, DWORD PTR __Al$2[ebp]
	call	?deallocate@?$allocator@V?$vector@VNeuron@@V?$allocator@VNeuron@@@std@@@std@@@std@@QAEXQAV?$vector@VNeuron@@V?$allocator@VNeuron@@@std@@@2@I@Z ; std::allocator<std::vector<Neuron,std::allocator<Neuron> > >::deallocate

; 968  : 			_RERAISE;

	push	0
	push	0
	call	__CxxThrowException@8

; 969  : 			_CATCH_END

	mov	eax, $LN11@emplace_ba
	ret	0
$LN8@emplace_ba:
	mov	DWORD PTR __$EHRec$[ebp+12], -1
	jmp	SHORT __tryend$??$emplace_back@V?$vector@VNeuron@@V?$allocator@VNeuron@@@std@@@std@@@?$vector@V?$vector@VNeuron@@V?$allocator@VNeuron@@@std@@@std@@V?$allocator@V?$vector@VNeuron@@V?$allocator@VNeuron@@@std@@@std@@@2@@std@@QAE@$$QAV?$vector@VNeuron@@V?$allocator@VNeuron@@@std@@@1@@Z$1
$LN11@emplace_ba:
	mov	DWORD PTR __$EHRec$[ebp+12], -1
__tryend$??$emplace_back@V?$vector@VNeuron@@V?$allocator@VNeuron@@@std@@@std@@@?$vector@V?$vector@VNeuron@@V?$allocator@VNeuron@@@std@@@std@@V?$allocator@V?$vector@VNeuron@@V?$allocator@VNeuron@@@std@@@std@@@2@@std@@QAE@$$QAV?$vector@VNeuron@@V?$allocator@VNeuron@@@std@@@1@@Z$1:

; 970  : 
; 971  : 			_Change_array(_Newvec, _Newsize, _Newcapacity);

	mov	edx, DWORD PTR __Newcapacity$5[ebp]
	push	edx
	mov	eax, DWORD PTR __Newsize$6[ebp]
	push	eax
	mov	ecx, DWORD PTR __Newvec$3[ebp]
	push	ecx
	mov	ecx, DWORD PTR _this$[ebp]
	call	?_Change_array@?$vector@V?$vector@VNeuron@@V?$allocator@VNeuron@@@std@@@std@@V?$allocator@V?$vector@VNeuron@@V?$allocator@VNeuron@@@std@@@std@@@2@@std@@AAEXQAV?$vector@VNeuron@@V?$allocator@VNeuron@@@std@@@2@II@Z ; std::vector<std::vector<Neuron,std::allocator<Neuron> >,std::allocator<std::vector<Neuron,std::allocator<Neuron> > > >::_Change_array
$LN7@emplace_ba:

; 972  : 			}
; 973  : 
; 974  : #if _HAS_CXX17
; 975  : 		return (this->_Mylast()[-1]);
; 976  : #endif /* _HAS_CXX17 */
; 977  : 		}

	mov	ecx, DWORD PTR __$EHRec$[ebp+4]
	mov	DWORD PTR fs:0, ecx
	pop	ecx
	pop	edi
	pop	esi
	pop	ebx
	add	esp, 48					; 00000030H
	cmp	ebp, esp
	call	__RTC_CheckEsp
	mov	esp, ebp
	pop	ebp
	ret	4
_TEXT	ENDS
;	COMDAT text$x
text$x	SEGMENT
__ehhandler$??$emplace_back@V?$vector@VNeuron@@V?$allocator@VNeuron@@@std@@@std@@@?$vector@V?$vector@VNeuron@@V?$allocator@VNeuron@@@std@@@std@@V?$allocator@V?$vector@VNeuron@@V?$allocator@VNeuron@@@std@@@std@@@2@@std@@QAE@$$QAV?$vector@VNeuron@@V?$allocator@VNeuron@@@std@@@1@@Z:
	mov	edx, DWORD PTR [esp+8]
	lea	eax, DWORD PTR [edx+12]
	mov	ecx, DWORD PTR [edx-52]
	xor	ecx, eax
	call	@__security_check_cookie@4
	mov	eax, OFFSET __ehfuncinfo$??$emplace_back@V?$vector@VNeuron@@V?$allocator@VNeuron@@@std@@@std@@@?$vector@V?$vector@VNeuron@@V?$allocator@VNeuron@@@std@@@std@@V?$allocator@V?$vector@VNeuron@@V?$allocator@VNeuron@@@std@@@std@@@2@@std@@QAE@$$QAV?$vector@VNeuron@@V?$allocator@VNeuron@@@std@@@1@@Z
	jmp	___CxxFrameHandler3
text$x	ENDS
??$emplace_back@V?$vector@VNeuron@@V?$allocator@VNeuron@@@std@@@std@@@?$vector@V?$vector@VNeuron@@V?$allocator@VNeuron@@@std@@@std@@V?$allocator@V?$vector@VNeuron@@V?$allocator@VNeuron@@@std@@@std@@@2@@std@@QAE@$$QAV?$vector@VNeuron@@V?$allocator@VNeuron@@@std@@@1@@Z ENDP ; std::vector<std::vector<Neuron,std::allocator<Neuron> >,std::allocator<std::vector<Neuron,std::allocator<Neuron> > > >::emplace_back<std::vector<Neuron,std::allocator<Neuron> > >
; Function compile flags: /Odtp /RTCsu
; File c:\program files (x86)\microsoft visual studio\2017\community\vc\tools\msvc\14.11.25503\include\type_traits
;	COMDAT ??$move@AAV?$vector@VNeuron@@V?$allocator@VNeuron@@@std@@@std@@@std@@YA$$QAV?$vector@VNeuron@@V?$allocator@VNeuron@@@std@@@0@AAV10@@Z
_TEXT	SEGMENT
__Arg$ = 8						; size = 4
??$move@AAV?$vector@VNeuron@@V?$allocator@VNeuron@@@std@@@std@@@std@@YA$$QAV?$vector@VNeuron@@V?$allocator@VNeuron@@@std@@@0@AAV10@@Z PROC ; std::move<std::vector<Neuron,std::allocator<Neuron> > &>, COMDAT

; 1606 : 	{	// forward _Arg as movable

	push	ebp
	mov	ebp, esp

; 1607 : 	return (static_cast<remove_reference_t<_Ty>&&>(_Arg));

	mov	eax, DWORD PTR __Arg$[ebp]

; 1608 : 	}

	pop	ebp
	ret	0
??$move@AAV?$vector@VNeuron@@V?$allocator@VNeuron@@@std@@@std@@@std@@YA$$QAV?$vector@VNeuron@@V?$allocator@VNeuron@@@std@@@0@AAV10@@Z ENDP ; std::move<std::vector<Neuron,std::allocator<Neuron> > &>
_TEXT	ENDS
; Function compile flags: /Odtp /RTCsu
; File c:\program files (x86)\microsoft visual studio\2017\community\vc\tools\msvc\14.11.25503\include\vector
;	COMDAT ?_Orphan_range@?$vector@NV?$allocator@N@std@@@std@@ABEXPAN0@Z
_TEXT	SEGMENT
__Pnext$ = -32						; size = 4
__Lock$ = -24						; size = 4
_this$ = -16						; size = 4
__$EHRec$ = -12						; size = 12
__First$ = 8						; size = 4
__Last$ = 12						; size = 4
?_Orphan_range@?$vector@NV?$allocator@N@std@@@std@@ABEXPAN0@Z PROC ; std::vector<double,std::allocator<double> >::_Orphan_range, COMDAT
; _this$ = ecx

; 2027 : 		{	// orphan iterators within specified (inclusive) range

	push	ebp
	mov	ebp, esp
	push	-1
	push	__ehhandler$?_Orphan_range@?$vector@NV?$allocator@N@std@@@std@@ABEXPAN0@Z
	mov	eax, DWORD PTR fs:0
	push	eax
	sub	esp, 20					; 00000014H
	mov	eax, -858993460				; ccccccccH
	mov	DWORD PTR [ebp-32], eax
	mov	DWORD PTR [ebp-28], eax
	mov	DWORD PTR [ebp-24], eax
	mov	DWORD PTR [ebp-20], eax
	mov	DWORD PTR [ebp-16], eax
	mov	eax, DWORD PTR ___security_cookie
	xor	eax, ebp
	push	eax
	lea	eax, DWORD PTR __$EHRec$[ebp]
	mov	DWORD PTR fs:0, eax
	mov	DWORD PTR _this$[ebp], ecx

; 2028 : 		_Lockit _Lock(_LOCK_DEBUG);

	push	3
	lea	ecx, DWORD PTR __Lock$[ebp]
	call	??0_Lockit@std@@QAE@H@Z			; std::_Lockit::_Lockit
	mov	DWORD PTR __$EHRec$[ebp+8], 0

; 2029 : 
; 2030 : 		const_iterator ** _Pnext = reinterpret_cast<const_iterator **>(this->_Getpfirst());

	mov	ecx, DWORD PTR _this$[ebp]
	call	?_Getpfirst@?$_Vector_alloc@U?$_Vec_base_types@NV?$allocator@N@std@@@std@@@std@@QBEPAPAU_Iterator_base12@2@XZ ; std::_Vector_alloc<std::_Vec_base_types<double,std::allocator<double> > >::_Getpfirst
	mov	DWORD PTR __Pnext$[ebp], eax

; 2031 : 
; 2032 : 		if (_Pnext)

	cmp	DWORD PTR __Pnext$[ebp], 0
	je	SHORT $LN4@Orphan_ran
$LN2@Orphan_ran:

; 2033 : 			{
; 2034 : 			while (*_Pnext)

	mov	eax, DWORD PTR __Pnext$[ebp]
	cmp	DWORD PTR [eax], 0
	je	SHORT $LN4@Orphan_ran

; 2035 : 				{
; 2036 : 				if ((*_Pnext)->_Ptr < _First || _Last < (*_Pnext)->_Ptr)

	mov	ecx, DWORD PTR __Pnext$[ebp]
	mov	edx, DWORD PTR [ecx]
	mov	eax, DWORD PTR [edx+8]
	cmp	eax, DWORD PTR __First$[ebp]
	jb	SHORT $LN7@Orphan_ran
	mov	ecx, DWORD PTR __Pnext$[ebp]
	mov	edx, DWORD PTR [ecx]
	mov	eax, DWORD PTR __Last$[ebp]
	cmp	eax, DWORD PTR [edx+8]
	jae	SHORT $LN5@Orphan_ran
$LN7@Orphan_ran:

; 2037 : 					{	// skip the iterator
; 2038 : 					_Pnext = reinterpret_cast<const_iterator **>((*_Pnext)->_Getpnext());

	mov	ecx, DWORD PTR __Pnext$[ebp]
	mov	ecx, DWORD PTR [ecx]
	call	?_Getpnext@_Iterator_base12@std@@QAEPAPAU12@XZ ; std::_Iterator_base12::_Getpnext
	mov	DWORD PTR __Pnext$[ebp], eax

; 2039 : 					}
; 2040 : 				else

	jmp	SHORT $LN6@Orphan_ran
$LN5@Orphan_ran:

; 2041 : 					{	// orphan the iterator
; 2042 : 					(*_Pnext)->_Clrcont();

	mov	edx, DWORD PTR __Pnext$[ebp]
	mov	ecx, DWORD PTR [edx]
	call	?_Clrcont@_Iterator_base12@std@@QAEXXZ	; std::_Iterator_base12::_Clrcont

; 2043 : 					*_Pnext = *reinterpret_cast<const_iterator **>((*_Pnext)->_Getpnext());

	mov	eax, DWORD PTR __Pnext$[ebp]
	mov	ecx, DWORD PTR [eax]
	call	?_Getpnext@_Iterator_base12@std@@QAEPAPAU12@XZ ; std::_Iterator_base12::_Getpnext
	mov	ecx, DWORD PTR __Pnext$[ebp]
	mov	edx, DWORD PTR [eax]
	mov	DWORD PTR [ecx], edx
$LN6@Orphan_ran:

; 2044 : 					}
; 2045 : 				}

	jmp	SHORT $LN2@Orphan_ran
$LN4@Orphan_ran:

; 2046 : 			}
; 2047 : 		}

	mov	DWORD PTR __$EHRec$[ebp+8], -1
	lea	ecx, DWORD PTR __Lock$[ebp]
	call	??1_Lockit@std@@QAE@XZ			; std::_Lockit::~_Lockit
	push	edx
	mov	ecx, ebp
	push	eax
	lea	edx, DWORD PTR $LN13@Orphan_ran
	call	@_RTC_CheckStackVars@8
	pop	eax
	pop	edx
	mov	ecx, DWORD PTR __$EHRec$[ebp]
	mov	DWORD PTR fs:0, ecx
	pop	ecx
	add	esp, 32					; 00000020H
	cmp	ebp, esp
	call	__RTC_CheckEsp
	mov	esp, ebp
	pop	ebp
	ret	8
	npad	1
$LN13@Orphan_ran:
	DD	1
	DD	$LN12@Orphan_ran
$LN12@Orphan_ran:
	DD	-24					; ffffffe8H
	DD	4
	DD	$LN10@Orphan_ran
$LN10@Orphan_ran:
	DB	95					; 0000005fH
	DB	76					; 0000004cH
	DB	111					; 0000006fH
	DB	99					; 00000063H
	DB	107					; 0000006bH
	DB	0
_TEXT	ENDS
;	COMDAT text$x
text$x	SEGMENT
__unwindfunclet$?_Orphan_range@?$vector@NV?$allocator@N@std@@@std@@ABEXPAN0@Z$0:
	lea	ecx, DWORD PTR __Lock$[ebp]
	jmp	??1_Lockit@std@@QAE@XZ			; std::_Lockit::~_Lockit
__ehhandler$?_Orphan_range@?$vector@NV?$allocator@N@std@@@std@@ABEXPAN0@Z:
	mov	edx, DWORD PTR [esp+8]
	lea	eax, DWORD PTR [edx+12]
	mov	ecx, DWORD PTR [edx-24]
	xor	ecx, eax
	call	@__security_check_cookie@4
	mov	eax, OFFSET __ehfuncinfo$?_Orphan_range@?$vector@NV?$allocator@N@std@@@std@@ABEXPAN0@Z
	jmp	___CxxFrameHandler3
text$x	ENDS
?_Orphan_range@?$vector@NV?$allocator@N@std@@@std@@ABEXPAN0@Z ENDP ; std::vector<double,std::allocator<double> >::_Orphan_range
; Function compile flags: /Odtp /RTCsu
; File c:\program files (x86)\microsoft visual studio\2017\community\vc\tools\msvc\14.11.25503\include\vector
;	COMDAT ?_Xlength@?$vector@NV?$allocator@N@std@@@std@@CAXXZ
_TEXT	SEGMENT
?_Xlength@?$vector@NV?$allocator@N@std@@@std@@CAXXZ PROC ; std::vector<double,std::allocator<double> >::_Xlength, COMDAT

; 2016 : 		{	// report a length_error

	push	ebp
	mov	ebp, esp

; 2017 : 		_Xlength_error("vector<T> too long");

	push	OFFSET ??_C@_0BD@OLBABOEK@vector?$DMT?$DO?5too?5long?$AA@
	call	?_Xlength_error@std@@YAXPBD@Z		; std::_Xlength_error
$LN2@Xlength:

; 2018 : 		}

	cmp	ebp, esp
	call	__RTC_CheckEsp
	pop	ebp
	ret	0
?_Xlength@?$vector@NV?$allocator@N@std@@@std@@CAXXZ ENDP ; std::vector<double,std::allocator<double> >::_Xlength
_TEXT	ENDS
; Function compile flags: /Odtp /RTCsu
; File c:\program files (x86)\microsoft visual studio\2017\community\vc\tools\msvc\14.11.25503\include\vector
;	COMDAT ?_Change_array@?$vector@NV?$allocator@N@std@@@std@@AAEXQANII@Z
_TEXT	SEGMENT
_this$ = -4						; size = 4
__Newvec$ = 8						; size = 4
__Newsize$ = 12						; size = 4
__Newcapacity$ = 16					; size = 4
?_Change_array@?$vector@NV?$allocator@N@std@@@std@@AAEXQANII@Z PROC ; std::vector<double,std::allocator<double> >::_Change_array, COMDAT
; _this$ = ecx

; 1986 : 		{	// orphan all iterators, discard old array, acquire new array

	push	ebp
	mov	ebp, esp
	push	ecx
	push	esi
	mov	DWORD PTR [ebp-4], -858993460		; ccccccccH
	mov	DWORD PTR _this$[ebp], ecx

; 1987 : 		this->_Orphan_all();

	mov	ecx, DWORD PTR _this$[ebp]
	call	?_Orphan_all@?$_Vector_alloc@U?$_Vec_base_types@NV?$allocator@N@std@@@std@@@std@@QAEXXZ ; std::_Vector_alloc<std::_Vec_base_types<double,std::allocator<double> > >::_Orphan_all

; 1988 : 
; 1989 : 		if (this->_Myfirst() != pointer())

	mov	ecx, DWORD PTR _this$[ebp]
	call	?_Myfirst@?$_Vector_alloc@U?$_Vec_base_types@NV?$allocator@N@std@@@std@@@std@@QAEAAPANXZ ; std::_Vector_alloc<std::_Vec_base_types<double,std::allocator<double> > >::_Myfirst
	cmp	DWORD PTR [eax], 0
	je	SHORT $LN2@Change_arr

; 1990 : 			{	// destroy and deallocate old array
; 1991 : 			_Destroy(this->_Myfirst(), this->_Mylast());

	mov	ecx, DWORD PTR _this$[ebp]
	call	?_Mylast@?$_Vector_alloc@U?$_Vec_base_types@NV?$allocator@N@std@@@std@@@std@@QAEAAPANXZ ; std::_Vector_alloc<std::_Vec_base_types<double,std::allocator<double> > >::_Mylast
	mov	eax, DWORD PTR [eax]
	push	eax
	mov	ecx, DWORD PTR _this$[ebp]
	call	?_Myfirst@?$_Vector_alloc@U?$_Vec_base_types@NV?$allocator@N@std@@@std@@@std@@QAEAAPANXZ ; std::_Vector_alloc<std::_Vec_base_types<double,std::allocator<double> > >::_Myfirst
	mov	ecx, DWORD PTR [eax]
	push	ecx
	mov	ecx, DWORD PTR _this$[ebp]
	call	?_Destroy@?$vector@NV?$allocator@N@std@@@std@@AAEXPAN0@Z ; std::vector<double,std::allocator<double> >::_Destroy

; 1992 : 			this->_Getal().deallocate(this->_Myfirst(), capacity());

	mov	ecx, DWORD PTR _this$[ebp]
	call	?capacity@?$vector@NV?$allocator@N@std@@@std@@QBEIXZ ; std::vector<double,std::allocator<double> >::capacity
	push	eax
	mov	ecx, DWORD PTR _this$[ebp]
	call	?_Myfirst@?$_Vector_alloc@U?$_Vec_base_types@NV?$allocator@N@std@@@std@@@std@@QAEAAPANXZ ; std::_Vector_alloc<std::_Vec_base_types<double,std::allocator<double> > >::_Myfirst
	mov	edx, DWORD PTR [eax]
	push	edx
	mov	ecx, DWORD PTR _this$[ebp]
	call	?_Getal@?$_Vector_alloc@U?$_Vec_base_types@NV?$allocator@N@std@@@std@@@std@@QAEAAV?$allocator@N@2@XZ ; std::_Vector_alloc<std::_Vec_base_types<double,std::allocator<double> > >::_Getal
	mov	ecx, eax
	call	?deallocate@?$allocator@N@std@@QAEXQANI@Z ; std::allocator<double>::deallocate
$LN2@Change_arr:

; 1993 : 			}
; 1994 : 
; 1995 : 		this->_Myfirst() = _Newvec;

	mov	ecx, DWORD PTR _this$[ebp]
	call	?_Myfirst@?$_Vector_alloc@U?$_Vec_base_types@NV?$allocator@N@std@@@std@@@std@@QAEAAPANXZ ; std::_Vector_alloc<std::_Vec_base_types<double,std::allocator<double> > >::_Myfirst
	mov	ecx, DWORD PTR __Newvec$[ebp]
	mov	DWORD PTR [eax], ecx

; 1996 : 		this->_Mylast() = _Newvec + _Newsize;

	mov	edx, DWORD PTR __Newsize$[ebp]
	mov	eax, DWORD PTR __Newvec$[ebp]
	lea	esi, DWORD PTR [eax+edx*8]
	mov	ecx, DWORD PTR _this$[ebp]
	call	?_Mylast@?$_Vector_alloc@U?$_Vec_base_types@NV?$allocator@N@std@@@std@@@std@@QAEAAPANXZ ; std::_Vector_alloc<std::_Vec_base_types<double,std::allocator<double> > >::_Mylast
	mov	DWORD PTR [eax], esi

; 1997 : 		this->_Myend() = _Newvec + _Newcapacity;

	mov	ecx, DWORD PTR __Newcapacity$[ebp]
	mov	edx, DWORD PTR __Newvec$[ebp]
	lea	esi, DWORD PTR [edx+ecx*8]
	mov	ecx, DWORD PTR _this$[ebp]
	call	?_Myend@?$_Vector_alloc@U?$_Vec_base_types@NV?$allocator@N@std@@@std@@@std@@QAEAAPANXZ ; std::_Vector_alloc<std::_Vec_base_types<double,std::allocator<double> > >::_Myend
	mov	DWORD PTR [eax], esi

; 1998 : 		}

	pop	esi
	add	esp, 4
	cmp	ebp, esp
	call	__RTC_CheckEsp
	mov	esp, ebp
	pop	ebp
	ret	12					; 0000000cH
?_Change_array@?$vector@NV?$allocator@N@std@@@std@@AAEXQANII@Z ENDP ; std::vector<double,std::allocator<double> >::_Change_array
_TEXT	ENDS
; Function compile flags: /Odtp /RTCsu
; File c:\program files (x86)\microsoft visual studio\2017\community\vc\tools\msvc\14.11.25503\include\vector
;	COMDAT ?_Calculate_growth@?$vector@NV?$allocator@N@std@@@std@@ABEII@Z
_TEXT	SEGMENT
__Geometric$ = -12					; size = 4
__Oldcapacity$ = -8					; size = 4
_this$ = -4						; size = 4
__Newsize$ = 8						; size = 4
?_Calculate_growth@?$vector@NV?$allocator@N@std@@@std@@ABEII@Z PROC ; std::vector<double,std::allocator<double> >::_Calculate_growth, COMDAT
; _this$ = ecx

; 1944 : 		{	// given _Oldcapacity and _Newsize, calculate geometric growth

	push	ebp
	mov	ebp, esp
	sub	esp, 12					; 0000000cH
	mov	DWORD PTR [ebp-12], -858993460		; ccccccccH
	mov	DWORD PTR [ebp-8], -858993460		; ccccccccH
	mov	DWORD PTR [ebp-4], -858993460		; ccccccccH
	mov	DWORD PTR _this$[ebp], ecx

; 1945 : 		const size_type _Oldcapacity = capacity();

	mov	ecx, DWORD PTR _this$[ebp]
	call	?capacity@?$vector@NV?$allocator@N@std@@@std@@QBEIXZ ; std::vector<double,std::allocator<double> >::capacity
	mov	DWORD PTR __Oldcapacity$[ebp], eax

; 1946 : 
; 1947 : 		if (_Oldcapacity > max_size() - _Oldcapacity / 2)

	mov	ecx, DWORD PTR _this$[ebp]
	call	?max_size@?$vector@NV?$allocator@N@std@@@std@@QBEIXZ ; std::vector<double,std::allocator<double> >::max_size
	mov	ecx, DWORD PTR __Oldcapacity$[ebp]
	shr	ecx, 1
	sub	eax, ecx
	cmp	DWORD PTR __Oldcapacity$[ebp], eax
	jbe	SHORT $LN2@Calculate_

; 1948 : 			{
; 1949 : 			return (_Newsize);	// geometric growth would overflow

	mov	eax, DWORD PTR __Newsize$[ebp]
	jmp	SHORT $LN1@Calculate_
$LN2@Calculate_:

; 1950 : 			}
; 1951 : 
; 1952 : 		const size_type _Geometric = _Oldcapacity + _Oldcapacity / 2;

	mov	edx, DWORD PTR __Oldcapacity$[ebp]
	shr	edx, 1
	add	edx, DWORD PTR __Oldcapacity$[ebp]
	mov	DWORD PTR __Geometric$[ebp], edx

; 1953 : 
; 1954 : 		if (_Geometric < _Newsize)

	mov	eax, DWORD PTR __Geometric$[ebp]
	cmp	eax, DWORD PTR __Newsize$[ebp]
	jae	SHORT $LN3@Calculate_

; 1955 : 			{
; 1956 : 			return (_Newsize);	// geometric growth would be insufficient

	mov	eax, DWORD PTR __Newsize$[ebp]
	jmp	SHORT $LN1@Calculate_
$LN3@Calculate_:

; 1957 : 			}
; 1958 : 
; 1959 : 		return (_Geometric);	// geometric growth is sufficient

	mov	eax, DWORD PTR __Geometric$[ebp]
$LN1@Calculate_:

; 1960 : 		}

	add	esp, 12					; 0000000cH
	cmp	ebp, esp
	call	__RTC_CheckEsp
	mov	esp, ebp
	pop	ebp
	ret	4
?_Calculate_growth@?$vector@NV?$allocator@N@std@@@std@@ABEII@Z ENDP ; std::vector<double,std::allocator<double> >::_Calculate_growth
_TEXT	ENDS
; Function compile flags: /Odtp /RTCsu
; File c:\program files (x86)\microsoft visual studio\2017\community\vc\tools\msvc\14.11.25503\include\vector
;	COMDAT ?_Destroy@?$vector@NV?$allocator@N@std@@@std@@AAEXPAN0@Z
_TEXT	SEGMENT
_this$ = -4						; size = 4
__First$ = 8						; size = 4
__Last$ = 12						; size = 4
?_Destroy@?$vector@NV?$allocator@N@std@@@std@@AAEXPAN0@Z PROC ; std::vector<double,std::allocator<double> >::_Destroy, COMDAT
; _this$ = ecx

; 1939 : 		{	// destroy [_First, _Last) using allocator

	push	ebp
	mov	ebp, esp
	push	ecx
	mov	DWORD PTR [ebp-4], -858993460		; ccccccccH
	mov	DWORD PTR _this$[ebp], ecx

; 1940 : 		_Destroy_range(_First, _Last, this->_Getal());

	mov	ecx, DWORD PTR _this$[ebp]
	call	?_Getal@?$_Vector_alloc@U?$_Vec_base_types@NV?$allocator@N@std@@@std@@@std@@QAEAAV?$allocator@N@2@XZ ; std::_Vector_alloc<std::_Vec_base_types<double,std::allocator<double> > >::_Getal
	push	eax
	mov	eax, DWORD PTR __Last$[ebp]
	push	eax
	mov	ecx, DWORD PTR __First$[ebp]
	push	ecx
	call	??$_Destroy_range@V?$allocator@N@std@@@std@@YAXPAN0AAV?$allocator@N@0@@Z ; std::_Destroy_range<std::allocator<double> >
	add	esp, 12					; 0000000cH

; 1941 : 		}

	add	esp, 4
	cmp	ebp, esp
	call	__RTC_CheckEsp
	mov	esp, ebp
	pop	ebp
	ret	8
?_Destroy@?$vector@NV?$allocator@N@std@@@std@@AAEXPAN0@Z ENDP ; std::vector<double,std::allocator<double> >::_Destroy
_TEXT	ENDS
; Function compile flags: /Odtp /RTCsu
; File c:\program files (x86)\microsoft visual studio\2017\community\vc\tools\msvc\14.11.25503\include\vector
;	COMDAT ?_Umove_if_noexcept@?$vector@NV?$allocator@N@std@@@std@@AAEXPAN00@Z
_TEXT	SEGMENT
$T1 = -5						; size = 1
_this$ = -4						; size = 4
__First$ = 8						; size = 4
__Last$ = 12						; size = 4
__Dest$ = 16						; size = 4
?_Umove_if_noexcept@?$vector@NV?$allocator@N@std@@@std@@AAEXPAN00@Z PROC ; std::vector<double,std::allocator<double> >::_Umove_if_noexcept, COMDAT
; _this$ = ecx

; 1933 : 		{	// move_if_noexcept [_First, _Last) to raw _Dest, using allocator

	push	ebp
	mov	ebp, esp
	sub	esp, 8
	mov	DWORD PTR [ebp-8], -858993460		; ccccccccH
	mov	DWORD PTR [ebp-4], -858993460		; ccccccccH
	mov	DWORD PTR _this$[ebp], ecx

; 1934 : 		_Umove_if_noexcept1(_First, _Last, _Dest,

	xor	eax, eax
	mov	BYTE PTR $T1[ebp], al
	movzx	ecx, BYTE PTR $T1[ebp]
	push	ecx
	mov	edx, DWORD PTR __Dest$[ebp]
	push	edx
	mov	eax, DWORD PTR __Last$[ebp]
	push	eax
	mov	ecx, DWORD PTR __First$[ebp]
	push	ecx
	mov	ecx, DWORD PTR _this$[ebp]
	call	?_Umove_if_noexcept1@?$vector@NV?$allocator@N@std@@@std@@AAEXPAN00U?$integral_constant@_N$00@2@@Z ; std::vector<double,std::allocator<double> >::_Umove_if_noexcept1

; 1935 : 			_Disjunction_t<is_nothrow_move_constructible<_Ty>, negation<is_copy_constructible<_Ty>>>{});
; 1936 : 		}

	add	esp, 8
	cmp	ebp, esp
	call	__RTC_CheckEsp
	mov	esp, ebp
	pop	ebp
	ret	12					; 0000000cH
?_Umove_if_noexcept@?$vector@NV?$allocator@N@std@@@std@@AAEXPAN00@Z ENDP ; std::vector<double,std::allocator<double> >::_Umove_if_noexcept
_TEXT	ENDS
; Function compile flags: /Odtp /RTCsu
; File c:\program files (x86)\microsoft visual studio\2017\community\vc\tools\msvc\14.11.25503\include\vector
;	COMDAT ?_Umove_if_noexcept1@?$vector@NV?$allocator@N@std@@@std@@AAEXPAN00U?$integral_constant@_N$00@2@@Z
_TEXT	SEGMENT
_this$ = -4						; size = 4
__First$ = 8						; size = 4
__Last$ = 12						; size = 4
__Dest$ = 16						; size = 4
___formal$ = 20						; size = 1
?_Umove_if_noexcept1@?$vector@NV?$allocator@N@std@@@std@@AAEXPAN00U?$integral_constant@_N$00@2@@Z PROC ; std::vector<double,std::allocator<double> >::_Umove_if_noexcept1, COMDAT
; _this$ = ecx

; 1923 : 		{	// move [_First, _Last) to raw _Dest, using allocator

	push	ebp
	mov	ebp, esp
	push	ecx
	mov	DWORD PTR [ebp-4], -858993460		; ccccccccH
	mov	DWORD PTR _this$[ebp], ecx

; 1924 : 		_Uninitialized_move(_First, _Last, _Dest, this->_Getal());

	mov	ecx, DWORD PTR _this$[ebp]
	call	?_Getal@?$_Vector_alloc@U?$_Vec_base_types@NV?$allocator@N@std@@@std@@@std@@QAEAAV?$allocator@N@2@XZ ; std::_Vector_alloc<std::_Vec_base_types<double,std::allocator<double> > >::_Getal
	push	eax
	mov	eax, DWORD PTR __Dest$[ebp]
	push	eax
	mov	ecx, DWORD PTR __Last$[ebp]
	push	ecx
	mov	edx, DWORD PTR __First$[ebp]
	push	edx
	call	??$_Uninitialized_move@PANPANV?$allocator@N@std@@@std@@YAPANPAN00AAV?$allocator@N@0@@Z ; std::_Uninitialized_move<double *,double *,std::allocator<double> >
	add	esp, 16					; 00000010H

; 1925 : 		}

	add	esp, 4
	cmp	ebp, esp
	call	__RTC_CheckEsp
	mov	esp, ebp
	pop	ebp
	ret	16					; 00000010H
?_Umove_if_noexcept1@?$vector@NV?$allocator@N@std@@@std@@AAEXPAN00U?$integral_constant@_N$00@2@@Z ENDP ; std::vector<double,std::allocator<double> >::_Umove_if_noexcept1
_TEXT	ENDS
; Function compile flags: /Odtp /RTCsu
; File c:\program files (x86)\microsoft visual studio\2017\community\vc\tools\msvc\14.11.25503\include\vector
;	COMDAT ??A?$vector@NV?$allocator@N@std@@@std@@QBEABNI@Z
_TEXT	SEGMENT
_this$ = -4						; size = 4
__Pos$ = 8						; size = 4
??A?$vector@NV?$allocator@N@std@@@std@@QBEABNI@Z PROC	; std::vector<double,std::allocator<double> >::operator[], COMDAT
; _this$ = ecx

; 1806 : 		{	// subscript nonmutable sequence

	push	ebp
	mov	ebp, esp
	push	ecx
	mov	DWORD PTR [ebp-4], -858993460		; ccccccccH
	mov	DWORD PTR _this$[ebp], ecx

; 1807 :  #if _ITERATOR_DEBUG_LEVEL == 2
; 1808 : 		if (size() <= _Pos)

	mov	ecx, DWORD PTR _this$[ebp]
	call	?size@?$vector@NV?$allocator@N@std@@@std@@QBEIXZ ; std::vector<double,std::allocator<double> >::size
	cmp	eax, DWORD PTR __Pos$[ebp]
	ja	SHORT $LN2@operator

; 1809 : 			{	// report error
; 1810 : 			_DEBUG_ERROR("vector subscript out of range");

	push	1810					; 00000712H
	push	OFFSET ??_C@_1MO@PKCMDADL@?$AAC?$AA?3?$AA?2?$AAP?$AAr?$AAo?$AAg?$AAr?$AAa?$AAm?$AA?5?$AAF?$AAi?$AAl?$AAe?$AAs?$AA?5?$AA?$CI?$AAx?$AA8?$AA6?$AA?$CJ?$AA?2?$AAM?$AAi?$AAc?$AAr?$AAo?$AAs?$AAo?$AAf?$AAt@
	push	OFFSET ??_C@_1DM@LHGCHCBA@?$AAv?$AAe?$AAc?$AAt?$AAo?$AAr?$AA?5?$AAs?$AAu?$AAb?$AAs?$AAc?$AAr?$AAi?$AAp?$AAt?$AA?5?$AAo?$AAu?$AAt?$AA?5?$AAo?$AAf?$AA?5?$AAr?$AAa?$AAn?$AAg?$AAe?$AA?$AA@
	call	?_Debug_message@std@@YAXPB_W0I@Z	; std::_Debug_message
	add	esp, 12					; 0000000cH
	push	0
	push	1810					; 00000712H
	push	OFFSET ??_C@_1MO@PKCMDADL@?$AAC?$AA?3?$AA?2?$AAP?$AAr?$AAo?$AAg?$AAr?$AAa?$AAm?$AA?5?$AAF?$AAi?$AAl?$AAe?$AAs?$AA?5?$AA?$CI?$AAx?$AA8?$AA6?$AA?$CJ?$AA?2?$AAM?$AAi?$AAc?$AAr?$AAo?$AAs?$AAo?$AAf?$AAt@
	push	OFFSET ??_C@_1HO@GLEAPAMD@?$AAs?$AAt?$AAd?$AA?3?$AA?3?$AAv?$AAe?$AAc?$AAt?$AAo?$AAr?$AA?$DM?$AAd?$AAo?$AAu?$AAb?$AAl?$AAe?$AA?0?$AAc?$AAl?$AAa?$AAs?$AAs?$AA?5?$AAs?$AAt?$AAd?$AA?3?$AA?3?$AAa?$AAl@
	push	OFFSET ??_C@_1EA@LEKOKFNB@?$AA?$CC?$AAv?$AAe?$AAc?$AAt?$AAo?$AAr?$AA?5?$AAs?$AAu?$AAb?$AAs?$AAc?$AAr?$AAi?$AAp?$AAt?$AA?5?$AAo?$AAu?$AAt?$AA?5?$AAo?$AAf?$AA?5?$AAr?$AAa?$AAn?$AAg?$AAe?$AA?$CC?$AA?$AA@
	call	__invalid_parameter
	add	esp, 20					; 00000014H
$LN2@operator:

; 1811 : 			}
; 1812 :  #elif _ITERATOR_DEBUG_LEVEL == 1
; 1813 : 		_SCL_SECURE_VALIDATE_RANGE(_Pos < size());
; 1814 :  #endif /* _ITERATOR_DEBUG_LEVEL */
; 1815 : 
; 1816 : 		return (this->_Myfirst()[_Pos]);

	mov	ecx, DWORD PTR _this$[ebp]
	call	?_Myfirst@?$_Vector_alloc@U?$_Vec_base_types@NV?$allocator@N@std@@@std@@@std@@QBEABQANXZ ; std::_Vector_alloc<std::_Vec_base_types<double,std::allocator<double> > >::_Myfirst
	mov	eax, DWORD PTR [eax]
	mov	ecx, DWORD PTR __Pos$[ebp]
	lea	eax, DWORD PTR [eax+ecx*8]

; 1817 : 		}

	add	esp, 4
	cmp	ebp, esp
	call	__RTC_CheckEsp
	mov	esp, ebp
	pop	ebp
	ret	4
??A?$vector@NV?$allocator@N@std@@@std@@QBEABNI@Z ENDP	; std::vector<double,std::allocator<double> >::operator[]
_TEXT	ENDS
; Function compile flags: /Odtp /RTCsu
; File c:\program files (x86)\microsoft visual studio\2017\community\vc\tools\msvc\14.11.25503\include\vector
;	COMDAT ?_Has_unused_capacity@?$vector@NV?$allocator@N@std@@@std@@ABE_NXZ
_TEXT	SEGMENT
tv77 = -8						; size = 4
_this$ = -4						; size = 4
?_Has_unused_capacity@?$vector@NV?$allocator@N@std@@@std@@ABE_NXZ PROC ; std::vector<double,std::allocator<double> >::_Has_unused_capacity, COMDAT
; _this$ = ecx

; 1786 : 		{	// micro-optimization for capacity() != size()

	push	ebp
	mov	ebp, esp
	sub	esp, 8
	push	esi
	mov	DWORD PTR [ebp-8], -858993460		; ccccccccH
	mov	DWORD PTR [ebp-4], -858993460		; ccccccccH
	mov	DWORD PTR _this$[ebp], ecx

; 1787 : 		return (this->_Myend() != this->_Mylast());

	mov	ecx, DWORD PTR _this$[ebp]
	call	?_Myend@?$_Vector_alloc@U?$_Vec_base_types@NV?$allocator@N@std@@@std@@@std@@QBEABQANXZ ; std::_Vector_alloc<std::_Vec_base_types<double,std::allocator<double> > >::_Myend
	mov	esi, eax
	mov	ecx, DWORD PTR _this$[ebp]
	call	?_Mylast@?$_Vector_alloc@U?$_Vec_base_types@NV?$allocator@N@std@@@std@@@std@@QBEABQANXZ ; std::_Vector_alloc<std::_Vec_base_types<double,std::allocator<double> > >::_Mylast
	mov	ecx, DWORD PTR [esi]
	cmp	ecx, DWORD PTR [eax]
	je	SHORT $LN3@Has_unused
	mov	DWORD PTR tv77[ebp], 1
	jmp	SHORT $LN4@Has_unused
$LN3@Has_unused:
	mov	DWORD PTR tv77[ebp], 0
$LN4@Has_unused:
	mov	al, BYTE PTR tv77[ebp]

; 1788 : 		}

	pop	esi
	add	esp, 8
	cmp	ebp, esp
	call	__RTC_CheckEsp
	mov	esp, ebp
	pop	ebp
	ret	0
?_Has_unused_capacity@?$vector@NV?$allocator@N@std@@@std@@ABE_NXZ ENDP ; std::vector<double,std::allocator<double> >::_Has_unused_capacity
_TEXT	ENDS
; Function compile flags: /Odtp /RTCsu
; File c:\program files (x86)\microsoft visual studio\2017\community\vc\tools\msvc\14.11.25503\include\vector
;	COMDAT ?capacity@?$vector@NV?$allocator@N@std@@@std@@QBEIXZ
_TEXT	SEGMENT
_this$ = -4						; size = 4
?capacity@?$vector@NV?$allocator@N@std@@@std@@QBEIXZ PROC ; std::vector<double,std::allocator<double> >::capacity, COMDAT
; _this$ = ecx

; 1775 : 		{	// return current length of allocated storage

	push	ebp
	mov	ebp, esp
	push	ecx
	push	esi
	mov	DWORD PTR [ebp-4], -858993460		; ccccccccH
	mov	DWORD PTR _this$[ebp], ecx

; 1776 : 		return (static_cast<size_type>(this->_Myend() - this->_Myfirst()));

	mov	ecx, DWORD PTR _this$[ebp]
	call	?_Myend@?$_Vector_alloc@U?$_Vec_base_types@NV?$allocator@N@std@@@std@@@std@@QBEABQANXZ ; std::_Vector_alloc<std::_Vec_base_types<double,std::allocator<double> > >::_Myend
	mov	esi, eax
	mov	ecx, DWORD PTR _this$[ebp]
	call	?_Myfirst@?$_Vector_alloc@U?$_Vec_base_types@NV?$allocator@N@std@@@std@@@std@@QBEABQANXZ ; std::_Vector_alloc<std::_Vec_base_types<double,std::allocator<double> > >::_Myfirst
	mov	ecx, DWORD PTR [esi]
	sub	ecx, DWORD PTR [eax]
	sar	ecx, 3
	mov	eax, ecx

; 1777 : 		}

	pop	esi
	add	esp, 4
	cmp	ebp, esp
	call	__RTC_CheckEsp
	mov	esp, ebp
	pop	ebp
	ret	0
?capacity@?$vector@NV?$allocator@N@std@@@std@@QBEIXZ ENDP ; std::vector<double,std::allocator<double> >::capacity
_TEXT	ENDS
; Function compile flags: /Odtp /RTCsu
; File c:\program files (x86)\microsoft visual studio\2017\community\vc\tools\msvc\14.11.25503\include\vector
;	COMDAT ?max_size@?$vector@NV?$allocator@N@std@@@std@@QBEIXZ
_TEXT	SEGMENT
$T1 = -12						; size = 4
$T2 = -8						; size = 4
_this$ = -4						; size = 4
?max_size@?$vector@NV?$allocator@N@std@@@std@@QBEIXZ PROC ; std::vector<double,std::allocator<double> >::max_size, COMDAT
; _this$ = ecx

; 1769 : 		{	// return maximum possible length of sequence

	push	ebp
	mov	ebp, esp
	sub	esp, 12					; 0000000cH
	mov	DWORD PTR [ebp-12], -858993460		; ccccccccH
	mov	DWORD PTR [ebp-8], -858993460		; ccccccccH
	mov	DWORD PTR [ebp-4], -858993460		; ccccccccH
	mov	DWORD PTR _this$[ebp], ecx

; 1770 : 		return (_Min_value(static_cast<size_type>((numeric_limits<difference_type>::max)()),

	mov	ecx, DWORD PTR _this$[ebp]
	call	?_Getal@?$_Vector_alloc@U?$_Vec_base_types@NV?$allocator@N@std@@@std@@@std@@QBEABV?$allocator@N@2@XZ ; std::_Vector_alloc<std::_Vec_base_types<double,std::allocator<double> > >::_Getal
	push	eax
	call	?max_size@?$_Default_allocator_traits@V?$allocator@N@std@@@std@@SAIABV?$allocator@N@2@@Z ; std::_Default_allocator_traits<std::allocator<double> >::max_size
	add	esp, 4
	mov	DWORD PTR $T2[ebp], eax
	call	?max@?$numeric_limits@H@std@@SAHXZ	; std::numeric_limits<int>::max
	mov	DWORD PTR $T1[ebp], eax
	lea	eax, DWORD PTR $T2[ebp]
	push	eax
	lea	ecx, DWORD PTR $T1[ebp]
	push	ecx
	call	??$_Min_value@I@std@@YAABIABI0@Z	; std::_Min_value<unsigned int>
	add	esp, 8
	mov	eax, DWORD PTR [eax]

; 1771 : 			_Alty_traits::max_size(this->_Getal())));
; 1772 : 		}

	add	esp, 12					; 0000000cH
	cmp	ebp, esp
	call	__RTC_CheckEsp
	mov	esp, ebp
	pop	ebp
	ret	0
?max_size@?$vector@NV?$allocator@N@std@@@std@@QBEIXZ ENDP ; std::vector<double,std::allocator<double> >::max_size
_TEXT	ENDS
; Function compile flags: /Odtp /RTCsu
; File c:\program files (x86)\microsoft visual studio\2017\community\vc\tools\msvc\14.11.25503\include\vector
;	COMDAT ?size@?$vector@NV?$allocator@N@std@@@std@@QBEIXZ
_TEXT	SEGMENT
_this$ = -4						; size = 4
?size@?$vector@NV?$allocator@N@std@@@std@@QBEIXZ PROC	; std::vector<double,std::allocator<double> >::size, COMDAT
; _this$ = ecx

; 1764 : 		{	// return length of sequence

	push	ebp
	mov	ebp, esp
	push	ecx
	push	esi
	mov	DWORD PTR [ebp-4], -858993460		; ccccccccH
	mov	DWORD PTR _this$[ebp], ecx

; 1765 : 		return (static_cast<size_type>(this->_Mylast() - this->_Myfirst()));

	mov	ecx, DWORD PTR _this$[ebp]
	call	?_Mylast@?$_Vector_alloc@U?$_Vec_base_types@NV?$allocator@N@std@@@std@@@std@@QBEABQANXZ ; std::_Vector_alloc<std::_Vec_base_types<double,std::allocator<double> > >::_Mylast
	mov	esi, eax
	mov	ecx, DWORD PTR _this$[ebp]
	call	?_Myfirst@?$_Vector_alloc@U?$_Vec_base_types@NV?$allocator@N@std@@@std@@@std@@QBEABQANXZ ; std::_Vector_alloc<std::_Vec_base_types<double,std::allocator<double> > >::_Myfirst
	mov	ecx, DWORD PTR [esi]
	sub	ecx, DWORD PTR [eax]
	sar	ecx, 3
	mov	eax, ecx

; 1766 : 		}

	pop	esi
	add	esp, 4
	cmp	ebp, esp
	call	__RTC_CheckEsp
	mov	esp, ebp
	pop	ebp
	ret	0
?size@?$vector@NV?$allocator@N@std@@@std@@QBEIXZ ENDP	; std::vector<double,std::allocator<double> >::size
_TEXT	ENDS
; Function compile flags: /Odtp /RTCsu
; File c:\program files (x86)\microsoft visual studio\2017\community\vc\tools\msvc\14.11.25503\include\vector
;	COMDAT ?clear@?$vector@NV?$allocator@N@std@@@std@@QAEXXZ
_TEXT	SEGMENT
_this$ = -16						; size = 4
__$EHRec$ = -12						; size = 12
?clear@?$vector@NV?$allocator@N@std@@@std@@QAEXXZ PROC	; std::vector<double,std::allocator<double> >::clear, COMDAT
; _this$ = ecx

; 1650 : 		{	// erase all

	push	ebp
	mov	ebp, esp
	push	-1
	push	__ehhandler$?clear@?$vector@NV?$allocator@N@std@@@std@@QAEXXZ
	mov	eax, DWORD PTR fs:0
	push	eax
	push	ecx
	push	esi
	mov	DWORD PTR [ebp-16], -858993460		; ccccccccH
	mov	eax, DWORD PTR ___security_cookie
	xor	eax, ebp
	push	eax
	lea	eax, DWORD PTR __$EHRec$[ebp]
	mov	DWORD PTR fs:0, eax
	mov	DWORD PTR _this$[ebp], ecx

; 1651 : 		this->_Orphan_all();

	mov	ecx, DWORD PTR _this$[ebp]
	call	?_Orphan_all@?$_Vector_alloc@U?$_Vec_base_types@NV?$allocator@N@std@@@std@@@std@@QAEXXZ ; std::_Vector_alloc<std::_Vec_base_types<double,std::allocator<double> > >::_Orphan_all

; 1652 : 		_Destroy(this->_Myfirst(), this->_Mylast());

	mov	ecx, DWORD PTR _this$[ebp]
	call	?_Mylast@?$_Vector_alloc@U?$_Vec_base_types@NV?$allocator@N@std@@@std@@@std@@QAEAAPANXZ ; std::_Vector_alloc<std::_Vec_base_types<double,std::allocator<double> > >::_Mylast
	mov	eax, DWORD PTR [eax]
	push	eax
	mov	ecx, DWORD PTR _this$[ebp]
	call	?_Myfirst@?$_Vector_alloc@U?$_Vec_base_types@NV?$allocator@N@std@@@std@@@std@@QAEAAPANXZ ; std::_Vector_alloc<std::_Vec_base_types<double,std::allocator<double> > >::_Myfirst
	mov	ecx, DWORD PTR [eax]
	push	ecx
	mov	ecx, DWORD PTR _this$[ebp]
	call	?_Destroy@?$vector@NV?$allocator@N@std@@@std@@AAEXPAN0@Z ; std::vector<double,std::allocator<double> >::_Destroy

; 1653 : 		this->_Mylast() = this->_Myfirst();

	mov	ecx, DWORD PTR _this$[ebp]
	call	?_Myfirst@?$_Vector_alloc@U?$_Vec_base_types@NV?$allocator@N@std@@@std@@@std@@QAEAAPANXZ ; std::_Vector_alloc<std::_Vec_base_types<double,std::allocator<double> > >::_Myfirst
	mov	esi, eax
	mov	ecx, DWORD PTR _this$[ebp]
	call	?_Mylast@?$_Vector_alloc@U?$_Vec_base_types@NV?$allocator@N@std@@@std@@@std@@QAEAAPANXZ ; std::_Vector_alloc<std::_Vec_base_types<double,std::allocator<double> > >::_Mylast
	mov	edx, DWORD PTR [esi]
	mov	DWORD PTR [eax], edx

; 1654 : 		}

	mov	ecx, DWORD PTR __$EHRec$[ebp]
	mov	DWORD PTR fs:0, ecx
	pop	ecx
	pop	esi
	add	esp, 16					; 00000010H
	cmp	ebp, esp
	call	__RTC_CheckEsp
	mov	esp, ebp
	pop	ebp
	ret	0
_TEXT	ENDS
;	COMDAT text$x
text$x	SEGMENT
__ehhandler$?clear@?$vector@NV?$allocator@N@std@@@std@@QAEXXZ:
	mov	edx, DWORD PTR [esp+8]
	lea	eax, DWORD PTR [edx+12]
	mov	ecx, DWORD PTR [edx-12]
	xor	ecx, eax
	call	@__security_check_cookie@4
	mov	eax, OFFSET __ehfuncinfo$?clear@?$vector@NV?$allocator@N@std@@@std@@QAEXXZ
	jmp	___CxxFrameHandler3
text$x	ENDS
?clear@?$vector@NV?$allocator@N@std@@@std@@QAEXXZ ENDP	; std::vector<double,std::allocator<double> >::clear
; Function compile flags: /Odtp /RTCsu
; File c:\program files (x86)\microsoft visual studio\2017\community\vc\tools\msvc\14.11.25503\include\vector
;	COMDAT ?push_back@?$vector@NV?$allocator@N@std@@@std@@QAEX$$QAN@Z
_TEXT	SEGMENT
_this$ = -4						; size = 4
__Val$ = 8						; size = 4
?push_back@?$vector@NV?$allocator@N@std@@@std@@QAEX$$QAN@Z PROC ; std::vector<double,std::allocator<double> >::push_back, COMDAT
; _this$ = ecx

; 985  : 		{	// insert by moving into element at end, provide strong guarantee

	push	ebp
	mov	ebp, esp
	push	ecx
	mov	DWORD PTR [ebp-4], -858993460		; ccccccccH
	mov	DWORD PTR _this$[ebp], ecx

; 986  : 		emplace_back(_STD move(_Val));

	mov	eax, DWORD PTR __Val$[ebp]
	push	eax
	call	??$move@AAN@std@@YA$$QANAAN@Z		; std::move<double &>
	add	esp, 4
	push	eax
	mov	ecx, DWORD PTR _this$[ebp]
	call	??$emplace_back@N@?$vector@NV?$allocator@N@std@@@std@@QAE@$$QAN@Z ; std::vector<double,std::allocator<double> >::emplace_back<double>

; 987  : 		}

	add	esp, 4
	cmp	ebp, esp
	call	__RTC_CheckEsp
	mov	esp, ebp
	pop	ebp
	ret	4
?push_back@?$vector@NV?$allocator@N@std@@@std@@QAEX$$QAN@Z ENDP ; std::vector<double,std::allocator<double> >::push_back
_TEXT	ENDS
; Function compile flags: /Odtp /RTCsu
; File c:\program files (x86)\microsoft visual studio\2017\community\vc\tools\msvc\14.11.25503\include\xutility
;	COMDAT ?_Get_second@?$_Compressed_pair@V?$allocator@N@std@@V?$_Vector_val@U?$_Simple_types@N@std@@@2@$00@std@@QBEABV?$_Vector_val@U?$_Simple_types@N@std@@@2@XZ
_TEXT	SEGMENT
_this$ = -4						; size = 4
?_Get_second@?$_Compressed_pair@V?$allocator@N@std@@V?$_Vector_val@U?$_Simple_types@N@std@@@2@$00@std@@QBEABV?$_Vector_val@U?$_Simple_types@N@std@@@2@XZ PROC ; std::_Compressed_pair<std::allocator<double>,std::_Vector_val<std::_Simple_types<double> >,1>::_Get_second, COMDAT
; _this$ = ecx

; 342  : 		{	// return const reference to second

	push	ebp
	mov	ebp, esp
	push	ecx
	mov	DWORD PTR [ebp-4], -858993460		; ccccccccH
	mov	DWORD PTR _this$[ebp], ecx

; 343  : 		return (_Myval2);

	mov	eax, DWORD PTR _this$[ebp]

; 344  : 		}

	mov	esp, ebp
	pop	ebp
	ret	0
?_Get_second@?$_Compressed_pair@V?$allocator@N@std@@V?$_Vector_val@U?$_Simple_types@N@std@@@2@$00@std@@QBEABV?$_Vector_val@U?$_Simple_types@N@std@@@2@XZ ENDP ; std::_Compressed_pair<std::allocator<double>,std::_Vector_val<std::_Simple_types<double> >,1>::_Get_second
_TEXT	ENDS
; Function compile flags: /Odtp /RTCsu
; File c:\program files (x86)\microsoft visual studio\2017\community\vc\tools\msvc\14.11.25503\include\xutility
;	COMDAT ?_Get_second@?$_Compressed_pair@V?$allocator@N@std@@V?$_Vector_val@U?$_Simple_types@N@std@@@2@$00@std@@QAEAAV?$_Vector_val@U?$_Simple_types@N@std@@@2@XZ
_TEXT	SEGMENT
_this$ = -4						; size = 4
?_Get_second@?$_Compressed_pair@V?$allocator@N@std@@V?$_Vector_val@U?$_Simple_types@N@std@@@2@$00@std@@QAEAAV?$_Vector_val@U?$_Simple_types@N@std@@@2@XZ PROC ; std::_Compressed_pair<std::allocator<double>,std::_Vector_val<std::_Simple_types<double> >,1>::_Get_second, COMDAT
; _this$ = ecx

; 337  : 		{	// return reference to second

	push	ebp
	mov	ebp, esp
	push	ecx
	mov	DWORD PTR [ebp-4], -858993460		; ccccccccH
	mov	DWORD PTR _this$[ebp], ecx

; 338  : 		return (_Myval2);

	mov	eax, DWORD PTR _this$[ebp]

; 339  : 		}

	mov	esp, ebp
	pop	ebp
	ret	0
?_Get_second@?$_Compressed_pair@V?$allocator@N@std@@V?$_Vector_val@U?$_Simple_types@N@std@@@2@$00@std@@QAEAAV?$_Vector_val@U?$_Simple_types@N@std@@@2@XZ ENDP ; std::_Compressed_pair<std::allocator<double>,std::_Vector_val<std::_Simple_types<double> >,1>::_Get_second
_TEXT	ENDS
; Function compile flags: /Odtp /RTCsu
; File c:\program files (x86)\microsoft visual studio\2017\community\vc\tools\msvc\14.11.25503\include\xutility
;	COMDAT ?_Get_first@?$_Compressed_pair@V?$allocator@N@std@@V?$_Vector_val@U?$_Simple_types@N@std@@@2@$00@std@@QBEABV?$allocator@N@2@XZ
_TEXT	SEGMENT
_this$ = -4						; size = 4
?_Get_first@?$_Compressed_pair@V?$allocator@N@std@@V?$_Vector_val@U?$_Simple_types@N@std@@@2@$00@std@@QBEABV?$allocator@N@2@XZ PROC ; std::_Compressed_pair<std::allocator<double>,std::_Vector_val<std::_Simple_types<double> >,1>::_Get_first, COMDAT
; _this$ = ecx

; 322  : 		{	// return const reference to first

	push	ebp
	mov	ebp, esp
	push	ecx
	mov	DWORD PTR [ebp-4], -858993460		; ccccccccH
	mov	DWORD PTR _this$[ebp], ecx

; 323  : 		return (*this);

	mov	eax, DWORD PTR _this$[ebp]

; 324  : 		}

	mov	esp, ebp
	pop	ebp
	ret	0
?_Get_first@?$_Compressed_pair@V?$allocator@N@std@@V?$_Vector_val@U?$_Simple_types@N@std@@@2@$00@std@@QBEABV?$allocator@N@2@XZ ENDP ; std::_Compressed_pair<std::allocator<double>,std::_Vector_val<std::_Simple_types<double> >,1>::_Get_first
_TEXT	ENDS
; Function compile flags: /Odtp /RTCsu
; File c:\program files (x86)\microsoft visual studio\2017\community\vc\tools\msvc\14.11.25503\include\xutility
;	COMDAT ?_Get_first@?$_Compressed_pair@V?$allocator@N@std@@V?$_Vector_val@U?$_Simple_types@N@std@@@2@$00@std@@QAEAAV?$allocator@N@2@XZ
_TEXT	SEGMENT
_this$ = -4						; size = 4
?_Get_first@?$_Compressed_pair@V?$allocator@N@std@@V?$_Vector_val@U?$_Simple_types@N@std@@@2@$00@std@@QAEAAV?$allocator@N@2@XZ PROC ; std::_Compressed_pair<std::allocator<double>,std::_Vector_val<std::_Simple_types<double> >,1>::_Get_first, COMDAT
; _this$ = ecx

; 317  : 		{	// return reference to first

	push	ebp
	mov	ebp, esp
	push	ecx
	mov	DWORD PTR [ebp-4], -858993460		; ccccccccH
	mov	DWORD PTR _this$[ebp], ecx

; 318  : 		return (*this);

	mov	eax, DWORD PTR _this$[ebp]

; 319  : 		}

	mov	esp, ebp
	pop	ebp
	ret	0
?_Get_first@?$_Compressed_pair@V?$allocator@N@std@@V?$_Vector_val@U?$_Simple_types@N@std@@@2@$00@std@@QAEAAV?$allocator@N@2@XZ ENDP ; std::_Compressed_pair<std::allocator<double>,std::_Vector_val<std::_Simple_types<double> >,1>::_Get_first
_TEXT	ENDS
; Function compile flags: /Odtp /RTCsu
; File c:\program files (x86)\microsoft visual studio\2017\community\vc\tools\msvc\14.11.25503\include\vector
;	COMDAT ?_Myend@?$_Vector_alloc@U?$_Vec_base_types@NV?$allocator@N@std@@@std@@@std@@QBEABQANXZ
_TEXT	SEGMENT
_this$ = -4						; size = 4
?_Myend@?$_Vector_alloc@U?$_Vec_base_types@NV?$allocator@N@std@@@std@@@std@@QBEABQANXZ PROC ; std::_Vector_alloc<std::_Vec_base_types<double,std::allocator<double> > >::_Myend, COMDAT
; _this$ = ecx

; 634  : 		{	// return const reference to _Myend

	push	ebp
	mov	ebp, esp
	push	ecx
	mov	DWORD PTR [ebp-4], -858993460		; ccccccccH
	mov	DWORD PTR _this$[ebp], ecx

; 635  : 		return (_Get_data()._Myend);

	mov	ecx, DWORD PTR _this$[ebp]
	call	?_Get_data@?$_Vector_alloc@U?$_Vec_base_types@NV?$allocator@N@std@@@std@@@std@@QBEABV?$_Vector_val@U?$_Simple_types@N@std@@@2@XZ ; std::_Vector_alloc<std::_Vec_base_types<double,std::allocator<double> > >::_Get_data
	add	eax, 12					; 0000000cH

; 636  : 		}

	add	esp, 4
	cmp	ebp, esp
	call	__RTC_CheckEsp
	mov	esp, ebp
	pop	ebp
	ret	0
?_Myend@?$_Vector_alloc@U?$_Vec_base_types@NV?$allocator@N@std@@@std@@@std@@QBEABQANXZ ENDP ; std::_Vector_alloc<std::_Vec_base_types<double,std::allocator<double> > >::_Myend
_TEXT	ENDS
; Function compile flags: /Odtp /RTCsu
; File c:\program files (x86)\microsoft visual studio\2017\community\vc\tools\msvc\14.11.25503\include\vector
;	COMDAT ?_Myend@?$_Vector_alloc@U?$_Vec_base_types@NV?$allocator@N@std@@@std@@@std@@QAEAAPANXZ
_TEXT	SEGMENT
_this$ = -4						; size = 4
?_Myend@?$_Vector_alloc@U?$_Vec_base_types@NV?$allocator@N@std@@@std@@@std@@QAEAAPANXZ PROC ; std::_Vector_alloc<std::_Vec_base_types<double,std::allocator<double> > >::_Myend, COMDAT
; _this$ = ecx

; 629  : 		{	// return reference to _Myend

	push	ebp
	mov	ebp, esp
	push	ecx
	mov	DWORD PTR [ebp-4], -858993460		; ccccccccH
	mov	DWORD PTR _this$[ebp], ecx

; 630  : 		return (_Get_data()._Myend);

	mov	ecx, DWORD PTR _this$[ebp]
	call	?_Get_data@?$_Vector_alloc@U?$_Vec_base_types@NV?$allocator@N@std@@@std@@@std@@QAEAAV?$_Vector_val@U?$_Simple_types@N@std@@@2@XZ ; std::_Vector_alloc<std::_Vec_base_types<double,std::allocator<double> > >::_Get_data
	add	eax, 12					; 0000000cH

; 631  : 		}

	add	esp, 4
	cmp	ebp, esp
	call	__RTC_CheckEsp
	mov	esp, ebp
	pop	ebp
	ret	0
?_Myend@?$_Vector_alloc@U?$_Vec_base_types@NV?$allocator@N@std@@@std@@@std@@QAEAAPANXZ ENDP ; std::_Vector_alloc<std::_Vec_base_types<double,std::allocator<double> > >::_Myend
_TEXT	ENDS
; Function compile flags: /Odtp /RTCsu
; File c:\program files (x86)\microsoft visual studio\2017\community\vc\tools\msvc\14.11.25503\include\vector
;	COMDAT ?_Mylast@?$_Vector_alloc@U?$_Vec_base_types@NV?$allocator@N@std@@@std@@@std@@QBEABQANXZ
_TEXT	SEGMENT
_this$ = -4						; size = 4
?_Mylast@?$_Vector_alloc@U?$_Vec_base_types@NV?$allocator@N@std@@@std@@@std@@QBEABQANXZ PROC ; std::_Vector_alloc<std::_Vec_base_types<double,std::allocator<double> > >::_Mylast, COMDAT
; _this$ = ecx

; 624  : 		{	// return const reference to _Mylast

	push	ebp
	mov	ebp, esp
	push	ecx
	mov	DWORD PTR [ebp-4], -858993460		; ccccccccH
	mov	DWORD PTR _this$[ebp], ecx

; 625  : 		return (_Get_data()._Mylast);

	mov	ecx, DWORD PTR _this$[ebp]
	call	?_Get_data@?$_Vector_alloc@U?$_Vec_base_types@NV?$allocator@N@std@@@std@@@std@@QBEABV?$_Vector_val@U?$_Simple_types@N@std@@@2@XZ ; std::_Vector_alloc<std::_Vec_base_types<double,std::allocator<double> > >::_Get_data
	add	eax, 8

; 626  : 		}

	add	esp, 4
	cmp	ebp, esp
	call	__RTC_CheckEsp
	mov	esp, ebp
	pop	ebp
	ret	0
?_Mylast@?$_Vector_alloc@U?$_Vec_base_types@NV?$allocator@N@std@@@std@@@std@@QBEABQANXZ ENDP ; std::_Vector_alloc<std::_Vec_base_types<double,std::allocator<double> > >::_Mylast
_TEXT	ENDS
; Function compile flags: /Odtp /RTCsu
; File c:\program files (x86)\microsoft visual studio\2017\community\vc\tools\msvc\14.11.25503\include\vector
;	COMDAT ?_Mylast@?$_Vector_alloc@U?$_Vec_base_types@NV?$allocator@N@std@@@std@@@std@@QAEAAPANXZ
_TEXT	SEGMENT
_this$ = -4						; size = 4
?_Mylast@?$_Vector_alloc@U?$_Vec_base_types@NV?$allocator@N@std@@@std@@@std@@QAEAAPANXZ PROC ; std::_Vector_alloc<std::_Vec_base_types<double,std::allocator<double> > >::_Mylast, COMDAT
; _this$ = ecx

; 619  : 		{	// return reference to _Mylast

	push	ebp
	mov	ebp, esp
	push	ecx
	mov	DWORD PTR [ebp-4], -858993460		; ccccccccH
	mov	DWORD PTR _this$[ebp], ecx

; 620  : 		return (_Get_data()._Mylast);

	mov	ecx, DWORD PTR _this$[ebp]
	call	?_Get_data@?$_Vector_alloc@U?$_Vec_base_types@NV?$allocator@N@std@@@std@@@std@@QAEAAV?$_Vector_val@U?$_Simple_types@N@std@@@2@XZ ; std::_Vector_alloc<std::_Vec_base_types<double,std::allocator<double> > >::_Get_data
	add	eax, 8

; 621  : 		}

	add	esp, 4
	cmp	ebp, esp
	call	__RTC_CheckEsp
	mov	esp, ebp
	pop	ebp
	ret	0
?_Mylast@?$_Vector_alloc@U?$_Vec_base_types@NV?$allocator@N@std@@@std@@@std@@QAEAAPANXZ ENDP ; std::_Vector_alloc<std::_Vec_base_types<double,std::allocator<double> > >::_Mylast
_TEXT	ENDS
; Function compile flags: /Odtp /RTCsu
; File c:\program files (x86)\microsoft visual studio\2017\community\vc\tools\msvc\14.11.25503\include\vector
;	COMDAT ?_Myfirst@?$_Vector_alloc@U?$_Vec_base_types@NV?$allocator@N@std@@@std@@@std@@QBEABQANXZ
_TEXT	SEGMENT
_this$ = -4						; size = 4
?_Myfirst@?$_Vector_alloc@U?$_Vec_base_types@NV?$allocator@N@std@@@std@@@std@@QBEABQANXZ PROC ; std::_Vector_alloc<std::_Vec_base_types<double,std::allocator<double> > >::_Myfirst, COMDAT
; _this$ = ecx

; 614  : 		{	// return const reference to _Myfirst

	push	ebp
	mov	ebp, esp
	push	ecx
	mov	DWORD PTR [ebp-4], -858993460		; ccccccccH
	mov	DWORD PTR _this$[ebp], ecx

; 615  : 		return (_Get_data()._Myfirst);

	mov	ecx, DWORD PTR _this$[ebp]
	call	?_Get_data@?$_Vector_alloc@U?$_Vec_base_types@NV?$allocator@N@std@@@std@@@std@@QBEABV?$_Vector_val@U?$_Simple_types@N@std@@@2@XZ ; std::_Vector_alloc<std::_Vec_base_types<double,std::allocator<double> > >::_Get_data
	add	eax, 4

; 616  : 		}

	add	esp, 4
	cmp	ebp, esp
	call	__RTC_CheckEsp
	mov	esp, ebp
	pop	ebp
	ret	0
?_Myfirst@?$_Vector_alloc@U?$_Vec_base_types@NV?$allocator@N@std@@@std@@@std@@QBEABQANXZ ENDP ; std::_Vector_alloc<std::_Vec_base_types<double,std::allocator<double> > >::_Myfirst
_TEXT	ENDS
; Function compile flags: /Odtp /RTCsu
; File c:\program files (x86)\microsoft visual studio\2017\community\vc\tools\msvc\14.11.25503\include\vector
;	COMDAT ?_Myfirst@?$_Vector_alloc@U?$_Vec_base_types@NV?$allocator@N@std@@@std@@@std@@QAEAAPANXZ
_TEXT	SEGMENT
_this$ = -4						; size = 4
?_Myfirst@?$_Vector_alloc@U?$_Vec_base_types@NV?$allocator@N@std@@@std@@@std@@QAEAAPANXZ PROC ; std::_Vector_alloc<std::_Vec_base_types<double,std::allocator<double> > >::_Myfirst, COMDAT
; _this$ = ecx

; 609  : 		{	// return reference to _Myfirst

	push	ebp
	mov	ebp, esp
	push	ecx
	mov	DWORD PTR [ebp-4], -858993460		; ccccccccH
	mov	DWORD PTR _this$[ebp], ecx

; 610  : 		return (_Get_data()._Myfirst);

	mov	ecx, DWORD PTR _this$[ebp]
	call	?_Get_data@?$_Vector_alloc@U?$_Vec_base_types@NV?$allocator@N@std@@@std@@@std@@QAEAAV?$_Vector_val@U?$_Simple_types@N@std@@@2@XZ ; std::_Vector_alloc<std::_Vec_base_types<double,std::allocator<double> > >::_Get_data
	add	eax, 4

; 611  : 		}

	add	esp, 4
	cmp	ebp, esp
	call	__RTC_CheckEsp
	mov	esp, ebp
	pop	ebp
	ret	0
?_Myfirst@?$_Vector_alloc@U?$_Vec_base_types@NV?$allocator@N@std@@@std@@@std@@QAEAAPANXZ ENDP ; std::_Vector_alloc<std::_Vec_base_types<double,std::allocator<double> > >::_Myfirst
_TEXT	ENDS
; Function compile flags: /Odtp /RTCsu
; File c:\program files (x86)\microsoft visual studio\2017\community\vc\tools\msvc\14.11.25503\include\vector
;	COMDAT ?_Get_data@?$_Vector_alloc@U?$_Vec_base_types@NV?$allocator@N@std@@@std@@@std@@QBEABV?$_Vector_val@U?$_Simple_types@N@std@@@2@XZ
_TEXT	SEGMENT
_this$ = -4						; size = 4
?_Get_data@?$_Vector_alloc@U?$_Vec_base_types@NV?$allocator@N@std@@@std@@@std@@QBEABV?$_Vector_val@U?$_Simple_types@N@std@@@2@XZ PROC ; std::_Vector_alloc<std::_Vec_base_types<double,std::allocator<double> > >::_Get_data, COMDAT
; _this$ = ecx

; 604  : 		{	// return const reference to _Vector_val

	push	ebp
	mov	ebp, esp
	push	ecx
	mov	DWORD PTR [ebp-4], -858993460		; ccccccccH
	mov	DWORD PTR _this$[ebp], ecx

; 605  : 		return (_Mypair._Get_second());

	mov	ecx, DWORD PTR _this$[ebp]
	call	?_Get_second@?$_Compressed_pair@V?$allocator@N@std@@V?$_Vector_val@U?$_Simple_types@N@std@@@2@$00@std@@QBEABV?$_Vector_val@U?$_Simple_types@N@std@@@2@XZ ; std::_Compressed_pair<std::allocator<double>,std::_Vector_val<std::_Simple_types<double> >,1>::_Get_second

; 606  : 		}

	add	esp, 4
	cmp	ebp, esp
	call	__RTC_CheckEsp
	mov	esp, ebp
	pop	ebp
	ret	0
?_Get_data@?$_Vector_alloc@U?$_Vec_base_types@NV?$allocator@N@std@@@std@@@std@@QBEABV?$_Vector_val@U?$_Simple_types@N@std@@@2@XZ ENDP ; std::_Vector_alloc<std::_Vec_base_types<double,std::allocator<double> > >::_Get_data
_TEXT	ENDS
; Function compile flags: /Odtp /RTCsu
; File c:\program files (x86)\microsoft visual studio\2017\community\vc\tools\msvc\14.11.25503\include\vector
;	COMDAT ?_Get_data@?$_Vector_alloc@U?$_Vec_base_types@NV?$allocator@N@std@@@std@@@std@@QAEAAV?$_Vector_val@U?$_Simple_types@N@std@@@2@XZ
_TEXT	SEGMENT
_this$ = -4						; size = 4
?_Get_data@?$_Vector_alloc@U?$_Vec_base_types@NV?$allocator@N@std@@@std@@@std@@QAEAAV?$_Vector_val@U?$_Simple_types@N@std@@@2@XZ PROC ; std::_Vector_alloc<std::_Vec_base_types<double,std::allocator<double> > >::_Get_data, COMDAT
; _this$ = ecx

; 599  : 		{	// return reference to _Vector_val

	push	ebp
	mov	ebp, esp
	push	ecx
	mov	DWORD PTR [ebp-4], -858993460		; ccccccccH
	mov	DWORD PTR _this$[ebp], ecx

; 600  : 		return (_Mypair._Get_second());

	mov	ecx, DWORD PTR _this$[ebp]
	call	?_Get_second@?$_Compressed_pair@V?$allocator@N@std@@V?$_Vector_val@U?$_Simple_types@N@std@@@2@$00@std@@QAEAAV?$_Vector_val@U?$_Simple_types@N@std@@@2@XZ ; std::_Compressed_pair<std::allocator<double>,std::_Vector_val<std::_Simple_types<double> >,1>::_Get_second

; 601  : 		}

	add	esp, 4
	cmp	ebp, esp
	call	__RTC_CheckEsp
	mov	esp, ebp
	pop	ebp
	ret	0
?_Get_data@?$_Vector_alloc@U?$_Vec_base_types@NV?$allocator@N@std@@@std@@@std@@QAEAAV?$_Vector_val@U?$_Simple_types@N@std@@@2@XZ ENDP ; std::_Vector_alloc<std::_Vec_base_types<double,std::allocator<double> > >::_Get_data
_TEXT	ENDS
; Function compile flags: /Odtp /RTCsu
; File c:\program files (x86)\microsoft visual studio\2017\community\vc\tools\msvc\14.11.25503\include\vector
;	COMDAT ?_Getal@?$_Vector_alloc@U?$_Vec_base_types@NV?$allocator@N@std@@@std@@@std@@QBEABV?$allocator@N@2@XZ
_TEXT	SEGMENT
_this$ = -4						; size = 4
?_Getal@?$_Vector_alloc@U?$_Vec_base_types@NV?$allocator@N@std@@@std@@@std@@QBEABV?$allocator@N@2@XZ PROC ; std::_Vector_alloc<std::_Vec_base_types<double,std::allocator<double> > >::_Getal, COMDAT
; _this$ = ecx

; 594  : 		{	// return const reference to allocator

	push	ebp
	mov	ebp, esp
	push	ecx
	mov	DWORD PTR [ebp-4], -858993460		; ccccccccH
	mov	DWORD PTR _this$[ebp], ecx

; 595  : 		return (_Mypair._Get_first());

	mov	ecx, DWORD PTR _this$[ebp]
	call	?_Get_first@?$_Compressed_pair@V?$allocator@N@std@@V?$_Vector_val@U?$_Simple_types@N@std@@@2@$00@std@@QBEABV?$allocator@N@2@XZ ; std::_Compressed_pair<std::allocator<double>,std::_Vector_val<std::_Simple_types<double> >,1>::_Get_first

; 596  : 		}

	add	esp, 4
	cmp	ebp, esp
	call	__RTC_CheckEsp
	mov	esp, ebp
	pop	ebp
	ret	0
?_Getal@?$_Vector_alloc@U?$_Vec_base_types@NV?$allocator@N@std@@@std@@@std@@QBEABV?$allocator@N@2@XZ ENDP ; std::_Vector_alloc<std::_Vec_base_types<double,std::allocator<double> > >::_Getal
_TEXT	ENDS
; Function compile flags: /Odtp /RTCsu
; File c:\program files (x86)\microsoft visual studio\2017\community\vc\tools\msvc\14.11.25503\include\vector
;	COMDAT ?_Getal@?$_Vector_alloc@U?$_Vec_base_types@NV?$allocator@N@std@@@std@@@std@@QAEAAV?$allocator@N@2@XZ
_TEXT	SEGMENT
_this$ = -4						; size = 4
?_Getal@?$_Vector_alloc@U?$_Vec_base_types@NV?$allocator@N@std@@@std@@@std@@QAEAAV?$allocator@N@2@XZ PROC ; std::_Vector_alloc<std::_Vec_base_types<double,std::allocator<double> > >::_Getal, COMDAT
; _this$ = ecx

; 589  : 		{	// return reference to allocator

	push	ebp
	mov	ebp, esp
	push	ecx
	mov	DWORD PTR [ebp-4], -858993460		; ccccccccH
	mov	DWORD PTR _this$[ebp], ecx

; 590  : 		return (_Mypair._Get_first());

	mov	ecx, DWORD PTR _this$[ebp]
	call	?_Get_first@?$_Compressed_pair@V?$allocator@N@std@@V?$_Vector_val@U?$_Simple_types@N@std@@@2@$00@std@@QAEAAV?$allocator@N@2@XZ ; std::_Compressed_pair<std::allocator<double>,std::_Vector_val<std::_Simple_types<double> >,1>::_Get_first

; 591  : 		}

	add	esp, 4
	cmp	ebp, esp
	call	__RTC_CheckEsp
	mov	esp, ebp
	pop	ebp
	ret	0
?_Getal@?$_Vector_alloc@U?$_Vec_base_types@NV?$allocator@N@std@@@std@@@std@@QAEAAV?$allocator@N@2@XZ ENDP ; std::_Vector_alloc<std::_Vec_base_types<double,std::allocator<double> > >::_Getal
_TEXT	ENDS
; Function compile flags: /Odtp /RTCsu
; File c:\program files (x86)\microsoft visual studio\2017\community\vc\tools\msvc\14.11.25503\include\vector
;	COMDAT ?_Orphan_all@?$_Vector_alloc@U?$_Vec_base_types@NV?$allocator@N@std@@@std@@@std@@QAEXXZ
_TEXT	SEGMENT
_this$ = -4						; size = 4
?_Orphan_all@?$_Vector_alloc@U?$_Vec_base_types@NV?$allocator@N@std@@@std@@@std@@QAEXXZ PROC ; std::_Vector_alloc<std::_Vec_base_types<double,std::allocator<double> > >::_Orphan_all, COMDAT
; _this$ = ecx

; 579  : 		{	// orphan all iterators

	push	ebp
	mov	ebp, esp
	push	ecx
	mov	DWORD PTR [ebp-4], -858993460		; ccccccccH
	mov	DWORD PTR _this$[ebp], ecx

; 580  : 		_Get_data()._Orphan_all();

	mov	ecx, DWORD PTR _this$[ebp]
	call	?_Get_data@?$_Vector_alloc@U?$_Vec_base_types@NV?$allocator@N@std@@@std@@@std@@QAEAAV?$_Vector_val@U?$_Simple_types@N@std@@@2@XZ ; std::_Vector_alloc<std::_Vec_base_types<double,std::allocator<double> > >::_Get_data
	mov	ecx, eax
	call	?_Orphan_all@_Container_base12@std@@QAEXXZ ; std::_Container_base12::_Orphan_all

; 581  : 		}

	add	esp, 4
	cmp	ebp, esp
	call	__RTC_CheckEsp
	mov	esp, ebp
	pop	ebp
	ret	0
?_Orphan_all@?$_Vector_alloc@U?$_Vec_base_types@NV?$allocator@N@std@@@std@@@std@@QAEXXZ ENDP ; std::_Vector_alloc<std::_Vec_base_types<double,std::allocator<double> > >::_Orphan_all
_TEXT	ENDS
; Function compile flags: /Odtp /RTCsu
; File c:\program files (x86)\microsoft visual studio\2017\community\vc\tools\msvc\14.11.25503\include\vector
;	COMDAT ?_Getpfirst@?$_Vector_alloc@U?$_Vec_base_types@NV?$allocator@N@std@@@std@@@std@@QBEPAPAU_Iterator_base12@2@XZ
_TEXT	SEGMENT
_this$ = -4						; size = 4
?_Getpfirst@?$_Vector_alloc@U?$_Vec_base_types@NV?$allocator@N@std@@@std@@@std@@QBEPAPAU_Iterator_base12@2@XZ PROC ; std::_Vector_alloc<std::_Vec_base_types<double,std::allocator<double> > >::_Getpfirst, COMDAT
; _this$ = ecx

; 563  : 		{	// get address of iterator chain

	push	ebp
	mov	ebp, esp
	push	ecx
	mov	DWORD PTR [ebp-4], -858993460		; ccccccccH
	mov	DWORD PTR _this$[ebp], ecx

; 564  : 		return (_Get_data()._Getpfirst());

	mov	ecx, DWORD PTR _this$[ebp]
	call	?_Get_data@?$_Vector_alloc@U?$_Vec_base_types@NV?$allocator@N@std@@@std@@@std@@QBEABV?$_Vector_val@U?$_Simple_types@N@std@@@2@XZ ; std::_Vector_alloc<std::_Vec_base_types<double,std::allocator<double> > >::_Get_data
	mov	ecx, eax
	call	?_Getpfirst@_Container_base12@std@@QBEPAPAU_Iterator_base12@2@XZ ; std::_Container_base12::_Getpfirst

; 565  : 		}

	add	esp, 4
	cmp	ebp, esp
	call	__RTC_CheckEsp
	mov	esp, ebp
	pop	ebp
	ret	0
?_Getpfirst@?$_Vector_alloc@U?$_Vec_base_types@NV?$allocator@N@std@@@std@@@std@@QBEPAPAU_Iterator_base12@2@XZ ENDP ; std::_Vector_alloc<std::_Vec_base_types<double,std::allocator<double> > >::_Getpfirst
_TEXT	ENDS
; Function compile flags: /Odtp /RTCsu
; File c:\program files (x86)\microsoft visual studio\2017\community\vc\tools\msvc\14.11.25503\include\xmemory0
;	COMDAT ?max_size@?$_Default_allocator_traits@V?$allocator@N@std@@@std@@SAIABV?$allocator@N@2@@Z
_TEXT	SEGMENT
___formal$ = 8						; size = 4
?max_size@?$_Default_allocator_traits@V?$allocator@N@std@@@std@@SAIABV?$allocator@N@2@@Z PROC ; std::_Default_allocator_traits<std::allocator<double> >::max_size, COMDAT

; 866  : 		{	// get maximum size

	push	ebp
	mov	ebp, esp

; 867  : 		return (static_cast<size_t>(-1) / sizeof(value_type));

	mov	eax, 536870911				; 1fffffffH

; 868  : 		}

	pop	ebp
	ret	0
?max_size@?$_Default_allocator_traits@V?$allocator@N@std@@@std@@SAIABV?$allocator@N@2@@Z ENDP ; std::_Default_allocator_traits<std::allocator<double> >::max_size
_TEXT	ENDS
; Function compile flags: /Odtp /RTCsu
; File c:\program files (x86)\microsoft visual studio\2017\community\vc\tools\msvc\14.11.25503\include\xmemory0
;	COMDAT ?allocate@?$allocator@N@std@@QAEPANI@Z
_TEXT	SEGMENT
_this$ = -4						; size = 4
__Count$ = 8						; size = 4
?allocate@?$allocator@N@std@@QAEPANI@Z PROC		; std::allocator<double>::allocate, COMDAT
; _this$ = ecx

; 945  : 		{	// allocate array of _Count elements

	push	ebp
	mov	ebp, esp
	push	ecx
	mov	DWORD PTR [ebp-4], -858993460		; ccccccccH
	mov	DWORD PTR _this$[ebp], ecx

; 946  : 		return (static_cast<pointer>(_Allocate(_Count, sizeof(_Ty))));

	push	1
	push	8
	mov	eax, DWORD PTR __Count$[ebp]
	push	eax
	call	?_Allocate@std@@YAPAXII_N@Z		; std::_Allocate
	add	esp, 12					; 0000000cH

; 947  : 		}

	add	esp, 4
	cmp	ebp, esp
	call	__RTC_CheckEsp
	mov	esp, ebp
	pop	ebp
	ret	4
?allocate@?$allocator@N@std@@QAEPANI@Z ENDP		; std::allocator<double>::allocate
_TEXT	ENDS
; Function compile flags: /Odtp /RTCsu
; File c:\program files (x86)\microsoft visual studio\2017\community\vc\tools\msvc\14.11.25503\include\xmemory0
;	COMDAT ?deallocate@?$allocator@N@std@@QAEXQANI@Z
_TEXT	SEGMENT
_this$ = -4						; size = 4
__Ptr$ = 8						; size = 4
__Count$ = 12						; size = 4
?deallocate@?$allocator@N@std@@QAEXQANI@Z PROC		; std::allocator<double>::deallocate, COMDAT
; _this$ = ecx

; 940  : 		{	// deallocate object at _Ptr

	push	ebp
	mov	ebp, esp
	push	ecx
	mov	DWORD PTR [ebp-4], -858993460		; ccccccccH
	mov	DWORD PTR _this$[ebp], ecx

; 941  : 		_Deallocate(_Ptr, _Count, sizeof(_Ty));

	push	8
	mov	eax, DWORD PTR __Count$[ebp]
	push	eax
	mov	ecx, DWORD PTR __Ptr$[ebp]
	push	ecx
	call	?_Deallocate@std@@YAXPAXII@Z		; std::_Deallocate
	add	esp, 12					; 0000000cH

; 942  : 		}

	add	esp, 4
	cmp	ebp, esp
	call	__RTC_CheckEsp
	mov	esp, ebp
	pop	ebp
	ret	8
?deallocate@?$allocator@N@std@@QAEXQANI@Z ENDP		; std::allocator<double>::deallocate
_TEXT	ENDS
; Function compile flags: /Odtp /RTCsu
;	COMDAT ??_G?$vector@VNeuron@@V?$allocator@VNeuron@@@std@@@std@@QAEPAXI@Z
_TEXT	SEGMENT
_this$ = -4						; size = 4
___flags$ = 8						; size = 4
??_G?$vector@VNeuron@@V?$allocator@VNeuron@@@std@@@std@@QAEPAXI@Z PROC ; std::vector<Neuron,std::allocator<Neuron> >::`scalar deleting destructor', COMDAT
; _this$ = ecx
	push	ebp
	mov	ebp, esp
	push	ecx
	mov	DWORD PTR [ebp-4], -858993460		; ccccccccH
	mov	DWORD PTR _this$[ebp], ecx
	mov	ecx, DWORD PTR _this$[ebp]
	call	??1?$vector@VNeuron@@V?$allocator@VNeuron@@@std@@@std@@QAE@XZ ; std::vector<Neuron,std::allocator<Neuron> >::~vector<Neuron,std::allocator<Neuron> >
	mov	eax, DWORD PTR ___flags$[ebp]
	and	eax, 1
	je	SHORT $LN2@scalar
	push	16					; 00000010H
	mov	ecx, DWORD PTR _this$[ebp]
	push	ecx
	call	??3@YAXPAXI@Z				; operator delete
	add	esp, 8
$LN2@scalar:
	mov	eax, DWORD PTR _this$[ebp]
	add	esp, 4
	cmp	ebp, esp
	call	__RTC_CheckEsp
	mov	esp, ebp
	pop	ebp
	ret	4
??_G?$vector@VNeuron@@V?$allocator@VNeuron@@@std@@@std@@QAEPAXI@Z ENDP ; std::vector<Neuron,std::allocator<Neuron> >::`scalar deleting destructor'
_TEXT	ENDS
; Function compile flags: /Odtp /RTCsu
; File c:\program files (x86)\microsoft visual studio\2017\community\vc\tools\msvc\14.11.25503\include\vector
;	COMDAT ?_Orphan_range@?$vector@VNeuron@@V?$allocator@VNeuron@@@std@@@std@@ABEXPAVNeuron@@0@Z
_TEXT	SEGMENT
__Pnext$ = -32						; size = 4
__Lock$ = -24						; size = 4
_this$ = -16						; size = 4
__$EHRec$ = -12						; size = 12
__First$ = 8						; size = 4
__Last$ = 12						; size = 4
?_Orphan_range@?$vector@VNeuron@@V?$allocator@VNeuron@@@std@@@std@@ABEXPAVNeuron@@0@Z PROC ; std::vector<Neuron,std::allocator<Neuron> >::_Orphan_range, COMDAT
; _this$ = ecx

; 2027 : 		{	// orphan iterators within specified (inclusive) range

	push	ebp
	mov	ebp, esp
	push	-1
	push	__ehhandler$?_Orphan_range@?$vector@VNeuron@@V?$allocator@VNeuron@@@std@@@std@@ABEXPAVNeuron@@0@Z
	mov	eax, DWORD PTR fs:0
	push	eax
	sub	esp, 20					; 00000014H
	mov	eax, -858993460				; ccccccccH
	mov	DWORD PTR [ebp-32], eax
	mov	DWORD PTR [ebp-28], eax
	mov	DWORD PTR [ebp-24], eax
	mov	DWORD PTR [ebp-20], eax
	mov	DWORD PTR [ebp-16], eax
	mov	eax, DWORD PTR ___security_cookie
	xor	eax, ebp
	push	eax
	lea	eax, DWORD PTR __$EHRec$[ebp]
	mov	DWORD PTR fs:0, eax
	mov	DWORD PTR _this$[ebp], ecx

; 2028 : 		_Lockit _Lock(_LOCK_DEBUG);

	push	3
	lea	ecx, DWORD PTR __Lock$[ebp]
	call	??0_Lockit@std@@QAE@H@Z			; std::_Lockit::_Lockit
	mov	DWORD PTR __$EHRec$[ebp+8], 0

; 2029 : 
; 2030 : 		const_iterator ** _Pnext = reinterpret_cast<const_iterator **>(this->_Getpfirst());

	mov	ecx, DWORD PTR _this$[ebp]
	call	?_Getpfirst@?$_Vector_alloc@U?$_Vec_base_types@VNeuron@@V?$allocator@VNeuron@@@std@@@std@@@std@@QBEPAPAU_Iterator_base12@2@XZ ; std::_Vector_alloc<std::_Vec_base_types<Neuron,std::allocator<Neuron> > >::_Getpfirst
	mov	DWORD PTR __Pnext$[ebp], eax

; 2031 : 
; 2032 : 		if (_Pnext)

	cmp	DWORD PTR __Pnext$[ebp], 0
	je	SHORT $LN4@Orphan_ran
$LN2@Orphan_ran:

; 2033 : 			{
; 2034 : 			while (*_Pnext)

	mov	eax, DWORD PTR __Pnext$[ebp]
	cmp	DWORD PTR [eax], 0
	je	SHORT $LN4@Orphan_ran

; 2035 : 				{
; 2036 : 				if ((*_Pnext)->_Ptr < _First || _Last < (*_Pnext)->_Ptr)

	mov	ecx, DWORD PTR __Pnext$[ebp]
	mov	edx, DWORD PTR [ecx]
	mov	eax, DWORD PTR [edx+8]
	cmp	eax, DWORD PTR __First$[ebp]
	jb	SHORT $LN7@Orphan_ran
	mov	ecx, DWORD PTR __Pnext$[ebp]
	mov	edx, DWORD PTR [ecx]
	mov	eax, DWORD PTR __Last$[ebp]
	cmp	eax, DWORD PTR [edx+8]
	jae	SHORT $LN5@Orphan_ran
$LN7@Orphan_ran:

; 2037 : 					{	// skip the iterator
; 2038 : 					_Pnext = reinterpret_cast<const_iterator **>((*_Pnext)->_Getpnext());

	mov	ecx, DWORD PTR __Pnext$[ebp]
	mov	ecx, DWORD PTR [ecx]
	call	?_Getpnext@_Iterator_base12@std@@QAEPAPAU12@XZ ; std::_Iterator_base12::_Getpnext
	mov	DWORD PTR __Pnext$[ebp], eax

; 2039 : 					}
; 2040 : 				else

	jmp	SHORT $LN6@Orphan_ran
$LN5@Orphan_ran:

; 2041 : 					{	// orphan the iterator
; 2042 : 					(*_Pnext)->_Clrcont();

	mov	edx, DWORD PTR __Pnext$[ebp]
	mov	ecx, DWORD PTR [edx]
	call	?_Clrcont@_Iterator_base12@std@@QAEXXZ	; std::_Iterator_base12::_Clrcont

; 2043 : 					*_Pnext = *reinterpret_cast<const_iterator **>((*_Pnext)->_Getpnext());

	mov	eax, DWORD PTR __Pnext$[ebp]
	mov	ecx, DWORD PTR [eax]
	call	?_Getpnext@_Iterator_base12@std@@QAEPAPAU12@XZ ; std::_Iterator_base12::_Getpnext
	mov	ecx, DWORD PTR __Pnext$[ebp]
	mov	edx, DWORD PTR [eax]
	mov	DWORD PTR [ecx], edx
$LN6@Orphan_ran:

; 2044 : 					}
; 2045 : 				}

	jmp	SHORT $LN2@Orphan_ran
$LN4@Orphan_ran:

; 2046 : 			}
; 2047 : 		}

	mov	DWORD PTR __$EHRec$[ebp+8], -1
	lea	ecx, DWORD PTR __Lock$[ebp]
	call	??1_Lockit@std@@QAE@XZ			; std::_Lockit::~_Lockit
	push	edx
	mov	ecx, ebp
	push	eax
	lea	edx, DWORD PTR $LN13@Orphan_ran
	call	@_RTC_CheckStackVars@8
	pop	eax
	pop	edx
	mov	ecx, DWORD PTR __$EHRec$[ebp]
	mov	DWORD PTR fs:0, ecx
	pop	ecx
	add	esp, 32					; 00000020H
	cmp	ebp, esp
	call	__RTC_CheckEsp
	mov	esp, ebp
	pop	ebp
	ret	8
	npad	1
$LN13@Orphan_ran:
	DD	1
	DD	$LN12@Orphan_ran
$LN12@Orphan_ran:
	DD	-24					; ffffffe8H
	DD	4
	DD	$LN10@Orphan_ran
$LN10@Orphan_ran:
	DB	95					; 0000005fH
	DB	76					; 0000004cH
	DB	111					; 0000006fH
	DB	99					; 00000063H
	DB	107					; 0000006bH
	DB	0
_TEXT	ENDS
;	COMDAT text$x
text$x	SEGMENT
__unwindfunclet$?_Orphan_range@?$vector@VNeuron@@V?$allocator@VNeuron@@@std@@@std@@ABEXPAVNeuron@@0@Z$0:
	lea	ecx, DWORD PTR __Lock$[ebp]
	jmp	??1_Lockit@std@@QAE@XZ			; std::_Lockit::~_Lockit
__ehhandler$?_Orphan_range@?$vector@VNeuron@@V?$allocator@VNeuron@@@std@@@std@@ABEXPAVNeuron@@0@Z:
	mov	edx, DWORD PTR [esp+8]
	lea	eax, DWORD PTR [edx+12]
	mov	ecx, DWORD PTR [edx-24]
	xor	ecx, eax
	call	@__security_check_cookie@4
	mov	eax, OFFSET __ehfuncinfo$?_Orphan_range@?$vector@VNeuron@@V?$allocator@VNeuron@@@std@@@std@@ABEXPAVNeuron@@0@Z
	jmp	___CxxFrameHandler3
text$x	ENDS
?_Orphan_range@?$vector@VNeuron@@V?$allocator@VNeuron@@@std@@@std@@ABEXPAVNeuron@@0@Z ENDP ; std::vector<Neuron,std::allocator<Neuron> >::_Orphan_range
; Function compile flags: /Odtp /RTCsu
; File c:\program files (x86)\microsoft visual studio\2017\community\vc\tools\msvc\14.11.25503\include\vector
;	COMDAT ?_Xlength@?$vector@VNeuron@@V?$allocator@VNeuron@@@std@@@std@@CAXXZ
_TEXT	SEGMENT
?_Xlength@?$vector@VNeuron@@V?$allocator@VNeuron@@@std@@@std@@CAXXZ PROC ; std::vector<Neuron,std::allocator<Neuron> >::_Xlength, COMDAT

; 2016 : 		{	// report a length_error

	push	ebp
	mov	ebp, esp

; 2017 : 		_Xlength_error("vector<T> too long");

	push	OFFSET ??_C@_0BD@OLBABOEK@vector?$DMT?$DO?5too?5long?$AA@
	call	?_Xlength_error@std@@YAXPBD@Z		; std::_Xlength_error
$LN2@Xlength:

; 2018 : 		}

	cmp	ebp, esp
	call	__RTC_CheckEsp
	pop	ebp
	ret	0
?_Xlength@?$vector@VNeuron@@V?$allocator@VNeuron@@@std@@@std@@CAXXZ ENDP ; std::vector<Neuron,std::allocator<Neuron> >::_Xlength
_TEXT	ENDS
; Function compile flags: /Odtp /RTCsu
; File c:\program files (x86)\microsoft visual studio\2017\community\vc\tools\msvc\14.11.25503\include\vector
;	COMDAT ?_Tidy@?$vector@VNeuron@@V?$allocator@VNeuron@@@std@@@std@@AAEXXZ
_TEXT	SEGMENT
_this$ = -4						; size = 4
?_Tidy@?$vector@VNeuron@@V?$allocator@VNeuron@@@std@@@std@@AAEXXZ PROC ; std::vector<Neuron,std::allocator<Neuron> >::_Tidy, COMDAT
; _this$ = ecx

; 2001 : 		{	// free all storage

	push	ebp
	mov	ebp, esp
	push	ecx
	mov	DWORD PTR [ebp-4], -858993460		; ccccccccH
	mov	DWORD PTR _this$[ebp], ecx

; 2002 : 		this->_Orphan_all();

	mov	ecx, DWORD PTR _this$[ebp]
	call	?_Orphan_all@?$_Vector_alloc@U?$_Vec_base_types@VNeuron@@V?$allocator@VNeuron@@@std@@@std@@@std@@QAEXXZ ; std::_Vector_alloc<std::_Vec_base_types<Neuron,std::allocator<Neuron> > >::_Orphan_all

; 2003 : 
; 2004 : 		if (this->_Myfirst() != pointer())

	mov	ecx, DWORD PTR _this$[ebp]
	call	?_Myfirst@?$_Vector_alloc@U?$_Vec_base_types@VNeuron@@V?$allocator@VNeuron@@@std@@@std@@@std@@QAEAAPAVNeuron@@XZ ; std::_Vector_alloc<std::_Vec_base_types<Neuron,std::allocator<Neuron> > >::_Myfirst
	cmp	DWORD PTR [eax], 0
	je	SHORT $LN1@Tidy

; 2005 : 			{	// destroy and deallocate old array
; 2006 : 			_Destroy(this->_Myfirst(), this->_Mylast());

	mov	ecx, DWORD PTR _this$[ebp]
	call	?_Mylast@?$_Vector_alloc@U?$_Vec_base_types@VNeuron@@V?$allocator@VNeuron@@@std@@@std@@@std@@QAEAAPAVNeuron@@XZ ; std::_Vector_alloc<std::_Vec_base_types<Neuron,std::allocator<Neuron> > >::_Mylast
	mov	eax, DWORD PTR [eax]
	push	eax
	mov	ecx, DWORD PTR _this$[ebp]
	call	?_Myfirst@?$_Vector_alloc@U?$_Vec_base_types@VNeuron@@V?$allocator@VNeuron@@@std@@@std@@@std@@QAEAAPAVNeuron@@XZ ; std::_Vector_alloc<std::_Vec_base_types<Neuron,std::allocator<Neuron> > >::_Myfirst
	mov	ecx, DWORD PTR [eax]
	push	ecx
	mov	ecx, DWORD PTR _this$[ebp]
	call	?_Destroy@?$vector@VNeuron@@V?$allocator@VNeuron@@@std@@@std@@AAEXPAVNeuron@@0@Z ; std::vector<Neuron,std::allocator<Neuron> >::_Destroy

; 2007 : 			this->_Getal().deallocate(this->_Myfirst(), capacity());

	mov	ecx, DWORD PTR _this$[ebp]
	call	?capacity@?$vector@VNeuron@@V?$allocator@VNeuron@@@std@@@std@@QBEIXZ ; std::vector<Neuron,std::allocator<Neuron> >::capacity
	push	eax
	mov	ecx, DWORD PTR _this$[ebp]
	call	?_Myfirst@?$_Vector_alloc@U?$_Vec_base_types@VNeuron@@V?$allocator@VNeuron@@@std@@@std@@@std@@QAEAAPAVNeuron@@XZ ; std::_Vector_alloc<std::_Vec_base_types<Neuron,std::allocator<Neuron> > >::_Myfirst
	mov	edx, DWORD PTR [eax]
	push	edx
	mov	ecx, DWORD PTR _this$[ebp]
	call	?_Getal@?$_Vector_alloc@U?$_Vec_base_types@VNeuron@@V?$allocator@VNeuron@@@std@@@std@@@std@@QAEAAV?$allocator@VNeuron@@@2@XZ ; std::_Vector_alloc<std::_Vec_base_types<Neuron,std::allocator<Neuron> > >::_Getal
	mov	ecx, eax
	call	?deallocate@?$allocator@VNeuron@@@std@@QAEXQAVNeuron@@I@Z ; std::allocator<Neuron>::deallocate

; 2008 : 
; 2009 : 			this->_Myfirst() = pointer();

	mov	ecx, DWORD PTR _this$[ebp]
	call	?_Myfirst@?$_Vector_alloc@U?$_Vec_base_types@VNeuron@@V?$allocator@VNeuron@@@std@@@std@@@std@@QAEAAPAVNeuron@@XZ ; std::_Vector_alloc<std::_Vec_base_types<Neuron,std::allocator<Neuron> > >::_Myfirst
	mov	DWORD PTR [eax], 0

; 2010 : 			this->_Mylast() = pointer();

	mov	ecx, DWORD PTR _this$[ebp]
	call	?_Mylast@?$_Vector_alloc@U?$_Vec_base_types@VNeuron@@V?$allocator@VNeuron@@@std@@@std@@@std@@QAEAAPAVNeuron@@XZ ; std::_Vector_alloc<std::_Vec_base_types<Neuron,std::allocator<Neuron> > >::_Mylast
	mov	DWORD PTR [eax], 0

; 2011 : 			this->_Myend() = pointer();

	mov	ecx, DWORD PTR _this$[ebp]
	call	?_Myend@?$_Vector_alloc@U?$_Vec_base_types@VNeuron@@V?$allocator@VNeuron@@@std@@@std@@@std@@QAEAAPAVNeuron@@XZ ; std::_Vector_alloc<std::_Vec_base_types<Neuron,std::allocator<Neuron> > >::_Myend
	mov	DWORD PTR [eax], 0
$LN1@Tidy:

; 2012 : 			}
; 2013 : 		}

	add	esp, 4
	cmp	ebp, esp
	call	__RTC_CheckEsp
	mov	esp, ebp
	pop	ebp
	ret	0
?_Tidy@?$vector@VNeuron@@V?$allocator@VNeuron@@@std@@@std@@AAEXXZ ENDP ; std::vector<Neuron,std::allocator<Neuron> >::_Tidy
_TEXT	ENDS
; Function compile flags: /Odtp /RTCsu
; File c:\program files (x86)\microsoft visual studio\2017\community\vc\tools\msvc\14.11.25503\include\vector
;	COMDAT ?_Change_array@?$vector@VNeuron@@V?$allocator@VNeuron@@@std@@@std@@AAEXQAVNeuron@@II@Z
_TEXT	SEGMENT
_this$ = -4						; size = 4
__Newvec$ = 8						; size = 4
__Newsize$ = 12						; size = 4
__Newcapacity$ = 16					; size = 4
?_Change_array@?$vector@VNeuron@@V?$allocator@VNeuron@@@std@@@std@@AAEXQAVNeuron@@II@Z PROC ; std::vector<Neuron,std::allocator<Neuron> >::_Change_array, COMDAT
; _this$ = ecx

; 1986 : 		{	// orphan all iterators, discard old array, acquire new array

	push	ebp
	mov	ebp, esp
	push	ecx
	push	esi
	mov	DWORD PTR [ebp-4], -858993460		; ccccccccH
	mov	DWORD PTR _this$[ebp], ecx

; 1987 : 		this->_Orphan_all();

	mov	ecx, DWORD PTR _this$[ebp]
	call	?_Orphan_all@?$_Vector_alloc@U?$_Vec_base_types@VNeuron@@V?$allocator@VNeuron@@@std@@@std@@@std@@QAEXXZ ; std::_Vector_alloc<std::_Vec_base_types<Neuron,std::allocator<Neuron> > >::_Orphan_all

; 1988 : 
; 1989 : 		if (this->_Myfirst() != pointer())

	mov	ecx, DWORD PTR _this$[ebp]
	call	?_Myfirst@?$_Vector_alloc@U?$_Vec_base_types@VNeuron@@V?$allocator@VNeuron@@@std@@@std@@@std@@QAEAAPAVNeuron@@XZ ; std::_Vector_alloc<std::_Vec_base_types<Neuron,std::allocator<Neuron> > >::_Myfirst
	cmp	DWORD PTR [eax], 0
	je	SHORT $LN2@Change_arr

; 1990 : 			{	// destroy and deallocate old array
; 1991 : 			_Destroy(this->_Myfirst(), this->_Mylast());

	mov	ecx, DWORD PTR _this$[ebp]
	call	?_Mylast@?$_Vector_alloc@U?$_Vec_base_types@VNeuron@@V?$allocator@VNeuron@@@std@@@std@@@std@@QAEAAPAVNeuron@@XZ ; std::_Vector_alloc<std::_Vec_base_types<Neuron,std::allocator<Neuron> > >::_Mylast
	mov	eax, DWORD PTR [eax]
	push	eax
	mov	ecx, DWORD PTR _this$[ebp]
	call	?_Myfirst@?$_Vector_alloc@U?$_Vec_base_types@VNeuron@@V?$allocator@VNeuron@@@std@@@std@@@std@@QAEAAPAVNeuron@@XZ ; std::_Vector_alloc<std::_Vec_base_types<Neuron,std::allocator<Neuron> > >::_Myfirst
	mov	ecx, DWORD PTR [eax]
	push	ecx
	mov	ecx, DWORD PTR _this$[ebp]
	call	?_Destroy@?$vector@VNeuron@@V?$allocator@VNeuron@@@std@@@std@@AAEXPAVNeuron@@0@Z ; std::vector<Neuron,std::allocator<Neuron> >::_Destroy

; 1992 : 			this->_Getal().deallocate(this->_Myfirst(), capacity());

	mov	ecx, DWORD PTR _this$[ebp]
	call	?capacity@?$vector@VNeuron@@V?$allocator@VNeuron@@@std@@@std@@QBEIXZ ; std::vector<Neuron,std::allocator<Neuron> >::capacity
	push	eax
	mov	ecx, DWORD PTR _this$[ebp]
	call	?_Myfirst@?$_Vector_alloc@U?$_Vec_base_types@VNeuron@@V?$allocator@VNeuron@@@std@@@std@@@std@@QAEAAPAVNeuron@@XZ ; std::_Vector_alloc<std::_Vec_base_types<Neuron,std::allocator<Neuron> > >::_Myfirst
	mov	edx, DWORD PTR [eax]
	push	edx
	mov	ecx, DWORD PTR _this$[ebp]
	call	?_Getal@?$_Vector_alloc@U?$_Vec_base_types@VNeuron@@V?$allocator@VNeuron@@@std@@@std@@@std@@QAEAAV?$allocator@VNeuron@@@2@XZ ; std::_Vector_alloc<std::_Vec_base_types<Neuron,std::allocator<Neuron> > >::_Getal
	mov	ecx, eax
	call	?deallocate@?$allocator@VNeuron@@@std@@QAEXQAVNeuron@@I@Z ; std::allocator<Neuron>::deallocate
$LN2@Change_arr:

; 1993 : 			}
; 1994 : 
; 1995 : 		this->_Myfirst() = _Newvec;

	mov	ecx, DWORD PTR _this$[ebp]
	call	?_Myfirst@?$_Vector_alloc@U?$_Vec_base_types@VNeuron@@V?$allocator@VNeuron@@@std@@@std@@@std@@QAEAAPAVNeuron@@XZ ; std::_Vector_alloc<std::_Vec_base_types<Neuron,std::allocator<Neuron> > >::_Myfirst
	mov	ecx, DWORD PTR __Newvec$[ebp]
	mov	DWORD PTR [eax], ecx

; 1996 : 		this->_Mylast() = _Newvec + _Newsize;

	imul	esi, DWORD PTR __Newsize$[ebp], 40
	add	esi, DWORD PTR __Newvec$[ebp]
	mov	ecx, DWORD PTR _this$[ebp]
	call	?_Mylast@?$_Vector_alloc@U?$_Vec_base_types@VNeuron@@V?$allocator@VNeuron@@@std@@@std@@@std@@QAEAAPAVNeuron@@XZ ; std::_Vector_alloc<std::_Vec_base_types<Neuron,std::allocator<Neuron> > >::_Mylast
	mov	DWORD PTR [eax], esi

; 1997 : 		this->_Myend() = _Newvec + _Newcapacity;

	imul	esi, DWORD PTR __Newcapacity$[ebp], 40
	add	esi, DWORD PTR __Newvec$[ebp]
	mov	ecx, DWORD PTR _this$[ebp]
	call	?_Myend@?$_Vector_alloc@U?$_Vec_base_types@VNeuron@@V?$allocator@VNeuron@@@std@@@std@@@std@@QAEAAPAVNeuron@@XZ ; std::_Vector_alloc<std::_Vec_base_types<Neuron,std::allocator<Neuron> > >::_Myend
	mov	DWORD PTR [eax], esi

; 1998 : 		}

	pop	esi
	add	esp, 4
	cmp	ebp, esp
	call	__RTC_CheckEsp
	mov	esp, ebp
	pop	ebp
	ret	12					; 0000000cH
?_Change_array@?$vector@VNeuron@@V?$allocator@VNeuron@@@std@@@std@@AAEXQAVNeuron@@II@Z ENDP ; std::vector<Neuron,std::allocator<Neuron> >::_Change_array
_TEXT	ENDS
; Function compile flags: /Odtp /RTCsu
; File c:\program files (x86)\microsoft visual studio\2017\community\vc\tools\msvc\14.11.25503\include\vector
;	COMDAT ?_Calculate_growth@?$vector@VNeuron@@V?$allocator@VNeuron@@@std@@@std@@ABEII@Z
_TEXT	SEGMENT
__Geometric$ = -12					; size = 4
__Oldcapacity$ = -8					; size = 4
_this$ = -4						; size = 4
__Newsize$ = 8						; size = 4
?_Calculate_growth@?$vector@VNeuron@@V?$allocator@VNeuron@@@std@@@std@@ABEII@Z PROC ; std::vector<Neuron,std::allocator<Neuron> >::_Calculate_growth, COMDAT
; _this$ = ecx

; 1944 : 		{	// given _Oldcapacity and _Newsize, calculate geometric growth

	push	ebp
	mov	ebp, esp
	sub	esp, 12					; 0000000cH
	mov	DWORD PTR [ebp-12], -858993460		; ccccccccH
	mov	DWORD PTR [ebp-8], -858993460		; ccccccccH
	mov	DWORD PTR [ebp-4], -858993460		; ccccccccH
	mov	DWORD PTR _this$[ebp], ecx

; 1945 : 		const size_type _Oldcapacity = capacity();

	mov	ecx, DWORD PTR _this$[ebp]
	call	?capacity@?$vector@VNeuron@@V?$allocator@VNeuron@@@std@@@std@@QBEIXZ ; std::vector<Neuron,std::allocator<Neuron> >::capacity
	mov	DWORD PTR __Oldcapacity$[ebp], eax

; 1946 : 
; 1947 : 		if (_Oldcapacity > max_size() - _Oldcapacity / 2)

	mov	ecx, DWORD PTR _this$[ebp]
	call	?max_size@?$vector@VNeuron@@V?$allocator@VNeuron@@@std@@@std@@QBEIXZ ; std::vector<Neuron,std::allocator<Neuron> >::max_size
	mov	ecx, DWORD PTR __Oldcapacity$[ebp]
	shr	ecx, 1
	sub	eax, ecx
	cmp	DWORD PTR __Oldcapacity$[ebp], eax
	jbe	SHORT $LN2@Calculate_

; 1948 : 			{
; 1949 : 			return (_Newsize);	// geometric growth would overflow

	mov	eax, DWORD PTR __Newsize$[ebp]
	jmp	SHORT $LN1@Calculate_
$LN2@Calculate_:

; 1950 : 			}
; 1951 : 
; 1952 : 		const size_type _Geometric = _Oldcapacity + _Oldcapacity / 2;

	mov	edx, DWORD PTR __Oldcapacity$[ebp]
	shr	edx, 1
	add	edx, DWORD PTR __Oldcapacity$[ebp]
	mov	DWORD PTR __Geometric$[ebp], edx

; 1953 : 
; 1954 : 		if (_Geometric < _Newsize)

	mov	eax, DWORD PTR __Geometric$[ebp]
	cmp	eax, DWORD PTR __Newsize$[ebp]
	jae	SHORT $LN3@Calculate_

; 1955 : 			{
; 1956 : 			return (_Newsize);	// geometric growth would be insufficient

	mov	eax, DWORD PTR __Newsize$[ebp]
	jmp	SHORT $LN1@Calculate_
$LN3@Calculate_:

; 1957 : 			}
; 1958 : 
; 1959 : 		return (_Geometric);	// geometric growth is sufficient

	mov	eax, DWORD PTR __Geometric$[ebp]
$LN1@Calculate_:

; 1960 : 		}

	add	esp, 12					; 0000000cH
	cmp	ebp, esp
	call	__RTC_CheckEsp
	mov	esp, ebp
	pop	ebp
	ret	4
?_Calculate_growth@?$vector@VNeuron@@V?$allocator@VNeuron@@@std@@@std@@ABEII@Z ENDP ; std::vector<Neuron,std::allocator<Neuron> >::_Calculate_growth
_TEXT	ENDS
; Function compile flags: /Odtp /RTCsu
; File c:\program files (x86)\microsoft visual studio\2017\community\vc\tools\msvc\14.11.25503\include\vector
;	COMDAT ?_Destroy@?$vector@VNeuron@@V?$allocator@VNeuron@@@std@@@std@@AAEXPAVNeuron@@0@Z
_TEXT	SEGMENT
_this$ = -4						; size = 4
__First$ = 8						; size = 4
__Last$ = 12						; size = 4
?_Destroy@?$vector@VNeuron@@V?$allocator@VNeuron@@@std@@@std@@AAEXPAVNeuron@@0@Z PROC ; std::vector<Neuron,std::allocator<Neuron> >::_Destroy, COMDAT
; _this$ = ecx

; 1939 : 		{	// destroy [_First, _Last) using allocator

	push	ebp
	mov	ebp, esp
	push	ecx
	mov	DWORD PTR [ebp-4], -858993460		; ccccccccH
	mov	DWORD PTR _this$[ebp], ecx

; 1940 : 		_Destroy_range(_First, _Last, this->_Getal());

	mov	ecx, DWORD PTR _this$[ebp]
	call	?_Getal@?$_Vector_alloc@U?$_Vec_base_types@VNeuron@@V?$allocator@VNeuron@@@std@@@std@@@std@@QAEAAV?$allocator@VNeuron@@@2@XZ ; std::_Vector_alloc<std::_Vec_base_types<Neuron,std::allocator<Neuron> > >::_Getal
	push	eax
	mov	eax, DWORD PTR __Last$[ebp]
	push	eax
	mov	ecx, DWORD PTR __First$[ebp]
	push	ecx
	call	??$_Destroy_range@V?$allocator@VNeuron@@@std@@@std@@YAXPAVNeuron@@0AAV?$allocator@VNeuron@@@0@@Z ; std::_Destroy_range<std::allocator<Neuron> >
	add	esp, 12					; 0000000cH

; 1941 : 		}

	add	esp, 4
	cmp	ebp, esp
	call	__RTC_CheckEsp
	mov	esp, ebp
	pop	ebp
	ret	8
?_Destroy@?$vector@VNeuron@@V?$allocator@VNeuron@@@std@@@std@@AAEXPAVNeuron@@0@Z ENDP ; std::vector<Neuron,std::allocator<Neuron> >::_Destroy
_TEXT	ENDS
; Function compile flags: /Odtp /RTCsu
; File c:\program files (x86)\microsoft visual studio\2017\community\vc\tools\msvc\14.11.25503\include\vector
;	COMDAT ?_Umove_if_noexcept@?$vector@VNeuron@@V?$allocator@VNeuron@@@std@@@std@@AAEXPAVNeuron@@00@Z
_TEXT	SEGMENT
$T1 = -5						; size = 1
_this$ = -4						; size = 4
__First$ = 8						; size = 4
__Last$ = 12						; size = 4
__Dest$ = 16						; size = 4
?_Umove_if_noexcept@?$vector@VNeuron@@V?$allocator@VNeuron@@@std@@@std@@AAEXPAVNeuron@@00@Z PROC ; std::vector<Neuron,std::allocator<Neuron> >::_Umove_if_noexcept, COMDAT
; _this$ = ecx

; 1933 : 		{	// move_if_noexcept [_First, _Last) to raw _Dest, using allocator

	push	ebp
	mov	ebp, esp
	sub	esp, 8
	mov	DWORD PTR [ebp-8], -858993460		; ccccccccH
	mov	DWORD PTR [ebp-4], -858993460		; ccccccccH
	mov	DWORD PTR _this$[ebp], ecx

; 1934 : 		_Umove_if_noexcept1(_First, _Last, _Dest,

	xor	eax, eax
	mov	BYTE PTR $T1[ebp], al
	movzx	ecx, BYTE PTR $T1[ebp]
	push	ecx
	mov	edx, DWORD PTR __Dest$[ebp]
	push	edx
	mov	eax, DWORD PTR __Last$[ebp]
	push	eax
	mov	ecx, DWORD PTR __First$[ebp]
	push	ecx
	mov	ecx, DWORD PTR _this$[ebp]
	call	?_Umove_if_noexcept1@?$vector@VNeuron@@V?$allocator@VNeuron@@@std@@@std@@AAEXPAVNeuron@@00U?$integral_constant@_N$0A@@2@@Z ; std::vector<Neuron,std::allocator<Neuron> >::_Umove_if_noexcept1

; 1935 : 			_Disjunction_t<is_nothrow_move_constructible<_Ty>, negation<is_copy_constructible<_Ty>>>{});
; 1936 : 		}

	add	esp, 8
	cmp	ebp, esp
	call	__RTC_CheckEsp
	mov	esp, ebp
	pop	ebp
	ret	12					; 0000000cH
?_Umove_if_noexcept@?$vector@VNeuron@@V?$allocator@VNeuron@@@std@@@std@@AAEXPAVNeuron@@00@Z ENDP ; std::vector<Neuron,std::allocator<Neuron> >::_Umove_if_noexcept
_TEXT	ENDS
; Function compile flags: /Odtp /RTCsu
; File c:\program files (x86)\microsoft visual studio\2017\community\vc\tools\msvc\14.11.25503\include\vector
;	COMDAT ?_Umove_if_noexcept1@?$vector@VNeuron@@V?$allocator@VNeuron@@@std@@@std@@AAEXPAVNeuron@@00U?$integral_constant@_N$0A@@2@@Z
_TEXT	SEGMENT
_this$ = -4						; size = 4
__First$ = 8						; size = 4
__Last$ = 12						; size = 4
__Dest$ = 16						; size = 4
___formal$ = 20						; size = 1
?_Umove_if_noexcept1@?$vector@VNeuron@@V?$allocator@VNeuron@@@std@@@std@@AAEXPAVNeuron@@00U?$integral_constant@_N$0A@@2@@Z PROC ; std::vector<Neuron,std::allocator<Neuron> >::_Umove_if_noexcept1, COMDAT
; _this$ = ecx

; 1928 : 		{	// copy [_First, _Last) to raw _Dest, using allocator

	push	ebp
	mov	ebp, esp
	push	ecx
	mov	DWORD PTR [ebp-4], -858993460		; ccccccccH
	mov	DWORD PTR _this$[ebp], ecx

; 1929 : 		_Uninitialized_copy(_First, _Last, _Dest, this->_Getal());

	mov	ecx, DWORD PTR _this$[ebp]
	call	?_Getal@?$_Vector_alloc@U?$_Vec_base_types@VNeuron@@V?$allocator@VNeuron@@@std@@@std@@@std@@QAEAAV?$allocator@VNeuron@@@2@XZ ; std::_Vector_alloc<std::_Vec_base_types<Neuron,std::allocator<Neuron> > >::_Getal
	push	eax
	mov	eax, DWORD PTR __Dest$[ebp]
	push	eax
	mov	ecx, DWORD PTR __Last$[ebp]
	push	ecx
	mov	edx, DWORD PTR __First$[ebp]
	push	edx
	call	??$_Uninitialized_copy@PAVNeuron@@PAV1@V?$allocator@VNeuron@@@std@@@std@@YAPAVNeuron@@PAV1@00AAV?$allocator@VNeuron@@@0@@Z ; std::_Uninitialized_copy<Neuron *,Neuron *,std::allocator<Neuron> >
	add	esp, 16					; 00000010H

; 1930 : 		}

	add	esp, 4
	cmp	ebp, esp
	call	__RTC_CheckEsp
	mov	esp, ebp
	pop	ebp
	ret	16					; 00000010H
?_Umove_if_noexcept1@?$vector@VNeuron@@V?$allocator@VNeuron@@@std@@@std@@AAEXPAVNeuron@@00U?$integral_constant@_N$0A@@2@@Z ENDP ; std::vector<Neuron,std::allocator<Neuron> >::_Umove_if_noexcept1
_TEXT	ENDS
; Function compile flags: /Odtp /RTCsu
; File c:\program files (x86)\microsoft visual studio\2017\community\vc\tools\msvc\14.11.25503\include\vector
;	COMDAT ?back@?$vector@VNeuron@@V?$allocator@VNeuron@@@std@@@std@@QAEAAVNeuron@@XZ
_TEXT	SEGMENT
_this$ = -4						; size = 4
?back@?$vector@VNeuron@@V?$allocator@VNeuron@@@std@@@std@@QAEAAVNeuron@@XZ PROC ; std::vector<Neuron,std::allocator<Neuron> >::back, COMDAT
; _this$ = ecx

; 1868 : 		{	// return last element of mutable sequence

	push	ebp
	mov	ebp, esp
	push	ecx
	mov	DWORD PTR [ebp-4], -858993460		; ccccccccH
	mov	DWORD PTR _this$[ebp], ecx

; 1869 :  #if _ITERATOR_DEBUG_LEVEL == 2
; 1870 : 		if (empty())

	mov	ecx, DWORD PTR _this$[ebp]
	call	?empty@?$vector@VNeuron@@V?$allocator@VNeuron@@@std@@@std@@QBE_NXZ ; std::vector<Neuron,std::allocator<Neuron> >::empty
	movzx	eax, al
	test	eax, eax
	je	SHORT $LN2@back

; 1871 : 			{	// report error
; 1872 : 			_DEBUG_ERROR("back() called on empty vector");

	push	1872					; 00000750H
	push	OFFSET ??_C@_1MO@PKCMDADL@?$AAC?$AA?3?$AA?2?$AAP?$AAr?$AAo?$AAg?$AAr?$AAa?$AAm?$AA?5?$AAF?$AAi?$AAl?$AAe?$AAs?$AA?5?$AA?$CI?$AAx?$AA8?$AA6?$AA?$CJ?$AA?2?$AAM?$AAi?$AAc?$AAr?$AAo?$AAs?$AAo?$AAf?$AAt@
	push	OFFSET ??_C@_1DM@ONDPIFDL@?$AAb?$AAa?$AAc?$AAk?$AA?$CI?$AA?$CJ?$AA?5?$AAc?$AAa?$AAl?$AAl?$AAe?$AAd?$AA?5?$AAo?$AAn?$AA?5?$AAe?$AAm?$AAp?$AAt?$AAy?$AA?5?$AAv?$AAe?$AAc?$AAt?$AAo?$AAr?$AA?$AA@
	call	?_Debug_message@std@@YAXPB_W0I@Z	; std::_Debug_message
	add	esp, 12					; 0000000cH
	push	0
	push	1872					; 00000750H
	push	OFFSET ??_C@_1MO@PKCMDADL@?$AAC?$AA?3?$AA?2?$AAP?$AAr?$AAo?$AAg?$AAr?$AAa?$AAm?$AA?5?$AAF?$AAi?$AAl?$AAe?$AAs?$AA?5?$AA?$CI?$AAx?$AA8?$AA6?$AA?$CJ?$AA?2?$AAM?$AAi?$AAc?$AAr?$AAo?$AAs?$AAo?$AAf?$AAt@
	push	OFFSET ??_C@_1II@GDHAIEKJ@?$AAs?$AAt?$AAd?$AA?3?$AA?3?$AAv?$AAe?$AAc?$AAt?$AAo?$AAr?$AA?$DM?$AAc?$AAl?$AAa?$AAs?$AAs?$AA?5?$AAN?$AAe?$AAu?$AAr?$AAo?$AAn?$AA?0?$AAc?$AAl?$AAa?$AAs?$AAs?$AA?5?$AAs@
	push	OFFSET ??_C@_1EA@OBAHGFFK@?$AA?$CC?$AAb?$AAa?$AAc?$AAk?$AA?$CI?$AA?$CJ?$AA?5?$AAc?$AAa?$AAl?$AAl?$AAe?$AAd?$AA?5?$AAo?$AAn?$AA?5?$AAe?$AAm?$AAp?$AAt?$AAy?$AA?5?$AAv?$AAe?$AAc?$AAt?$AAo?$AAr?$AA?$CC?$AA?$AA@
	call	__invalid_parameter
	add	esp, 20					; 00000014H
$LN2@back:

; 1873 : 			}
; 1874 :  #elif _ITERATOR_DEBUG_LEVEL == 1
; 1875 : 		_SCL_SECURE_VALIDATE_RANGE(!empty());
; 1876 :  #endif /* _ITERATOR_DEBUG_LEVEL */
; 1877 : 
; 1878 : 		return (this->_Mylast()[-1]);

	mov	ecx, DWORD PTR _this$[ebp]
	call	?_Mylast@?$_Vector_alloc@U?$_Vec_base_types@VNeuron@@V?$allocator@VNeuron@@@std@@@std@@@std@@QAEAAPAVNeuron@@XZ ; std::_Vector_alloc<std::_Vec_base_types<Neuron,std::allocator<Neuron> > >::_Mylast
	mov	ecx, 40					; 00000028H
	imul	edx, ecx, -1
	add	edx, DWORD PTR [eax]
	mov	eax, edx

; 1879 : 		}

	add	esp, 4
	cmp	ebp, esp
	call	__RTC_CheckEsp
	mov	esp, ebp
	pop	ebp
	ret	0
?back@?$vector@VNeuron@@V?$allocator@VNeuron@@@std@@@std@@QAEAAVNeuron@@XZ ENDP ; std::vector<Neuron,std::allocator<Neuron> >::back
_TEXT	ENDS
; Function compile flags: /Odtp /RTCsu
; File c:\program files (x86)\microsoft visual studio\2017\community\vc\tools\msvc\14.11.25503\include\vector
;	COMDAT ??A?$vector@VNeuron@@V?$allocator@VNeuron@@@std@@@std@@QBEABVNeuron@@I@Z
_TEXT	SEGMENT
_this$ = -4						; size = 4
__Pos$ = 8						; size = 4
??A?$vector@VNeuron@@V?$allocator@VNeuron@@@std@@@std@@QBEABVNeuron@@I@Z PROC ; std::vector<Neuron,std::allocator<Neuron> >::operator[], COMDAT
; _this$ = ecx

; 1806 : 		{	// subscript nonmutable sequence

	push	ebp
	mov	ebp, esp
	push	ecx
	mov	DWORD PTR [ebp-4], -858993460		; ccccccccH
	mov	DWORD PTR _this$[ebp], ecx

; 1807 :  #if _ITERATOR_DEBUG_LEVEL == 2
; 1808 : 		if (size() <= _Pos)

	mov	ecx, DWORD PTR _this$[ebp]
	call	?size@?$vector@VNeuron@@V?$allocator@VNeuron@@@std@@@std@@QBEIXZ ; std::vector<Neuron,std::allocator<Neuron> >::size
	cmp	eax, DWORD PTR __Pos$[ebp]
	ja	SHORT $LN2@operator

; 1809 : 			{	// report error
; 1810 : 			_DEBUG_ERROR("vector subscript out of range");

	push	1810					; 00000712H
	push	OFFSET ??_C@_1MO@PKCMDADL@?$AAC?$AA?3?$AA?2?$AAP?$AAr?$AAo?$AAg?$AAr?$AAa?$AAm?$AA?5?$AAF?$AAi?$AAl?$AAe?$AAs?$AA?5?$AA?$CI?$AAx?$AA8?$AA6?$AA?$CJ?$AA?2?$AAM?$AAi?$AAc?$AAr?$AAo?$AAs?$AAo?$AAf?$AAt@
	push	OFFSET ??_C@_1DM@LHGCHCBA@?$AAv?$AAe?$AAc?$AAt?$AAo?$AAr?$AA?5?$AAs?$AAu?$AAb?$AAs?$AAc?$AAr?$AAi?$AAp?$AAt?$AA?5?$AAo?$AAu?$AAt?$AA?5?$AAo?$AAf?$AA?5?$AAr?$AAa?$AAn?$AAg?$AAe?$AA?$AA@
	call	?_Debug_message@std@@YAXPB_W0I@Z	; std::_Debug_message
	add	esp, 12					; 0000000cH
	push	0
	push	1810					; 00000712H
	push	OFFSET ??_C@_1MO@PKCMDADL@?$AAC?$AA?3?$AA?2?$AAP?$AAr?$AAo?$AAg?$AAr?$AAa?$AAm?$AA?5?$AAF?$AAi?$AAl?$AAe?$AAs?$AA?5?$AA?$CI?$AAx?$AA8?$AA6?$AA?$CJ?$AA?2?$AAM?$AAi?$AAc?$AAr?$AAo?$AAs?$AAo?$AAf?$AAt@
	push	OFFSET ??_C@_1JG@NBFEKNNI@?$AAs?$AAt?$AAd?$AA?3?$AA?3?$AAv?$AAe?$AAc?$AAt?$AAo?$AAr?$AA?$DM?$AAc?$AAl?$AAa?$AAs?$AAs?$AA?5?$AAN?$AAe?$AAu?$AAr?$AAo?$AAn?$AA?0?$AAc?$AAl?$AAa?$AAs?$AAs?$AA?5?$AAs@
	push	OFFSET ??_C@_1EA@LEKOKFNB@?$AA?$CC?$AAv?$AAe?$AAc?$AAt?$AAo?$AAr?$AA?5?$AAs?$AAu?$AAb?$AAs?$AAc?$AAr?$AAi?$AAp?$AAt?$AA?5?$AAo?$AAu?$AAt?$AA?5?$AAo?$AAf?$AA?5?$AAr?$AAa?$AAn?$AAg?$AAe?$AA?$CC?$AA?$AA@
	call	__invalid_parameter
	add	esp, 20					; 00000014H
$LN2@operator:

; 1811 : 			}
; 1812 :  #elif _ITERATOR_DEBUG_LEVEL == 1
; 1813 : 		_SCL_SECURE_VALIDATE_RANGE(_Pos < size());
; 1814 :  #endif /* _ITERATOR_DEBUG_LEVEL */
; 1815 : 
; 1816 : 		return (this->_Myfirst()[_Pos]);

	mov	ecx, DWORD PTR _this$[ebp]
	call	?_Myfirst@?$_Vector_alloc@U?$_Vec_base_types@VNeuron@@V?$allocator@VNeuron@@@std@@@std@@@std@@QBEABQAVNeuron@@XZ ; std::_Vector_alloc<std::_Vec_base_types<Neuron,std::allocator<Neuron> > >::_Myfirst
	imul	ecx, DWORD PTR __Pos$[ebp], 40
	add	ecx, DWORD PTR [eax]
	mov	eax, ecx

; 1817 : 		}

	add	esp, 4
	cmp	ebp, esp
	call	__RTC_CheckEsp
	mov	esp, ebp
	pop	ebp
	ret	4
??A?$vector@VNeuron@@V?$allocator@VNeuron@@@std@@@std@@QBEABVNeuron@@I@Z ENDP ; std::vector<Neuron,std::allocator<Neuron> >::operator[]
_TEXT	ENDS
; Function compile flags: /Odtp /RTCsu
; File c:\program files (x86)\microsoft visual studio\2017\community\vc\tools\msvc\14.11.25503\include\vector
;	COMDAT ??A?$vector@VNeuron@@V?$allocator@VNeuron@@@std@@@std@@QAEAAVNeuron@@I@Z
_TEXT	SEGMENT
_this$ = -4						; size = 4
__Pos$ = 8						; size = 4
??A?$vector@VNeuron@@V?$allocator@VNeuron@@@std@@@std@@QAEAAVNeuron@@I@Z PROC ; std::vector<Neuron,std::allocator<Neuron> >::operator[], COMDAT
; _this$ = ecx

; 1792 : 		{	// subscript mutable sequence

	push	ebp
	mov	ebp, esp
	push	ecx
	mov	DWORD PTR [ebp-4], -858993460		; ccccccccH
	mov	DWORD PTR _this$[ebp], ecx

; 1793 :  #if _ITERATOR_DEBUG_LEVEL == 2
; 1794 : 		if (size() <= _Pos)

	mov	ecx, DWORD PTR _this$[ebp]
	call	?size@?$vector@VNeuron@@V?$allocator@VNeuron@@@std@@@std@@QBEIXZ ; std::vector<Neuron,std::allocator<Neuron> >::size
	cmp	eax, DWORD PTR __Pos$[ebp]
	ja	SHORT $LN2@operator

; 1795 : 			{	// report error
; 1796 : 			_DEBUG_ERROR("vector subscript out of range");

	push	1796					; 00000704H
	push	OFFSET ??_C@_1MO@PKCMDADL@?$AAC?$AA?3?$AA?2?$AAP?$AAr?$AAo?$AAg?$AAr?$AAa?$AAm?$AA?5?$AAF?$AAi?$AAl?$AAe?$AAs?$AA?5?$AA?$CI?$AAx?$AA8?$AA6?$AA?$CJ?$AA?2?$AAM?$AAi?$AAc?$AAr?$AAo?$AAs?$AAo?$AAf?$AAt@
	push	OFFSET ??_C@_1DM@LHGCHCBA@?$AAv?$AAe?$AAc?$AAt?$AAo?$AAr?$AA?5?$AAs?$AAu?$AAb?$AAs?$AAc?$AAr?$AAi?$AAp?$AAt?$AA?5?$AAo?$AAu?$AAt?$AA?5?$AAo?$AAf?$AA?5?$AAr?$AAa?$AAn?$AAg?$AAe?$AA?$AA@
	call	?_Debug_message@std@@YAXPB_W0I@Z	; std::_Debug_message
	add	esp, 12					; 0000000cH
	push	0
	push	1796					; 00000704H
	push	OFFSET ??_C@_1MO@PKCMDADL@?$AAC?$AA?3?$AA?2?$AAP?$AAr?$AAo?$AAg?$AAr?$AAa?$AAm?$AA?5?$AAF?$AAi?$AAl?$AAe?$AAs?$AA?5?$AA?$CI?$AAx?$AA8?$AA6?$AA?$CJ?$AA?2?$AAM?$AAi?$AAc?$AAr?$AAo?$AAs?$AAo?$AAf?$AAt@
	push	OFFSET ??_C@_1JG@NBFEKNNI@?$AAs?$AAt?$AAd?$AA?3?$AA?3?$AAv?$AAe?$AAc?$AAt?$AAo?$AAr?$AA?$DM?$AAc?$AAl?$AAa?$AAs?$AAs?$AA?5?$AAN?$AAe?$AAu?$AAr?$AAo?$AAn?$AA?0?$AAc?$AAl?$AAa?$AAs?$AAs?$AA?5?$AAs@
	push	OFFSET ??_C@_1EA@LEKOKFNB@?$AA?$CC?$AAv?$AAe?$AAc?$AAt?$AAo?$AAr?$AA?5?$AAs?$AAu?$AAb?$AAs?$AAc?$AAr?$AAi?$AAp?$AAt?$AA?5?$AAo?$AAu?$AAt?$AA?5?$AAo?$AAf?$AA?5?$AAr?$AAa?$AAn?$AAg?$AAe?$AA?$CC?$AA?$AA@
	call	__invalid_parameter
	add	esp, 20					; 00000014H
$LN2@operator:

; 1797 : 			}
; 1798 :  #elif _ITERATOR_DEBUG_LEVEL == 1
; 1799 : 		_SCL_SECURE_VALIDATE_RANGE(_Pos < size());
; 1800 :  #endif /* _ITERATOR_DEBUG_LEVEL */
; 1801 : 
; 1802 : 		return (this->_Myfirst()[_Pos]);

	mov	ecx, DWORD PTR _this$[ebp]
	call	?_Myfirst@?$_Vector_alloc@U?$_Vec_base_types@VNeuron@@V?$allocator@VNeuron@@@std@@@std@@@std@@QAEAAPAVNeuron@@XZ ; std::_Vector_alloc<std::_Vec_base_types<Neuron,std::allocator<Neuron> > >::_Myfirst
	imul	ecx, DWORD PTR __Pos$[ebp], 40
	add	ecx, DWORD PTR [eax]
	mov	eax, ecx

; 1803 : 		}

	add	esp, 4
	cmp	ebp, esp
	call	__RTC_CheckEsp
	mov	esp, ebp
	pop	ebp
	ret	4
??A?$vector@VNeuron@@V?$allocator@VNeuron@@@std@@@std@@QAEAAVNeuron@@I@Z ENDP ; std::vector<Neuron,std::allocator<Neuron> >::operator[]
_TEXT	ENDS
; Function compile flags: /Odtp /RTCsu
; File c:\program files (x86)\microsoft visual studio\2017\community\vc\tools\msvc\14.11.25503\include\vector
;	COMDAT ?_Has_unused_capacity@?$vector@VNeuron@@V?$allocator@VNeuron@@@std@@@std@@ABE_NXZ
_TEXT	SEGMENT
tv77 = -8						; size = 4
_this$ = -4						; size = 4
?_Has_unused_capacity@?$vector@VNeuron@@V?$allocator@VNeuron@@@std@@@std@@ABE_NXZ PROC ; std::vector<Neuron,std::allocator<Neuron> >::_Has_unused_capacity, COMDAT
; _this$ = ecx

; 1786 : 		{	// micro-optimization for capacity() != size()

	push	ebp
	mov	ebp, esp
	sub	esp, 8
	push	esi
	mov	DWORD PTR [ebp-8], -858993460		; ccccccccH
	mov	DWORD PTR [ebp-4], -858993460		; ccccccccH
	mov	DWORD PTR _this$[ebp], ecx

; 1787 : 		return (this->_Myend() != this->_Mylast());

	mov	ecx, DWORD PTR _this$[ebp]
	call	?_Myend@?$_Vector_alloc@U?$_Vec_base_types@VNeuron@@V?$allocator@VNeuron@@@std@@@std@@@std@@QBEABQAVNeuron@@XZ ; std::_Vector_alloc<std::_Vec_base_types<Neuron,std::allocator<Neuron> > >::_Myend
	mov	esi, eax
	mov	ecx, DWORD PTR _this$[ebp]
	call	?_Mylast@?$_Vector_alloc@U?$_Vec_base_types@VNeuron@@V?$allocator@VNeuron@@@std@@@std@@@std@@QBEABQAVNeuron@@XZ ; std::_Vector_alloc<std::_Vec_base_types<Neuron,std::allocator<Neuron> > >::_Mylast
	mov	ecx, DWORD PTR [esi]
	cmp	ecx, DWORD PTR [eax]
	je	SHORT $LN3@Has_unused
	mov	DWORD PTR tv77[ebp], 1
	jmp	SHORT $LN4@Has_unused
$LN3@Has_unused:
	mov	DWORD PTR tv77[ebp], 0
$LN4@Has_unused:
	mov	al, BYTE PTR tv77[ebp]

; 1788 : 		}

	pop	esi
	add	esp, 8
	cmp	ebp, esp
	call	__RTC_CheckEsp
	mov	esp, ebp
	pop	ebp
	ret	0
?_Has_unused_capacity@?$vector@VNeuron@@V?$allocator@VNeuron@@@std@@@std@@ABE_NXZ ENDP ; std::vector<Neuron,std::allocator<Neuron> >::_Has_unused_capacity
_TEXT	ENDS
; Function compile flags: /Odtp /RTCsu
; File c:\program files (x86)\microsoft visual studio\2017\community\vc\tools\msvc\14.11.25503\include\vector
;	COMDAT ?capacity@?$vector@VNeuron@@V?$allocator@VNeuron@@@std@@@std@@QBEIXZ
_TEXT	SEGMENT
_this$ = -4						; size = 4
?capacity@?$vector@VNeuron@@V?$allocator@VNeuron@@@std@@@std@@QBEIXZ PROC ; std::vector<Neuron,std::allocator<Neuron> >::capacity, COMDAT
; _this$ = ecx

; 1775 : 		{	// return current length of allocated storage

	push	ebp
	mov	ebp, esp
	push	ecx
	push	esi
	mov	DWORD PTR [ebp-4], -858993460		; ccccccccH
	mov	DWORD PTR _this$[ebp], ecx

; 1776 : 		return (static_cast<size_type>(this->_Myend() - this->_Myfirst()));

	mov	ecx, DWORD PTR _this$[ebp]
	call	?_Myend@?$_Vector_alloc@U?$_Vec_base_types@VNeuron@@V?$allocator@VNeuron@@@std@@@std@@@std@@QBEABQAVNeuron@@XZ ; std::_Vector_alloc<std::_Vec_base_types<Neuron,std::allocator<Neuron> > >::_Myend
	mov	esi, eax
	mov	ecx, DWORD PTR _this$[ebp]
	call	?_Myfirst@?$_Vector_alloc@U?$_Vec_base_types@VNeuron@@V?$allocator@VNeuron@@@std@@@std@@@std@@QBEABQAVNeuron@@XZ ; std::_Vector_alloc<std::_Vec_base_types<Neuron,std::allocator<Neuron> > >::_Myfirst
	mov	ecx, DWORD PTR [esi]
	sub	ecx, DWORD PTR [eax]
	mov	eax, ecx
	cdq
	mov	ecx, 40					; 00000028H
	idiv	ecx

; 1777 : 		}

	pop	esi
	add	esp, 4
	cmp	ebp, esp
	call	__RTC_CheckEsp
	mov	esp, ebp
	pop	ebp
	ret	0
?capacity@?$vector@VNeuron@@V?$allocator@VNeuron@@@std@@@std@@QBEIXZ ENDP ; std::vector<Neuron,std::allocator<Neuron> >::capacity
_TEXT	ENDS
; Function compile flags: /Odtp /RTCsu
; File c:\program files (x86)\microsoft visual studio\2017\community\vc\tools\msvc\14.11.25503\include\vector
;	COMDAT ?max_size@?$vector@VNeuron@@V?$allocator@VNeuron@@@std@@@std@@QBEIXZ
_TEXT	SEGMENT
$T1 = -12						; size = 4
$T2 = -8						; size = 4
_this$ = -4						; size = 4
?max_size@?$vector@VNeuron@@V?$allocator@VNeuron@@@std@@@std@@QBEIXZ PROC ; std::vector<Neuron,std::allocator<Neuron> >::max_size, COMDAT
; _this$ = ecx

; 1769 : 		{	// return maximum possible length of sequence

	push	ebp
	mov	ebp, esp
	sub	esp, 12					; 0000000cH
	mov	DWORD PTR [ebp-12], -858993460		; ccccccccH
	mov	DWORD PTR [ebp-8], -858993460		; ccccccccH
	mov	DWORD PTR [ebp-4], -858993460		; ccccccccH
	mov	DWORD PTR _this$[ebp], ecx

; 1770 : 		return (_Min_value(static_cast<size_type>((numeric_limits<difference_type>::max)()),

	mov	ecx, DWORD PTR _this$[ebp]
	call	?_Getal@?$_Vector_alloc@U?$_Vec_base_types@VNeuron@@V?$allocator@VNeuron@@@std@@@std@@@std@@QBEABV?$allocator@VNeuron@@@2@XZ ; std::_Vector_alloc<std::_Vec_base_types<Neuron,std::allocator<Neuron> > >::_Getal
	push	eax
	call	?max_size@?$_Default_allocator_traits@V?$allocator@VNeuron@@@std@@@std@@SAIABV?$allocator@VNeuron@@@2@@Z ; std::_Default_allocator_traits<std::allocator<Neuron> >::max_size
	add	esp, 4
	mov	DWORD PTR $T2[ebp], eax
	call	?max@?$numeric_limits@H@std@@SAHXZ	; std::numeric_limits<int>::max
	mov	DWORD PTR $T1[ebp], eax
	lea	eax, DWORD PTR $T2[ebp]
	push	eax
	lea	ecx, DWORD PTR $T1[ebp]
	push	ecx
	call	??$_Min_value@I@std@@YAABIABI0@Z	; std::_Min_value<unsigned int>
	add	esp, 8
	mov	eax, DWORD PTR [eax]

; 1771 : 			_Alty_traits::max_size(this->_Getal())));
; 1772 : 		}

	add	esp, 12					; 0000000cH
	cmp	ebp, esp
	call	__RTC_CheckEsp
	mov	esp, ebp
	pop	ebp
	ret	0
?max_size@?$vector@VNeuron@@V?$allocator@VNeuron@@@std@@@std@@QBEIXZ ENDP ; std::vector<Neuron,std::allocator<Neuron> >::max_size
_TEXT	ENDS
; Function compile flags: /Odtp /RTCsu
; File c:\program files (x86)\microsoft visual studio\2017\community\vc\tools\msvc\14.11.25503\include\vector
;	COMDAT ?size@?$vector@VNeuron@@V?$allocator@VNeuron@@@std@@@std@@QBEIXZ
_TEXT	SEGMENT
_this$ = -4						; size = 4
?size@?$vector@VNeuron@@V?$allocator@VNeuron@@@std@@@std@@QBEIXZ PROC ; std::vector<Neuron,std::allocator<Neuron> >::size, COMDAT
; _this$ = ecx

; 1764 : 		{	// return length of sequence

	push	ebp
	mov	ebp, esp
	push	ecx
	push	esi
	mov	DWORD PTR [ebp-4], -858993460		; ccccccccH
	mov	DWORD PTR _this$[ebp], ecx

; 1765 : 		return (static_cast<size_type>(this->_Mylast() - this->_Myfirst()));

	mov	ecx, DWORD PTR _this$[ebp]
	call	?_Mylast@?$_Vector_alloc@U?$_Vec_base_types@VNeuron@@V?$allocator@VNeuron@@@std@@@std@@@std@@QBEABQAVNeuron@@XZ ; std::_Vector_alloc<std::_Vec_base_types<Neuron,std::allocator<Neuron> > >::_Mylast
	mov	esi, eax
	mov	ecx, DWORD PTR _this$[ebp]
	call	?_Myfirst@?$_Vector_alloc@U?$_Vec_base_types@VNeuron@@V?$allocator@VNeuron@@@std@@@std@@@std@@QBEABQAVNeuron@@XZ ; std::_Vector_alloc<std::_Vec_base_types<Neuron,std::allocator<Neuron> > >::_Myfirst
	mov	ecx, DWORD PTR [esi]
	sub	ecx, DWORD PTR [eax]
	mov	eax, ecx
	cdq
	mov	ecx, 40					; 00000028H
	idiv	ecx

; 1766 : 		}

	pop	esi
	add	esp, 4
	cmp	ebp, esp
	call	__RTC_CheckEsp
	mov	esp, ebp
	pop	ebp
	ret	0
?size@?$vector@VNeuron@@V?$allocator@VNeuron@@@std@@@std@@QBEIXZ ENDP ; std::vector<Neuron,std::allocator<Neuron> >::size
_TEXT	ENDS
; Function compile flags: /Odtp /RTCsu
; File c:\program files (x86)\microsoft visual studio\2017\community\vc\tools\msvc\14.11.25503\include\vector
;	COMDAT ?empty@?$vector@VNeuron@@V?$allocator@VNeuron@@@std@@@std@@QBE_NXZ
_TEXT	SEGMENT
tv77 = -8						; size = 4
_this$ = -4						; size = 4
?empty@?$vector@VNeuron@@V?$allocator@VNeuron@@@std@@@std@@QBE_NXZ PROC ; std::vector<Neuron,std::allocator<Neuron> >::empty, COMDAT
; _this$ = ecx

; 1759 : 		{	// test if sequence is empty

	push	ebp
	mov	ebp, esp
	sub	esp, 8
	push	esi
	mov	DWORD PTR [ebp-8], -858993460		; ccccccccH
	mov	DWORD PTR [ebp-4], -858993460		; ccccccccH
	mov	DWORD PTR _this$[ebp], ecx

; 1760 : 		return (this->_Myfirst() == this->_Mylast());

	mov	ecx, DWORD PTR _this$[ebp]
	call	?_Myfirst@?$_Vector_alloc@U?$_Vec_base_types@VNeuron@@V?$allocator@VNeuron@@@std@@@std@@@std@@QBEABQAVNeuron@@XZ ; std::_Vector_alloc<std::_Vec_base_types<Neuron,std::allocator<Neuron> > >::_Myfirst
	mov	esi, eax
	mov	ecx, DWORD PTR _this$[ebp]
	call	?_Mylast@?$_Vector_alloc@U?$_Vec_base_types@VNeuron@@V?$allocator@VNeuron@@@std@@@std@@@std@@QBEABQAVNeuron@@XZ ; std::_Vector_alloc<std::_Vec_base_types<Neuron,std::allocator<Neuron> > >::_Mylast
	mov	ecx, DWORD PTR [esi]
	cmp	ecx, DWORD PTR [eax]
	jne	SHORT $LN3@empty
	mov	DWORD PTR tv77[ebp], 1
	jmp	SHORT $LN4@empty
$LN3@empty:
	mov	DWORD PTR tv77[ebp], 0
$LN4@empty:
	mov	al, BYTE PTR tv77[ebp]

; 1761 : 		}

	pop	esi
	add	esp, 8
	cmp	ebp, esp
	call	__RTC_CheckEsp
	mov	esp, ebp
	pop	ebp
	ret	0
?empty@?$vector@VNeuron@@V?$allocator@VNeuron@@@std@@@std@@QBE_NXZ ENDP ; std::vector<Neuron,std::allocator<Neuron> >::empty
_TEXT	ENDS
; Function compile flags: /Odtp /RTCsu
; File c:\program files (x86)\microsoft visual studio\2017\community\vc\tools\msvc\14.11.25503\include\vector
;	COMDAT ?push_back@?$vector@VNeuron@@V?$allocator@VNeuron@@@std@@@std@@QAEX$$QAVNeuron@@@Z
_TEXT	SEGMENT
_this$ = -4						; size = 4
__Val$ = 8						; size = 4
?push_back@?$vector@VNeuron@@V?$allocator@VNeuron@@@std@@@std@@QAEX$$QAVNeuron@@@Z PROC ; std::vector<Neuron,std::allocator<Neuron> >::push_back, COMDAT
; _this$ = ecx

; 985  : 		{	// insert by moving into element at end, provide strong guarantee

	push	ebp
	mov	ebp, esp
	push	ecx
	mov	DWORD PTR [ebp-4], -858993460		; ccccccccH
	mov	DWORD PTR _this$[ebp], ecx

; 986  : 		emplace_back(_STD move(_Val));

	mov	eax, DWORD PTR __Val$[ebp]
	push	eax
	call	??$move@AAVNeuron@@@std@@YA$$QAVNeuron@@AAV1@@Z ; std::move<Neuron &>
	add	esp, 4
	push	eax
	mov	ecx, DWORD PTR _this$[ebp]
	call	??$emplace_back@VNeuron@@@?$vector@VNeuron@@V?$allocator@VNeuron@@@std@@@std@@QAE@$$QAVNeuron@@@Z ; std::vector<Neuron,std::allocator<Neuron> >::emplace_back<Neuron>

; 987  : 		}

	add	esp, 4
	cmp	ebp, esp
	call	__RTC_CheckEsp
	mov	esp, ebp
	pop	ebp
	ret	4
?push_back@?$vector@VNeuron@@V?$allocator@VNeuron@@@std@@@std@@QAEX$$QAVNeuron@@@Z ENDP ; std::vector<Neuron,std::allocator<Neuron> >::push_back
_TEXT	ENDS
; Function compile flags: /Odtp /RTCsu
; File c:\program files (x86)\microsoft visual studio\2017\community\vc\tools\msvc\14.11.25503\include\vector
;	COMDAT ??1?$vector@VNeuron@@V?$allocator@VNeuron@@@std@@@std@@QAE@XZ
_TEXT	SEGMENT
_this$ = -16						; size = 4
__$EHRec$ = -12						; size = 12
??1?$vector@VNeuron@@V?$allocator@VNeuron@@@std@@@std@@QAE@XZ PROC ; std::vector<Neuron,std::allocator<Neuron> >::~vector<Neuron,std::allocator<Neuron> >, COMDAT
; _this$ = ecx

; 920  : 		{	// destroy the object

	push	ebp
	mov	ebp, esp
	push	-1
	push	__ehhandler$??1?$vector@VNeuron@@V?$allocator@VNeuron@@@std@@@std@@QAE@XZ
	mov	eax, DWORD PTR fs:0
	push	eax
	push	ecx
	mov	DWORD PTR [ebp-16], -858993460		; ccccccccH
	mov	eax, DWORD PTR ___security_cookie
	xor	eax, ebp
	push	eax
	lea	eax, DWORD PTR __$EHRec$[ebp]
	mov	DWORD PTR fs:0, eax
	mov	DWORD PTR _this$[ebp], ecx

; 921  : 		_Tidy();

	mov	ecx, DWORD PTR _this$[ebp]
	call	?_Tidy@?$vector@VNeuron@@V?$allocator@VNeuron@@@std@@@std@@AAEXXZ ; std::vector<Neuron,std::allocator<Neuron> >::_Tidy

; 922  : 		}

	mov	ecx, DWORD PTR _this$[ebp]
	call	??1?$_Vector_alloc@U?$_Vec_base_types@VNeuron@@V?$allocator@VNeuron@@@std@@@std@@@std@@QAE@XZ ; std::_Vector_alloc<std::_Vec_base_types<Neuron,std::allocator<Neuron> > >::~_Vector_alloc<std::_Vec_base_types<Neuron,std::allocator<Neuron> > >
	mov	ecx, DWORD PTR __$EHRec$[ebp]
	mov	DWORD PTR fs:0, ecx
	pop	ecx
	add	esp, 16					; 00000010H
	cmp	ebp, esp
	call	__RTC_CheckEsp
	mov	esp, ebp
	pop	ebp
	ret	0
_TEXT	ENDS
;	COMDAT text$x
text$x	SEGMENT
__ehhandler$??1?$vector@VNeuron@@V?$allocator@VNeuron@@@std@@@std@@QAE@XZ:
	mov	edx, DWORD PTR [esp+8]
	lea	eax, DWORD PTR [edx+12]
	mov	ecx, DWORD PTR [edx-8]
	xor	ecx, eax
	call	@__security_check_cookie@4
	mov	eax, OFFSET __ehfuncinfo$??1?$vector@VNeuron@@V?$allocator@VNeuron@@@std@@@std@@QAE@XZ
	jmp	___CxxFrameHandler3
text$x	ENDS
??1?$vector@VNeuron@@V?$allocator@VNeuron@@@std@@@std@@QAE@XZ ENDP ; std::vector<Neuron,std::allocator<Neuron> >::~vector<Neuron,std::allocator<Neuron> >
; Function compile flags: /Odtp /RTCsu
; File c:\program files (x86)\microsoft visual studio\2017\community\vc\tools\msvc\14.11.25503\include\vector
;	COMDAT ??0?$vector@VNeuron@@V?$allocator@VNeuron@@@std@@@std@@QAE@$$QAV01@@Z
_TEXT	SEGMENT
$T2 = -17						; size = 1
_this$ = -16						; size = 4
__$EHRec$ = -12						; size = 12
__Right$ = 8						; size = 4
??0?$vector@VNeuron@@V?$allocator@VNeuron@@@std@@@std@@QAE@$$QAV01@@Z PROC ; std::vector<Neuron,std::allocator<Neuron> >::vector<Neuron,std::allocator<Neuron> >, COMDAT
; _this$ = ecx

; 823  : 		{	// construct by moving _Right

	push	ebp
	mov	ebp, esp
	push	-1
	push	__ehhandler$??0?$vector@VNeuron@@V?$allocator@VNeuron@@@std@@@std@@QAE@$$QAV01@@Z
	mov	eax, DWORD PTR fs:0
	push	eax
	sub	esp, 8
	mov	DWORD PTR [ebp-20], -858993460		; ccccccccH
	mov	DWORD PTR [ebp-16], -858993460		; ccccccccH
	mov	eax, DWORD PTR ___security_cookie
	xor	eax, ebp
	push	eax
	lea	eax, DWORD PTR __$EHRec$[ebp]
	mov	DWORD PTR fs:0, eax
	mov	DWORD PTR _this$[ebp], ecx

; 822  : 		: _Mybase(_STD move(_Right._Getal()))

	mov	ecx, DWORD PTR __Right$[ebp]
	call	?_Getal@?$_Vector_alloc@U?$_Vec_base_types@VNeuron@@V?$allocator@VNeuron@@@std@@@std@@@std@@QAEAAV?$allocator@VNeuron@@@2@XZ ; std::_Vector_alloc<std::_Vec_base_types<Neuron,std::allocator<Neuron> > >::_Getal
	push	eax
	call	??$move@AAV?$allocator@VNeuron@@@std@@@std@@YA$$QAV?$allocator@VNeuron@@@0@AAV10@@Z ; std::move<std::allocator<Neuron> &>
	add	esp, 4
	push	eax
	mov	ecx, DWORD PTR _this$[ebp]
	call	??$?0V?$allocator@VNeuron@@@std@@X@?$_Vector_alloc@U?$_Vec_base_types@VNeuron@@V?$allocator@VNeuron@@@std@@@std@@@std@@QAE@$$QAV?$allocator@VNeuron@@@1@@Z ; std::_Vector_alloc<std::_Vec_base_types<Neuron,std::allocator<Neuron> > >::_Vector_alloc<std::_Vec_base_types<Neuron,std::allocator<Neuron> > ><std::allocator<Neuron>,void>

; 824  : 		_Move_from(_STD move(_Right), true_type{});

	xor	eax, eax
	mov	BYTE PTR $T2[ebp], al
	movzx	ecx, BYTE PTR $T2[ebp]
	push	ecx
	mov	edx, DWORD PTR __Right$[ebp]
	push	edx
	call	??$move@AAV?$vector@VNeuron@@V?$allocator@VNeuron@@@std@@@std@@@std@@YA$$QAV?$vector@VNeuron@@V?$allocator@VNeuron@@@std@@@0@AAV10@@Z ; std::move<std::vector<Neuron,std::allocator<Neuron> > &>
	add	esp, 4
	push	eax
	mov	ecx, DWORD PTR _this$[ebp]
	call	?_Move_from@?$vector@VNeuron@@V?$allocator@VNeuron@@@std@@@std@@AAEX$$QAV12@U?$integral_constant@_N$00@2@@Z ; std::vector<Neuron,std::allocator<Neuron> >::_Move_from

; 825  : 		}

	mov	eax, DWORD PTR _this$[ebp]
	mov	ecx, DWORD PTR __$EHRec$[ebp]
	mov	DWORD PTR fs:0, ecx
	pop	ecx
	add	esp, 20					; 00000014H
	cmp	ebp, esp
	call	__RTC_CheckEsp
	mov	esp, ebp
	pop	ebp
	ret	4
_TEXT	ENDS
;	COMDAT text$x
text$x	SEGMENT
__ehhandler$??0?$vector@VNeuron@@V?$allocator@VNeuron@@@std@@@std@@QAE@$$QAV01@@Z:
	mov	edx, DWORD PTR [esp+8]
	lea	eax, DWORD PTR [edx+12]
	mov	ecx, DWORD PTR [edx-12]
	xor	ecx, eax
	call	@__security_check_cookie@4
	mov	eax, OFFSET __ehfuncinfo$??0?$vector@VNeuron@@V?$allocator@VNeuron@@@std@@@std@@QAE@$$QAV01@@Z
	jmp	___CxxFrameHandler3
text$x	ENDS
??0?$vector@VNeuron@@V?$allocator@VNeuron@@@std@@@std@@QAE@$$QAV01@@Z ENDP ; std::vector<Neuron,std::allocator<Neuron> >::vector<Neuron,std::allocator<Neuron> >
; Function compile flags: /Odtp /RTCsu
; File c:\program files (x86)\microsoft visual studio\2017\community\vc\tools\msvc\14.11.25503\include\vector
;	COMDAT ?_Move_from@?$vector@VNeuron@@V?$allocator@VNeuron@@@std@@@std@@AAEX$$QAV12@U?$integral_constant@_N$00@2@@Z
_TEXT	SEGMENT
_this$ = -4						; size = 4
__Right$ = 8						; size = 4
___formal$ = 12						; size = 1
?_Move_from@?$vector@VNeuron@@V?$allocator@VNeuron@@@std@@@std@@AAEX$$QAV12@U?$integral_constant@_N$00@2@@Z PROC ; std::vector<Neuron,std::allocator<Neuron> >::_Move_from, COMDAT
; _this$ = ecx

; 796  : 		{	// move from _Right, stealing its contents

	push	ebp
	mov	ebp, esp
	push	ecx
	push	esi
	mov	DWORD PTR [ebp-4], -858993460		; ccccccccH
	mov	DWORD PTR _this$[ebp], ecx

; 797  : 		this->_Swap_all(_Right);

	mov	eax, DWORD PTR __Right$[ebp]
	push	eax
	mov	ecx, DWORD PTR _this$[ebp]
	call	?_Swap_all@?$_Vector_alloc@U?$_Vec_base_types@VNeuron@@V?$allocator@VNeuron@@@std@@@std@@@std@@QAEXAAV12@@Z ; std::_Vector_alloc<std::_Vec_base_types<Neuron,std::allocator<Neuron> > >::_Swap_all

; 798  : 
; 799  : 		this->_Myfirst() = _Right._Myfirst();

	mov	ecx, DWORD PTR __Right$[ebp]
	call	?_Myfirst@?$_Vector_alloc@U?$_Vec_base_types@VNeuron@@V?$allocator@VNeuron@@@std@@@std@@@std@@QAEAAPAVNeuron@@XZ ; std::_Vector_alloc<std::_Vec_base_types<Neuron,std::allocator<Neuron> > >::_Myfirst
	mov	esi, eax
	mov	ecx, DWORD PTR _this$[ebp]
	call	?_Myfirst@?$_Vector_alloc@U?$_Vec_base_types@VNeuron@@V?$allocator@VNeuron@@@std@@@std@@@std@@QAEAAPAVNeuron@@XZ ; std::_Vector_alloc<std::_Vec_base_types<Neuron,std::allocator<Neuron> > >::_Myfirst
	mov	ecx, DWORD PTR [esi]
	mov	DWORD PTR [eax], ecx

; 800  : 		this->_Mylast() = _Right._Mylast();

	mov	ecx, DWORD PTR __Right$[ebp]
	call	?_Mylast@?$_Vector_alloc@U?$_Vec_base_types@VNeuron@@V?$allocator@VNeuron@@@std@@@std@@@std@@QAEAAPAVNeuron@@XZ ; std::_Vector_alloc<std::_Vec_base_types<Neuron,std::allocator<Neuron> > >::_Mylast
	mov	esi, eax
	mov	ecx, DWORD PTR _this$[ebp]
	call	?_Mylast@?$_Vector_alloc@U?$_Vec_base_types@VNeuron@@V?$allocator@VNeuron@@@std@@@std@@@std@@QAEAAPAVNeuron@@XZ ; std::_Vector_alloc<std::_Vec_base_types<Neuron,std::allocator<Neuron> > >::_Mylast
	mov	edx, DWORD PTR [esi]
	mov	DWORD PTR [eax], edx

; 801  : 		this->_Myend() = _Right._Myend();

	mov	ecx, DWORD PTR __Right$[ebp]
	call	?_Myend@?$_Vector_alloc@U?$_Vec_base_types@VNeuron@@V?$allocator@VNeuron@@@std@@@std@@@std@@QAEAAPAVNeuron@@XZ ; std::_Vector_alloc<std::_Vec_base_types<Neuron,std::allocator<Neuron> > >::_Myend
	mov	esi, eax
	mov	ecx, DWORD PTR _this$[ebp]
	call	?_Myend@?$_Vector_alloc@U?$_Vec_base_types@VNeuron@@V?$allocator@VNeuron@@@std@@@std@@@std@@QAEAAPAVNeuron@@XZ ; std::_Vector_alloc<std::_Vec_base_types<Neuron,std::allocator<Neuron> > >::_Myend
	mov	ecx, DWORD PTR [esi]
	mov	DWORD PTR [eax], ecx

; 802  : 
; 803  : 		_Right._Myfirst() = pointer();

	mov	ecx, DWORD PTR __Right$[ebp]
	call	?_Myfirst@?$_Vector_alloc@U?$_Vec_base_types@VNeuron@@V?$allocator@VNeuron@@@std@@@std@@@std@@QAEAAPAVNeuron@@XZ ; std::_Vector_alloc<std::_Vec_base_types<Neuron,std::allocator<Neuron> > >::_Myfirst
	mov	DWORD PTR [eax], 0

; 804  : 		_Right._Mylast() = pointer();

	mov	ecx, DWORD PTR __Right$[ebp]
	call	?_Mylast@?$_Vector_alloc@U?$_Vec_base_types@VNeuron@@V?$allocator@VNeuron@@@std@@@std@@@std@@QAEAAPAVNeuron@@XZ ; std::_Vector_alloc<std::_Vec_base_types<Neuron,std::allocator<Neuron> > >::_Mylast
	mov	DWORD PTR [eax], 0

; 805  : 		_Right._Myend() = pointer();

	mov	ecx, DWORD PTR __Right$[ebp]
	call	?_Myend@?$_Vector_alloc@U?$_Vec_base_types@VNeuron@@V?$allocator@VNeuron@@@std@@@std@@@std@@QAEAAPAVNeuron@@XZ ; std::_Vector_alloc<std::_Vec_base_types<Neuron,std::allocator<Neuron> > >::_Myend
	mov	DWORD PTR [eax], 0

; 806  : 		}

	pop	esi
	add	esp, 4
	cmp	ebp, esp
	call	__RTC_CheckEsp
	mov	esp, ebp
	pop	ebp
	ret	8
?_Move_from@?$vector@VNeuron@@V?$allocator@VNeuron@@@std@@@std@@AAEX$$QAV12@U?$integral_constant@_N$00@2@@Z ENDP ; std::vector<Neuron,std::allocator<Neuron> >::_Move_from
_TEXT	ENDS
; Function compile flags: /Odtp /RTCsu
; File c:\program files (x86)\microsoft visual studio\2017\community\vc\tools\msvc\14.11.25503\include\vector
;	COMDAT ??0?$vector@VNeuron@@V?$allocator@VNeuron@@@std@@@std@@QAE@XZ
_TEXT	SEGMENT
_this$ = -16						; size = 4
__$EHRec$ = -12						; size = 12
??0?$vector@VNeuron@@V?$allocator@VNeuron@@@std@@@std@@QAE@XZ PROC ; std::vector<Neuron,std::allocator<Neuron> >::vector<Neuron,std::allocator<Neuron> >, COMDAT
; _this$ = ecx

; 685  : 		{	// construct empty vector

	push	ebp
	mov	ebp, esp
	push	-1
	push	__ehhandler$??0?$vector@VNeuron@@V?$allocator@VNeuron@@@std@@@std@@QAE@XZ
	mov	eax, DWORD PTR fs:0
	push	eax
	push	ecx
	mov	DWORD PTR [ebp-16], -858993460		; ccccccccH
	mov	eax, DWORD PTR ___security_cookie
	xor	eax, ebp
	push	eax
	lea	eax, DWORD PTR __$EHRec$[ebp]
	mov	DWORD PTR fs:0, eax
	mov	DWORD PTR _this$[ebp], ecx

; 684  : 		: _Mybase()

	mov	ecx, DWORD PTR _this$[ebp]
	call	??0?$_Vector_alloc@U?$_Vec_base_types@VNeuron@@V?$allocator@VNeuron@@@std@@@std@@@std@@QAE@XZ ; std::_Vector_alloc<std::_Vec_base_types<Neuron,std::allocator<Neuron> > >::_Vector_alloc<std::_Vec_base_types<Neuron,std::allocator<Neuron> > >

; 686  : 		}

	mov	eax, DWORD PTR _this$[ebp]
	mov	ecx, DWORD PTR __$EHRec$[ebp]
	mov	DWORD PTR fs:0, ecx
	pop	ecx
	add	esp, 16					; 00000010H
	cmp	ebp, esp
	call	__RTC_CheckEsp
	mov	esp, ebp
	pop	ebp
	ret	0
_TEXT	ENDS
;	COMDAT text$x
text$x	SEGMENT
__ehhandler$??0?$vector@VNeuron@@V?$allocator@VNeuron@@@std@@@std@@QAE@XZ:
	mov	edx, DWORD PTR [esp+8]
	lea	eax, DWORD PTR [edx+12]
	mov	ecx, DWORD PTR [edx-8]
	xor	ecx, eax
	call	@__security_check_cookie@4
	mov	eax, OFFSET __ehfuncinfo$??0?$vector@VNeuron@@V?$allocator@VNeuron@@@std@@@std@@QAE@XZ
	jmp	___CxxFrameHandler3
text$x	ENDS
??0?$vector@VNeuron@@V?$allocator@VNeuron@@@std@@@std@@QAE@XZ ENDP ; std::vector<Neuron,std::allocator<Neuron> >::vector<Neuron,std::allocator<Neuron> >
; Function compile flags: /Odtp /RTCsu
;	COMDAT ??1?$_Compressed_pair@V?$allocator@VNeuron@@@std@@V?$_Vector_val@U?$_Simple_types@VNeuron@@@std@@@2@$00@std@@QAE@XZ
_TEXT	SEGMENT
_this$ = -4						; size = 4
??1?$_Compressed_pair@V?$allocator@VNeuron@@@std@@V?$_Vector_val@U?$_Simple_types@VNeuron@@@std@@@2@$00@std@@QAE@XZ PROC ; std::_Compressed_pair<std::allocator<Neuron>,std::_Vector_val<std::_Simple_types<Neuron> >,1>::~_Compressed_pair<std::allocator<Neuron>,std::_Vector_val<std::_Simple_types<Neuron> >,1>, COMDAT
; _this$ = ecx
	push	ebp
	mov	ebp, esp
	push	ecx
	mov	DWORD PTR [ebp-4], -858993460		; ccccccccH
	mov	DWORD PTR _this$[ebp], ecx
	mov	ecx, DWORD PTR _this$[ebp]
	call	??1?$_Vector_val@U?$_Simple_types@VNeuron@@@std@@@std@@QAE@XZ
	add	esp, 4
	cmp	ebp, esp
	call	__RTC_CheckEsp
	mov	esp, ebp
	pop	ebp
	ret	0
??1?$_Compressed_pair@V?$allocator@VNeuron@@@std@@V?$_Vector_val@U?$_Simple_types@VNeuron@@@std@@@2@$00@std@@QAE@XZ ENDP ; std::_Compressed_pair<std::allocator<Neuron>,std::_Vector_val<std::_Simple_types<Neuron> >,1>::~_Compressed_pair<std::allocator<Neuron>,std::_Vector_val<std::_Simple_types<Neuron> >,1>
_TEXT	ENDS
; Function compile flags: /Odtp /RTCsu
; File c:\program files (x86)\microsoft visual studio\2017\community\vc\tools\msvc\14.11.25503\include\xutility
;	COMDAT ?_Get_second@?$_Compressed_pair@V?$allocator@VNeuron@@@std@@V?$_Vector_val@U?$_Simple_types@VNeuron@@@std@@@2@$00@std@@QBEABV?$_Vector_val@U?$_Simple_types@VNeuron@@@std@@@2@XZ
_TEXT	SEGMENT
_this$ = -4						; size = 4
?_Get_second@?$_Compressed_pair@V?$allocator@VNeuron@@@std@@V?$_Vector_val@U?$_Simple_types@VNeuron@@@std@@@2@$00@std@@QBEABV?$_Vector_val@U?$_Simple_types@VNeuron@@@std@@@2@XZ PROC ; std::_Compressed_pair<std::allocator<Neuron>,std::_Vector_val<std::_Simple_types<Neuron> >,1>::_Get_second, COMDAT
; _this$ = ecx

; 342  : 		{	// return const reference to second

	push	ebp
	mov	ebp, esp
	push	ecx
	mov	DWORD PTR [ebp-4], -858993460		; ccccccccH
	mov	DWORD PTR _this$[ebp], ecx

; 343  : 		return (_Myval2);

	mov	eax, DWORD PTR _this$[ebp]

; 344  : 		}

	mov	esp, ebp
	pop	ebp
	ret	0
?_Get_second@?$_Compressed_pair@V?$allocator@VNeuron@@@std@@V?$_Vector_val@U?$_Simple_types@VNeuron@@@std@@@2@$00@std@@QBEABV?$_Vector_val@U?$_Simple_types@VNeuron@@@std@@@2@XZ ENDP ; std::_Compressed_pair<std::allocator<Neuron>,std::_Vector_val<std::_Simple_types<Neuron> >,1>::_Get_second
_TEXT	ENDS
; Function compile flags: /Odtp /RTCsu
; File c:\program files (x86)\microsoft visual studio\2017\community\vc\tools\msvc\14.11.25503\include\xutility
;	COMDAT ?_Get_second@?$_Compressed_pair@V?$allocator@VNeuron@@@std@@V?$_Vector_val@U?$_Simple_types@VNeuron@@@std@@@2@$00@std@@QAEAAV?$_Vector_val@U?$_Simple_types@VNeuron@@@std@@@2@XZ
_TEXT	SEGMENT
_this$ = -4						; size = 4
?_Get_second@?$_Compressed_pair@V?$allocator@VNeuron@@@std@@V?$_Vector_val@U?$_Simple_types@VNeuron@@@std@@@2@$00@std@@QAEAAV?$_Vector_val@U?$_Simple_types@VNeuron@@@std@@@2@XZ PROC ; std::_Compressed_pair<std::allocator<Neuron>,std::_Vector_val<std::_Simple_types<Neuron> >,1>::_Get_second, COMDAT
; _this$ = ecx

; 337  : 		{	// return reference to second

	push	ebp
	mov	ebp, esp
	push	ecx
	mov	DWORD PTR [ebp-4], -858993460		; ccccccccH
	mov	DWORD PTR _this$[ebp], ecx

; 338  : 		return (_Myval2);

	mov	eax, DWORD PTR _this$[ebp]

; 339  : 		}

	mov	esp, ebp
	pop	ebp
	ret	0
?_Get_second@?$_Compressed_pair@V?$allocator@VNeuron@@@std@@V?$_Vector_val@U?$_Simple_types@VNeuron@@@std@@@2@$00@std@@QAEAAV?$_Vector_val@U?$_Simple_types@VNeuron@@@std@@@2@XZ ENDP ; std::_Compressed_pair<std::allocator<Neuron>,std::_Vector_val<std::_Simple_types<Neuron> >,1>::_Get_second
_TEXT	ENDS
; Function compile flags: /Odtp /RTCsu
; File c:\program files (x86)\microsoft visual studio\2017\community\vc\tools\msvc\14.11.25503\include\xutility
;	COMDAT ?_Get_first@?$_Compressed_pair@V?$allocator@VNeuron@@@std@@V?$_Vector_val@U?$_Simple_types@VNeuron@@@std@@@2@$00@std@@QBEABV?$allocator@VNeuron@@@2@XZ
_TEXT	SEGMENT
_this$ = -4						; size = 4
?_Get_first@?$_Compressed_pair@V?$allocator@VNeuron@@@std@@V?$_Vector_val@U?$_Simple_types@VNeuron@@@std@@@2@$00@std@@QBEABV?$allocator@VNeuron@@@2@XZ PROC ; std::_Compressed_pair<std::allocator<Neuron>,std::_Vector_val<std::_Simple_types<Neuron> >,1>::_Get_first, COMDAT
; _this$ = ecx

; 322  : 		{	// return const reference to first

	push	ebp
	mov	ebp, esp
	push	ecx
	mov	DWORD PTR [ebp-4], -858993460		; ccccccccH
	mov	DWORD PTR _this$[ebp], ecx

; 323  : 		return (*this);

	mov	eax, DWORD PTR _this$[ebp]

; 324  : 		}

	mov	esp, ebp
	pop	ebp
	ret	0
?_Get_first@?$_Compressed_pair@V?$allocator@VNeuron@@@std@@V?$_Vector_val@U?$_Simple_types@VNeuron@@@std@@@2@$00@std@@QBEABV?$allocator@VNeuron@@@2@XZ ENDP ; std::_Compressed_pair<std::allocator<Neuron>,std::_Vector_val<std::_Simple_types<Neuron> >,1>::_Get_first
_TEXT	ENDS
; Function compile flags: /Odtp /RTCsu
; File c:\program files (x86)\microsoft visual studio\2017\community\vc\tools\msvc\14.11.25503\include\xutility
;	COMDAT ?_Get_first@?$_Compressed_pair@V?$allocator@VNeuron@@@std@@V?$_Vector_val@U?$_Simple_types@VNeuron@@@std@@@2@$00@std@@QAEAAV?$allocator@VNeuron@@@2@XZ
_TEXT	SEGMENT
_this$ = -4						; size = 4
?_Get_first@?$_Compressed_pair@V?$allocator@VNeuron@@@std@@V?$_Vector_val@U?$_Simple_types@VNeuron@@@std@@@2@$00@std@@QAEAAV?$allocator@VNeuron@@@2@XZ PROC ; std::_Compressed_pair<std::allocator<Neuron>,std::_Vector_val<std::_Simple_types<Neuron> >,1>::_Get_first, COMDAT
; _this$ = ecx

; 317  : 		{	// return reference to first

	push	ebp
	mov	ebp, esp
	push	ecx
	mov	DWORD PTR [ebp-4], -858993460		; ccccccccH
	mov	DWORD PTR _this$[ebp], ecx

; 318  : 		return (*this);

	mov	eax, DWORD PTR _this$[ebp]

; 319  : 		}

	mov	esp, ebp
	pop	ebp
	ret	0
?_Get_first@?$_Compressed_pair@V?$allocator@VNeuron@@@std@@V?$_Vector_val@U?$_Simple_types@VNeuron@@@std@@@2@$00@std@@QAEAAV?$allocator@VNeuron@@@2@XZ ENDP ; std::_Compressed_pair<std::allocator<Neuron>,std::_Vector_val<std::_Simple_types<Neuron> >,1>::_Get_first
_TEXT	ENDS
; Function compile flags: /Odtp /RTCsu
;	COMDAT ??1?$_Vector_val@U?$_Simple_types@VNeuron@@@std@@@std@@QAE@XZ
_TEXT	SEGMENT
_this$ = -4						; size = 4
??1?$_Vector_val@U?$_Simple_types@VNeuron@@@std@@@std@@QAE@XZ PROC ; std::_Vector_val<std::_Simple_types<Neuron> >::~_Vector_val<std::_Simple_types<Neuron> >, COMDAT
; _this$ = ecx
	push	ebp
	mov	ebp, esp
	push	ecx
	mov	DWORD PTR [ebp-4], -858993460		; ccccccccH
	mov	DWORD PTR _this$[ebp], ecx
	mov	ecx, DWORD PTR _this$[ebp]
	call	??1_Container_base12@std@@QAE@XZ	; std::_Container_base12::~_Container_base12
	add	esp, 4
	cmp	ebp, esp
	call	__RTC_CheckEsp
	mov	esp, ebp
	pop	ebp
	ret	0
??1?$_Vector_val@U?$_Simple_types@VNeuron@@@std@@@std@@QAE@XZ ENDP ; std::_Vector_val<std::_Simple_types<Neuron> >::~_Vector_val<std::_Simple_types<Neuron> >
_TEXT	ENDS
; Function compile flags: /Odtp /RTCsu
; File c:\program files (x86)\microsoft visual studio\2017\community\vc\tools\msvc\14.11.25503\include\vector
;	COMDAT ??0?$_Vector_val@U?$_Simple_types@VNeuron@@@std@@@std@@QAE@XZ
_TEXT	SEGMENT
_this$ = -4						; size = 4
??0?$_Vector_val@U?$_Simple_types@VNeuron@@@std@@@std@@QAE@XZ PROC ; std::_Vector_val<std::_Simple_types<Neuron> >::_Vector_val<std::_Simple_types<Neuron> >, COMDAT
; _this$ = ecx

; 437  : 		{	// initialize values

	push	ebp
	mov	ebp, esp
	push	ecx
	mov	DWORD PTR [ebp-4], -858993460		; ccccccccH
	mov	DWORD PTR _this$[ebp], ecx
	mov	ecx, DWORD PTR _this$[ebp]
	call	??0_Container_base12@std@@QAE@XZ	; std::_Container_base12::_Container_base12

; 434  : 		: _Myfirst(),

	mov	eax, DWORD PTR _this$[ebp]
	mov	DWORD PTR [eax+4], 0

; 435  : 		_Mylast(),

	mov	ecx, DWORD PTR _this$[ebp]
	mov	DWORD PTR [ecx+8], 0

; 436  : 		_Myend()

	mov	edx, DWORD PTR _this$[ebp]
	mov	DWORD PTR [edx+12], 0

; 438  : 		}

	mov	eax, DWORD PTR _this$[ebp]
	add	esp, 4
	cmp	ebp, esp
	call	__RTC_CheckEsp
	mov	esp, ebp
	pop	ebp
	ret	0
??0?$_Vector_val@U?$_Simple_types@VNeuron@@@std@@@std@@QAE@XZ ENDP ; std::_Vector_val<std::_Simple_types<Neuron> >::_Vector_val<std::_Simple_types<Neuron> >
_TEXT	ENDS
; Function compile flags: /Odtp /RTCsu
; File c:\program files (x86)\microsoft visual studio\2017\community\vc\tools\msvc\14.11.25503\include\vector
;	COMDAT ?_Myend@?$_Vector_alloc@U?$_Vec_base_types@VNeuron@@V?$allocator@VNeuron@@@std@@@std@@@std@@QBEABQAVNeuron@@XZ
_TEXT	SEGMENT
_this$ = -4						; size = 4
?_Myend@?$_Vector_alloc@U?$_Vec_base_types@VNeuron@@V?$allocator@VNeuron@@@std@@@std@@@std@@QBEABQAVNeuron@@XZ PROC ; std::_Vector_alloc<std::_Vec_base_types<Neuron,std::allocator<Neuron> > >::_Myend, COMDAT
; _this$ = ecx

; 634  : 		{	// return const reference to _Myend

	push	ebp
	mov	ebp, esp
	push	ecx
	mov	DWORD PTR [ebp-4], -858993460		; ccccccccH
	mov	DWORD PTR _this$[ebp], ecx

; 635  : 		return (_Get_data()._Myend);

	mov	ecx, DWORD PTR _this$[ebp]
	call	?_Get_data@?$_Vector_alloc@U?$_Vec_base_types@VNeuron@@V?$allocator@VNeuron@@@std@@@std@@@std@@QBEABV?$_Vector_val@U?$_Simple_types@VNeuron@@@std@@@2@XZ ; std::_Vector_alloc<std::_Vec_base_types<Neuron,std::allocator<Neuron> > >::_Get_data
	add	eax, 12					; 0000000cH

; 636  : 		}

	add	esp, 4
	cmp	ebp, esp
	call	__RTC_CheckEsp
	mov	esp, ebp
	pop	ebp
	ret	0
?_Myend@?$_Vector_alloc@U?$_Vec_base_types@VNeuron@@V?$allocator@VNeuron@@@std@@@std@@@std@@QBEABQAVNeuron@@XZ ENDP ; std::_Vector_alloc<std::_Vec_base_types<Neuron,std::allocator<Neuron> > >::_Myend
_TEXT	ENDS
; Function compile flags: /Odtp /RTCsu
; File c:\program files (x86)\microsoft visual studio\2017\community\vc\tools\msvc\14.11.25503\include\vector
;	COMDAT ?_Myend@?$_Vector_alloc@U?$_Vec_base_types@VNeuron@@V?$allocator@VNeuron@@@std@@@std@@@std@@QAEAAPAVNeuron@@XZ
_TEXT	SEGMENT
_this$ = -4						; size = 4
?_Myend@?$_Vector_alloc@U?$_Vec_base_types@VNeuron@@V?$allocator@VNeuron@@@std@@@std@@@std@@QAEAAPAVNeuron@@XZ PROC ; std::_Vector_alloc<std::_Vec_base_types<Neuron,std::allocator<Neuron> > >::_Myend, COMDAT
; _this$ = ecx

; 629  : 		{	// return reference to _Myend

	push	ebp
	mov	ebp, esp
	push	ecx
	mov	DWORD PTR [ebp-4], -858993460		; ccccccccH
	mov	DWORD PTR _this$[ebp], ecx

; 630  : 		return (_Get_data()._Myend);

	mov	ecx, DWORD PTR _this$[ebp]
	call	?_Get_data@?$_Vector_alloc@U?$_Vec_base_types@VNeuron@@V?$allocator@VNeuron@@@std@@@std@@@std@@QAEAAV?$_Vector_val@U?$_Simple_types@VNeuron@@@std@@@2@XZ ; std::_Vector_alloc<std::_Vec_base_types<Neuron,std::allocator<Neuron> > >::_Get_data
	add	eax, 12					; 0000000cH

; 631  : 		}

	add	esp, 4
	cmp	ebp, esp
	call	__RTC_CheckEsp
	mov	esp, ebp
	pop	ebp
	ret	0
?_Myend@?$_Vector_alloc@U?$_Vec_base_types@VNeuron@@V?$allocator@VNeuron@@@std@@@std@@@std@@QAEAAPAVNeuron@@XZ ENDP ; std::_Vector_alloc<std::_Vec_base_types<Neuron,std::allocator<Neuron> > >::_Myend
_TEXT	ENDS
; Function compile flags: /Odtp /RTCsu
; File c:\program files (x86)\microsoft visual studio\2017\community\vc\tools\msvc\14.11.25503\include\vector
;	COMDAT ?_Mylast@?$_Vector_alloc@U?$_Vec_base_types@VNeuron@@V?$allocator@VNeuron@@@std@@@std@@@std@@QBEABQAVNeuron@@XZ
_TEXT	SEGMENT
_this$ = -4						; size = 4
?_Mylast@?$_Vector_alloc@U?$_Vec_base_types@VNeuron@@V?$allocator@VNeuron@@@std@@@std@@@std@@QBEABQAVNeuron@@XZ PROC ; std::_Vector_alloc<std::_Vec_base_types<Neuron,std::allocator<Neuron> > >::_Mylast, COMDAT
; _this$ = ecx

; 624  : 		{	// return const reference to _Mylast

	push	ebp
	mov	ebp, esp
	push	ecx
	mov	DWORD PTR [ebp-4], -858993460		; ccccccccH
	mov	DWORD PTR _this$[ebp], ecx

; 625  : 		return (_Get_data()._Mylast);

	mov	ecx, DWORD PTR _this$[ebp]
	call	?_Get_data@?$_Vector_alloc@U?$_Vec_base_types@VNeuron@@V?$allocator@VNeuron@@@std@@@std@@@std@@QBEABV?$_Vector_val@U?$_Simple_types@VNeuron@@@std@@@2@XZ ; std::_Vector_alloc<std::_Vec_base_types<Neuron,std::allocator<Neuron> > >::_Get_data
	add	eax, 8

; 626  : 		}

	add	esp, 4
	cmp	ebp, esp
	call	__RTC_CheckEsp
	mov	esp, ebp
	pop	ebp
	ret	0
?_Mylast@?$_Vector_alloc@U?$_Vec_base_types@VNeuron@@V?$allocator@VNeuron@@@std@@@std@@@std@@QBEABQAVNeuron@@XZ ENDP ; std::_Vector_alloc<std::_Vec_base_types<Neuron,std::allocator<Neuron> > >::_Mylast
_TEXT	ENDS
; Function compile flags: /Odtp /RTCsu
; File c:\program files (x86)\microsoft visual studio\2017\community\vc\tools\msvc\14.11.25503\include\vector
;	COMDAT ?_Mylast@?$_Vector_alloc@U?$_Vec_base_types@VNeuron@@V?$allocator@VNeuron@@@std@@@std@@@std@@QAEAAPAVNeuron@@XZ
_TEXT	SEGMENT
_this$ = -4						; size = 4
?_Mylast@?$_Vector_alloc@U?$_Vec_base_types@VNeuron@@V?$allocator@VNeuron@@@std@@@std@@@std@@QAEAAPAVNeuron@@XZ PROC ; std::_Vector_alloc<std::_Vec_base_types<Neuron,std::allocator<Neuron> > >::_Mylast, COMDAT
; _this$ = ecx

; 619  : 		{	// return reference to _Mylast

	push	ebp
	mov	ebp, esp
	push	ecx
	mov	DWORD PTR [ebp-4], -858993460		; ccccccccH
	mov	DWORD PTR _this$[ebp], ecx

; 620  : 		return (_Get_data()._Mylast);

	mov	ecx, DWORD PTR _this$[ebp]
	call	?_Get_data@?$_Vector_alloc@U?$_Vec_base_types@VNeuron@@V?$allocator@VNeuron@@@std@@@std@@@std@@QAEAAV?$_Vector_val@U?$_Simple_types@VNeuron@@@std@@@2@XZ ; std::_Vector_alloc<std::_Vec_base_types<Neuron,std::allocator<Neuron> > >::_Get_data
	add	eax, 8

; 621  : 		}

	add	esp, 4
	cmp	ebp, esp
	call	__RTC_CheckEsp
	mov	esp, ebp
	pop	ebp
	ret	0
?_Mylast@?$_Vector_alloc@U?$_Vec_base_types@VNeuron@@V?$allocator@VNeuron@@@std@@@std@@@std@@QAEAAPAVNeuron@@XZ ENDP ; std::_Vector_alloc<std::_Vec_base_types<Neuron,std::allocator<Neuron> > >::_Mylast
_TEXT	ENDS
; Function compile flags: /Odtp /RTCsu
; File c:\program files (x86)\microsoft visual studio\2017\community\vc\tools\msvc\14.11.25503\include\vector
;	COMDAT ?_Myfirst@?$_Vector_alloc@U?$_Vec_base_types@VNeuron@@V?$allocator@VNeuron@@@std@@@std@@@std@@QBEABQAVNeuron@@XZ
_TEXT	SEGMENT
_this$ = -4						; size = 4
?_Myfirst@?$_Vector_alloc@U?$_Vec_base_types@VNeuron@@V?$allocator@VNeuron@@@std@@@std@@@std@@QBEABQAVNeuron@@XZ PROC ; std::_Vector_alloc<std::_Vec_base_types<Neuron,std::allocator<Neuron> > >::_Myfirst, COMDAT
; _this$ = ecx

; 614  : 		{	// return const reference to _Myfirst

	push	ebp
	mov	ebp, esp
	push	ecx
	mov	DWORD PTR [ebp-4], -858993460		; ccccccccH
	mov	DWORD PTR _this$[ebp], ecx

; 615  : 		return (_Get_data()._Myfirst);

	mov	ecx, DWORD PTR _this$[ebp]
	call	?_Get_data@?$_Vector_alloc@U?$_Vec_base_types@VNeuron@@V?$allocator@VNeuron@@@std@@@std@@@std@@QBEABV?$_Vector_val@U?$_Simple_types@VNeuron@@@std@@@2@XZ ; std::_Vector_alloc<std::_Vec_base_types<Neuron,std::allocator<Neuron> > >::_Get_data
	add	eax, 4

; 616  : 		}

	add	esp, 4
	cmp	ebp, esp
	call	__RTC_CheckEsp
	mov	esp, ebp
	pop	ebp
	ret	0
?_Myfirst@?$_Vector_alloc@U?$_Vec_base_types@VNeuron@@V?$allocator@VNeuron@@@std@@@std@@@std@@QBEABQAVNeuron@@XZ ENDP ; std::_Vector_alloc<std::_Vec_base_types<Neuron,std::allocator<Neuron> > >::_Myfirst
_TEXT	ENDS
; Function compile flags: /Odtp /RTCsu
; File c:\program files (x86)\microsoft visual studio\2017\community\vc\tools\msvc\14.11.25503\include\vector
;	COMDAT ?_Myfirst@?$_Vector_alloc@U?$_Vec_base_types@VNeuron@@V?$allocator@VNeuron@@@std@@@std@@@std@@QAEAAPAVNeuron@@XZ
_TEXT	SEGMENT
_this$ = -4						; size = 4
?_Myfirst@?$_Vector_alloc@U?$_Vec_base_types@VNeuron@@V?$allocator@VNeuron@@@std@@@std@@@std@@QAEAAPAVNeuron@@XZ PROC ; std::_Vector_alloc<std::_Vec_base_types<Neuron,std::allocator<Neuron> > >::_Myfirst, COMDAT
; _this$ = ecx

; 609  : 		{	// return reference to _Myfirst

	push	ebp
	mov	ebp, esp
	push	ecx
	mov	DWORD PTR [ebp-4], -858993460		; ccccccccH
	mov	DWORD PTR _this$[ebp], ecx

; 610  : 		return (_Get_data()._Myfirst);

	mov	ecx, DWORD PTR _this$[ebp]
	call	?_Get_data@?$_Vector_alloc@U?$_Vec_base_types@VNeuron@@V?$allocator@VNeuron@@@std@@@std@@@std@@QAEAAV?$_Vector_val@U?$_Simple_types@VNeuron@@@std@@@2@XZ ; std::_Vector_alloc<std::_Vec_base_types<Neuron,std::allocator<Neuron> > >::_Get_data
	add	eax, 4

; 611  : 		}

	add	esp, 4
	cmp	ebp, esp
	call	__RTC_CheckEsp
	mov	esp, ebp
	pop	ebp
	ret	0
?_Myfirst@?$_Vector_alloc@U?$_Vec_base_types@VNeuron@@V?$allocator@VNeuron@@@std@@@std@@@std@@QAEAAPAVNeuron@@XZ ENDP ; std::_Vector_alloc<std::_Vec_base_types<Neuron,std::allocator<Neuron> > >::_Myfirst
_TEXT	ENDS
; Function compile flags: /Odtp /RTCsu
; File c:\program files (x86)\microsoft visual studio\2017\community\vc\tools\msvc\14.11.25503\include\vector
;	COMDAT ?_Get_data@?$_Vector_alloc@U?$_Vec_base_types@VNeuron@@V?$allocator@VNeuron@@@std@@@std@@@std@@QBEABV?$_Vector_val@U?$_Simple_types@VNeuron@@@std@@@2@XZ
_TEXT	SEGMENT
_this$ = -4						; size = 4
?_Get_data@?$_Vector_alloc@U?$_Vec_base_types@VNeuron@@V?$allocator@VNeuron@@@std@@@std@@@std@@QBEABV?$_Vector_val@U?$_Simple_types@VNeuron@@@std@@@2@XZ PROC ; std::_Vector_alloc<std::_Vec_base_types<Neuron,std::allocator<Neuron> > >::_Get_data, COMDAT
; _this$ = ecx

; 604  : 		{	// return const reference to _Vector_val

	push	ebp
	mov	ebp, esp
	push	ecx
	mov	DWORD PTR [ebp-4], -858993460		; ccccccccH
	mov	DWORD PTR _this$[ebp], ecx

; 605  : 		return (_Mypair._Get_second());

	mov	ecx, DWORD PTR _this$[ebp]
	call	?_Get_second@?$_Compressed_pair@V?$allocator@VNeuron@@@std@@V?$_Vector_val@U?$_Simple_types@VNeuron@@@std@@@2@$00@std@@QBEABV?$_Vector_val@U?$_Simple_types@VNeuron@@@std@@@2@XZ ; std::_Compressed_pair<std::allocator<Neuron>,std::_Vector_val<std::_Simple_types<Neuron> >,1>::_Get_second

; 606  : 		}

	add	esp, 4
	cmp	ebp, esp
	call	__RTC_CheckEsp
	mov	esp, ebp
	pop	ebp
	ret	0
?_Get_data@?$_Vector_alloc@U?$_Vec_base_types@VNeuron@@V?$allocator@VNeuron@@@std@@@std@@@std@@QBEABV?$_Vector_val@U?$_Simple_types@VNeuron@@@std@@@2@XZ ENDP ; std::_Vector_alloc<std::_Vec_base_types<Neuron,std::allocator<Neuron> > >::_Get_data
_TEXT	ENDS
; Function compile flags: /Odtp /RTCsu
; File c:\program files (x86)\microsoft visual studio\2017\community\vc\tools\msvc\14.11.25503\include\vector
;	COMDAT ?_Get_data@?$_Vector_alloc@U?$_Vec_base_types@VNeuron@@V?$allocator@VNeuron@@@std@@@std@@@std@@QAEAAV?$_Vector_val@U?$_Simple_types@VNeuron@@@std@@@2@XZ
_TEXT	SEGMENT
_this$ = -4						; size = 4
?_Get_data@?$_Vector_alloc@U?$_Vec_base_types@VNeuron@@V?$allocator@VNeuron@@@std@@@std@@@std@@QAEAAV?$_Vector_val@U?$_Simple_types@VNeuron@@@std@@@2@XZ PROC ; std::_Vector_alloc<std::_Vec_base_types<Neuron,std::allocator<Neuron> > >::_Get_data, COMDAT
; _this$ = ecx

; 599  : 		{	// return reference to _Vector_val

	push	ebp
	mov	ebp, esp
	push	ecx
	mov	DWORD PTR [ebp-4], -858993460		; ccccccccH
	mov	DWORD PTR _this$[ebp], ecx

; 600  : 		return (_Mypair._Get_second());

	mov	ecx, DWORD PTR _this$[ebp]
	call	?_Get_second@?$_Compressed_pair@V?$allocator@VNeuron@@@std@@V?$_Vector_val@U?$_Simple_types@VNeuron@@@std@@@2@$00@std@@QAEAAV?$_Vector_val@U?$_Simple_types@VNeuron@@@std@@@2@XZ ; std::_Compressed_pair<std::allocator<Neuron>,std::_Vector_val<std::_Simple_types<Neuron> >,1>::_Get_second

; 601  : 		}

	add	esp, 4
	cmp	ebp, esp
	call	__RTC_CheckEsp
	mov	esp, ebp
	pop	ebp
	ret	0
?_Get_data@?$_Vector_alloc@U?$_Vec_base_types@VNeuron@@V?$allocator@VNeuron@@@std@@@std@@@std@@QAEAAV?$_Vector_val@U?$_Simple_types@VNeuron@@@std@@@2@XZ ENDP ; std::_Vector_alloc<std::_Vec_base_types<Neuron,std::allocator<Neuron> > >::_Get_data
_TEXT	ENDS
; Function compile flags: /Odtp /RTCsu
; File c:\program files (x86)\microsoft visual studio\2017\community\vc\tools\msvc\14.11.25503\include\vector
;	COMDAT ?_Getal@?$_Vector_alloc@U?$_Vec_base_types@VNeuron@@V?$allocator@VNeuron@@@std@@@std@@@std@@QBEABV?$allocator@VNeuron@@@2@XZ
_TEXT	SEGMENT
_this$ = -4						; size = 4
?_Getal@?$_Vector_alloc@U?$_Vec_base_types@VNeuron@@V?$allocator@VNeuron@@@std@@@std@@@std@@QBEABV?$allocator@VNeuron@@@2@XZ PROC ; std::_Vector_alloc<std::_Vec_base_types<Neuron,std::allocator<Neuron> > >::_Getal, COMDAT
; _this$ = ecx

; 594  : 		{	// return const reference to allocator

	push	ebp
	mov	ebp, esp
	push	ecx
	mov	DWORD PTR [ebp-4], -858993460		; ccccccccH
	mov	DWORD PTR _this$[ebp], ecx

; 595  : 		return (_Mypair._Get_first());

	mov	ecx, DWORD PTR _this$[ebp]
	call	?_Get_first@?$_Compressed_pair@V?$allocator@VNeuron@@@std@@V?$_Vector_val@U?$_Simple_types@VNeuron@@@std@@@2@$00@std@@QBEABV?$allocator@VNeuron@@@2@XZ ; std::_Compressed_pair<std::allocator<Neuron>,std::_Vector_val<std::_Simple_types<Neuron> >,1>::_Get_first

; 596  : 		}

	add	esp, 4
	cmp	ebp, esp
	call	__RTC_CheckEsp
	mov	esp, ebp
	pop	ebp
	ret	0
?_Getal@?$_Vector_alloc@U?$_Vec_base_types@VNeuron@@V?$allocator@VNeuron@@@std@@@std@@@std@@QBEABV?$allocator@VNeuron@@@2@XZ ENDP ; std::_Vector_alloc<std::_Vec_base_types<Neuron,std::allocator<Neuron> > >::_Getal
_TEXT	ENDS
; Function compile flags: /Odtp /RTCsu
; File c:\program files (x86)\microsoft visual studio\2017\community\vc\tools\msvc\14.11.25503\include\vector
;	COMDAT ?_Getal@?$_Vector_alloc@U?$_Vec_base_types@VNeuron@@V?$allocator@VNeuron@@@std@@@std@@@std@@QAEAAV?$allocator@VNeuron@@@2@XZ
_TEXT	SEGMENT
_this$ = -4						; size = 4
?_Getal@?$_Vector_alloc@U?$_Vec_base_types@VNeuron@@V?$allocator@VNeuron@@@std@@@std@@@std@@QAEAAV?$allocator@VNeuron@@@2@XZ PROC ; std::_Vector_alloc<std::_Vec_base_types<Neuron,std::allocator<Neuron> > >::_Getal, COMDAT
; _this$ = ecx

; 589  : 		{	// return reference to allocator

	push	ebp
	mov	ebp, esp
	push	ecx
	mov	DWORD PTR [ebp-4], -858993460		; ccccccccH
	mov	DWORD PTR _this$[ebp], ecx

; 590  : 		return (_Mypair._Get_first());

	mov	ecx, DWORD PTR _this$[ebp]
	call	?_Get_first@?$_Compressed_pair@V?$allocator@VNeuron@@@std@@V?$_Vector_val@U?$_Simple_types@VNeuron@@@std@@@2@$00@std@@QAEAAV?$allocator@VNeuron@@@2@XZ ; std::_Compressed_pair<std::allocator<Neuron>,std::_Vector_val<std::_Simple_types<Neuron> >,1>::_Get_first

; 591  : 		}

	add	esp, 4
	cmp	ebp, esp
	call	__RTC_CheckEsp
	mov	esp, ebp
	pop	ebp
	ret	0
?_Getal@?$_Vector_alloc@U?$_Vec_base_types@VNeuron@@V?$allocator@VNeuron@@@std@@@std@@@std@@QAEAAV?$allocator@VNeuron@@@2@XZ ENDP ; std::_Vector_alloc<std::_Vec_base_types<Neuron,std::allocator<Neuron> > >::_Getal
_TEXT	ENDS
; Function compile flags: /Odtp /RTCsu
; File c:\program files (x86)\microsoft visual studio\2017\community\vc\tools\msvc\14.11.25503\include\vector
;	COMDAT ?_Swap_all@?$_Vector_alloc@U?$_Vec_base_types@VNeuron@@V?$allocator@VNeuron@@@std@@@std@@@std@@QAEXAAV12@@Z
_TEXT	SEGMENT
_this$ = -4						; size = 4
__Right$ = 8						; size = 4
?_Swap_all@?$_Vector_alloc@U?$_Vec_base_types@VNeuron@@V?$allocator@VNeuron@@@std@@@std@@@std@@QAEXAAV12@@Z PROC ; std::_Vector_alloc<std::_Vec_base_types<Neuron,std::allocator<Neuron> > >::_Swap_all, COMDAT
; _this$ = ecx

; 584  : 		{	// swap all iterators

	push	ebp
	mov	ebp, esp
	push	ecx
	mov	DWORD PTR [ebp-4], -858993460		; ccccccccH
	mov	DWORD PTR _this$[ebp], ecx

; 585  : 		_Get_data()._Swap_all(_Right._Get_data());

	mov	ecx, DWORD PTR __Right$[ebp]
	call	?_Get_data@?$_Vector_alloc@U?$_Vec_base_types@VNeuron@@V?$allocator@VNeuron@@@std@@@std@@@std@@QAEAAV?$_Vector_val@U?$_Simple_types@VNeuron@@@std@@@2@XZ ; std::_Vector_alloc<std::_Vec_base_types<Neuron,std::allocator<Neuron> > >::_Get_data
	push	eax
	mov	ecx, DWORD PTR _this$[ebp]
	call	?_Get_data@?$_Vector_alloc@U?$_Vec_base_types@VNeuron@@V?$allocator@VNeuron@@@std@@@std@@@std@@QAEAAV?$_Vector_val@U?$_Simple_types@VNeuron@@@std@@@2@XZ ; std::_Vector_alloc<std::_Vec_base_types<Neuron,std::allocator<Neuron> > >::_Get_data
	mov	ecx, eax
	call	?_Swap_all@_Container_base12@std@@QAEXAAU12@@Z ; std::_Container_base12::_Swap_all

; 586  : 		}

	add	esp, 4
	cmp	ebp, esp
	call	__RTC_CheckEsp
	mov	esp, ebp
	pop	ebp
	ret	4
?_Swap_all@?$_Vector_alloc@U?$_Vec_base_types@VNeuron@@V?$allocator@VNeuron@@@std@@@std@@@std@@QAEXAAV12@@Z ENDP ; std::_Vector_alloc<std::_Vec_base_types<Neuron,std::allocator<Neuron> > >::_Swap_all
_TEXT	ENDS
; Function compile flags: /Odtp /RTCsu
; File c:\program files (x86)\microsoft visual studio\2017\community\vc\tools\msvc\14.11.25503\include\vector
;	COMDAT ?_Orphan_all@?$_Vector_alloc@U?$_Vec_base_types@VNeuron@@V?$allocator@VNeuron@@@std@@@std@@@std@@QAEXXZ
_TEXT	SEGMENT
_this$ = -4						; size = 4
?_Orphan_all@?$_Vector_alloc@U?$_Vec_base_types@VNeuron@@V?$allocator@VNeuron@@@std@@@std@@@std@@QAEXXZ PROC ; std::_Vector_alloc<std::_Vec_base_types<Neuron,std::allocator<Neuron> > >::_Orphan_all, COMDAT
; _this$ = ecx

; 579  : 		{	// orphan all iterators

	push	ebp
	mov	ebp, esp
	push	ecx
	mov	DWORD PTR [ebp-4], -858993460		; ccccccccH
	mov	DWORD PTR _this$[ebp], ecx

; 580  : 		_Get_data()._Orphan_all();

	mov	ecx, DWORD PTR _this$[ebp]
	call	?_Get_data@?$_Vector_alloc@U?$_Vec_base_types@VNeuron@@V?$allocator@VNeuron@@@std@@@std@@@std@@QAEAAV?$_Vector_val@U?$_Simple_types@VNeuron@@@std@@@2@XZ ; std::_Vector_alloc<std::_Vec_base_types<Neuron,std::allocator<Neuron> > >::_Get_data
	mov	ecx, eax
	call	?_Orphan_all@_Container_base12@std@@QAEXXZ ; std::_Container_base12::_Orphan_all

; 581  : 		}

	add	esp, 4
	cmp	ebp, esp
	call	__RTC_CheckEsp
	mov	esp, ebp
	pop	ebp
	ret	0
?_Orphan_all@?$_Vector_alloc@U?$_Vec_base_types@VNeuron@@V?$allocator@VNeuron@@@std@@@std@@@std@@QAEXXZ ENDP ; std::_Vector_alloc<std::_Vec_base_types<Neuron,std::allocator<Neuron> > >::_Orphan_all
_TEXT	ENDS
; Function compile flags: /Odtp /RTCsu
; File c:\program files (x86)\microsoft visual studio\2017\community\vc\tools\msvc\14.11.25503\include\vector
;	COMDAT ?_Myproxy@?$_Vector_alloc@U?$_Vec_base_types@VNeuron@@V?$allocator@VNeuron@@@std@@@std@@@std@@QAEAAPAU_Container_proxy@2@XZ
_TEXT	SEGMENT
_this$ = -4						; size = 4
?_Myproxy@?$_Vector_alloc@U?$_Vec_base_types@VNeuron@@V?$allocator@VNeuron@@@std@@@std@@@std@@QAEAAPAU_Container_proxy@2@XZ PROC ; std::_Vector_alloc<std::_Vec_base_types<Neuron,std::allocator<Neuron> > >::_Myproxy, COMDAT
; _this$ = ecx

; 568  : 		{	// return reference to _Myproxy

	push	ebp
	mov	ebp, esp
	push	ecx
	mov	DWORD PTR [ebp-4], -858993460		; ccccccccH
	mov	DWORD PTR _this$[ebp], ecx

; 569  : 		return (_Get_data()._Myproxy);

	mov	ecx, DWORD PTR _this$[ebp]
	call	?_Get_data@?$_Vector_alloc@U?$_Vec_base_types@VNeuron@@V?$allocator@VNeuron@@@std@@@std@@@std@@QAEAAV?$_Vector_val@U?$_Simple_types@VNeuron@@@std@@@2@XZ ; std::_Vector_alloc<std::_Vec_base_types<Neuron,std::allocator<Neuron> > >::_Get_data

; 570  : 		}

	add	esp, 4
	cmp	ebp, esp
	call	__RTC_CheckEsp
	mov	esp, ebp
	pop	ebp
	ret	0
?_Myproxy@?$_Vector_alloc@U?$_Vec_base_types@VNeuron@@V?$allocator@VNeuron@@@std@@@std@@@std@@QAEAAPAU_Container_proxy@2@XZ ENDP ; std::_Vector_alloc<std::_Vec_base_types<Neuron,std::allocator<Neuron> > >::_Myproxy
_TEXT	ENDS
; Function compile flags: /Odtp /RTCsu
; File c:\program files (x86)\microsoft visual studio\2017\community\vc\tools\msvc\14.11.25503\include\vector
;	COMDAT ?_Getpfirst@?$_Vector_alloc@U?$_Vec_base_types@VNeuron@@V?$allocator@VNeuron@@@std@@@std@@@std@@QBEPAPAU_Iterator_base12@2@XZ
_TEXT	SEGMENT
_this$ = -4						; size = 4
?_Getpfirst@?$_Vector_alloc@U?$_Vec_base_types@VNeuron@@V?$allocator@VNeuron@@@std@@@std@@@std@@QBEPAPAU_Iterator_base12@2@XZ PROC ; std::_Vector_alloc<std::_Vec_base_types<Neuron,std::allocator<Neuron> > >::_Getpfirst, COMDAT
; _this$ = ecx

; 563  : 		{	// get address of iterator chain

	push	ebp
	mov	ebp, esp
	push	ecx
	mov	DWORD PTR [ebp-4], -858993460		; ccccccccH
	mov	DWORD PTR _this$[ebp], ecx

; 564  : 		return (_Get_data()._Getpfirst());

	mov	ecx, DWORD PTR _this$[ebp]
	call	?_Get_data@?$_Vector_alloc@U?$_Vec_base_types@VNeuron@@V?$allocator@VNeuron@@@std@@@std@@@std@@QBEABV?$_Vector_val@U?$_Simple_types@VNeuron@@@std@@@2@XZ ; std::_Vector_alloc<std::_Vec_base_types<Neuron,std::allocator<Neuron> > >::_Get_data
	mov	ecx, eax
	call	?_Getpfirst@_Container_base12@std@@QBEPAPAU_Iterator_base12@2@XZ ; std::_Container_base12::_Getpfirst

; 565  : 		}

	add	esp, 4
	cmp	ebp, esp
	call	__RTC_CheckEsp
	mov	esp, ebp
	pop	ebp
	ret	0
?_Getpfirst@?$_Vector_alloc@U?$_Vec_base_types@VNeuron@@V?$allocator@VNeuron@@@std@@@std@@@std@@QBEPAPAU_Iterator_base12@2@XZ ENDP ; std::_Vector_alloc<std::_Vec_base_types<Neuron,std::allocator<Neuron> > >::_Getpfirst
_TEXT	ENDS
; Function compile flags: /Odtp /RTCsu
; File c:\program files (x86)\microsoft visual studio\2017\community\vc\tools\msvc\14.11.25503\include\vector
;	COMDAT ?_Free_proxy@?$_Vector_alloc@U?$_Vec_base_types@VNeuron@@V?$allocator@VNeuron@@@std@@@std@@@std@@QAEXXZ
_TEXT	SEGMENT
__Proxy_allocator$ = -9					; size = 1
_this$ = -4						; size = 4
?_Free_proxy@?$_Vector_alloc@U?$_Vec_base_types@VNeuron@@V?$allocator@VNeuron@@@std@@@std@@@std@@QAEXXZ PROC ; std::_Vector_alloc<std::_Vec_base_types<Neuron,std::allocator<Neuron> > >::_Free_proxy, COMDAT
; _this$ = ecx

; 554  : 		{	// destroy proxy

	push	ebp
	mov	ebp, esp
	sub	esp, 16					; 00000010H
	mov	eax, -858993460				; ccccccccH
	mov	DWORD PTR [ebp-16], eax
	mov	DWORD PTR [ebp-12], eax
	mov	DWORD PTR [ebp-8], eax
	mov	DWORD PTR [ebp-4], eax
	mov	DWORD PTR _this$[ebp], ecx

; 555  : 		_Alproxy _Proxy_allocator(_Getal());

	mov	ecx, DWORD PTR _this$[ebp]
	call	?_Getal@?$_Vector_alloc@U?$_Vec_base_types@VNeuron@@V?$allocator@VNeuron@@@std@@@std@@@std@@QAEAAV?$allocator@VNeuron@@@2@XZ ; std::_Vector_alloc<std::_Vec_base_types<Neuron,std::allocator<Neuron> > >::_Getal
	push	eax
	lea	ecx, DWORD PTR __Proxy_allocator$[ebp]
	call	??$?0VNeuron@@@?$allocator@U_Container_proxy@std@@@std@@QAE@ABV?$allocator@VNeuron@@@1@@Z ; std::allocator<std::_Container_proxy>::allocator<std::_Container_proxy><Neuron>

; 556  : 		_Orphan_all();

	mov	ecx, DWORD PTR _this$[ebp]
	call	?_Orphan_all@?$_Vector_alloc@U?$_Vec_base_types@VNeuron@@V?$allocator@VNeuron@@@std@@@std@@@std@@QAEXXZ ; std::_Vector_alloc<std::_Vec_base_types<Neuron,std::allocator<Neuron> > >::_Orphan_all

; 557  : 		_Alproxy_traits::destroy(_Proxy_allocator, _Myproxy());

	mov	ecx, DWORD PTR _this$[ebp]
	call	?_Myproxy@?$_Vector_alloc@U?$_Vec_base_types@VNeuron@@V?$allocator@VNeuron@@@std@@@std@@@std@@QAEAAPAU_Container_proxy@2@XZ ; std::_Vector_alloc<std::_Vec_base_types<Neuron,std::allocator<Neuron> > >::_Myproxy
	mov	eax, DWORD PTR [eax]
	push	eax
	lea	ecx, DWORD PTR __Proxy_allocator$[ebp]
	push	ecx
	call	??$destroy@U_Container_proxy@std@@@?$_Default_allocator_traits@V?$allocator@U_Container_proxy@std@@@std@@@std@@SAXAAV?$allocator@U_Container_proxy@std@@@1@QAU_Container_proxy@1@@Z ; std::_Default_allocator_traits<std::allocator<std::_Container_proxy> >::destroy<std::_Container_proxy>
	add	esp, 8

; 558  : 		_Deallocate_plain(_Proxy_allocator, _Myproxy());

	mov	ecx, DWORD PTR _this$[ebp]
	call	?_Myproxy@?$_Vector_alloc@U?$_Vec_base_types@VNeuron@@V?$allocator@VNeuron@@@std@@@std@@@std@@QAEAAPAU_Container_proxy@2@XZ ; std::_Vector_alloc<std::_Vec_base_types<Neuron,std::allocator<Neuron> > >::_Myproxy
	mov	edx, DWORD PTR [eax]
	push	edx
	lea	eax, DWORD PTR __Proxy_allocator$[ebp]
	push	eax
	call	??$_Deallocate_plain@V?$allocator@U_Container_proxy@std@@@std@@$0A@@std@@YAXAAV?$allocator@U_Container_proxy@std@@@0@QAU_Container_proxy@0@@Z ; std::_Deallocate_plain<std::allocator<std::_Container_proxy>,0>
	add	esp, 8

; 559  : 		_Myproxy() = 0;

	mov	ecx, DWORD PTR _this$[ebp]
	call	?_Myproxy@?$_Vector_alloc@U?$_Vec_base_types@VNeuron@@V?$allocator@VNeuron@@@std@@@std@@@std@@QAEAAPAU_Container_proxy@2@XZ ; std::_Vector_alloc<std::_Vec_base_types<Neuron,std::allocator<Neuron> > >::_Myproxy
	mov	DWORD PTR [eax], 0

; 560  : 		}

	push	edx
	mov	ecx, ebp
	push	eax
	lea	edx, DWORD PTR $LN5@Free_proxy
	call	@_RTC_CheckStackVars@8
	pop	eax
	pop	edx
	add	esp, 16					; 00000010H
	cmp	ebp, esp
	call	__RTC_CheckEsp
	mov	esp, ebp
	pop	ebp
	ret	0
	npad	2
$LN5@Free_proxy:
	DD	1
	DD	$LN4@Free_proxy
$LN4@Free_proxy:
	DD	-9					; fffffff7H
	DD	1
	DD	$LN3@Free_proxy
$LN3@Free_proxy:
	DB	95					; 0000005fH
	DB	80					; 00000050H
	DB	114					; 00000072H
	DB	111					; 0000006fH
	DB	120					; 00000078H
	DB	121					; 00000079H
	DB	95					; 0000005fH
	DB	97					; 00000061H
	DB	108					; 0000006cH
	DB	108					; 0000006cH
	DB	111					; 0000006fH
	DB	99					; 00000063H
	DB	97					; 00000061H
	DB	116					; 00000074H
	DB	111					; 0000006fH
	DB	114					; 00000072H
	DB	0
?_Free_proxy@?$_Vector_alloc@U?$_Vec_base_types@VNeuron@@V?$allocator@VNeuron@@@std@@@std@@@std@@QAEXXZ ENDP ; std::_Vector_alloc<std::_Vec_base_types<Neuron,std::allocator<Neuron> > >::_Free_proxy
_TEXT	ENDS
; Function compile flags: /Odtp /RTCsu
; File c:\program files (x86)\microsoft visual studio\2017\community\vc\tools\msvc\14.11.25503\include\vector
;	COMDAT ?_Alloc_proxy@?$_Vector_alloc@U?$_Vec_base_types@VNeuron@@V?$allocator@VNeuron@@@std@@@std@@@std@@QAEXXZ
_TEXT	SEGMENT
$T1 = -24						; size = 8
__Proxy_allocator$ = -9					; size = 1
_this$ = -4						; size = 4
?_Alloc_proxy@?$_Vector_alloc@U?$_Vec_base_types@VNeuron@@V?$allocator@VNeuron@@@std@@@std@@@std@@QAEXXZ PROC ; std::_Vector_alloc<std::_Vec_base_types<Neuron,std::allocator<Neuron> > >::_Alloc_proxy, COMDAT
; _this$ = ecx

; 546  : 		{	// construct proxy

	push	ebp
	mov	ebp, esp
	sub	esp, 24					; 00000018H
	push	esi
	mov	eax, -858993460				; ccccccccH
	mov	DWORD PTR [ebp-24], eax
	mov	DWORD PTR [ebp-20], eax
	mov	DWORD PTR [ebp-16], eax
	mov	DWORD PTR [ebp-12], eax
	mov	DWORD PTR [ebp-8], eax
	mov	DWORD PTR [ebp-4], eax
	mov	DWORD PTR _this$[ebp], ecx

; 547  : 		_Alproxy _Proxy_allocator(_Getal());

	mov	ecx, DWORD PTR _this$[ebp]
	call	?_Getal@?$_Vector_alloc@U?$_Vec_base_types@VNeuron@@V?$allocator@VNeuron@@@std@@@std@@@std@@QAEAAV?$allocator@VNeuron@@@2@XZ ; std::_Vector_alloc<std::_Vec_base_types<Neuron,std::allocator<Neuron> > >::_Getal
	push	eax
	lea	ecx, DWORD PTR __Proxy_allocator$[ebp]
	call	??$?0VNeuron@@@?$allocator@U_Container_proxy@std@@@std@@QAE@ABV?$allocator@VNeuron@@@1@@Z ; std::allocator<std::_Container_proxy>::allocator<std::_Container_proxy><Neuron>

; 548  : 		_Myproxy() = _Unfancy(_Proxy_allocator.allocate(1));

	push	1
	lea	ecx, DWORD PTR __Proxy_allocator$[ebp]
	call	?allocate@?$allocator@U_Container_proxy@std@@@std@@QAEPAU_Container_proxy@2@I@Z ; std::allocator<std::_Container_proxy>::allocate
	push	eax
	call	??$_Unfancy@U_Container_proxy@std@@@std@@YAPAU_Container_proxy@0@PAU10@@Z ; std::_Unfancy<std::_Container_proxy>
	add	esp, 4
	mov	esi, eax
	mov	ecx, DWORD PTR _this$[ebp]
	call	?_Myproxy@?$_Vector_alloc@U?$_Vec_base_types@VNeuron@@V?$allocator@VNeuron@@@std@@@std@@@std@@QAEAAPAU_Container_proxy@2@XZ ; std::_Vector_alloc<std::_Vec_base_types<Neuron,std::allocator<Neuron> > >::_Myproxy
	mov	DWORD PTR [eax], esi

; 549  : 		_Alproxy_traits::construct(_Proxy_allocator, _Myproxy(), _Container_proxy());

	lea	ecx, DWORD PTR $T1[ebp]
	call	??0_Container_proxy@std@@QAE@XZ		; std::_Container_proxy::_Container_proxy
	push	eax
	mov	ecx, DWORD PTR _this$[ebp]
	call	?_Myproxy@?$_Vector_alloc@U?$_Vec_base_types@VNeuron@@V?$allocator@VNeuron@@@std@@@std@@@std@@QAEAAPAU_Container_proxy@2@XZ ; std::_Vector_alloc<std::_Vec_base_types<Neuron,std::allocator<Neuron> > >::_Myproxy
	mov	eax, DWORD PTR [eax]
	push	eax
	lea	ecx, DWORD PTR __Proxy_allocator$[ebp]
	push	ecx
	call	??$construct@U_Container_proxy@std@@U12@@?$_Default_allocator_traits@V?$allocator@U_Container_proxy@std@@@std@@@std@@SAXAAV?$allocator@U_Container_proxy@std@@@1@QAU_Container_proxy@1@$$QAU31@@Z ; std::_Default_allocator_traits<std::allocator<std::_Container_proxy> >::construct<std::_Container_proxy,std::_Container_proxy>
	add	esp, 12					; 0000000cH

; 550  : 		_Myproxy()->_Mycont = _STD addressof(_Get_data());

	mov	ecx, DWORD PTR _this$[ebp]
	call	?_Get_data@?$_Vector_alloc@U?$_Vec_base_types@VNeuron@@V?$allocator@VNeuron@@@std@@@std@@@std@@QAEAAV?$_Vector_val@U?$_Simple_types@VNeuron@@@std@@@2@XZ ; std::_Vector_alloc<std::_Vec_base_types<Neuron,std::allocator<Neuron> > >::_Get_data
	push	eax
	call	??$addressof@V?$_Vector_val@U?$_Simple_types@VNeuron@@@std@@@std@@@std@@YAPAV?$_Vector_val@U?$_Simple_types@VNeuron@@@std@@@0@AAV10@@Z ; std::addressof<std::_Vector_val<std::_Simple_types<Neuron> > >
	add	esp, 4
	mov	esi, eax
	mov	ecx, DWORD PTR _this$[ebp]
	call	?_Myproxy@?$_Vector_alloc@U?$_Vec_base_types@VNeuron@@V?$allocator@VNeuron@@@std@@@std@@@std@@QAEAAPAU_Container_proxy@2@XZ ; std::_Vector_alloc<std::_Vec_base_types<Neuron,std::allocator<Neuron> > >::_Myproxy
	mov	edx, DWORD PTR [eax]
	mov	DWORD PTR [edx], esi

; 551  : 		}

	push	edx
	mov	ecx, ebp
	push	eax
	lea	edx, DWORD PTR $LN5@Alloc_prox
	call	@_RTC_CheckStackVars@8
	pop	eax
	pop	edx
	pop	esi
	add	esp, 24					; 00000018H
	cmp	ebp, esp
	call	__RTC_CheckEsp
	mov	esp, ebp
	pop	ebp
	ret	0
$LN5@Alloc_prox:
	DD	1
	DD	$LN4@Alloc_prox
$LN4@Alloc_prox:
	DD	-9					; fffffff7H
	DD	1
	DD	$LN3@Alloc_prox
$LN3@Alloc_prox:
	DB	95					; 0000005fH
	DB	80					; 00000050H
	DB	114					; 00000072H
	DB	111					; 0000006fH
	DB	120					; 00000078H
	DB	121					; 00000079H
	DB	95					; 0000005fH
	DB	97					; 00000061H
	DB	108					; 0000006cH
	DB	108					; 0000006cH
	DB	111					; 0000006fH
	DB	99					; 00000063H
	DB	97					; 00000061H
	DB	116					; 00000074H
	DB	111					; 0000006fH
	DB	114					; 00000072H
	DB	0
?_Alloc_proxy@?$_Vector_alloc@U?$_Vec_base_types@VNeuron@@V?$allocator@VNeuron@@@std@@@std@@@std@@QAEXXZ ENDP ; std::_Vector_alloc<std::_Vec_base_types<Neuron,std::allocator<Neuron> > >::_Alloc_proxy
_TEXT	ENDS
; Function compile flags: /Odtp /RTCsu
; File c:\program files (x86)\microsoft visual studio\2017\community\vc\tools\msvc\14.11.25503\include\vector
;	COMDAT ??1?$_Vector_alloc@U?$_Vec_base_types@VNeuron@@V?$allocator@VNeuron@@@std@@@std@@@std@@QAE@XZ
_TEXT	SEGMENT
_this$ = -16						; size = 4
__$EHRec$ = -12						; size = 12
??1?$_Vector_alloc@U?$_Vec_base_types@VNeuron@@V?$allocator@VNeuron@@@std@@@std@@@std@@QAE@XZ PROC ; std::_Vector_alloc<std::_Vec_base_types<Neuron,std::allocator<Neuron> > >::~_Vector_alloc<std::_Vec_base_types<Neuron,std::allocator<Neuron> > >, COMDAT
; _this$ = ecx

; 505  : 		{	// destroy proxy

	push	ebp
	mov	ebp, esp
	push	-1
	push	__ehhandler$??1?$_Vector_alloc@U?$_Vec_base_types@VNeuron@@V?$allocator@VNeuron@@@std@@@std@@@std@@QAE@XZ
	mov	eax, DWORD PTR fs:0
	push	eax
	push	ecx
	mov	DWORD PTR [ebp-16], -858993460		; ccccccccH
	mov	eax, DWORD PTR ___security_cookie
	xor	eax, ebp
	push	eax
	lea	eax, DWORD PTR __$EHRec$[ebp]
	mov	DWORD PTR fs:0, eax
	mov	DWORD PTR _this$[ebp], ecx

; 506  : 		_Free_proxy();

	mov	ecx, DWORD PTR _this$[ebp]
	call	?_Free_proxy@?$_Vector_alloc@U?$_Vec_base_types@VNeuron@@V?$allocator@VNeuron@@@std@@@std@@@std@@QAEXXZ ; std::_Vector_alloc<std::_Vec_base_types<Neuron,std::allocator<Neuron> > >::_Free_proxy

; 507  : 		}

	mov	ecx, DWORD PTR _this$[ebp]
	call	??1?$_Compressed_pair@V?$allocator@VNeuron@@@std@@V?$_Vector_val@U?$_Simple_types@VNeuron@@@std@@@2@$00@std@@QAE@XZ
	mov	ecx, DWORD PTR __$EHRec$[ebp]
	mov	DWORD PTR fs:0, ecx
	pop	ecx
	add	esp, 16					; 00000010H
	cmp	ebp, esp
	call	__RTC_CheckEsp
	mov	esp, ebp
	pop	ebp
	ret	0
_TEXT	ENDS
;	COMDAT text$x
text$x	SEGMENT
__ehhandler$??1?$_Vector_alloc@U?$_Vec_base_types@VNeuron@@V?$allocator@VNeuron@@@std@@@std@@@std@@QAE@XZ:
	mov	edx, DWORD PTR [esp+8]
	lea	eax, DWORD PTR [edx+12]
	mov	ecx, DWORD PTR [edx-8]
	xor	ecx, eax
	call	@__security_check_cookie@4
	mov	eax, OFFSET __ehfuncinfo$??1?$_Vector_alloc@U?$_Vec_base_types@VNeuron@@V?$allocator@VNeuron@@@std@@@std@@@std@@QAE@XZ
	jmp	___CxxFrameHandler3
text$x	ENDS
??1?$_Vector_alloc@U?$_Vec_base_types@VNeuron@@V?$allocator@VNeuron@@@std@@@std@@@std@@QAE@XZ ENDP ; std::_Vector_alloc<std::_Vec_base_types<Neuron,std::allocator<Neuron> > >::~_Vector_alloc<std::_Vec_base_types<Neuron,std::allocator<Neuron> > >
; Function compile flags: /Odtp /RTCsu
; File c:\program files (x86)\microsoft visual studio\2017\community\vc\tools\msvc\14.11.25503\include\vector
;	COMDAT ??0?$_Vector_alloc@U?$_Vec_base_types@VNeuron@@V?$allocator@VNeuron@@@std@@@std@@@std@@QAE@XZ
_TEXT	SEGMENT
$T2 = -17						; size = 1
_this$ = -16						; size = 4
__$EHRec$ = -12						; size = 12
??0?$_Vector_alloc@U?$_Vec_base_types@VNeuron@@V?$allocator@VNeuron@@@std@@@std@@@std@@QAE@XZ PROC ; std::_Vector_alloc<std::_Vec_base_types<Neuron,std::allocator<Neuron> > >::_Vector_alloc<std::_Vec_base_types<Neuron,std::allocator<Neuron> > >, COMDAT
; _this$ = ecx

; 491  : 		{	// default construct allocator

	push	ebp
	mov	ebp, esp
	push	-1
	push	__ehhandler$??0?$_Vector_alloc@U?$_Vec_base_types@VNeuron@@V?$allocator@VNeuron@@@std@@@std@@@std@@QAE@XZ
	mov	eax, DWORD PTR fs:0
	push	eax
	sub	esp, 8
	mov	DWORD PTR [ebp-20], -858993460		; ccccccccH
	mov	DWORD PTR [ebp-16], -858993460		; ccccccccH
	mov	eax, DWORD PTR ___security_cookie
	xor	eax, ebp
	push	eax
	lea	eax, DWORD PTR __$EHRec$[ebp]
	mov	DWORD PTR fs:0, eax
	mov	DWORD PTR _this$[ebp], ecx

; 490  : 		: _Mypair(_Zero_then_variadic_args_t())

	movzx	eax, BYTE PTR $T2[ebp]
	push	eax
	mov	ecx, DWORD PTR _this$[ebp]
	call	??$?0$$V@?$_Compressed_pair@V?$allocator@VNeuron@@@std@@V?$_Vector_val@U?$_Simple_types@VNeuron@@@std@@@2@$00@std@@QAE@U_Zero_then_variadic_args_t@1@@Z ; std::_Compressed_pair<std::allocator<Neuron>,std::_Vector_val<std::_Simple_types<Neuron> >,1>::_Compressed_pair<std::allocator<Neuron>,std::_Vector_val<std::_Simple_types<Neuron> >,1><>
	mov	DWORD PTR __$EHRec$[ebp+8], 0

; 492  : 		_Alloc_proxy();

	mov	ecx, DWORD PTR _this$[ebp]
	call	?_Alloc_proxy@?$_Vector_alloc@U?$_Vec_base_types@VNeuron@@V?$allocator@VNeuron@@@std@@@std@@@std@@QAEXXZ ; std::_Vector_alloc<std::_Vec_base_types<Neuron,std::allocator<Neuron> > >::_Alloc_proxy

; 493  : 		}

	mov	DWORD PTR __$EHRec$[ebp+8], -1
	mov	eax, DWORD PTR _this$[ebp]
	mov	ecx, DWORD PTR __$EHRec$[ebp]
	mov	DWORD PTR fs:0, ecx
	pop	ecx
	add	esp, 20					; 00000014H
	cmp	ebp, esp
	call	__RTC_CheckEsp
	mov	esp, ebp
	pop	ebp
	ret	0
_TEXT	ENDS
;	COMDAT text$x
text$x	SEGMENT
__unwindfunclet$??0?$_Vector_alloc@U?$_Vec_base_types@VNeuron@@V?$allocator@VNeuron@@@std@@@std@@@std@@QAE@XZ$0:
	mov	ecx, DWORD PTR _this$[ebp]
	jmp	??1?$_Compressed_pair@V?$allocator@VNeuron@@@std@@V?$_Vector_val@U?$_Simple_types@VNeuron@@@std@@@2@$00@std@@QAE@XZ
__ehhandler$??0?$_Vector_alloc@U?$_Vec_base_types@VNeuron@@V?$allocator@VNeuron@@@std@@@std@@@std@@QAE@XZ:
	mov	edx, DWORD PTR [esp+8]
	lea	eax, DWORD PTR [edx+12]
	mov	ecx, DWORD PTR [edx-12]
	xor	ecx, eax
	call	@__security_check_cookie@4
	mov	eax, OFFSET __ehfuncinfo$??0?$_Vector_alloc@U?$_Vec_base_types@VNeuron@@V?$allocator@VNeuron@@@std@@@std@@@std@@QAE@XZ
	jmp	___CxxFrameHandler3
text$x	ENDS
??0?$_Vector_alloc@U?$_Vec_base_types@VNeuron@@V?$allocator@VNeuron@@@std@@@std@@@std@@QAE@XZ ENDP ; std::_Vector_alloc<std::_Vec_base_types<Neuron,std::allocator<Neuron> > >::_Vector_alloc<std::_Vec_base_types<Neuron,std::allocator<Neuron> > >
; Function compile flags: /Odtp /RTCsu
; File c:\program files (x86)\microsoft visual studio\2017\community\vc\tools\msvc\14.11.25503\include\xmemory0
;	COMDAT ?max_size@?$_Default_allocator_traits@V?$allocator@VNeuron@@@std@@@std@@SAIABV?$allocator@VNeuron@@@2@@Z
_TEXT	SEGMENT
___formal$ = 8						; size = 4
?max_size@?$_Default_allocator_traits@V?$allocator@VNeuron@@@std@@@std@@SAIABV?$allocator@VNeuron@@@2@@Z PROC ; std::_Default_allocator_traits<std::allocator<Neuron> >::max_size, COMDAT

; 866  : 		{	// get maximum size

	push	ebp
	mov	ebp, esp

; 867  : 		return (static_cast<size_t>(-1) / sizeof(value_type));

	mov	eax, 107374182				; 06666666H

; 868  : 		}

	pop	ebp
	ret	0
?max_size@?$_Default_allocator_traits@V?$allocator@VNeuron@@@std@@@std@@SAIABV?$allocator@VNeuron@@@2@@Z ENDP ; std::_Default_allocator_traits<std::allocator<Neuron> >::max_size
_TEXT	ENDS
; Function compile flags: /Odtp /RTCsu
; File c:\program files (x86)\microsoft visual studio\2017\community\vc\tools\msvc\14.11.25503\include\xmemory0
;	COMDAT ?allocate@?$allocator@VNeuron@@@std@@QAEPAVNeuron@@I@Z
_TEXT	SEGMENT
_this$ = -4						; size = 4
__Count$ = 8						; size = 4
?allocate@?$allocator@VNeuron@@@std@@QAEPAVNeuron@@I@Z PROC ; std::allocator<Neuron>::allocate, COMDAT
; _this$ = ecx

; 945  : 		{	// allocate array of _Count elements

	push	ebp
	mov	ebp, esp
	push	ecx
	mov	DWORD PTR [ebp-4], -858993460		; ccccccccH
	mov	DWORD PTR _this$[ebp], ecx

; 946  : 		return (static_cast<pointer>(_Allocate(_Count, sizeof(_Ty))));

	push	1
	push	40					; 00000028H
	mov	eax, DWORD PTR __Count$[ebp]
	push	eax
	call	?_Allocate@std@@YAPAXII_N@Z		; std::_Allocate
	add	esp, 12					; 0000000cH

; 947  : 		}

	add	esp, 4
	cmp	ebp, esp
	call	__RTC_CheckEsp
	mov	esp, ebp
	pop	ebp
	ret	4
?allocate@?$allocator@VNeuron@@@std@@QAEPAVNeuron@@I@Z ENDP ; std::allocator<Neuron>::allocate
_TEXT	ENDS
; Function compile flags: /Odtp /RTCsu
; File c:\program files (x86)\microsoft visual studio\2017\community\vc\tools\msvc\14.11.25503\include\xmemory0
;	COMDAT ?deallocate@?$allocator@VNeuron@@@std@@QAEXQAVNeuron@@I@Z
_TEXT	SEGMENT
_this$ = -4						; size = 4
__Ptr$ = 8						; size = 4
__Count$ = 12						; size = 4
?deallocate@?$allocator@VNeuron@@@std@@QAEXQAVNeuron@@I@Z PROC ; std::allocator<Neuron>::deallocate, COMDAT
; _this$ = ecx

; 940  : 		{	// deallocate object at _Ptr

	push	ebp
	mov	ebp, esp
	push	ecx
	mov	DWORD PTR [ebp-4], -858993460		; ccccccccH
	mov	DWORD PTR _this$[ebp], ecx

; 941  : 		_Deallocate(_Ptr, _Count, sizeof(_Ty));

	push	40					; 00000028H
	mov	eax, DWORD PTR __Count$[ebp]
	push	eax
	mov	ecx, DWORD PTR __Ptr$[ebp]
	push	ecx
	call	?_Deallocate@std@@YAXPAXII@Z		; std::_Deallocate
	add	esp, 12					; 0000000cH

; 942  : 		}

	add	esp, 4
	cmp	ebp, esp
	call	__RTC_CheckEsp
	mov	esp, ebp
	pop	ebp
	ret	8
?deallocate@?$allocator@VNeuron@@@std@@QAEXQAVNeuron@@I@Z ENDP ; std::allocator<Neuron>::deallocate
_TEXT	ENDS
; Function compile flags: /Odtp /RTCsu
; File c:\program files (x86)\microsoft visual studio\2017\community\vc\tools\msvc\14.11.25503\include\xmemory0
;	COMDAT ??0?$allocator@VNeuron@@@std@@QAE@XZ
_TEXT	SEGMENT
_this$ = -4						; size = 4
??0?$allocator@VNeuron@@@std@@QAE@XZ PROC		; std::allocator<Neuron>::allocator<Neuron>, COMDAT
; _this$ = ecx

; 929  : 	allocator() _NOEXCEPT

	push	ebp
	mov	ebp, esp
	push	ecx
	mov	DWORD PTR [ebp-4], -858993460		; ccccccccH
	mov	DWORD PTR _this$[ebp], ecx

; 930  : 		{	// construct default allocator (do nothing)
; 931  : 		}

	mov	eax, DWORD PTR _this$[ebp]
	mov	esp, ebp
	pop	ebp
	ret	0
??0?$allocator@VNeuron@@@std@@QAE@XZ ENDP		; std::allocator<Neuron>::allocator<Neuron>
_TEXT	ENDS
; Function compile flags: /Odtp /RTCsu
; File c:\program files (x86)\microsoft visual studio\2017\community\vc\tools\msvc\14.11.25503\include\vector
;	COMDAT ??A?$vector@IV?$allocator@I@std@@@std@@QBEABII@Z
_TEXT	SEGMENT
_this$ = -4						; size = 4
__Pos$ = 8						; size = 4
??A?$vector@IV?$allocator@I@std@@@std@@QBEABII@Z PROC	; std::vector<unsigned int,std::allocator<unsigned int> >::operator[], COMDAT
; _this$ = ecx

; 1806 : 		{	// subscript nonmutable sequence

	push	ebp
	mov	ebp, esp
	push	ecx
	mov	DWORD PTR [ebp-4], -858993460		; ccccccccH
	mov	DWORD PTR _this$[ebp], ecx

; 1807 :  #if _ITERATOR_DEBUG_LEVEL == 2
; 1808 : 		if (size() <= _Pos)

	mov	ecx, DWORD PTR _this$[ebp]
	call	?size@?$vector@IV?$allocator@I@std@@@std@@QBEIXZ ; std::vector<unsigned int,std::allocator<unsigned int> >::size
	cmp	eax, DWORD PTR __Pos$[ebp]
	ja	SHORT $LN2@operator

; 1809 : 			{	// report error
; 1810 : 			_DEBUG_ERROR("vector subscript out of range");

	push	1810					; 00000712H
	push	OFFSET ??_C@_1MO@PKCMDADL@?$AAC?$AA?3?$AA?2?$AAP?$AAr?$AAo?$AAg?$AAr?$AAa?$AAm?$AA?5?$AAF?$AAi?$AAl?$AAe?$AAs?$AA?5?$AA?$CI?$AAx?$AA8?$AA6?$AA?$CJ?$AA?2?$AAM?$AAi?$AAc?$AAr?$AAo?$AAs?$AAo?$AAf?$AAt@
	push	OFFSET ??_C@_1DM@LHGCHCBA@?$AAv?$AAe?$AAc?$AAt?$AAo?$AAr?$AA?5?$AAs?$AAu?$AAb?$AAs?$AAc?$AAr?$AAi?$AAp?$AAt?$AA?5?$AAo?$AAu?$AAt?$AA?5?$AAo?$AAf?$AA?5?$AAr?$AAa?$AAn?$AAg?$AAe?$AA?$AA@
	call	?_Debug_message@std@@YAXPB_W0I@Z	; std::_Debug_message
	add	esp, 12					; 0000000cH
	push	0
	push	1810					; 00000712H
	push	OFFSET ??_C@_1MO@PKCMDADL@?$AAC?$AA?3?$AA?2?$AAP?$AAr?$AAo?$AAg?$AAr?$AAa?$AAm?$AA?5?$AAF?$AAi?$AAl?$AAe?$AAs?$AA?5?$AA?$CI?$AAx?$AA8?$AA6?$AA?$CJ?$AA?2?$AAM?$AAi?$AAc?$AAr?$AAo?$AAs?$AAo?$AAf?$AAt@
	push	OFFSET ??_C@_1JG@ILDNFCDK@?$AAs?$AAt?$AAd?$AA?3?$AA?3?$AAv?$AAe?$AAc?$AAt?$AAo?$AAr?$AA?$DM?$AAu?$AAn?$AAs?$AAi?$AAg?$AAn?$AAe?$AAd?$AA?5?$AAi?$AAn?$AAt?$AA?0?$AAc?$AAl?$AAa?$AAs?$AAs?$AA?5?$AAs@
	push	OFFSET ??_C@_1EA@LEKOKFNB@?$AA?$CC?$AAv?$AAe?$AAc?$AAt?$AAo?$AAr?$AA?5?$AAs?$AAu?$AAb?$AAs?$AAc?$AAr?$AAi?$AAp?$AAt?$AA?5?$AAo?$AAu?$AAt?$AA?5?$AAo?$AAf?$AA?5?$AAr?$AAa?$AAn?$AAg?$AAe?$AA?$CC?$AA?$AA@
	call	__invalid_parameter
	add	esp, 20					; 00000014H
$LN2@operator:

; 1811 : 			}
; 1812 :  #elif _ITERATOR_DEBUG_LEVEL == 1
; 1813 : 		_SCL_SECURE_VALIDATE_RANGE(_Pos < size());
; 1814 :  #endif /* _ITERATOR_DEBUG_LEVEL */
; 1815 : 
; 1816 : 		return (this->_Myfirst()[_Pos]);

	mov	ecx, DWORD PTR _this$[ebp]
	call	?_Myfirst@?$_Vector_alloc@U?$_Vec_base_types@IV?$allocator@I@std@@@std@@@std@@QBEABQAIXZ ; std::_Vector_alloc<std::_Vec_base_types<unsigned int,std::allocator<unsigned int> > >::_Myfirst
	mov	eax, DWORD PTR [eax]
	mov	ecx, DWORD PTR __Pos$[ebp]
	lea	eax, DWORD PTR [eax+ecx*4]

; 1817 : 		}

	add	esp, 4
	cmp	ebp, esp
	call	__RTC_CheckEsp
	mov	esp, ebp
	pop	ebp
	ret	4
??A?$vector@IV?$allocator@I@std@@@std@@QBEABII@Z ENDP	; std::vector<unsigned int,std::allocator<unsigned int> >::operator[]
_TEXT	ENDS
; Function compile flags: /Odtp /RTCsu
; File c:\program files (x86)\microsoft visual studio\2017\community\vc\tools\msvc\14.11.25503\include\vector
;	COMDAT ?size@?$vector@IV?$allocator@I@std@@@std@@QBEIXZ
_TEXT	SEGMENT
_this$ = -4						; size = 4
?size@?$vector@IV?$allocator@I@std@@@std@@QBEIXZ PROC	; std::vector<unsigned int,std::allocator<unsigned int> >::size, COMDAT
; _this$ = ecx

; 1764 : 		{	// return length of sequence

	push	ebp
	mov	ebp, esp
	push	ecx
	push	esi
	mov	DWORD PTR [ebp-4], -858993460		; ccccccccH
	mov	DWORD PTR _this$[ebp], ecx

; 1765 : 		return (static_cast<size_type>(this->_Mylast() - this->_Myfirst()));

	mov	ecx, DWORD PTR _this$[ebp]
	call	?_Mylast@?$_Vector_alloc@U?$_Vec_base_types@IV?$allocator@I@std@@@std@@@std@@QBEABQAIXZ ; std::_Vector_alloc<std::_Vec_base_types<unsigned int,std::allocator<unsigned int> > >::_Mylast
	mov	esi, eax
	mov	ecx, DWORD PTR _this$[ebp]
	call	?_Myfirst@?$_Vector_alloc@U?$_Vec_base_types@IV?$allocator@I@std@@@std@@@std@@QBEABQAIXZ ; std::_Vector_alloc<std::_Vec_base_types<unsigned int,std::allocator<unsigned int> > >::_Myfirst
	mov	ecx, DWORD PTR [esi]
	sub	ecx, DWORD PTR [eax]
	sar	ecx, 2
	mov	eax, ecx

; 1766 : 		}

	pop	esi
	add	esp, 4
	cmp	ebp, esp
	call	__RTC_CheckEsp
	mov	esp, ebp
	pop	ebp
	ret	0
?size@?$vector@IV?$allocator@I@std@@@std@@QBEIXZ ENDP	; std::vector<unsigned int,std::allocator<unsigned int> >::size
_TEXT	ENDS
; Function compile flags: /Odtp /RTCsu
; File c:\program files (x86)\microsoft visual studio\2017\community\vc\tools\msvc\14.11.25503\include\xutility
;	COMDAT ?_Get_second@?$_Compressed_pair@V?$allocator@I@std@@V?$_Vector_val@U?$_Simple_types@I@std@@@2@$00@std@@QBEABV?$_Vector_val@U?$_Simple_types@I@std@@@2@XZ
_TEXT	SEGMENT
_this$ = -4						; size = 4
?_Get_second@?$_Compressed_pair@V?$allocator@I@std@@V?$_Vector_val@U?$_Simple_types@I@std@@@2@$00@std@@QBEABV?$_Vector_val@U?$_Simple_types@I@std@@@2@XZ PROC ; std::_Compressed_pair<std::allocator<unsigned int>,std::_Vector_val<std::_Simple_types<unsigned int> >,1>::_Get_second, COMDAT
; _this$ = ecx

; 342  : 		{	// return const reference to second

	push	ebp
	mov	ebp, esp
	push	ecx
	mov	DWORD PTR [ebp-4], -858993460		; ccccccccH
	mov	DWORD PTR _this$[ebp], ecx

; 343  : 		return (_Myval2);

	mov	eax, DWORD PTR _this$[ebp]

; 344  : 		}

	mov	esp, ebp
	pop	ebp
	ret	0
?_Get_second@?$_Compressed_pair@V?$allocator@I@std@@V?$_Vector_val@U?$_Simple_types@I@std@@@2@$00@std@@QBEABV?$_Vector_val@U?$_Simple_types@I@std@@@2@XZ ENDP ; std::_Compressed_pair<std::allocator<unsigned int>,std::_Vector_val<std::_Simple_types<unsigned int> >,1>::_Get_second
_TEXT	ENDS
; Function compile flags: /Odtp /RTCsu
; File c:\program files (x86)\microsoft visual studio\2017\community\vc\tools\msvc\14.11.25503\include\vector
;	COMDAT ?_Mylast@?$_Vector_alloc@U?$_Vec_base_types@IV?$allocator@I@std@@@std@@@std@@QBEABQAIXZ
_TEXT	SEGMENT
_this$ = -4						; size = 4
?_Mylast@?$_Vector_alloc@U?$_Vec_base_types@IV?$allocator@I@std@@@std@@@std@@QBEABQAIXZ PROC ; std::_Vector_alloc<std::_Vec_base_types<unsigned int,std::allocator<unsigned int> > >::_Mylast, COMDAT
; _this$ = ecx

; 624  : 		{	// return const reference to _Mylast

	push	ebp
	mov	ebp, esp
	push	ecx
	mov	DWORD PTR [ebp-4], -858993460		; ccccccccH
	mov	DWORD PTR _this$[ebp], ecx

; 625  : 		return (_Get_data()._Mylast);

	mov	ecx, DWORD PTR _this$[ebp]
	call	?_Get_data@?$_Vector_alloc@U?$_Vec_base_types@IV?$allocator@I@std@@@std@@@std@@QBEABV?$_Vector_val@U?$_Simple_types@I@std@@@2@XZ ; std::_Vector_alloc<std::_Vec_base_types<unsigned int,std::allocator<unsigned int> > >::_Get_data
	add	eax, 8

; 626  : 		}

	add	esp, 4
	cmp	ebp, esp
	call	__RTC_CheckEsp
	mov	esp, ebp
	pop	ebp
	ret	0
?_Mylast@?$_Vector_alloc@U?$_Vec_base_types@IV?$allocator@I@std@@@std@@@std@@QBEABQAIXZ ENDP ; std::_Vector_alloc<std::_Vec_base_types<unsigned int,std::allocator<unsigned int> > >::_Mylast
_TEXT	ENDS
; Function compile flags: /Odtp /RTCsu
; File c:\program files (x86)\microsoft visual studio\2017\community\vc\tools\msvc\14.11.25503\include\vector
;	COMDAT ?_Myfirst@?$_Vector_alloc@U?$_Vec_base_types@IV?$allocator@I@std@@@std@@@std@@QBEABQAIXZ
_TEXT	SEGMENT
_this$ = -4						; size = 4
?_Myfirst@?$_Vector_alloc@U?$_Vec_base_types@IV?$allocator@I@std@@@std@@@std@@QBEABQAIXZ PROC ; std::_Vector_alloc<std::_Vec_base_types<unsigned int,std::allocator<unsigned int> > >::_Myfirst, COMDAT
; _this$ = ecx

; 614  : 		{	// return const reference to _Myfirst

	push	ebp
	mov	ebp, esp
	push	ecx
	mov	DWORD PTR [ebp-4], -858993460		; ccccccccH
	mov	DWORD PTR _this$[ebp], ecx

; 615  : 		return (_Get_data()._Myfirst);

	mov	ecx, DWORD PTR _this$[ebp]
	call	?_Get_data@?$_Vector_alloc@U?$_Vec_base_types@IV?$allocator@I@std@@@std@@@std@@QBEABV?$_Vector_val@U?$_Simple_types@I@std@@@2@XZ ; std::_Vector_alloc<std::_Vec_base_types<unsigned int,std::allocator<unsigned int> > >::_Get_data
	add	eax, 4

; 616  : 		}

	add	esp, 4
	cmp	ebp, esp
	call	__RTC_CheckEsp
	mov	esp, ebp
	pop	ebp
	ret	0
?_Myfirst@?$_Vector_alloc@U?$_Vec_base_types@IV?$allocator@I@std@@@std@@@std@@QBEABQAIXZ ENDP ; std::_Vector_alloc<std::_Vec_base_types<unsigned int,std::allocator<unsigned int> > >::_Myfirst
_TEXT	ENDS
; Function compile flags: /Odtp /RTCsu
; File c:\program files (x86)\microsoft visual studio\2017\community\vc\tools\msvc\14.11.25503\include\vector
;	COMDAT ?_Get_data@?$_Vector_alloc@U?$_Vec_base_types@IV?$allocator@I@std@@@std@@@std@@QBEABV?$_Vector_val@U?$_Simple_types@I@std@@@2@XZ
_TEXT	SEGMENT
_this$ = -4						; size = 4
?_Get_data@?$_Vector_alloc@U?$_Vec_base_types@IV?$allocator@I@std@@@std@@@std@@QBEABV?$_Vector_val@U?$_Simple_types@I@std@@@2@XZ PROC ; std::_Vector_alloc<std::_Vec_base_types<unsigned int,std::allocator<unsigned int> > >::_Get_data, COMDAT
; _this$ = ecx

; 604  : 		{	// return const reference to _Vector_val

	push	ebp
	mov	ebp, esp
	push	ecx
	mov	DWORD PTR [ebp-4], -858993460		; ccccccccH
	mov	DWORD PTR _this$[ebp], ecx

; 605  : 		return (_Mypair._Get_second());

	mov	ecx, DWORD PTR _this$[ebp]
	call	?_Get_second@?$_Compressed_pair@V?$allocator@I@std@@V?$_Vector_val@U?$_Simple_types@I@std@@@2@$00@std@@QBEABV?$_Vector_val@U?$_Simple_types@I@std@@@2@XZ ; std::_Compressed_pair<std::allocator<unsigned int>,std::_Vector_val<std::_Simple_types<unsigned int> >,1>::_Get_second

; 606  : 		}

	add	esp, 4
	cmp	ebp, esp
	call	__RTC_CheckEsp
	mov	esp, ebp
	pop	ebp
	ret	0
?_Get_data@?$_Vector_alloc@U?$_Vec_base_types@IV?$allocator@I@std@@@std@@@std@@QBEABV?$_Vector_val@U?$_Simple_types@I@std@@@2@XZ ENDP ; std::_Vector_alloc<std::_Vec_base_types<unsigned int,std::allocator<unsigned int> > >::_Get_data
_TEXT	ENDS
; Function compile flags: /Odtp /RTCsu
; File c:\program files (x86)\microsoft visual studio\2017\community\vc\tools\msvc\14.11.25503\include\vector
;	COMDAT ?_Orphan_range@?$vector@V?$vector@VNeuron@@V?$allocator@VNeuron@@@std@@@std@@V?$allocator@V?$vector@VNeuron@@V?$allocator@VNeuron@@@std@@@std@@@2@@std@@ABEXPAV?$vector@VNeuron@@V?$allocator@VNeuron@@@std@@@2@0@Z
_TEXT	SEGMENT
__Pnext$ = -32						; size = 4
__Lock$ = -24						; size = 4
_this$ = -16						; size = 4
__$EHRec$ = -12						; size = 12
__First$ = 8						; size = 4
__Last$ = 12						; size = 4
?_Orphan_range@?$vector@V?$vector@VNeuron@@V?$allocator@VNeuron@@@std@@@std@@V?$allocator@V?$vector@VNeuron@@V?$allocator@VNeuron@@@std@@@std@@@2@@std@@ABEXPAV?$vector@VNeuron@@V?$allocator@VNeuron@@@std@@@2@0@Z PROC ; std::vector<std::vector<Neuron,std::allocator<Neuron> >,std::allocator<std::vector<Neuron,std::allocator<Neuron> > > >::_Orphan_range, COMDAT
; _this$ = ecx

; 2027 : 		{	// orphan iterators within specified (inclusive) range

	push	ebp
	mov	ebp, esp
	push	-1
	push	__ehhandler$?_Orphan_range@?$vector@V?$vector@VNeuron@@V?$allocator@VNeuron@@@std@@@std@@V?$allocator@V?$vector@VNeuron@@V?$allocator@VNeuron@@@std@@@std@@@2@@std@@ABEXPAV?$vector@VNeuron@@V?$allocator@VNeuron@@@std@@@2@0@Z
	mov	eax, DWORD PTR fs:0
	push	eax
	sub	esp, 20					; 00000014H
	mov	eax, -858993460				; ccccccccH
	mov	DWORD PTR [ebp-32], eax
	mov	DWORD PTR [ebp-28], eax
	mov	DWORD PTR [ebp-24], eax
	mov	DWORD PTR [ebp-20], eax
	mov	DWORD PTR [ebp-16], eax
	mov	eax, DWORD PTR ___security_cookie
	xor	eax, ebp
	push	eax
	lea	eax, DWORD PTR __$EHRec$[ebp]
	mov	DWORD PTR fs:0, eax
	mov	DWORD PTR _this$[ebp], ecx

; 2028 : 		_Lockit _Lock(_LOCK_DEBUG);

	push	3
	lea	ecx, DWORD PTR __Lock$[ebp]
	call	??0_Lockit@std@@QAE@H@Z			; std::_Lockit::_Lockit
	mov	DWORD PTR __$EHRec$[ebp+8], 0

; 2029 : 
; 2030 : 		const_iterator ** _Pnext = reinterpret_cast<const_iterator **>(this->_Getpfirst());

	mov	ecx, DWORD PTR _this$[ebp]
	call	?_Getpfirst@?$_Vector_alloc@U?$_Vec_base_types@V?$vector@VNeuron@@V?$allocator@VNeuron@@@std@@@std@@V?$allocator@V?$vector@VNeuron@@V?$allocator@VNeuron@@@std@@@std@@@2@@std@@@std@@QBEPAPAU_Iterator_base12@2@XZ ; std::_Vector_alloc<std::_Vec_base_types<std::vector<Neuron,std::allocator<Neuron> >,std::allocator<std::vector<Neuron,std::allocator<Neuron> > > > >::_Getpfirst
	mov	DWORD PTR __Pnext$[ebp], eax

; 2031 : 
; 2032 : 		if (_Pnext)

	cmp	DWORD PTR __Pnext$[ebp], 0
	je	SHORT $LN4@Orphan_ran
$LN2@Orphan_ran:

; 2033 : 			{
; 2034 : 			while (*_Pnext)

	mov	eax, DWORD PTR __Pnext$[ebp]
	cmp	DWORD PTR [eax], 0
	je	SHORT $LN4@Orphan_ran

; 2035 : 				{
; 2036 : 				if ((*_Pnext)->_Ptr < _First || _Last < (*_Pnext)->_Ptr)

	mov	ecx, DWORD PTR __Pnext$[ebp]
	mov	edx, DWORD PTR [ecx]
	mov	eax, DWORD PTR [edx+8]
	cmp	eax, DWORD PTR __First$[ebp]
	jb	SHORT $LN7@Orphan_ran
	mov	ecx, DWORD PTR __Pnext$[ebp]
	mov	edx, DWORD PTR [ecx]
	mov	eax, DWORD PTR __Last$[ebp]
	cmp	eax, DWORD PTR [edx+8]
	jae	SHORT $LN5@Orphan_ran
$LN7@Orphan_ran:

; 2037 : 					{	// skip the iterator
; 2038 : 					_Pnext = reinterpret_cast<const_iterator **>((*_Pnext)->_Getpnext());

	mov	ecx, DWORD PTR __Pnext$[ebp]
	mov	ecx, DWORD PTR [ecx]
	call	?_Getpnext@_Iterator_base12@std@@QAEPAPAU12@XZ ; std::_Iterator_base12::_Getpnext
	mov	DWORD PTR __Pnext$[ebp], eax

; 2039 : 					}
; 2040 : 				else

	jmp	SHORT $LN6@Orphan_ran
$LN5@Orphan_ran:

; 2041 : 					{	// orphan the iterator
; 2042 : 					(*_Pnext)->_Clrcont();

	mov	edx, DWORD PTR __Pnext$[ebp]
	mov	ecx, DWORD PTR [edx]
	call	?_Clrcont@_Iterator_base12@std@@QAEXXZ	; std::_Iterator_base12::_Clrcont

; 2043 : 					*_Pnext = *reinterpret_cast<const_iterator **>((*_Pnext)->_Getpnext());

	mov	eax, DWORD PTR __Pnext$[ebp]
	mov	ecx, DWORD PTR [eax]
	call	?_Getpnext@_Iterator_base12@std@@QAEPAPAU12@XZ ; std::_Iterator_base12::_Getpnext
	mov	ecx, DWORD PTR __Pnext$[ebp]
	mov	edx, DWORD PTR [eax]
	mov	DWORD PTR [ecx], edx
$LN6@Orphan_ran:

; 2044 : 					}
; 2045 : 				}

	jmp	SHORT $LN2@Orphan_ran
$LN4@Orphan_ran:

; 2046 : 			}
; 2047 : 		}

	mov	DWORD PTR __$EHRec$[ebp+8], -1
	lea	ecx, DWORD PTR __Lock$[ebp]
	call	??1_Lockit@std@@QAE@XZ			; std::_Lockit::~_Lockit
	push	edx
	mov	ecx, ebp
	push	eax
	lea	edx, DWORD PTR $LN13@Orphan_ran
	call	@_RTC_CheckStackVars@8
	pop	eax
	pop	edx
	mov	ecx, DWORD PTR __$EHRec$[ebp]
	mov	DWORD PTR fs:0, ecx
	pop	ecx
	add	esp, 32					; 00000020H
	cmp	ebp, esp
	call	__RTC_CheckEsp
	mov	esp, ebp
	pop	ebp
	ret	8
	npad	1
$LN13@Orphan_ran:
	DD	1
	DD	$LN12@Orphan_ran
$LN12@Orphan_ran:
	DD	-24					; ffffffe8H
	DD	4
	DD	$LN10@Orphan_ran
$LN10@Orphan_ran:
	DB	95					; 0000005fH
	DB	76					; 0000004cH
	DB	111					; 0000006fH
	DB	99					; 00000063H
	DB	107					; 0000006bH
	DB	0
_TEXT	ENDS
;	COMDAT text$x
text$x	SEGMENT
__unwindfunclet$?_Orphan_range@?$vector@V?$vector@VNeuron@@V?$allocator@VNeuron@@@std@@@std@@V?$allocator@V?$vector@VNeuron@@V?$allocator@VNeuron@@@std@@@std@@@2@@std@@ABEXPAV?$vector@VNeuron@@V?$allocator@VNeuron@@@std@@@2@0@Z$0:
	lea	ecx, DWORD PTR __Lock$[ebp]
	jmp	??1_Lockit@std@@QAE@XZ			; std::_Lockit::~_Lockit
__ehhandler$?_Orphan_range@?$vector@V?$vector@VNeuron@@V?$allocator@VNeuron@@@std@@@std@@V?$allocator@V?$vector@VNeuron@@V?$allocator@VNeuron@@@std@@@std@@@2@@std@@ABEXPAV?$vector@VNeuron@@V?$allocator@VNeuron@@@std@@@2@0@Z:
	mov	edx, DWORD PTR [esp+8]
	lea	eax, DWORD PTR [edx+12]
	mov	ecx, DWORD PTR [edx-24]
	xor	ecx, eax
	call	@__security_check_cookie@4
	mov	eax, OFFSET __ehfuncinfo$?_Orphan_range@?$vector@V?$vector@VNeuron@@V?$allocator@VNeuron@@@std@@@std@@V?$allocator@V?$vector@VNeuron@@V?$allocator@VNeuron@@@std@@@std@@@2@@std@@ABEXPAV?$vector@VNeuron@@V?$allocator@VNeuron@@@std@@@2@0@Z
	jmp	___CxxFrameHandler3
text$x	ENDS
?_Orphan_range@?$vector@V?$vector@VNeuron@@V?$allocator@VNeuron@@@std@@@std@@V?$allocator@V?$vector@VNeuron@@V?$allocator@VNeuron@@@std@@@std@@@2@@std@@ABEXPAV?$vector@VNeuron@@V?$allocator@VNeuron@@@std@@@2@0@Z ENDP ; std::vector<std::vector<Neuron,std::allocator<Neuron> >,std::allocator<std::vector<Neuron,std::allocator<Neuron> > > >::_Orphan_range
; Function compile flags: /Odtp /RTCsu
; File c:\program files (x86)\microsoft visual studio\2017\community\vc\tools\msvc\14.11.25503\include\vector
;	COMDAT ?_Xlength@?$vector@V?$vector@VNeuron@@V?$allocator@VNeuron@@@std@@@std@@V?$allocator@V?$vector@VNeuron@@V?$allocator@VNeuron@@@std@@@std@@@2@@std@@CAXXZ
_TEXT	SEGMENT
?_Xlength@?$vector@V?$vector@VNeuron@@V?$allocator@VNeuron@@@std@@@std@@V?$allocator@V?$vector@VNeuron@@V?$allocator@VNeuron@@@std@@@std@@@2@@std@@CAXXZ PROC ; std::vector<std::vector<Neuron,std::allocator<Neuron> >,std::allocator<std::vector<Neuron,std::allocator<Neuron> > > >::_Xlength, COMDAT

; 2016 : 		{	// report a length_error

	push	ebp
	mov	ebp, esp

; 2017 : 		_Xlength_error("vector<T> too long");

	push	OFFSET ??_C@_0BD@OLBABOEK@vector?$DMT?$DO?5too?5long?$AA@
	call	?_Xlength_error@std@@YAXPBD@Z		; std::_Xlength_error
$LN2@Xlength:

; 2018 : 		}

	cmp	ebp, esp
	call	__RTC_CheckEsp
	pop	ebp
	ret	0
?_Xlength@?$vector@V?$vector@VNeuron@@V?$allocator@VNeuron@@@std@@@std@@V?$allocator@V?$vector@VNeuron@@V?$allocator@VNeuron@@@std@@@std@@@2@@std@@CAXXZ ENDP ; std::vector<std::vector<Neuron,std::allocator<Neuron> >,std::allocator<std::vector<Neuron,std::allocator<Neuron> > > >::_Xlength
_TEXT	ENDS
; Function compile flags: /Odtp /RTCsu
; File c:\program files (x86)\microsoft visual studio\2017\community\vc\tools\msvc\14.11.25503\include\vector
;	COMDAT ?_Tidy@?$vector@V?$vector@VNeuron@@V?$allocator@VNeuron@@@std@@@std@@V?$allocator@V?$vector@VNeuron@@V?$allocator@VNeuron@@@std@@@std@@@2@@std@@AAEXXZ
_TEXT	SEGMENT
_this$ = -4						; size = 4
?_Tidy@?$vector@V?$vector@VNeuron@@V?$allocator@VNeuron@@@std@@@std@@V?$allocator@V?$vector@VNeuron@@V?$allocator@VNeuron@@@std@@@std@@@2@@std@@AAEXXZ PROC ; std::vector<std::vector<Neuron,std::allocator<Neuron> >,std::allocator<std::vector<Neuron,std::allocator<Neuron> > > >::_Tidy, COMDAT
; _this$ = ecx

; 2001 : 		{	// free all storage

	push	ebp
	mov	ebp, esp
	push	ecx
	mov	DWORD PTR [ebp-4], -858993460		; ccccccccH
	mov	DWORD PTR _this$[ebp], ecx

; 2002 : 		this->_Orphan_all();

	mov	ecx, DWORD PTR _this$[ebp]
	call	?_Orphan_all@?$_Vector_alloc@U?$_Vec_base_types@V?$vector@VNeuron@@V?$allocator@VNeuron@@@std@@@std@@V?$allocator@V?$vector@VNeuron@@V?$allocator@VNeuron@@@std@@@std@@@2@@std@@@std@@QAEXXZ ; std::_Vector_alloc<std::_Vec_base_types<std::vector<Neuron,std::allocator<Neuron> >,std::allocator<std::vector<Neuron,std::allocator<Neuron> > > > >::_Orphan_all

; 2003 : 
; 2004 : 		if (this->_Myfirst() != pointer())

	mov	ecx, DWORD PTR _this$[ebp]
	call	?_Myfirst@?$_Vector_alloc@U?$_Vec_base_types@V?$vector@VNeuron@@V?$allocator@VNeuron@@@std@@@std@@V?$allocator@V?$vector@VNeuron@@V?$allocator@VNeuron@@@std@@@std@@@2@@std@@@std@@QAEAAPAV?$vector@VNeuron@@V?$allocator@VNeuron@@@std@@@2@XZ ; std::_Vector_alloc<std::_Vec_base_types<std::vector<Neuron,std::allocator<Neuron> >,std::allocator<std::vector<Neuron,std::allocator<Neuron> > > > >::_Myfirst
	cmp	DWORD PTR [eax], 0
	je	SHORT $LN1@Tidy

; 2005 : 			{	// destroy and deallocate old array
; 2006 : 			_Destroy(this->_Myfirst(), this->_Mylast());

	mov	ecx, DWORD PTR _this$[ebp]
	call	?_Mylast@?$_Vector_alloc@U?$_Vec_base_types@V?$vector@VNeuron@@V?$allocator@VNeuron@@@std@@@std@@V?$allocator@V?$vector@VNeuron@@V?$allocator@VNeuron@@@std@@@std@@@2@@std@@@std@@QAEAAPAV?$vector@VNeuron@@V?$allocator@VNeuron@@@std@@@2@XZ ; std::_Vector_alloc<std::_Vec_base_types<std::vector<Neuron,std::allocator<Neuron> >,std::allocator<std::vector<Neuron,std::allocator<Neuron> > > > >::_Mylast
	mov	eax, DWORD PTR [eax]
	push	eax
	mov	ecx, DWORD PTR _this$[ebp]
	call	?_Myfirst@?$_Vector_alloc@U?$_Vec_base_types@V?$vector@VNeuron@@V?$allocator@VNeuron@@@std@@@std@@V?$allocator@V?$vector@VNeuron@@V?$allocator@VNeuron@@@std@@@std@@@2@@std@@@std@@QAEAAPAV?$vector@VNeuron@@V?$allocator@VNeuron@@@std@@@2@XZ ; std::_Vector_alloc<std::_Vec_base_types<std::vector<Neuron,std::allocator<Neuron> >,std::allocator<std::vector<Neuron,std::allocator<Neuron> > > > >::_Myfirst
	mov	ecx, DWORD PTR [eax]
	push	ecx
	mov	ecx, DWORD PTR _this$[ebp]
	call	?_Destroy@?$vector@V?$vector@VNeuron@@V?$allocator@VNeuron@@@std@@@std@@V?$allocator@V?$vector@VNeuron@@V?$allocator@VNeuron@@@std@@@std@@@2@@std@@AAEXPAV?$vector@VNeuron@@V?$allocator@VNeuron@@@std@@@2@0@Z ; std::vector<std::vector<Neuron,std::allocator<Neuron> >,std::allocator<std::vector<Neuron,std::allocator<Neuron> > > >::_Destroy

; 2007 : 			this->_Getal().deallocate(this->_Myfirst(), capacity());

	mov	ecx, DWORD PTR _this$[ebp]
	call	?capacity@?$vector@V?$vector@VNeuron@@V?$allocator@VNeuron@@@std@@@std@@V?$allocator@V?$vector@VNeuron@@V?$allocator@VNeuron@@@std@@@std@@@2@@std@@QBEIXZ ; std::vector<std::vector<Neuron,std::allocator<Neuron> >,std::allocator<std::vector<Neuron,std::allocator<Neuron> > > >::capacity
	push	eax
	mov	ecx, DWORD PTR _this$[ebp]
	call	?_Myfirst@?$_Vector_alloc@U?$_Vec_base_types@V?$vector@VNeuron@@V?$allocator@VNeuron@@@std@@@std@@V?$allocator@V?$vector@VNeuron@@V?$allocator@VNeuron@@@std@@@std@@@2@@std@@@std@@QAEAAPAV?$vector@VNeuron@@V?$allocator@VNeuron@@@std@@@2@XZ ; std::_Vector_alloc<std::_Vec_base_types<std::vector<Neuron,std::allocator<Neuron> >,std::allocator<std::vector<Neuron,std::allocator<Neuron> > > > >::_Myfirst
	mov	edx, DWORD PTR [eax]
	push	edx
	mov	ecx, DWORD PTR _this$[ebp]
	call	?_Getal@?$_Vector_alloc@U?$_Vec_base_types@V?$vector@VNeuron@@V?$allocator@VNeuron@@@std@@@std@@V?$allocator@V?$vector@VNeuron@@V?$allocator@VNeuron@@@std@@@std@@@2@@std@@@std@@QAEAAV?$allocator@V?$vector@VNeuron@@V?$allocator@VNeuron@@@std@@@std@@@2@XZ ; std::_Vector_alloc<std::_Vec_base_types<std::vector<Neuron,std::allocator<Neuron> >,std::allocator<std::vector<Neuron,std::allocator<Neuron> > > > >::_Getal
	mov	ecx, eax
	call	?deallocate@?$allocator@V?$vector@VNeuron@@V?$allocator@VNeuron@@@std@@@std@@@std@@QAEXQAV?$vector@VNeuron@@V?$allocator@VNeuron@@@std@@@2@I@Z ; std::allocator<std::vector<Neuron,std::allocator<Neuron> > >::deallocate

; 2008 : 
; 2009 : 			this->_Myfirst() = pointer();

	mov	ecx, DWORD PTR _this$[ebp]
	call	?_Myfirst@?$_Vector_alloc@U?$_Vec_base_types@V?$vector@VNeuron@@V?$allocator@VNeuron@@@std@@@std@@V?$allocator@V?$vector@VNeuron@@V?$allocator@VNeuron@@@std@@@std@@@2@@std@@@std@@QAEAAPAV?$vector@VNeuron@@V?$allocator@VNeuron@@@std@@@2@XZ ; std::_Vector_alloc<std::_Vec_base_types<std::vector<Neuron,std::allocator<Neuron> >,std::allocator<std::vector<Neuron,std::allocator<Neuron> > > > >::_Myfirst
	mov	DWORD PTR [eax], 0

; 2010 : 			this->_Mylast() = pointer();

	mov	ecx, DWORD PTR _this$[ebp]
	call	?_Mylast@?$_Vector_alloc@U?$_Vec_base_types@V?$vector@VNeuron@@V?$allocator@VNeuron@@@std@@@std@@V?$allocator@V?$vector@VNeuron@@V?$allocator@VNeuron@@@std@@@std@@@2@@std@@@std@@QAEAAPAV?$vector@VNeuron@@V?$allocator@VNeuron@@@std@@@2@XZ ; std::_Vector_alloc<std::_Vec_base_types<std::vector<Neuron,std::allocator<Neuron> >,std::allocator<std::vector<Neuron,std::allocator<Neuron> > > > >::_Mylast
	mov	DWORD PTR [eax], 0

; 2011 : 			this->_Myend() = pointer();

	mov	ecx, DWORD PTR _this$[ebp]
	call	?_Myend@?$_Vector_alloc@U?$_Vec_base_types@V?$vector@VNeuron@@V?$allocator@VNeuron@@@std@@@std@@V?$allocator@V?$vector@VNeuron@@V?$allocator@VNeuron@@@std@@@std@@@2@@std@@@std@@QAEAAPAV?$vector@VNeuron@@V?$allocator@VNeuron@@@std@@@2@XZ ; std::_Vector_alloc<std::_Vec_base_types<std::vector<Neuron,std::allocator<Neuron> >,std::allocator<std::vector<Neuron,std::allocator<Neuron> > > > >::_Myend
	mov	DWORD PTR [eax], 0
$LN1@Tidy:

; 2012 : 			}
; 2013 : 		}

	add	esp, 4
	cmp	ebp, esp
	call	__RTC_CheckEsp
	mov	esp, ebp
	pop	ebp
	ret	0
?_Tidy@?$vector@V?$vector@VNeuron@@V?$allocator@VNeuron@@@std@@@std@@V?$allocator@V?$vector@VNeuron@@V?$allocator@VNeuron@@@std@@@std@@@2@@std@@AAEXXZ ENDP ; std::vector<std::vector<Neuron,std::allocator<Neuron> >,std::allocator<std::vector<Neuron,std::allocator<Neuron> > > >::_Tidy
_TEXT	ENDS
; Function compile flags: /Odtp /RTCsu
; File c:\program files (x86)\microsoft visual studio\2017\community\vc\tools\msvc\14.11.25503\include\vector
;	COMDAT ?_Change_array@?$vector@V?$vector@VNeuron@@V?$allocator@VNeuron@@@std@@@std@@V?$allocator@V?$vector@VNeuron@@V?$allocator@VNeuron@@@std@@@std@@@2@@std@@AAEXQAV?$vector@VNeuron@@V?$allocator@VNeuron@@@std@@@2@II@Z
_TEXT	SEGMENT
_this$ = -4						; size = 4
__Newvec$ = 8						; size = 4
__Newsize$ = 12						; size = 4
__Newcapacity$ = 16					; size = 4
?_Change_array@?$vector@V?$vector@VNeuron@@V?$allocator@VNeuron@@@std@@@std@@V?$allocator@V?$vector@VNeuron@@V?$allocator@VNeuron@@@std@@@std@@@2@@std@@AAEXQAV?$vector@VNeuron@@V?$allocator@VNeuron@@@std@@@2@II@Z PROC ; std::vector<std::vector<Neuron,std::allocator<Neuron> >,std::allocator<std::vector<Neuron,std::allocator<Neuron> > > >::_Change_array, COMDAT
; _this$ = ecx

; 1986 : 		{	// orphan all iterators, discard old array, acquire new array

	push	ebp
	mov	ebp, esp
	push	ecx
	push	esi
	mov	DWORD PTR [ebp-4], -858993460		; ccccccccH
	mov	DWORD PTR _this$[ebp], ecx

; 1987 : 		this->_Orphan_all();

	mov	ecx, DWORD PTR _this$[ebp]
	call	?_Orphan_all@?$_Vector_alloc@U?$_Vec_base_types@V?$vector@VNeuron@@V?$allocator@VNeuron@@@std@@@std@@V?$allocator@V?$vector@VNeuron@@V?$allocator@VNeuron@@@std@@@std@@@2@@std@@@std@@QAEXXZ ; std::_Vector_alloc<std::_Vec_base_types<std::vector<Neuron,std::allocator<Neuron> >,std::allocator<std::vector<Neuron,std::allocator<Neuron> > > > >::_Orphan_all

; 1988 : 
; 1989 : 		if (this->_Myfirst() != pointer())

	mov	ecx, DWORD PTR _this$[ebp]
	call	?_Myfirst@?$_Vector_alloc@U?$_Vec_base_types@V?$vector@VNeuron@@V?$allocator@VNeuron@@@std@@@std@@V?$allocator@V?$vector@VNeuron@@V?$allocator@VNeuron@@@std@@@std@@@2@@std@@@std@@QAEAAPAV?$vector@VNeuron@@V?$allocator@VNeuron@@@std@@@2@XZ ; std::_Vector_alloc<std::_Vec_base_types<std::vector<Neuron,std::allocator<Neuron> >,std::allocator<std::vector<Neuron,std::allocator<Neuron> > > > >::_Myfirst
	cmp	DWORD PTR [eax], 0
	je	SHORT $LN2@Change_arr

; 1990 : 			{	// destroy and deallocate old array
; 1991 : 			_Destroy(this->_Myfirst(), this->_Mylast());

	mov	ecx, DWORD PTR _this$[ebp]
	call	?_Mylast@?$_Vector_alloc@U?$_Vec_base_types@V?$vector@VNeuron@@V?$allocator@VNeuron@@@std@@@std@@V?$allocator@V?$vector@VNeuron@@V?$allocator@VNeuron@@@std@@@std@@@2@@std@@@std@@QAEAAPAV?$vector@VNeuron@@V?$allocator@VNeuron@@@std@@@2@XZ ; std::_Vector_alloc<std::_Vec_base_types<std::vector<Neuron,std::allocator<Neuron> >,std::allocator<std::vector<Neuron,std::allocator<Neuron> > > > >::_Mylast
	mov	eax, DWORD PTR [eax]
	push	eax
	mov	ecx, DWORD PTR _this$[ebp]
	call	?_Myfirst@?$_Vector_alloc@U?$_Vec_base_types@V?$vector@VNeuron@@V?$allocator@VNeuron@@@std@@@std@@V?$allocator@V?$vector@VNeuron@@V?$allocator@VNeuron@@@std@@@std@@@2@@std@@@std@@QAEAAPAV?$vector@VNeuron@@V?$allocator@VNeuron@@@std@@@2@XZ ; std::_Vector_alloc<std::_Vec_base_types<std::vector<Neuron,std::allocator<Neuron> >,std::allocator<std::vector<Neuron,std::allocator<Neuron> > > > >::_Myfirst
	mov	ecx, DWORD PTR [eax]
	push	ecx
	mov	ecx, DWORD PTR _this$[ebp]
	call	?_Destroy@?$vector@V?$vector@VNeuron@@V?$allocator@VNeuron@@@std@@@std@@V?$allocator@V?$vector@VNeuron@@V?$allocator@VNeuron@@@std@@@std@@@2@@std@@AAEXPAV?$vector@VNeuron@@V?$allocator@VNeuron@@@std@@@2@0@Z ; std::vector<std::vector<Neuron,std::allocator<Neuron> >,std::allocator<std::vector<Neuron,std::allocator<Neuron> > > >::_Destroy

; 1992 : 			this->_Getal().deallocate(this->_Myfirst(), capacity());

	mov	ecx, DWORD PTR _this$[ebp]
	call	?capacity@?$vector@V?$vector@VNeuron@@V?$allocator@VNeuron@@@std@@@std@@V?$allocator@V?$vector@VNeuron@@V?$allocator@VNeuron@@@std@@@std@@@2@@std@@QBEIXZ ; std::vector<std::vector<Neuron,std::allocator<Neuron> >,std::allocator<std::vector<Neuron,std::allocator<Neuron> > > >::capacity
	push	eax
	mov	ecx, DWORD PTR _this$[ebp]
	call	?_Myfirst@?$_Vector_alloc@U?$_Vec_base_types@V?$vector@VNeuron@@V?$allocator@VNeuron@@@std@@@std@@V?$allocator@V?$vector@VNeuron@@V?$allocator@VNeuron@@@std@@@std@@@2@@std@@@std@@QAEAAPAV?$vector@VNeuron@@V?$allocator@VNeuron@@@std@@@2@XZ ; std::_Vector_alloc<std::_Vec_base_types<std::vector<Neuron,std::allocator<Neuron> >,std::allocator<std::vector<Neuron,std::allocator<Neuron> > > > >::_Myfirst
	mov	edx, DWORD PTR [eax]
	push	edx
	mov	ecx, DWORD PTR _this$[ebp]
	call	?_Getal@?$_Vector_alloc@U?$_Vec_base_types@V?$vector@VNeuron@@V?$allocator@VNeuron@@@std@@@std@@V?$allocator@V?$vector@VNeuron@@V?$allocator@VNeuron@@@std@@@std@@@2@@std@@@std@@QAEAAV?$allocator@V?$vector@VNeuron@@V?$allocator@VNeuron@@@std@@@std@@@2@XZ ; std::_Vector_alloc<std::_Vec_base_types<std::vector<Neuron,std::allocator<Neuron> >,std::allocator<std::vector<Neuron,std::allocator<Neuron> > > > >::_Getal
	mov	ecx, eax
	call	?deallocate@?$allocator@V?$vector@VNeuron@@V?$allocator@VNeuron@@@std@@@std@@@std@@QAEXQAV?$vector@VNeuron@@V?$allocator@VNeuron@@@std@@@2@I@Z ; std::allocator<std::vector<Neuron,std::allocator<Neuron> > >::deallocate
$LN2@Change_arr:

; 1993 : 			}
; 1994 : 
; 1995 : 		this->_Myfirst() = _Newvec;

	mov	ecx, DWORD PTR _this$[ebp]
	call	?_Myfirst@?$_Vector_alloc@U?$_Vec_base_types@V?$vector@VNeuron@@V?$allocator@VNeuron@@@std@@@std@@V?$allocator@V?$vector@VNeuron@@V?$allocator@VNeuron@@@std@@@std@@@2@@std@@@std@@QAEAAPAV?$vector@VNeuron@@V?$allocator@VNeuron@@@std@@@2@XZ ; std::_Vector_alloc<std::_Vec_base_types<std::vector<Neuron,std::allocator<Neuron> >,std::allocator<std::vector<Neuron,std::allocator<Neuron> > > > >::_Myfirst
	mov	ecx, DWORD PTR __Newvec$[ebp]
	mov	DWORD PTR [eax], ecx

; 1996 : 		this->_Mylast() = _Newvec + _Newsize;

	mov	esi, DWORD PTR __Newsize$[ebp]
	shl	esi, 4
	add	esi, DWORD PTR __Newvec$[ebp]
	mov	ecx, DWORD PTR _this$[ebp]
	call	?_Mylast@?$_Vector_alloc@U?$_Vec_base_types@V?$vector@VNeuron@@V?$allocator@VNeuron@@@std@@@std@@V?$allocator@V?$vector@VNeuron@@V?$allocator@VNeuron@@@std@@@std@@@2@@std@@@std@@QAEAAPAV?$vector@VNeuron@@V?$allocator@VNeuron@@@std@@@2@XZ ; std::_Vector_alloc<std::_Vec_base_types<std::vector<Neuron,std::allocator<Neuron> >,std::allocator<std::vector<Neuron,std::allocator<Neuron> > > > >::_Mylast
	mov	DWORD PTR [eax], esi

; 1997 : 		this->_Myend() = _Newvec + _Newcapacity;

	mov	esi, DWORD PTR __Newcapacity$[ebp]
	shl	esi, 4
	add	esi, DWORD PTR __Newvec$[ebp]
	mov	ecx, DWORD PTR _this$[ebp]
	call	?_Myend@?$_Vector_alloc@U?$_Vec_base_types@V?$vector@VNeuron@@V?$allocator@VNeuron@@@std@@@std@@V?$allocator@V?$vector@VNeuron@@V?$allocator@VNeuron@@@std@@@std@@@2@@std@@@std@@QAEAAPAV?$vector@VNeuron@@V?$allocator@VNeuron@@@std@@@2@XZ ; std::_Vector_alloc<std::_Vec_base_types<std::vector<Neuron,std::allocator<Neuron> >,std::allocator<std::vector<Neuron,std::allocator<Neuron> > > > >::_Myend
	mov	DWORD PTR [eax], esi

; 1998 : 		}

	pop	esi
	add	esp, 4
	cmp	ebp, esp
	call	__RTC_CheckEsp
	mov	esp, ebp
	pop	ebp
	ret	12					; 0000000cH
?_Change_array@?$vector@V?$vector@VNeuron@@V?$allocator@VNeuron@@@std@@@std@@V?$allocator@V?$vector@VNeuron@@V?$allocator@VNeuron@@@std@@@std@@@2@@std@@AAEXQAV?$vector@VNeuron@@V?$allocator@VNeuron@@@std@@@2@II@Z ENDP ; std::vector<std::vector<Neuron,std::allocator<Neuron> >,std::allocator<std::vector<Neuron,std::allocator<Neuron> > > >::_Change_array
_TEXT	ENDS
; Function compile flags: /Odtp /RTCsu
; File c:\program files (x86)\microsoft visual studio\2017\community\vc\tools\msvc\14.11.25503\include\vector
;	COMDAT ?_Calculate_growth@?$vector@V?$vector@VNeuron@@V?$allocator@VNeuron@@@std@@@std@@V?$allocator@V?$vector@VNeuron@@V?$allocator@VNeuron@@@std@@@std@@@2@@std@@ABEII@Z
_TEXT	SEGMENT
__Geometric$ = -12					; size = 4
__Oldcapacity$ = -8					; size = 4
_this$ = -4						; size = 4
__Newsize$ = 8						; size = 4
?_Calculate_growth@?$vector@V?$vector@VNeuron@@V?$allocator@VNeuron@@@std@@@std@@V?$allocator@V?$vector@VNeuron@@V?$allocator@VNeuron@@@std@@@std@@@2@@std@@ABEII@Z PROC ; std::vector<std::vector<Neuron,std::allocator<Neuron> >,std::allocator<std::vector<Neuron,std::allocator<Neuron> > > >::_Calculate_growth, COMDAT
; _this$ = ecx

; 1944 : 		{	// given _Oldcapacity and _Newsize, calculate geometric growth

	push	ebp
	mov	ebp, esp
	sub	esp, 12					; 0000000cH
	mov	DWORD PTR [ebp-12], -858993460		; ccccccccH
	mov	DWORD PTR [ebp-8], -858993460		; ccccccccH
	mov	DWORD PTR [ebp-4], -858993460		; ccccccccH
	mov	DWORD PTR _this$[ebp], ecx

; 1945 : 		const size_type _Oldcapacity = capacity();

	mov	ecx, DWORD PTR _this$[ebp]
	call	?capacity@?$vector@V?$vector@VNeuron@@V?$allocator@VNeuron@@@std@@@std@@V?$allocator@V?$vector@VNeuron@@V?$allocator@VNeuron@@@std@@@std@@@2@@std@@QBEIXZ ; std::vector<std::vector<Neuron,std::allocator<Neuron> >,std::allocator<std::vector<Neuron,std::allocator<Neuron> > > >::capacity
	mov	DWORD PTR __Oldcapacity$[ebp], eax

; 1946 : 
; 1947 : 		if (_Oldcapacity > max_size() - _Oldcapacity / 2)

	mov	ecx, DWORD PTR _this$[ebp]
	call	?max_size@?$vector@V?$vector@VNeuron@@V?$allocator@VNeuron@@@std@@@std@@V?$allocator@V?$vector@VNeuron@@V?$allocator@VNeuron@@@std@@@std@@@2@@std@@QBEIXZ ; std::vector<std::vector<Neuron,std::allocator<Neuron> >,std::allocator<std::vector<Neuron,std::allocator<Neuron> > > >::max_size
	mov	ecx, DWORD PTR __Oldcapacity$[ebp]
	shr	ecx, 1
	sub	eax, ecx
	cmp	DWORD PTR __Oldcapacity$[ebp], eax
	jbe	SHORT $LN2@Calculate_

; 1948 : 			{
; 1949 : 			return (_Newsize);	// geometric growth would overflow

	mov	eax, DWORD PTR __Newsize$[ebp]
	jmp	SHORT $LN1@Calculate_
$LN2@Calculate_:

; 1950 : 			}
; 1951 : 
; 1952 : 		const size_type _Geometric = _Oldcapacity + _Oldcapacity / 2;

	mov	edx, DWORD PTR __Oldcapacity$[ebp]
	shr	edx, 1
	add	edx, DWORD PTR __Oldcapacity$[ebp]
	mov	DWORD PTR __Geometric$[ebp], edx

; 1953 : 
; 1954 : 		if (_Geometric < _Newsize)

	mov	eax, DWORD PTR __Geometric$[ebp]
	cmp	eax, DWORD PTR __Newsize$[ebp]
	jae	SHORT $LN3@Calculate_

; 1955 : 			{
; 1956 : 			return (_Newsize);	// geometric growth would be insufficient

	mov	eax, DWORD PTR __Newsize$[ebp]
	jmp	SHORT $LN1@Calculate_
$LN3@Calculate_:

; 1957 : 			}
; 1958 : 
; 1959 : 		return (_Geometric);	// geometric growth is sufficient

	mov	eax, DWORD PTR __Geometric$[ebp]
$LN1@Calculate_:

; 1960 : 		}

	add	esp, 12					; 0000000cH
	cmp	ebp, esp
	call	__RTC_CheckEsp
	mov	esp, ebp
	pop	ebp
	ret	4
?_Calculate_growth@?$vector@V?$vector@VNeuron@@V?$allocator@VNeuron@@@std@@@std@@V?$allocator@V?$vector@VNeuron@@V?$allocator@VNeuron@@@std@@@std@@@2@@std@@ABEII@Z ENDP ; std::vector<std::vector<Neuron,std::allocator<Neuron> >,std::allocator<std::vector<Neuron,std::allocator<Neuron> > > >::_Calculate_growth
_TEXT	ENDS
; Function compile flags: /Odtp /RTCsu
; File c:\program files (x86)\microsoft visual studio\2017\community\vc\tools\msvc\14.11.25503\include\vector
;	COMDAT ?_Destroy@?$vector@V?$vector@VNeuron@@V?$allocator@VNeuron@@@std@@@std@@V?$allocator@V?$vector@VNeuron@@V?$allocator@VNeuron@@@std@@@std@@@2@@std@@AAEXPAV?$vector@VNeuron@@V?$allocator@VNeuron@@@std@@@2@0@Z
_TEXT	SEGMENT
_this$ = -4						; size = 4
__First$ = 8						; size = 4
__Last$ = 12						; size = 4
?_Destroy@?$vector@V?$vector@VNeuron@@V?$allocator@VNeuron@@@std@@@std@@V?$allocator@V?$vector@VNeuron@@V?$allocator@VNeuron@@@std@@@std@@@2@@std@@AAEXPAV?$vector@VNeuron@@V?$allocator@VNeuron@@@std@@@2@0@Z PROC ; std::vector<std::vector<Neuron,std::allocator<Neuron> >,std::allocator<std::vector<Neuron,std::allocator<Neuron> > > >::_Destroy, COMDAT
; _this$ = ecx

; 1939 : 		{	// destroy [_First, _Last) using allocator

	push	ebp
	mov	ebp, esp
	push	ecx
	mov	DWORD PTR [ebp-4], -858993460		; ccccccccH
	mov	DWORD PTR _this$[ebp], ecx

; 1940 : 		_Destroy_range(_First, _Last, this->_Getal());

	mov	ecx, DWORD PTR _this$[ebp]
	call	?_Getal@?$_Vector_alloc@U?$_Vec_base_types@V?$vector@VNeuron@@V?$allocator@VNeuron@@@std@@@std@@V?$allocator@V?$vector@VNeuron@@V?$allocator@VNeuron@@@std@@@std@@@2@@std@@@std@@QAEAAV?$allocator@V?$vector@VNeuron@@V?$allocator@VNeuron@@@std@@@std@@@2@XZ ; std::_Vector_alloc<std::_Vec_base_types<std::vector<Neuron,std::allocator<Neuron> >,std::allocator<std::vector<Neuron,std::allocator<Neuron> > > > >::_Getal
	push	eax
	mov	eax, DWORD PTR __Last$[ebp]
	push	eax
	mov	ecx, DWORD PTR __First$[ebp]
	push	ecx
	call	??$_Destroy_range@V?$allocator@V?$vector@VNeuron@@V?$allocator@VNeuron@@@std@@@std@@@std@@@std@@YAXPAV?$vector@VNeuron@@V?$allocator@VNeuron@@@std@@@0@0AAV?$allocator@V?$vector@VNeuron@@V?$allocator@VNeuron@@@std@@@std@@@0@@Z ; std::_Destroy_range<std::allocator<std::vector<Neuron,std::allocator<Neuron> > > >
	add	esp, 12					; 0000000cH

; 1941 : 		}

	add	esp, 4
	cmp	ebp, esp
	call	__RTC_CheckEsp
	mov	esp, ebp
	pop	ebp
	ret	8
?_Destroy@?$vector@V?$vector@VNeuron@@V?$allocator@VNeuron@@@std@@@std@@V?$allocator@V?$vector@VNeuron@@V?$allocator@VNeuron@@@std@@@std@@@2@@std@@AAEXPAV?$vector@VNeuron@@V?$allocator@VNeuron@@@std@@@2@0@Z ENDP ; std::vector<std::vector<Neuron,std::allocator<Neuron> >,std::allocator<std::vector<Neuron,std::allocator<Neuron> > > >::_Destroy
_TEXT	ENDS
; Function compile flags: /Odtp /RTCsu
; File c:\program files (x86)\microsoft visual studio\2017\community\vc\tools\msvc\14.11.25503\include\vector
;	COMDAT ?_Umove_if_noexcept@?$vector@V?$vector@VNeuron@@V?$allocator@VNeuron@@@std@@@std@@V?$allocator@V?$vector@VNeuron@@V?$allocator@VNeuron@@@std@@@std@@@2@@std@@AAEXPAV?$vector@VNeuron@@V?$allocator@VNeuron@@@std@@@2@00@Z
_TEXT	SEGMENT
$T1 = -5						; size = 1
_this$ = -4						; size = 4
__First$ = 8						; size = 4
__Last$ = 12						; size = 4
__Dest$ = 16						; size = 4
?_Umove_if_noexcept@?$vector@V?$vector@VNeuron@@V?$allocator@VNeuron@@@std@@@std@@V?$allocator@V?$vector@VNeuron@@V?$allocator@VNeuron@@@std@@@std@@@2@@std@@AAEXPAV?$vector@VNeuron@@V?$allocator@VNeuron@@@std@@@2@00@Z PROC ; std::vector<std::vector<Neuron,std::allocator<Neuron> >,std::allocator<std::vector<Neuron,std::allocator<Neuron> > > >::_Umove_if_noexcept, COMDAT
; _this$ = ecx

; 1933 : 		{	// move_if_noexcept [_First, _Last) to raw _Dest, using allocator

	push	ebp
	mov	ebp, esp
	sub	esp, 8
	mov	DWORD PTR [ebp-8], -858993460		; ccccccccH
	mov	DWORD PTR [ebp-4], -858993460		; ccccccccH
	mov	DWORD PTR _this$[ebp], ecx

; 1934 : 		_Umove_if_noexcept1(_First, _Last, _Dest,

	xor	eax, eax
	mov	BYTE PTR $T1[ebp], al
	movzx	ecx, BYTE PTR $T1[ebp]
	push	ecx
	mov	edx, DWORD PTR __Dest$[ebp]
	push	edx
	mov	eax, DWORD PTR __Last$[ebp]
	push	eax
	mov	ecx, DWORD PTR __First$[ebp]
	push	ecx
	mov	ecx, DWORD PTR _this$[ebp]
	call	?_Umove_if_noexcept1@?$vector@V?$vector@VNeuron@@V?$allocator@VNeuron@@@std@@@std@@V?$allocator@V?$vector@VNeuron@@V?$allocator@VNeuron@@@std@@@std@@@2@@std@@AAEXPAV?$vector@VNeuron@@V?$allocator@VNeuron@@@std@@@2@00U?$integral_constant@_N$00@2@@Z ; std::vector<std::vector<Neuron,std::allocator<Neuron> >,std::allocator<std::vector<Neuron,std::allocator<Neuron> > > >::_Umove_if_noexcept1

; 1935 : 			_Disjunction_t<is_nothrow_move_constructible<_Ty>, negation<is_copy_constructible<_Ty>>>{});
; 1936 : 		}

	add	esp, 8
	cmp	ebp, esp
	call	__RTC_CheckEsp
	mov	esp, ebp
	pop	ebp
	ret	12					; 0000000cH
?_Umove_if_noexcept@?$vector@V?$vector@VNeuron@@V?$allocator@VNeuron@@@std@@@std@@V?$allocator@V?$vector@VNeuron@@V?$allocator@VNeuron@@@std@@@std@@@2@@std@@AAEXPAV?$vector@VNeuron@@V?$allocator@VNeuron@@@std@@@2@00@Z ENDP ; std::vector<std::vector<Neuron,std::allocator<Neuron> >,std::allocator<std::vector<Neuron,std::allocator<Neuron> > > >::_Umove_if_noexcept
_TEXT	ENDS
; Function compile flags: /Odtp /RTCsu
; File c:\program files (x86)\microsoft visual studio\2017\community\vc\tools\msvc\14.11.25503\include\vector
;	COMDAT ?_Umove_if_noexcept1@?$vector@V?$vector@VNeuron@@V?$allocator@VNeuron@@@std@@@std@@V?$allocator@V?$vector@VNeuron@@V?$allocator@VNeuron@@@std@@@std@@@2@@std@@AAEXPAV?$vector@VNeuron@@V?$allocator@VNeuron@@@std@@@2@00U?$integral_constant@_N$00@2@@Z
_TEXT	SEGMENT
_this$ = -4						; size = 4
__First$ = 8						; size = 4
__Last$ = 12						; size = 4
__Dest$ = 16						; size = 4
___formal$ = 20						; size = 1
?_Umove_if_noexcept1@?$vector@V?$vector@VNeuron@@V?$allocator@VNeuron@@@std@@@std@@V?$allocator@V?$vector@VNeuron@@V?$allocator@VNeuron@@@std@@@std@@@2@@std@@AAEXPAV?$vector@VNeuron@@V?$allocator@VNeuron@@@std@@@2@00U?$integral_constant@_N$00@2@@Z PROC ; std::vector<std::vector<Neuron,std::allocator<Neuron> >,std::allocator<std::vector<Neuron,std::allocator<Neuron> > > >::_Umove_if_noexcept1, COMDAT
; _this$ = ecx

; 1923 : 		{	// move [_First, _Last) to raw _Dest, using allocator

	push	ebp
	mov	ebp, esp
	push	ecx
	mov	DWORD PTR [ebp-4], -858993460		; ccccccccH
	mov	DWORD PTR _this$[ebp], ecx

; 1924 : 		_Uninitialized_move(_First, _Last, _Dest, this->_Getal());

	mov	ecx, DWORD PTR _this$[ebp]
	call	?_Getal@?$_Vector_alloc@U?$_Vec_base_types@V?$vector@VNeuron@@V?$allocator@VNeuron@@@std@@@std@@V?$allocator@V?$vector@VNeuron@@V?$allocator@VNeuron@@@std@@@std@@@2@@std@@@std@@QAEAAV?$allocator@V?$vector@VNeuron@@V?$allocator@VNeuron@@@std@@@std@@@2@XZ ; std::_Vector_alloc<std::_Vec_base_types<std::vector<Neuron,std::allocator<Neuron> >,std::allocator<std::vector<Neuron,std::allocator<Neuron> > > > >::_Getal
	push	eax
	mov	eax, DWORD PTR __Dest$[ebp]
	push	eax
	mov	ecx, DWORD PTR __Last$[ebp]
	push	ecx
	mov	edx, DWORD PTR __First$[ebp]
	push	edx
	call	??$_Uninitialized_move@PAV?$vector@VNeuron@@V?$allocator@VNeuron@@@std@@@std@@PAV12@V?$allocator@V?$vector@VNeuron@@V?$allocator@VNeuron@@@std@@@std@@@2@@std@@YAPAV?$vector@VNeuron@@V?$allocator@VNeuron@@@std@@@0@PAV10@00AAV?$allocator@V?$vector@VNeuron@@V?$allocator@VNeuron@@@std@@@std@@@0@@Z ; std::_Uninitialized_move<std::vector<Neuron,std::allocator<Neuron> > *,std::vector<Neuron,std::allocator<Neuron> > *,std::allocator<std::vector<Neuron,std::allocator<Neuron> > > >
	add	esp, 16					; 00000010H

; 1925 : 		}

	add	esp, 4
	cmp	ebp, esp
	call	__RTC_CheckEsp
	mov	esp, ebp
	pop	ebp
	ret	16					; 00000010H
?_Umove_if_noexcept1@?$vector@V?$vector@VNeuron@@V?$allocator@VNeuron@@@std@@@std@@V?$allocator@V?$vector@VNeuron@@V?$allocator@VNeuron@@@std@@@std@@@2@@std@@AAEXPAV?$vector@VNeuron@@V?$allocator@VNeuron@@@std@@@2@00U?$integral_constant@_N$00@2@@Z ENDP ; std::vector<std::vector<Neuron,std::allocator<Neuron> >,std::allocator<std::vector<Neuron,std::allocator<Neuron> > > >::_Umove_if_noexcept1
_TEXT	ENDS
; Function compile flags: /Odtp /RTCsu
; File c:\program files (x86)\microsoft visual studio\2017\community\vc\tools\msvc\14.11.25503\include\vector
;	COMDAT ?back@?$vector@V?$vector@VNeuron@@V?$allocator@VNeuron@@@std@@@std@@V?$allocator@V?$vector@VNeuron@@V?$allocator@VNeuron@@@std@@@std@@@2@@std@@QBEABV?$vector@VNeuron@@V?$allocator@VNeuron@@@std@@@2@XZ
_TEXT	SEGMENT
_this$ = -4						; size = 4
?back@?$vector@V?$vector@VNeuron@@V?$allocator@VNeuron@@@std@@@std@@V?$allocator@V?$vector@VNeuron@@V?$allocator@VNeuron@@@std@@@std@@@2@@std@@QBEABV?$vector@VNeuron@@V?$allocator@VNeuron@@@std@@@2@XZ PROC ; std::vector<std::vector<Neuron,std::allocator<Neuron> >,std::allocator<std::vector<Neuron,std::allocator<Neuron> > > >::back, COMDAT
; _this$ = ecx

; 1882 : 		{	// return last element of nonmutable sequence

	push	ebp
	mov	ebp, esp
	push	ecx
	mov	DWORD PTR [ebp-4], -858993460		; ccccccccH
	mov	DWORD PTR _this$[ebp], ecx

; 1883 :  #if _ITERATOR_DEBUG_LEVEL == 2
; 1884 : 		if (empty())

	mov	ecx, DWORD PTR _this$[ebp]
	call	?empty@?$vector@V?$vector@VNeuron@@V?$allocator@VNeuron@@@std@@@std@@V?$allocator@V?$vector@VNeuron@@V?$allocator@VNeuron@@@std@@@std@@@2@@std@@QBE_NXZ ; std::vector<std::vector<Neuron,std::allocator<Neuron> >,std::allocator<std::vector<Neuron,std::allocator<Neuron> > > >::empty
	movzx	eax, al
	test	eax, eax
	je	SHORT $LN2@back

; 1885 : 			{	// report error
; 1886 : 			_DEBUG_ERROR("back() called on empty vector");

	push	1886					; 0000075eH
	push	OFFSET ??_C@_1MO@PKCMDADL@?$AAC?$AA?3?$AA?2?$AAP?$AAr?$AAo?$AAg?$AAr?$AAa?$AAm?$AA?5?$AAF?$AAi?$AAl?$AAe?$AAs?$AA?5?$AA?$CI?$AAx?$AA8?$AA6?$AA?$CJ?$AA?2?$AAM?$AAi?$AAc?$AAr?$AAo?$AAs?$AAo?$AAf?$AAt@
	push	OFFSET ??_C@_1DM@ONDPIFDL@?$AAb?$AAa?$AAc?$AAk?$AA?$CI?$AA?$CJ?$AA?5?$AAc?$AAa?$AAl?$AAl?$AAe?$AAd?$AA?5?$AAo?$AAn?$AA?5?$AAe?$AAm?$AAp?$AAt?$AAy?$AA?5?$AAv?$AAe?$AAc?$AAt?$AAo?$AAr?$AA?$AA@
	call	?_Debug_message@std@@YAXPB_W0I@Z	; std::_Debug_message
	add	esp, 12					; 0000000cH
	push	0
	push	1886					; 0000075eH
	push	OFFSET ??_C@_1MO@PKCMDADL@?$AAC?$AA?3?$AA?2?$AAP?$AAr?$AAo?$AAg?$AAr?$AAa?$AAm?$AA?5?$AAF?$AAi?$AAl?$AAe?$AAs?$AA?5?$AA?$CI?$AAx?$AA8?$AA6?$AA?$CJ?$AA?2?$AAM?$AAi?$AAc?$AAr?$AAo?$AAs?$AAo?$AAf?$AAt@
	push	OFFSET ??_C@_1BGG@JAANBMMO@?$AAs?$AAt?$AAd?$AA?3?$AA?3?$AAv?$AAe?$AAc?$AAt?$AAo?$AAr?$AA?$DM?$AAc?$AAl?$AAa?$AAs?$AAs?$AA?5?$AAs?$AAt?$AAd?$AA?3?$AA?3?$AAv?$AAe?$AAc?$AAt?$AAo?$AAr?$AA?$DM?$AAc?$AAl@
	push	OFFSET ??_C@_1EA@OBAHGFFK@?$AA?$CC?$AAb?$AAa?$AAc?$AAk?$AA?$CI?$AA?$CJ?$AA?5?$AAc?$AAa?$AAl?$AAl?$AAe?$AAd?$AA?5?$AAo?$AAn?$AA?5?$AAe?$AAm?$AAp?$AAt?$AAy?$AA?5?$AAv?$AAe?$AAc?$AAt?$AAo?$AAr?$AA?$CC?$AA?$AA@
	call	__invalid_parameter
	add	esp, 20					; 00000014H
$LN2@back:

; 1887 : 			}
; 1888 :  #elif _ITERATOR_DEBUG_LEVEL == 1
; 1889 : 		_SCL_SECURE_VALIDATE_RANGE(!empty());
; 1890 :  #endif /* _ITERATOR_DEBUG_LEVEL */
; 1891 : 
; 1892 : 		return (this->_Mylast()[-1]);

	mov	ecx, DWORD PTR _this$[ebp]
	call	?_Mylast@?$_Vector_alloc@U?$_Vec_base_types@V?$vector@VNeuron@@V?$allocator@VNeuron@@@std@@@std@@V?$allocator@V?$vector@VNeuron@@V?$allocator@VNeuron@@@std@@@std@@@2@@std@@@std@@QBEABQAV?$vector@VNeuron@@V?$allocator@VNeuron@@@std@@@2@XZ ; std::_Vector_alloc<std::_Vec_base_types<std::vector<Neuron,std::allocator<Neuron> >,std::allocator<std::vector<Neuron,std::allocator<Neuron> > > > >::_Mylast
	mov	ecx, 16					; 00000010H
	imul	edx, ecx, -1
	add	edx, DWORD PTR [eax]
	mov	eax, edx

; 1893 : 		}

	add	esp, 4
	cmp	ebp, esp
	call	__RTC_CheckEsp
	mov	esp, ebp
	pop	ebp
	ret	0
?back@?$vector@V?$vector@VNeuron@@V?$allocator@VNeuron@@@std@@@std@@V?$allocator@V?$vector@VNeuron@@V?$allocator@VNeuron@@@std@@@std@@@2@@std@@QBEABV?$vector@VNeuron@@V?$allocator@VNeuron@@@std@@@2@XZ ENDP ; std::vector<std::vector<Neuron,std::allocator<Neuron> >,std::allocator<std::vector<Neuron,std::allocator<Neuron> > > >::back
_TEXT	ENDS
; Function compile flags: /Odtp /RTCsu
; File c:\program files (x86)\microsoft visual studio\2017\community\vc\tools\msvc\14.11.25503\include\vector
;	COMDAT ?back@?$vector@V?$vector@VNeuron@@V?$allocator@VNeuron@@@std@@@std@@V?$allocator@V?$vector@VNeuron@@V?$allocator@VNeuron@@@std@@@std@@@2@@std@@QAEAAV?$vector@VNeuron@@V?$allocator@VNeuron@@@std@@@2@XZ
_TEXT	SEGMENT
_this$ = -4						; size = 4
?back@?$vector@V?$vector@VNeuron@@V?$allocator@VNeuron@@@std@@@std@@V?$allocator@V?$vector@VNeuron@@V?$allocator@VNeuron@@@std@@@std@@@2@@std@@QAEAAV?$vector@VNeuron@@V?$allocator@VNeuron@@@std@@@2@XZ PROC ; std::vector<std::vector<Neuron,std::allocator<Neuron> >,std::allocator<std::vector<Neuron,std::allocator<Neuron> > > >::back, COMDAT
; _this$ = ecx

; 1868 : 		{	// return last element of mutable sequence

	push	ebp
	mov	ebp, esp
	push	ecx
	mov	DWORD PTR [ebp-4], -858993460		; ccccccccH
	mov	DWORD PTR _this$[ebp], ecx

; 1869 :  #if _ITERATOR_DEBUG_LEVEL == 2
; 1870 : 		if (empty())

	mov	ecx, DWORD PTR _this$[ebp]
	call	?empty@?$vector@V?$vector@VNeuron@@V?$allocator@VNeuron@@@std@@@std@@V?$allocator@V?$vector@VNeuron@@V?$allocator@VNeuron@@@std@@@std@@@2@@std@@QBE_NXZ ; std::vector<std::vector<Neuron,std::allocator<Neuron> >,std::allocator<std::vector<Neuron,std::allocator<Neuron> > > >::empty
	movzx	eax, al
	test	eax, eax
	je	SHORT $LN2@back

; 1871 : 			{	// report error
; 1872 : 			_DEBUG_ERROR("back() called on empty vector");

	push	1872					; 00000750H
	push	OFFSET ??_C@_1MO@PKCMDADL@?$AAC?$AA?3?$AA?2?$AAP?$AAr?$AAo?$AAg?$AAr?$AAa?$AAm?$AA?5?$AAF?$AAi?$AAl?$AAe?$AAs?$AA?5?$AA?$CI?$AAx?$AA8?$AA6?$AA?$CJ?$AA?2?$AAM?$AAi?$AAc?$AAr?$AAo?$AAs?$AAo?$AAf?$AAt@
	push	OFFSET ??_C@_1DM@ONDPIFDL@?$AAb?$AAa?$AAc?$AAk?$AA?$CI?$AA?$CJ?$AA?5?$AAc?$AAa?$AAl?$AAl?$AAe?$AAd?$AA?5?$AAo?$AAn?$AA?5?$AAe?$AAm?$AAp?$AAt?$AAy?$AA?5?$AAv?$AAe?$AAc?$AAt?$AAo?$AAr?$AA?$AA@
	call	?_Debug_message@std@@YAXPB_W0I@Z	; std::_Debug_message
	add	esp, 12					; 0000000cH
	push	0
	push	1872					; 00000750H
	push	OFFSET ??_C@_1MO@PKCMDADL@?$AAC?$AA?3?$AA?2?$AAP?$AAr?$AAo?$AAg?$AAr?$AAa?$AAm?$AA?5?$AAF?$AAi?$AAl?$AAe?$AAs?$AA?5?$AA?$CI?$AAx?$AA8?$AA6?$AA?$CJ?$AA?2?$AAM?$AAi?$AAc?$AAr?$AAo?$AAs?$AAo?$AAf?$AAt@
	push	OFFSET ??_C@_1BGG@JAANBMMO@?$AAs?$AAt?$AAd?$AA?3?$AA?3?$AAv?$AAe?$AAc?$AAt?$AAo?$AAr?$AA?$DM?$AAc?$AAl?$AAa?$AAs?$AAs?$AA?5?$AAs?$AAt?$AAd?$AA?3?$AA?3?$AAv?$AAe?$AAc?$AAt?$AAo?$AAr?$AA?$DM?$AAc?$AAl@
	push	OFFSET ??_C@_1EA@OBAHGFFK@?$AA?$CC?$AAb?$AAa?$AAc?$AAk?$AA?$CI?$AA?$CJ?$AA?5?$AAc?$AAa?$AAl?$AAl?$AAe?$AAd?$AA?5?$AAo?$AAn?$AA?5?$AAe?$AAm?$AAp?$AAt?$AAy?$AA?5?$AAv?$AAe?$AAc?$AAt?$AAo?$AAr?$AA?$CC?$AA?$AA@
	call	__invalid_parameter
	add	esp, 20					; 00000014H
$LN2@back:

; 1873 : 			}
; 1874 :  #elif _ITERATOR_DEBUG_LEVEL == 1
; 1875 : 		_SCL_SECURE_VALIDATE_RANGE(!empty());
; 1876 :  #endif /* _ITERATOR_DEBUG_LEVEL */
; 1877 : 
; 1878 : 		return (this->_Mylast()[-1]);

	mov	ecx, DWORD PTR _this$[ebp]
	call	?_Mylast@?$_Vector_alloc@U?$_Vec_base_types@V?$vector@VNeuron@@V?$allocator@VNeuron@@@std@@@std@@V?$allocator@V?$vector@VNeuron@@V?$allocator@VNeuron@@@std@@@std@@@2@@std@@@std@@QAEAAPAV?$vector@VNeuron@@V?$allocator@VNeuron@@@std@@@2@XZ ; std::_Vector_alloc<std::_Vec_base_types<std::vector<Neuron,std::allocator<Neuron> >,std::allocator<std::vector<Neuron,std::allocator<Neuron> > > > >::_Mylast
	mov	ecx, 16					; 00000010H
	imul	edx, ecx, -1
	add	edx, DWORD PTR [eax]
	mov	eax, edx

; 1879 : 		}

	add	esp, 4
	cmp	ebp, esp
	call	__RTC_CheckEsp
	mov	esp, ebp
	pop	ebp
	ret	0
?back@?$vector@V?$vector@VNeuron@@V?$allocator@VNeuron@@@std@@@std@@V?$allocator@V?$vector@VNeuron@@V?$allocator@VNeuron@@@std@@@std@@@2@@std@@QAEAAV?$vector@VNeuron@@V?$allocator@VNeuron@@@std@@@2@XZ ENDP ; std::vector<std::vector<Neuron,std::allocator<Neuron> >,std::allocator<std::vector<Neuron,std::allocator<Neuron> > > >::back
_TEXT	ENDS
; Function compile flags: /Odtp /RTCsu
; File c:\program files (x86)\microsoft visual studio\2017\community\vc\tools\msvc\14.11.25503\include\vector
;	COMDAT ??A?$vector@V?$vector@VNeuron@@V?$allocator@VNeuron@@@std@@@std@@V?$allocator@V?$vector@VNeuron@@V?$allocator@VNeuron@@@std@@@std@@@2@@std@@QAEAAV?$vector@VNeuron@@V?$allocator@VNeuron@@@std@@@1@I@Z
_TEXT	SEGMENT
_this$ = -4						; size = 4
__Pos$ = 8						; size = 4
??A?$vector@V?$vector@VNeuron@@V?$allocator@VNeuron@@@std@@@std@@V?$allocator@V?$vector@VNeuron@@V?$allocator@VNeuron@@@std@@@std@@@2@@std@@QAEAAV?$vector@VNeuron@@V?$allocator@VNeuron@@@std@@@1@I@Z PROC ; std::vector<std::vector<Neuron,std::allocator<Neuron> >,std::allocator<std::vector<Neuron,std::allocator<Neuron> > > >::operator[], COMDAT
; _this$ = ecx

; 1792 : 		{	// subscript mutable sequence

	push	ebp
	mov	ebp, esp
	push	ecx
	mov	DWORD PTR [ebp-4], -858993460		; ccccccccH
	mov	DWORD PTR _this$[ebp], ecx

; 1793 :  #if _ITERATOR_DEBUG_LEVEL == 2
; 1794 : 		if (size() <= _Pos)

	mov	ecx, DWORD PTR _this$[ebp]
	call	?size@?$vector@V?$vector@VNeuron@@V?$allocator@VNeuron@@@std@@@std@@V?$allocator@V?$vector@VNeuron@@V?$allocator@VNeuron@@@std@@@std@@@2@@std@@QBEIXZ ; std::vector<std::vector<Neuron,std::allocator<Neuron> >,std::allocator<std::vector<Neuron,std::allocator<Neuron> > > >::size
	cmp	eax, DWORD PTR __Pos$[ebp]
	ja	SHORT $LN2@operator

; 1795 : 			{	// report error
; 1796 : 			_DEBUG_ERROR("vector subscript out of range");

	push	1796					; 00000704H
	push	OFFSET ??_C@_1MO@PKCMDADL@?$AAC?$AA?3?$AA?2?$AAP?$AAr?$AAo?$AAg?$AAr?$AAa?$AAm?$AA?5?$AAF?$AAi?$AAl?$AAe?$AAs?$AA?5?$AA?$CI?$AAx?$AA8?$AA6?$AA?$CJ?$AA?2?$AAM?$AAi?$AAc?$AAr?$AAo?$AAs?$AAo?$AAf?$AAt@
	push	OFFSET ??_C@_1DM@LHGCHCBA@?$AAv?$AAe?$AAc?$AAt?$AAo?$AAr?$AA?5?$AAs?$AAu?$AAb?$AAs?$AAc?$AAr?$AAi?$AAp?$AAt?$AA?5?$AAo?$AAu?$AAt?$AA?5?$AAo?$AAf?$AA?5?$AAr?$AAa?$AAn?$AAg?$AAe?$AA?$AA@
	call	?_Debug_message@std@@YAXPB_W0I@Z	; std::_Debug_message
	add	esp, 12					; 0000000cH
	push	0
	push	1796					; 00000704H
	push	OFFSET ??_C@_1MO@PKCMDADL@?$AAC?$AA?3?$AA?2?$AAP?$AAr?$AAo?$AAg?$AAr?$AAa?$AAm?$AA?5?$AAF?$AAi?$AAl?$AAe?$AAs?$AA?5?$AA?$CI?$AAx?$AA8?$AA6?$AA?$CJ?$AA?2?$AAM?$AAi?$AAc?$AAr?$AAo?$AAs?$AAo?$AAf?$AAt@
	push	OFFSET ??_C@_1BHE@NMOOFJOG@?$AAs?$AAt?$AAd?$AA?3?$AA?3?$AAv?$AAe?$AAc?$AAt?$AAo?$AAr?$AA?$DM?$AAc?$AAl?$AAa?$AAs?$AAs?$AA?5?$AAs?$AAt?$AAd?$AA?3?$AA?3?$AAv?$AAe?$AAc?$AAt?$AAo?$AAr?$AA?$DM?$AAc?$AAl@
	push	OFFSET ??_C@_1EA@LEKOKFNB@?$AA?$CC?$AAv?$AAe?$AAc?$AAt?$AAo?$AAr?$AA?5?$AAs?$AAu?$AAb?$AAs?$AAc?$AAr?$AAi?$AAp?$AAt?$AA?5?$AAo?$AAu?$AAt?$AA?5?$AAo?$AAf?$AA?5?$AAr?$AAa?$AAn?$AAg?$AAe?$AA?$CC?$AA?$AA@
	call	__invalid_parameter
	add	esp, 20					; 00000014H
$LN2@operator:

; 1797 : 			}
; 1798 :  #elif _ITERATOR_DEBUG_LEVEL == 1
; 1799 : 		_SCL_SECURE_VALIDATE_RANGE(_Pos < size());
; 1800 :  #endif /* _ITERATOR_DEBUG_LEVEL */
; 1801 : 
; 1802 : 		return (this->_Myfirst()[_Pos]);

	mov	ecx, DWORD PTR _this$[ebp]
	call	?_Myfirst@?$_Vector_alloc@U?$_Vec_base_types@V?$vector@VNeuron@@V?$allocator@VNeuron@@@std@@@std@@V?$allocator@V?$vector@VNeuron@@V?$allocator@VNeuron@@@std@@@std@@@2@@std@@@std@@QAEAAPAV?$vector@VNeuron@@V?$allocator@VNeuron@@@std@@@2@XZ ; std::_Vector_alloc<std::_Vec_base_types<std::vector<Neuron,std::allocator<Neuron> >,std::allocator<std::vector<Neuron,std::allocator<Neuron> > > > >::_Myfirst
	mov	ecx, DWORD PTR __Pos$[ebp]
	shl	ecx, 4
	add	ecx, DWORD PTR [eax]
	mov	eax, ecx

; 1803 : 		}

	add	esp, 4
	cmp	ebp, esp
	call	__RTC_CheckEsp
	mov	esp, ebp
	pop	ebp
	ret	4
??A?$vector@V?$vector@VNeuron@@V?$allocator@VNeuron@@@std@@@std@@V?$allocator@V?$vector@VNeuron@@V?$allocator@VNeuron@@@std@@@std@@@2@@std@@QAEAAV?$vector@VNeuron@@V?$allocator@VNeuron@@@std@@@1@I@Z ENDP ; std::vector<std::vector<Neuron,std::allocator<Neuron> >,std::allocator<std::vector<Neuron,std::allocator<Neuron> > > >::operator[]
_TEXT	ENDS
; Function compile flags: /Odtp /RTCsu
; File c:\program files (x86)\microsoft visual studio\2017\community\vc\tools\msvc\14.11.25503\include\vector
;	COMDAT ?_Has_unused_capacity@?$vector@V?$vector@VNeuron@@V?$allocator@VNeuron@@@std@@@std@@V?$allocator@V?$vector@VNeuron@@V?$allocator@VNeuron@@@std@@@std@@@2@@std@@ABE_NXZ
_TEXT	SEGMENT
tv77 = -8						; size = 4
_this$ = -4						; size = 4
?_Has_unused_capacity@?$vector@V?$vector@VNeuron@@V?$allocator@VNeuron@@@std@@@std@@V?$allocator@V?$vector@VNeuron@@V?$allocator@VNeuron@@@std@@@std@@@2@@std@@ABE_NXZ PROC ; std::vector<std::vector<Neuron,std::allocator<Neuron> >,std::allocator<std::vector<Neuron,std::allocator<Neuron> > > >::_Has_unused_capacity, COMDAT
; _this$ = ecx

; 1786 : 		{	// micro-optimization for capacity() != size()

	push	ebp
	mov	ebp, esp
	sub	esp, 8
	push	esi
	mov	DWORD PTR [ebp-8], -858993460		; ccccccccH
	mov	DWORD PTR [ebp-4], -858993460		; ccccccccH
	mov	DWORD PTR _this$[ebp], ecx

; 1787 : 		return (this->_Myend() != this->_Mylast());

	mov	ecx, DWORD PTR _this$[ebp]
	call	?_Myend@?$_Vector_alloc@U?$_Vec_base_types@V?$vector@VNeuron@@V?$allocator@VNeuron@@@std@@@std@@V?$allocator@V?$vector@VNeuron@@V?$allocator@VNeuron@@@std@@@std@@@2@@std@@@std@@QBEABQAV?$vector@VNeuron@@V?$allocator@VNeuron@@@std@@@2@XZ ; std::_Vector_alloc<std::_Vec_base_types<std::vector<Neuron,std::allocator<Neuron> >,std::allocator<std::vector<Neuron,std::allocator<Neuron> > > > >::_Myend
	mov	esi, eax
	mov	ecx, DWORD PTR _this$[ebp]
	call	?_Mylast@?$_Vector_alloc@U?$_Vec_base_types@V?$vector@VNeuron@@V?$allocator@VNeuron@@@std@@@std@@V?$allocator@V?$vector@VNeuron@@V?$allocator@VNeuron@@@std@@@std@@@2@@std@@@std@@QBEABQAV?$vector@VNeuron@@V?$allocator@VNeuron@@@std@@@2@XZ ; std::_Vector_alloc<std::_Vec_base_types<std::vector<Neuron,std::allocator<Neuron> >,std::allocator<std::vector<Neuron,std::allocator<Neuron> > > > >::_Mylast
	mov	ecx, DWORD PTR [esi]
	cmp	ecx, DWORD PTR [eax]
	je	SHORT $LN3@Has_unused
	mov	DWORD PTR tv77[ebp], 1
	jmp	SHORT $LN4@Has_unused
$LN3@Has_unused:
	mov	DWORD PTR tv77[ebp], 0
$LN4@Has_unused:
	mov	al, BYTE PTR tv77[ebp]

; 1788 : 		}

	pop	esi
	add	esp, 8
	cmp	ebp, esp
	call	__RTC_CheckEsp
	mov	esp, ebp
	pop	ebp
	ret	0
?_Has_unused_capacity@?$vector@V?$vector@VNeuron@@V?$allocator@VNeuron@@@std@@@std@@V?$allocator@V?$vector@VNeuron@@V?$allocator@VNeuron@@@std@@@std@@@2@@std@@ABE_NXZ ENDP ; std::vector<std::vector<Neuron,std::allocator<Neuron> >,std::allocator<std::vector<Neuron,std::allocator<Neuron> > > >::_Has_unused_capacity
_TEXT	ENDS
; Function compile flags: /Odtp /RTCsu
; File c:\program files (x86)\microsoft visual studio\2017\community\vc\tools\msvc\14.11.25503\include\vector
;	COMDAT ?capacity@?$vector@V?$vector@VNeuron@@V?$allocator@VNeuron@@@std@@@std@@V?$allocator@V?$vector@VNeuron@@V?$allocator@VNeuron@@@std@@@std@@@2@@std@@QBEIXZ
_TEXT	SEGMENT
_this$ = -4						; size = 4
?capacity@?$vector@V?$vector@VNeuron@@V?$allocator@VNeuron@@@std@@@std@@V?$allocator@V?$vector@VNeuron@@V?$allocator@VNeuron@@@std@@@std@@@2@@std@@QBEIXZ PROC ; std::vector<std::vector<Neuron,std::allocator<Neuron> >,std::allocator<std::vector<Neuron,std::allocator<Neuron> > > >::capacity, COMDAT
; _this$ = ecx

; 1775 : 		{	// return current length of allocated storage

	push	ebp
	mov	ebp, esp
	push	ecx
	push	esi
	mov	DWORD PTR [ebp-4], -858993460		; ccccccccH
	mov	DWORD PTR _this$[ebp], ecx

; 1776 : 		return (static_cast<size_type>(this->_Myend() - this->_Myfirst()));

	mov	ecx, DWORD PTR _this$[ebp]
	call	?_Myend@?$_Vector_alloc@U?$_Vec_base_types@V?$vector@VNeuron@@V?$allocator@VNeuron@@@std@@@std@@V?$allocator@V?$vector@VNeuron@@V?$allocator@VNeuron@@@std@@@std@@@2@@std@@@std@@QBEABQAV?$vector@VNeuron@@V?$allocator@VNeuron@@@std@@@2@XZ ; std::_Vector_alloc<std::_Vec_base_types<std::vector<Neuron,std::allocator<Neuron> >,std::allocator<std::vector<Neuron,std::allocator<Neuron> > > > >::_Myend
	mov	esi, eax
	mov	ecx, DWORD PTR _this$[ebp]
	call	?_Myfirst@?$_Vector_alloc@U?$_Vec_base_types@V?$vector@VNeuron@@V?$allocator@VNeuron@@@std@@@std@@V?$allocator@V?$vector@VNeuron@@V?$allocator@VNeuron@@@std@@@std@@@2@@std@@@std@@QBEABQAV?$vector@VNeuron@@V?$allocator@VNeuron@@@std@@@2@XZ ; std::_Vector_alloc<std::_Vec_base_types<std::vector<Neuron,std::allocator<Neuron> >,std::allocator<std::vector<Neuron,std::allocator<Neuron> > > > >::_Myfirst
	mov	ecx, DWORD PTR [esi]
	sub	ecx, DWORD PTR [eax]
	sar	ecx, 4
	mov	eax, ecx

; 1777 : 		}

	pop	esi
	add	esp, 4
	cmp	ebp, esp
	call	__RTC_CheckEsp
	mov	esp, ebp
	pop	ebp
	ret	0
?capacity@?$vector@V?$vector@VNeuron@@V?$allocator@VNeuron@@@std@@@std@@V?$allocator@V?$vector@VNeuron@@V?$allocator@VNeuron@@@std@@@std@@@2@@std@@QBEIXZ ENDP ; std::vector<std::vector<Neuron,std::allocator<Neuron> >,std::allocator<std::vector<Neuron,std::allocator<Neuron> > > >::capacity
_TEXT	ENDS
; Function compile flags: /Odtp /RTCsu
; File c:\program files (x86)\microsoft visual studio\2017\community\vc\tools\msvc\14.11.25503\include\vector
;	COMDAT ?max_size@?$vector@V?$vector@VNeuron@@V?$allocator@VNeuron@@@std@@@std@@V?$allocator@V?$vector@VNeuron@@V?$allocator@VNeuron@@@std@@@std@@@2@@std@@QBEIXZ
_TEXT	SEGMENT
$T1 = -12						; size = 4
$T2 = -8						; size = 4
_this$ = -4						; size = 4
?max_size@?$vector@V?$vector@VNeuron@@V?$allocator@VNeuron@@@std@@@std@@V?$allocator@V?$vector@VNeuron@@V?$allocator@VNeuron@@@std@@@std@@@2@@std@@QBEIXZ PROC ; std::vector<std::vector<Neuron,std::allocator<Neuron> >,std::allocator<std::vector<Neuron,std::allocator<Neuron> > > >::max_size, COMDAT
; _this$ = ecx

; 1769 : 		{	// return maximum possible length of sequence

	push	ebp
	mov	ebp, esp
	sub	esp, 12					; 0000000cH
	mov	DWORD PTR [ebp-12], -858993460		; ccccccccH
	mov	DWORD PTR [ebp-8], -858993460		; ccccccccH
	mov	DWORD PTR [ebp-4], -858993460		; ccccccccH
	mov	DWORD PTR _this$[ebp], ecx

; 1770 : 		return (_Min_value(static_cast<size_type>((numeric_limits<difference_type>::max)()),

	mov	ecx, DWORD PTR _this$[ebp]
	call	?_Getal@?$_Vector_alloc@U?$_Vec_base_types@V?$vector@VNeuron@@V?$allocator@VNeuron@@@std@@@std@@V?$allocator@V?$vector@VNeuron@@V?$allocator@VNeuron@@@std@@@std@@@2@@std@@@std@@QBEABV?$allocator@V?$vector@VNeuron@@V?$allocator@VNeuron@@@std@@@std@@@2@XZ ; std::_Vector_alloc<std::_Vec_base_types<std::vector<Neuron,std::allocator<Neuron> >,std::allocator<std::vector<Neuron,std::allocator<Neuron> > > > >::_Getal
	push	eax
	call	?max_size@?$_Default_allocator_traits@V?$allocator@V?$vector@VNeuron@@V?$allocator@VNeuron@@@std@@@std@@@std@@@std@@SAIABV?$allocator@V?$vector@VNeuron@@V?$allocator@VNeuron@@@std@@@std@@@2@@Z ; std::_Default_allocator_traits<std::allocator<std::vector<Neuron,std::allocator<Neuron> > > >::max_size
	add	esp, 4
	mov	DWORD PTR $T2[ebp], eax
	call	?max@?$numeric_limits@H@std@@SAHXZ	; std::numeric_limits<int>::max
	mov	DWORD PTR $T1[ebp], eax
	lea	eax, DWORD PTR $T2[ebp]
	push	eax
	lea	ecx, DWORD PTR $T1[ebp]
	push	ecx
	call	??$_Min_value@I@std@@YAABIABI0@Z	; std::_Min_value<unsigned int>
	add	esp, 8
	mov	eax, DWORD PTR [eax]

; 1771 : 			_Alty_traits::max_size(this->_Getal())));
; 1772 : 		}

	add	esp, 12					; 0000000cH
	cmp	ebp, esp
	call	__RTC_CheckEsp
	mov	esp, ebp
	pop	ebp
	ret	0
?max_size@?$vector@V?$vector@VNeuron@@V?$allocator@VNeuron@@@std@@@std@@V?$allocator@V?$vector@VNeuron@@V?$allocator@VNeuron@@@std@@@std@@@2@@std@@QBEIXZ ENDP ; std::vector<std::vector<Neuron,std::allocator<Neuron> >,std::allocator<std::vector<Neuron,std::allocator<Neuron> > > >::max_size
_TEXT	ENDS
; Function compile flags: /Odtp /RTCsu
; File c:\program files (x86)\microsoft visual studio\2017\community\vc\tools\msvc\14.11.25503\include\vector
;	COMDAT ?size@?$vector@V?$vector@VNeuron@@V?$allocator@VNeuron@@@std@@@std@@V?$allocator@V?$vector@VNeuron@@V?$allocator@VNeuron@@@std@@@std@@@2@@std@@QBEIXZ
_TEXT	SEGMENT
_this$ = -4						; size = 4
?size@?$vector@V?$vector@VNeuron@@V?$allocator@VNeuron@@@std@@@std@@V?$allocator@V?$vector@VNeuron@@V?$allocator@VNeuron@@@std@@@std@@@2@@std@@QBEIXZ PROC ; std::vector<std::vector<Neuron,std::allocator<Neuron> >,std::allocator<std::vector<Neuron,std::allocator<Neuron> > > >::size, COMDAT
; _this$ = ecx

; 1764 : 		{	// return length of sequence

	push	ebp
	mov	ebp, esp
	push	ecx
	push	esi
	mov	DWORD PTR [ebp-4], -858993460		; ccccccccH
	mov	DWORD PTR _this$[ebp], ecx

; 1765 : 		return (static_cast<size_type>(this->_Mylast() - this->_Myfirst()));

	mov	ecx, DWORD PTR _this$[ebp]
	call	?_Mylast@?$_Vector_alloc@U?$_Vec_base_types@V?$vector@VNeuron@@V?$allocator@VNeuron@@@std@@@std@@V?$allocator@V?$vector@VNeuron@@V?$allocator@VNeuron@@@std@@@std@@@2@@std@@@std@@QBEABQAV?$vector@VNeuron@@V?$allocator@VNeuron@@@std@@@2@XZ ; std::_Vector_alloc<std::_Vec_base_types<std::vector<Neuron,std::allocator<Neuron> >,std::allocator<std::vector<Neuron,std::allocator<Neuron> > > > >::_Mylast
	mov	esi, eax
	mov	ecx, DWORD PTR _this$[ebp]
	call	?_Myfirst@?$_Vector_alloc@U?$_Vec_base_types@V?$vector@VNeuron@@V?$allocator@VNeuron@@@std@@@std@@V?$allocator@V?$vector@VNeuron@@V?$allocator@VNeuron@@@std@@@std@@@2@@std@@@std@@QBEABQAV?$vector@VNeuron@@V?$allocator@VNeuron@@@std@@@2@XZ ; std::_Vector_alloc<std::_Vec_base_types<std::vector<Neuron,std::allocator<Neuron> >,std::allocator<std::vector<Neuron,std::allocator<Neuron> > > > >::_Myfirst
	mov	ecx, DWORD PTR [esi]
	sub	ecx, DWORD PTR [eax]
	sar	ecx, 4
	mov	eax, ecx

; 1766 : 		}

	pop	esi
	add	esp, 4
	cmp	ebp, esp
	call	__RTC_CheckEsp
	mov	esp, ebp
	pop	ebp
	ret	0
?size@?$vector@V?$vector@VNeuron@@V?$allocator@VNeuron@@@std@@@std@@V?$allocator@V?$vector@VNeuron@@V?$allocator@VNeuron@@@std@@@std@@@2@@std@@QBEIXZ ENDP ; std::vector<std::vector<Neuron,std::allocator<Neuron> >,std::allocator<std::vector<Neuron,std::allocator<Neuron> > > >::size
_TEXT	ENDS
; Function compile flags: /Odtp /RTCsu
; File c:\program files (x86)\microsoft visual studio\2017\community\vc\tools\msvc\14.11.25503\include\vector
;	COMDAT ?empty@?$vector@V?$vector@VNeuron@@V?$allocator@VNeuron@@@std@@@std@@V?$allocator@V?$vector@VNeuron@@V?$allocator@VNeuron@@@std@@@std@@@2@@std@@QBE_NXZ
_TEXT	SEGMENT
tv77 = -8						; size = 4
_this$ = -4						; size = 4
?empty@?$vector@V?$vector@VNeuron@@V?$allocator@VNeuron@@@std@@@std@@V?$allocator@V?$vector@VNeuron@@V?$allocator@VNeuron@@@std@@@std@@@2@@std@@QBE_NXZ PROC ; std::vector<std::vector<Neuron,std::allocator<Neuron> >,std::allocator<std::vector<Neuron,std::allocator<Neuron> > > >::empty, COMDAT
; _this$ = ecx

; 1759 : 		{	// test if sequence is empty

	push	ebp
	mov	ebp, esp
	sub	esp, 8
	push	esi
	mov	DWORD PTR [ebp-8], -858993460		; ccccccccH
	mov	DWORD PTR [ebp-4], -858993460		; ccccccccH
	mov	DWORD PTR _this$[ebp], ecx

; 1760 : 		return (this->_Myfirst() == this->_Mylast());

	mov	ecx, DWORD PTR _this$[ebp]
	call	?_Myfirst@?$_Vector_alloc@U?$_Vec_base_types@V?$vector@VNeuron@@V?$allocator@VNeuron@@@std@@@std@@V?$allocator@V?$vector@VNeuron@@V?$allocator@VNeuron@@@std@@@std@@@2@@std@@@std@@QBEABQAV?$vector@VNeuron@@V?$allocator@VNeuron@@@std@@@2@XZ ; std::_Vector_alloc<std::_Vec_base_types<std::vector<Neuron,std::allocator<Neuron> >,std::allocator<std::vector<Neuron,std::allocator<Neuron> > > > >::_Myfirst
	mov	esi, eax
	mov	ecx, DWORD PTR _this$[ebp]
	call	?_Mylast@?$_Vector_alloc@U?$_Vec_base_types@V?$vector@VNeuron@@V?$allocator@VNeuron@@@std@@@std@@V?$allocator@V?$vector@VNeuron@@V?$allocator@VNeuron@@@std@@@std@@@2@@std@@@std@@QBEABQAV?$vector@VNeuron@@V?$allocator@VNeuron@@@std@@@2@XZ ; std::_Vector_alloc<std::_Vec_base_types<std::vector<Neuron,std::allocator<Neuron> >,std::allocator<std::vector<Neuron,std::allocator<Neuron> > > > >::_Mylast
	mov	ecx, DWORD PTR [esi]
	cmp	ecx, DWORD PTR [eax]
	jne	SHORT $LN3@empty
	mov	DWORD PTR tv77[ebp], 1
	jmp	SHORT $LN4@empty
$LN3@empty:
	mov	DWORD PTR tv77[ebp], 0
$LN4@empty:
	mov	al, BYTE PTR tv77[ebp]

; 1761 : 		}

	pop	esi
	add	esp, 8
	cmp	ebp, esp
	call	__RTC_CheckEsp
	mov	esp, ebp
	pop	ebp
	ret	0
?empty@?$vector@V?$vector@VNeuron@@V?$allocator@VNeuron@@@std@@@std@@V?$allocator@V?$vector@VNeuron@@V?$allocator@VNeuron@@@std@@@std@@@2@@std@@QBE_NXZ ENDP ; std::vector<std::vector<Neuron,std::allocator<Neuron> >,std::allocator<std::vector<Neuron,std::allocator<Neuron> > > >::empty
_TEXT	ENDS
; Function compile flags: /Odtp /RTCsu
; File c:\program files (x86)\microsoft visual studio\2017\community\vc\tools\msvc\14.11.25503\include\vector
;	COMDAT ?push_back@?$vector@V?$vector@VNeuron@@V?$allocator@VNeuron@@@std@@@std@@V?$allocator@V?$vector@VNeuron@@V?$allocator@VNeuron@@@std@@@std@@@2@@std@@QAEX$$QAV?$vector@VNeuron@@V?$allocator@VNeuron@@@std@@@2@@Z
_TEXT	SEGMENT
_this$ = -4						; size = 4
__Val$ = 8						; size = 4
?push_back@?$vector@V?$vector@VNeuron@@V?$allocator@VNeuron@@@std@@@std@@V?$allocator@V?$vector@VNeuron@@V?$allocator@VNeuron@@@std@@@std@@@2@@std@@QAEX$$QAV?$vector@VNeuron@@V?$allocator@VNeuron@@@std@@@2@@Z PROC ; std::vector<std::vector<Neuron,std::allocator<Neuron> >,std::allocator<std::vector<Neuron,std::allocator<Neuron> > > >::push_back, COMDAT
; _this$ = ecx

; 985  : 		{	// insert by moving into element at end, provide strong guarantee

	push	ebp
	mov	ebp, esp
	push	ecx
	mov	DWORD PTR [ebp-4], -858993460		; ccccccccH
	mov	DWORD PTR _this$[ebp], ecx

; 986  : 		emplace_back(_STD move(_Val));

	mov	eax, DWORD PTR __Val$[ebp]
	push	eax
	call	??$move@AAV?$vector@VNeuron@@V?$allocator@VNeuron@@@std@@@std@@@std@@YA$$QAV?$vector@VNeuron@@V?$allocator@VNeuron@@@std@@@0@AAV10@@Z ; std::move<std::vector<Neuron,std::allocator<Neuron> > &>
	add	esp, 4
	push	eax
	mov	ecx, DWORD PTR _this$[ebp]
	call	??$emplace_back@V?$vector@VNeuron@@V?$allocator@VNeuron@@@std@@@std@@@?$vector@V?$vector@VNeuron@@V?$allocator@VNeuron@@@std@@@std@@V?$allocator@V?$vector@VNeuron@@V?$allocator@VNeuron@@@std@@@std@@@2@@std@@QAE@$$QAV?$vector@VNeuron@@V?$allocator@VNeuron@@@std@@@1@@Z ; std::vector<std::vector<Neuron,std::allocator<Neuron> >,std::allocator<std::vector<Neuron,std::allocator<Neuron> > > >::emplace_back<std::vector<Neuron,std::allocator<Neuron> > >

; 987  : 		}

	add	esp, 4
	cmp	ebp, esp
	call	__RTC_CheckEsp
	mov	esp, ebp
	pop	ebp
	ret	4
?push_back@?$vector@V?$vector@VNeuron@@V?$allocator@VNeuron@@@std@@@std@@V?$allocator@V?$vector@VNeuron@@V?$allocator@VNeuron@@@std@@@std@@@2@@std@@QAEX$$QAV?$vector@VNeuron@@V?$allocator@VNeuron@@@std@@@2@@Z ENDP ; std::vector<std::vector<Neuron,std::allocator<Neuron> >,std::allocator<std::vector<Neuron,std::allocator<Neuron> > > >::push_back
_TEXT	ENDS
; Function compile flags: /Odtp /RTCsu
; File c:\program files (x86)\microsoft visual studio\2017\community\vc\tools\msvc\14.11.25503\include\vector
;	COMDAT ??1?$vector@V?$vector@VNeuron@@V?$allocator@VNeuron@@@std@@@std@@V?$allocator@V?$vector@VNeuron@@V?$allocator@VNeuron@@@std@@@std@@@2@@std@@QAE@XZ
_TEXT	SEGMENT
_this$ = -16						; size = 4
__$EHRec$ = -12						; size = 12
??1?$vector@V?$vector@VNeuron@@V?$allocator@VNeuron@@@std@@@std@@V?$allocator@V?$vector@VNeuron@@V?$allocator@VNeuron@@@std@@@std@@@2@@std@@QAE@XZ PROC ; std::vector<std::vector<Neuron,std::allocator<Neuron> >,std::allocator<std::vector<Neuron,std::allocator<Neuron> > > >::~vector<std::vector<Neuron,std::allocator<Neuron> >,std::allocator<std::vector<Neuron,std::allocator<Neuron> > > >, COMDAT
; _this$ = ecx

; 920  : 		{	// destroy the object

	push	ebp
	mov	ebp, esp
	push	-1
	push	__ehhandler$??1?$vector@V?$vector@VNeuron@@V?$allocator@VNeuron@@@std@@@std@@V?$allocator@V?$vector@VNeuron@@V?$allocator@VNeuron@@@std@@@std@@@2@@std@@QAE@XZ
	mov	eax, DWORD PTR fs:0
	push	eax
	push	ecx
	mov	DWORD PTR [ebp-16], -858993460		; ccccccccH
	mov	eax, DWORD PTR ___security_cookie
	xor	eax, ebp
	push	eax
	lea	eax, DWORD PTR __$EHRec$[ebp]
	mov	DWORD PTR fs:0, eax
	mov	DWORD PTR _this$[ebp], ecx

; 921  : 		_Tidy();

	mov	ecx, DWORD PTR _this$[ebp]
	call	?_Tidy@?$vector@V?$vector@VNeuron@@V?$allocator@VNeuron@@@std@@@std@@V?$allocator@V?$vector@VNeuron@@V?$allocator@VNeuron@@@std@@@std@@@2@@std@@AAEXXZ ; std::vector<std::vector<Neuron,std::allocator<Neuron> >,std::allocator<std::vector<Neuron,std::allocator<Neuron> > > >::_Tidy

; 922  : 		}

	mov	ecx, DWORD PTR _this$[ebp]
	call	??1?$_Vector_alloc@U?$_Vec_base_types@V?$vector@VNeuron@@V?$allocator@VNeuron@@@std@@@std@@V?$allocator@V?$vector@VNeuron@@V?$allocator@VNeuron@@@std@@@std@@@2@@std@@@std@@QAE@XZ ; std::_Vector_alloc<std::_Vec_base_types<std::vector<Neuron,std::allocator<Neuron> >,std::allocator<std::vector<Neuron,std::allocator<Neuron> > > > >::~_Vector_alloc<std::_Vec_base_types<std::vector<Neuron,std::allocator<Neuron> >,std::allocator<std::vector<Neuron,std::allocator<Neuron> > > > >
	mov	ecx, DWORD PTR __$EHRec$[ebp]
	mov	DWORD PTR fs:0, ecx
	pop	ecx
	add	esp, 16					; 00000010H
	cmp	ebp, esp
	call	__RTC_CheckEsp
	mov	esp, ebp
	pop	ebp
	ret	0
_TEXT	ENDS
;	COMDAT text$x
text$x	SEGMENT
__ehhandler$??1?$vector@V?$vector@VNeuron@@V?$allocator@VNeuron@@@std@@@std@@V?$allocator@V?$vector@VNeuron@@V?$allocator@VNeuron@@@std@@@std@@@2@@std@@QAE@XZ:
	mov	edx, DWORD PTR [esp+8]
	lea	eax, DWORD PTR [edx+12]
	mov	ecx, DWORD PTR [edx-8]
	xor	ecx, eax
	call	@__security_check_cookie@4
	mov	eax, OFFSET __ehfuncinfo$??1?$vector@V?$vector@VNeuron@@V?$allocator@VNeuron@@@std@@@std@@V?$allocator@V?$vector@VNeuron@@V?$allocator@VNeuron@@@std@@@std@@@2@@std@@QAE@XZ
	jmp	___CxxFrameHandler3
text$x	ENDS
??1?$vector@V?$vector@VNeuron@@V?$allocator@VNeuron@@@std@@@std@@V?$allocator@V?$vector@VNeuron@@V?$allocator@VNeuron@@@std@@@std@@@2@@std@@QAE@XZ ENDP ; std::vector<std::vector<Neuron,std::allocator<Neuron> >,std::allocator<std::vector<Neuron,std::allocator<Neuron> > > >::~vector<std::vector<Neuron,std::allocator<Neuron> >,std::allocator<std::vector<Neuron,std::allocator<Neuron> > > >
; Function compile flags: /Odtp /RTCsu
; File c:\program files (x86)\microsoft visual studio\2017\community\vc\tools\msvc\14.11.25503\include\vector
;	COMDAT ??0?$vector@V?$vector@VNeuron@@V?$allocator@VNeuron@@@std@@@std@@V?$allocator@V?$vector@VNeuron@@V?$allocator@VNeuron@@@std@@@std@@@2@@std@@QAE@XZ
_TEXT	SEGMENT
_this$ = -16						; size = 4
__$EHRec$ = -12						; size = 12
??0?$vector@V?$vector@VNeuron@@V?$allocator@VNeuron@@@std@@@std@@V?$allocator@V?$vector@VNeuron@@V?$allocator@VNeuron@@@std@@@std@@@2@@std@@QAE@XZ PROC ; std::vector<std::vector<Neuron,std::allocator<Neuron> >,std::allocator<std::vector<Neuron,std::allocator<Neuron> > > >::vector<std::vector<Neuron,std::allocator<Neuron> >,std::allocator<std::vector<Neuron,std::allocator<Neuron> > > >, COMDAT
; _this$ = ecx

; 685  : 		{	// construct empty vector

	push	ebp
	mov	ebp, esp
	push	-1
	push	__ehhandler$??0?$vector@V?$vector@VNeuron@@V?$allocator@VNeuron@@@std@@@std@@V?$allocator@V?$vector@VNeuron@@V?$allocator@VNeuron@@@std@@@std@@@2@@std@@QAE@XZ
	mov	eax, DWORD PTR fs:0
	push	eax
	push	ecx
	mov	DWORD PTR [ebp-16], -858993460		; ccccccccH
	mov	eax, DWORD PTR ___security_cookie
	xor	eax, ebp
	push	eax
	lea	eax, DWORD PTR __$EHRec$[ebp]
	mov	DWORD PTR fs:0, eax
	mov	DWORD PTR _this$[ebp], ecx

; 684  : 		: _Mybase()

	mov	ecx, DWORD PTR _this$[ebp]
	call	??0?$_Vector_alloc@U?$_Vec_base_types@V?$vector@VNeuron@@V?$allocator@VNeuron@@@std@@@std@@V?$allocator@V?$vector@VNeuron@@V?$allocator@VNeuron@@@std@@@std@@@2@@std@@@std@@QAE@XZ ; std::_Vector_alloc<std::_Vec_base_types<std::vector<Neuron,std::allocator<Neuron> >,std::allocator<std::vector<Neuron,std::allocator<Neuron> > > > >::_Vector_alloc<std::_Vec_base_types<std::vector<Neuron,std::allocator<Neuron> >,std::allocator<std::vector<Neuron,std::allocator<Neuron> > > > >

; 686  : 		}

	mov	eax, DWORD PTR _this$[ebp]
	mov	ecx, DWORD PTR __$EHRec$[ebp]
	mov	DWORD PTR fs:0, ecx
	pop	ecx
	add	esp, 16					; 00000010H
	cmp	ebp, esp
	call	__RTC_CheckEsp
	mov	esp, ebp
	pop	ebp
	ret	0
_TEXT	ENDS
;	COMDAT text$x
text$x	SEGMENT
__ehhandler$??0?$vector@V?$vector@VNeuron@@V?$allocator@VNeuron@@@std@@@std@@V?$allocator@V?$vector@VNeuron@@V?$allocator@VNeuron@@@std@@@std@@@2@@std@@QAE@XZ:
	mov	edx, DWORD PTR [esp+8]
	lea	eax, DWORD PTR [edx+12]
	mov	ecx, DWORD PTR [edx-8]
	xor	ecx, eax
	call	@__security_check_cookie@4
	mov	eax, OFFSET __ehfuncinfo$??0?$vector@V?$vector@VNeuron@@V?$allocator@VNeuron@@@std@@@std@@V?$allocator@V?$vector@VNeuron@@V?$allocator@VNeuron@@@std@@@std@@@2@@std@@QAE@XZ
	jmp	___CxxFrameHandler3
text$x	ENDS
??0?$vector@V?$vector@VNeuron@@V?$allocator@VNeuron@@@std@@@std@@V?$allocator@V?$vector@VNeuron@@V?$allocator@VNeuron@@@std@@@std@@@2@@std@@QAE@XZ ENDP ; std::vector<std::vector<Neuron,std::allocator<Neuron> >,std::allocator<std::vector<Neuron,std::allocator<Neuron> > > >::vector<std::vector<Neuron,std::allocator<Neuron> >,std::allocator<std::vector<Neuron,std::allocator<Neuron> > > >
; Function compile flags: /Odtp /RTCsu
;	COMDAT ??1?$_Compressed_pair@V?$allocator@V?$vector@VNeuron@@V?$allocator@VNeuron@@@std@@@std@@@std@@V?$_Vector_val@U?$_Simple_types@V?$vector@VNeuron@@V?$allocator@VNeuron@@@std@@@std@@@std@@@2@$00@std@@QAE@XZ
_TEXT	SEGMENT
_this$ = -4						; size = 4
??1?$_Compressed_pair@V?$allocator@V?$vector@VNeuron@@V?$allocator@VNeuron@@@std@@@std@@@std@@V?$_Vector_val@U?$_Simple_types@V?$vector@VNeuron@@V?$allocator@VNeuron@@@std@@@std@@@std@@@2@$00@std@@QAE@XZ PROC ; std::_Compressed_pair<std::allocator<std::vector<Neuron,std::allocator<Neuron> > >,std::_Vector_val<std::_Simple_types<std::vector<Neuron,std::allocator<Neuron> > > >,1>::~_Compressed_pair<std::allocator<std::vector<Neuron,std::allocator<Neuron> > >,std::_Vector_val<std::_Simple_types<std::vector<Neuron,std::allocator<Neuron> > > >,1>, COMDAT
; _this$ = ecx
	push	ebp
	mov	ebp, esp
	push	ecx
	mov	DWORD PTR [ebp-4], -858993460		; ccccccccH
	mov	DWORD PTR _this$[ebp], ecx
	mov	ecx, DWORD PTR _this$[ebp]
	call	??1?$_Vector_val@U?$_Simple_types@V?$vector@VNeuron@@V?$allocator@VNeuron@@@std@@@std@@@std@@@std@@QAE@XZ
	add	esp, 4
	cmp	ebp, esp
	call	__RTC_CheckEsp
	mov	esp, ebp
	pop	ebp
	ret	0
??1?$_Compressed_pair@V?$allocator@V?$vector@VNeuron@@V?$allocator@VNeuron@@@std@@@std@@@std@@V?$_Vector_val@U?$_Simple_types@V?$vector@VNeuron@@V?$allocator@VNeuron@@@std@@@std@@@std@@@2@$00@std@@QAE@XZ ENDP ; std::_Compressed_pair<std::allocator<std::vector<Neuron,std::allocator<Neuron> > >,std::_Vector_val<std::_Simple_types<std::vector<Neuron,std::allocator<Neuron> > > >,1>::~_Compressed_pair<std::allocator<std::vector<Neuron,std::allocator<Neuron> > >,std::_Vector_val<std::_Simple_types<std::vector<Neuron,std::allocator<Neuron> > > >,1>
_TEXT	ENDS
; Function compile flags: /Odtp /RTCsu
; File c:\program files (x86)\microsoft visual studio\2017\community\vc\tools\msvc\14.11.25503\include\xutility
;	COMDAT ?_Get_second@?$_Compressed_pair@V?$allocator@V?$vector@VNeuron@@V?$allocator@VNeuron@@@std@@@std@@@std@@V?$_Vector_val@U?$_Simple_types@V?$vector@VNeuron@@V?$allocator@VNeuron@@@std@@@std@@@std@@@2@$00@std@@QBEABV?$_Vector_val@U?$_Simple_types@V?$vector@VNeuron@@V?$allocator@VNeuron@@@std@@@std@@@std@@@2@XZ
_TEXT	SEGMENT
_this$ = -4						; size = 4
?_Get_second@?$_Compressed_pair@V?$allocator@V?$vector@VNeuron@@V?$allocator@VNeuron@@@std@@@std@@@std@@V?$_Vector_val@U?$_Simple_types@V?$vector@VNeuron@@V?$allocator@VNeuron@@@std@@@std@@@std@@@2@$00@std@@QBEABV?$_Vector_val@U?$_Simple_types@V?$vector@VNeuron@@V?$allocator@VNeuron@@@std@@@std@@@std@@@2@XZ PROC ; std::_Compressed_pair<std::allocator<std::vector<Neuron,std::allocator<Neuron> > >,std::_Vector_val<std::_Simple_types<std::vector<Neuron,std::allocator<Neuron> > > >,1>::_Get_second, COMDAT
; _this$ = ecx

; 342  : 		{	// return const reference to second

	push	ebp
	mov	ebp, esp
	push	ecx
	mov	DWORD PTR [ebp-4], -858993460		; ccccccccH
	mov	DWORD PTR _this$[ebp], ecx

; 343  : 		return (_Myval2);

	mov	eax, DWORD PTR _this$[ebp]

; 344  : 		}

	mov	esp, ebp
	pop	ebp
	ret	0
?_Get_second@?$_Compressed_pair@V?$allocator@V?$vector@VNeuron@@V?$allocator@VNeuron@@@std@@@std@@@std@@V?$_Vector_val@U?$_Simple_types@V?$vector@VNeuron@@V?$allocator@VNeuron@@@std@@@std@@@std@@@2@$00@std@@QBEABV?$_Vector_val@U?$_Simple_types@V?$vector@VNeuron@@V?$allocator@VNeuron@@@std@@@std@@@std@@@2@XZ ENDP ; std::_Compressed_pair<std::allocator<std::vector<Neuron,std::allocator<Neuron> > >,std::_Vector_val<std::_Simple_types<std::vector<Neuron,std::allocator<Neuron> > > >,1>::_Get_second
_TEXT	ENDS
; Function compile flags: /Odtp /RTCsu
; File c:\program files (x86)\microsoft visual studio\2017\community\vc\tools\msvc\14.11.25503\include\xutility
;	COMDAT ?_Get_second@?$_Compressed_pair@V?$allocator@V?$vector@VNeuron@@V?$allocator@VNeuron@@@std@@@std@@@std@@V?$_Vector_val@U?$_Simple_types@V?$vector@VNeuron@@V?$allocator@VNeuron@@@std@@@std@@@std@@@2@$00@std@@QAEAAV?$_Vector_val@U?$_Simple_types@V?$vector@VNeuron@@V?$allocator@VNeuron@@@std@@@std@@@std@@@2@XZ
_TEXT	SEGMENT
_this$ = -4						; size = 4
?_Get_second@?$_Compressed_pair@V?$allocator@V?$vector@VNeuron@@V?$allocator@VNeuron@@@std@@@std@@@std@@V?$_Vector_val@U?$_Simple_types@V?$vector@VNeuron@@V?$allocator@VNeuron@@@std@@@std@@@std@@@2@$00@std@@QAEAAV?$_Vector_val@U?$_Simple_types@V?$vector@VNeuron@@V?$allocator@VNeuron@@@std@@@std@@@std@@@2@XZ PROC ; std::_Compressed_pair<std::allocator<std::vector<Neuron,std::allocator<Neuron> > >,std::_Vector_val<std::_Simple_types<std::vector<Neuron,std::allocator<Neuron> > > >,1>::_Get_second, COMDAT
; _this$ = ecx

; 337  : 		{	// return reference to second

	push	ebp
	mov	ebp, esp
	push	ecx
	mov	DWORD PTR [ebp-4], -858993460		; ccccccccH
	mov	DWORD PTR _this$[ebp], ecx

; 338  : 		return (_Myval2);

	mov	eax, DWORD PTR _this$[ebp]

; 339  : 		}

	mov	esp, ebp
	pop	ebp
	ret	0
?_Get_second@?$_Compressed_pair@V?$allocator@V?$vector@VNeuron@@V?$allocator@VNeuron@@@std@@@std@@@std@@V?$_Vector_val@U?$_Simple_types@V?$vector@VNeuron@@V?$allocator@VNeuron@@@std@@@std@@@std@@@2@$00@std@@QAEAAV?$_Vector_val@U?$_Simple_types@V?$vector@VNeuron@@V?$allocator@VNeuron@@@std@@@std@@@std@@@2@XZ ENDP ; std::_Compressed_pair<std::allocator<std::vector<Neuron,std::allocator<Neuron> > >,std::_Vector_val<std::_Simple_types<std::vector<Neuron,std::allocator<Neuron> > > >,1>::_Get_second
_TEXT	ENDS
; Function compile flags: /Odtp /RTCsu
; File c:\program files (x86)\microsoft visual studio\2017\community\vc\tools\msvc\14.11.25503\include\xutility
;	COMDAT ?_Get_first@?$_Compressed_pair@V?$allocator@V?$vector@VNeuron@@V?$allocator@VNeuron@@@std@@@std@@@std@@V?$_Vector_val@U?$_Simple_types@V?$vector@VNeuron@@V?$allocator@VNeuron@@@std@@@std@@@std@@@2@$00@std@@QBEABV?$allocator@V?$vector@VNeuron@@V?$allocator@VNeuron@@@std@@@std@@@2@XZ
_TEXT	SEGMENT
_this$ = -4						; size = 4
?_Get_first@?$_Compressed_pair@V?$allocator@V?$vector@VNeuron@@V?$allocator@VNeuron@@@std@@@std@@@std@@V?$_Vector_val@U?$_Simple_types@V?$vector@VNeuron@@V?$allocator@VNeuron@@@std@@@std@@@std@@@2@$00@std@@QBEABV?$allocator@V?$vector@VNeuron@@V?$allocator@VNeuron@@@std@@@std@@@2@XZ PROC ; std::_Compressed_pair<std::allocator<std::vector<Neuron,std::allocator<Neuron> > >,std::_Vector_val<std::_Simple_types<std::vector<Neuron,std::allocator<Neuron> > > >,1>::_Get_first, COMDAT
; _this$ = ecx

; 322  : 		{	// return const reference to first

	push	ebp
	mov	ebp, esp
	push	ecx
	mov	DWORD PTR [ebp-4], -858993460		; ccccccccH
	mov	DWORD PTR _this$[ebp], ecx

; 323  : 		return (*this);

	mov	eax, DWORD PTR _this$[ebp]

; 324  : 		}

	mov	esp, ebp
	pop	ebp
	ret	0
?_Get_first@?$_Compressed_pair@V?$allocator@V?$vector@VNeuron@@V?$allocator@VNeuron@@@std@@@std@@@std@@V?$_Vector_val@U?$_Simple_types@V?$vector@VNeuron@@V?$allocator@VNeuron@@@std@@@std@@@std@@@2@$00@std@@QBEABV?$allocator@V?$vector@VNeuron@@V?$allocator@VNeuron@@@std@@@std@@@2@XZ ENDP ; std::_Compressed_pair<std::allocator<std::vector<Neuron,std::allocator<Neuron> > >,std::_Vector_val<std::_Simple_types<std::vector<Neuron,std::allocator<Neuron> > > >,1>::_Get_first
_TEXT	ENDS
; Function compile flags: /Odtp /RTCsu
; File c:\program files (x86)\microsoft visual studio\2017\community\vc\tools\msvc\14.11.25503\include\xutility
;	COMDAT ?_Get_first@?$_Compressed_pair@V?$allocator@V?$vector@VNeuron@@V?$allocator@VNeuron@@@std@@@std@@@std@@V?$_Vector_val@U?$_Simple_types@V?$vector@VNeuron@@V?$allocator@VNeuron@@@std@@@std@@@std@@@2@$00@std@@QAEAAV?$allocator@V?$vector@VNeuron@@V?$allocator@VNeuron@@@std@@@std@@@2@XZ
_TEXT	SEGMENT
_this$ = -4						; size = 4
?_Get_first@?$_Compressed_pair@V?$allocator@V?$vector@VNeuron@@V?$allocator@VNeuron@@@std@@@std@@@std@@V?$_Vector_val@U?$_Simple_types@V?$vector@VNeuron@@V?$allocator@VNeuron@@@std@@@std@@@std@@@2@$00@std@@QAEAAV?$allocator@V?$vector@VNeuron@@V?$allocator@VNeuron@@@std@@@std@@@2@XZ PROC ; std::_Compressed_pair<std::allocator<std::vector<Neuron,std::allocator<Neuron> > >,std::_Vector_val<std::_Simple_types<std::vector<Neuron,std::allocator<Neuron> > > >,1>::_Get_first, COMDAT
; _this$ = ecx

; 317  : 		{	// return reference to first

	push	ebp
	mov	ebp, esp
	push	ecx
	mov	DWORD PTR [ebp-4], -858993460		; ccccccccH
	mov	DWORD PTR _this$[ebp], ecx

; 318  : 		return (*this);

	mov	eax, DWORD PTR _this$[ebp]

; 319  : 		}

	mov	esp, ebp
	pop	ebp
	ret	0
?_Get_first@?$_Compressed_pair@V?$allocator@V?$vector@VNeuron@@V?$allocator@VNeuron@@@std@@@std@@@std@@V?$_Vector_val@U?$_Simple_types@V?$vector@VNeuron@@V?$allocator@VNeuron@@@std@@@std@@@std@@@2@$00@std@@QAEAAV?$allocator@V?$vector@VNeuron@@V?$allocator@VNeuron@@@std@@@std@@@2@XZ ENDP ; std::_Compressed_pair<std::allocator<std::vector<Neuron,std::allocator<Neuron> > >,std::_Vector_val<std::_Simple_types<std::vector<Neuron,std::allocator<Neuron> > > >,1>::_Get_first
_TEXT	ENDS
; Function compile flags: /Odtp /RTCsu
;	COMDAT ??1?$_Vector_val@U?$_Simple_types@V?$vector@VNeuron@@V?$allocator@VNeuron@@@std@@@std@@@std@@@std@@QAE@XZ
_TEXT	SEGMENT
_this$ = -4						; size = 4
??1?$_Vector_val@U?$_Simple_types@V?$vector@VNeuron@@V?$allocator@VNeuron@@@std@@@std@@@std@@@std@@QAE@XZ PROC ; std::_Vector_val<std::_Simple_types<std::vector<Neuron,std::allocator<Neuron> > > >::~_Vector_val<std::_Simple_types<std::vector<Neuron,std::allocator<Neuron> > > >, COMDAT
; _this$ = ecx
	push	ebp
	mov	ebp, esp
	push	ecx
	mov	DWORD PTR [ebp-4], -858993460		; ccccccccH
	mov	DWORD PTR _this$[ebp], ecx
	mov	ecx, DWORD PTR _this$[ebp]
	call	??1_Container_base12@std@@QAE@XZ	; std::_Container_base12::~_Container_base12
	add	esp, 4
	cmp	ebp, esp
	call	__RTC_CheckEsp
	mov	esp, ebp
	pop	ebp
	ret	0
??1?$_Vector_val@U?$_Simple_types@V?$vector@VNeuron@@V?$allocator@VNeuron@@@std@@@std@@@std@@@std@@QAE@XZ ENDP ; std::_Vector_val<std::_Simple_types<std::vector<Neuron,std::allocator<Neuron> > > >::~_Vector_val<std::_Simple_types<std::vector<Neuron,std::allocator<Neuron> > > >
_TEXT	ENDS
; Function compile flags: /Odtp /RTCsu
; File c:\program files (x86)\microsoft visual studio\2017\community\vc\tools\msvc\14.11.25503\include\vector
;	COMDAT ??0?$_Vector_val@U?$_Simple_types@V?$vector@VNeuron@@V?$allocator@VNeuron@@@std@@@std@@@std@@@std@@QAE@XZ
_TEXT	SEGMENT
_this$ = -4						; size = 4
??0?$_Vector_val@U?$_Simple_types@V?$vector@VNeuron@@V?$allocator@VNeuron@@@std@@@std@@@std@@@std@@QAE@XZ PROC ; std::_Vector_val<std::_Simple_types<std::vector<Neuron,std::allocator<Neuron> > > >::_Vector_val<std::_Simple_types<std::vector<Neuron,std::allocator<Neuron> > > >, COMDAT
; _this$ = ecx

; 437  : 		{	// initialize values

	push	ebp
	mov	ebp, esp
	push	ecx
	mov	DWORD PTR [ebp-4], -858993460		; ccccccccH
	mov	DWORD PTR _this$[ebp], ecx
	mov	ecx, DWORD PTR _this$[ebp]
	call	??0_Container_base12@std@@QAE@XZ	; std::_Container_base12::_Container_base12

; 434  : 		: _Myfirst(),

	mov	eax, DWORD PTR _this$[ebp]
	mov	DWORD PTR [eax+4], 0

; 435  : 		_Mylast(),

	mov	ecx, DWORD PTR _this$[ebp]
	mov	DWORD PTR [ecx+8], 0

; 436  : 		_Myend()

	mov	edx, DWORD PTR _this$[ebp]
	mov	DWORD PTR [edx+12], 0

; 438  : 		}

	mov	eax, DWORD PTR _this$[ebp]
	add	esp, 4
	cmp	ebp, esp
	call	__RTC_CheckEsp
	mov	esp, ebp
	pop	ebp
	ret	0
??0?$_Vector_val@U?$_Simple_types@V?$vector@VNeuron@@V?$allocator@VNeuron@@@std@@@std@@@std@@@std@@QAE@XZ ENDP ; std::_Vector_val<std::_Simple_types<std::vector<Neuron,std::allocator<Neuron> > > >::_Vector_val<std::_Simple_types<std::vector<Neuron,std::allocator<Neuron> > > >
_TEXT	ENDS
; Function compile flags: /Odtp /RTCsu
; File c:\program files (x86)\microsoft visual studio\2017\community\vc\tools\msvc\14.11.25503\include\vector
;	COMDAT ?_Myend@?$_Vector_alloc@U?$_Vec_base_types@V?$vector@VNeuron@@V?$allocator@VNeuron@@@std@@@std@@V?$allocator@V?$vector@VNeuron@@V?$allocator@VNeuron@@@std@@@std@@@2@@std@@@std@@QBEABQAV?$vector@VNeuron@@V?$allocator@VNeuron@@@std@@@2@XZ
_TEXT	SEGMENT
_this$ = -4						; size = 4
?_Myend@?$_Vector_alloc@U?$_Vec_base_types@V?$vector@VNeuron@@V?$allocator@VNeuron@@@std@@@std@@V?$allocator@V?$vector@VNeuron@@V?$allocator@VNeuron@@@std@@@std@@@2@@std@@@std@@QBEABQAV?$vector@VNeuron@@V?$allocator@VNeuron@@@std@@@2@XZ PROC ; std::_Vector_alloc<std::_Vec_base_types<std::vector<Neuron,std::allocator<Neuron> >,std::allocator<std::vector<Neuron,std::allocator<Neuron> > > > >::_Myend, COMDAT
; _this$ = ecx

; 634  : 		{	// return const reference to _Myend

	push	ebp
	mov	ebp, esp
	push	ecx
	mov	DWORD PTR [ebp-4], -858993460		; ccccccccH
	mov	DWORD PTR _this$[ebp], ecx

; 635  : 		return (_Get_data()._Myend);

	mov	ecx, DWORD PTR _this$[ebp]
	call	?_Get_data@?$_Vector_alloc@U?$_Vec_base_types@V?$vector@VNeuron@@V?$allocator@VNeuron@@@std@@@std@@V?$allocator@V?$vector@VNeuron@@V?$allocator@VNeuron@@@std@@@std@@@2@@std@@@std@@QBEABV?$_Vector_val@U?$_Simple_types@V?$vector@VNeuron@@V?$allocator@VNeuron@@@std@@@std@@@std@@@2@XZ ; std::_Vector_alloc<std::_Vec_base_types<std::vector<Neuron,std::allocator<Neuron> >,std::allocator<std::vector<Neuron,std::allocator<Neuron> > > > >::_Get_data
	add	eax, 12					; 0000000cH

; 636  : 		}

	add	esp, 4
	cmp	ebp, esp
	call	__RTC_CheckEsp
	mov	esp, ebp
	pop	ebp
	ret	0
?_Myend@?$_Vector_alloc@U?$_Vec_base_types@V?$vector@VNeuron@@V?$allocator@VNeuron@@@std@@@std@@V?$allocator@V?$vector@VNeuron@@V?$allocator@VNeuron@@@std@@@std@@@2@@std@@@std@@QBEABQAV?$vector@VNeuron@@V?$allocator@VNeuron@@@std@@@2@XZ ENDP ; std::_Vector_alloc<std::_Vec_base_types<std::vector<Neuron,std::allocator<Neuron> >,std::allocator<std::vector<Neuron,std::allocator<Neuron> > > > >::_Myend
_TEXT	ENDS
; Function compile flags: /Odtp /RTCsu
; File c:\program files (x86)\microsoft visual studio\2017\community\vc\tools\msvc\14.11.25503\include\vector
;	COMDAT ?_Myend@?$_Vector_alloc@U?$_Vec_base_types@V?$vector@VNeuron@@V?$allocator@VNeuron@@@std@@@std@@V?$allocator@V?$vector@VNeuron@@V?$allocator@VNeuron@@@std@@@std@@@2@@std@@@std@@QAEAAPAV?$vector@VNeuron@@V?$allocator@VNeuron@@@std@@@2@XZ
_TEXT	SEGMENT
_this$ = -4						; size = 4
?_Myend@?$_Vector_alloc@U?$_Vec_base_types@V?$vector@VNeuron@@V?$allocator@VNeuron@@@std@@@std@@V?$allocator@V?$vector@VNeuron@@V?$allocator@VNeuron@@@std@@@std@@@2@@std@@@std@@QAEAAPAV?$vector@VNeuron@@V?$allocator@VNeuron@@@std@@@2@XZ PROC ; std::_Vector_alloc<std::_Vec_base_types<std::vector<Neuron,std::allocator<Neuron> >,std::allocator<std::vector<Neuron,std::allocator<Neuron> > > > >::_Myend, COMDAT
; _this$ = ecx

; 629  : 		{	// return reference to _Myend

	push	ebp
	mov	ebp, esp
	push	ecx
	mov	DWORD PTR [ebp-4], -858993460		; ccccccccH
	mov	DWORD PTR _this$[ebp], ecx

; 630  : 		return (_Get_data()._Myend);

	mov	ecx, DWORD PTR _this$[ebp]
	call	?_Get_data@?$_Vector_alloc@U?$_Vec_base_types@V?$vector@VNeuron@@V?$allocator@VNeuron@@@std@@@std@@V?$allocator@V?$vector@VNeuron@@V?$allocator@VNeuron@@@std@@@std@@@2@@std@@@std@@QAEAAV?$_Vector_val@U?$_Simple_types@V?$vector@VNeuron@@V?$allocator@VNeuron@@@std@@@std@@@std@@@2@XZ ; std::_Vector_alloc<std::_Vec_base_types<std::vector<Neuron,std::allocator<Neuron> >,std::allocator<std::vector<Neuron,std::allocator<Neuron> > > > >::_Get_data
	add	eax, 12					; 0000000cH

; 631  : 		}

	add	esp, 4
	cmp	ebp, esp
	call	__RTC_CheckEsp
	mov	esp, ebp
	pop	ebp
	ret	0
?_Myend@?$_Vector_alloc@U?$_Vec_base_types@V?$vector@VNeuron@@V?$allocator@VNeuron@@@std@@@std@@V?$allocator@V?$vector@VNeuron@@V?$allocator@VNeuron@@@std@@@std@@@2@@std@@@std@@QAEAAPAV?$vector@VNeuron@@V?$allocator@VNeuron@@@std@@@2@XZ ENDP ; std::_Vector_alloc<std::_Vec_base_types<std::vector<Neuron,std::allocator<Neuron> >,std::allocator<std::vector<Neuron,std::allocator<Neuron> > > > >::_Myend
_TEXT	ENDS
; Function compile flags: /Odtp /RTCsu
; File c:\program files (x86)\microsoft visual studio\2017\community\vc\tools\msvc\14.11.25503\include\vector
;	COMDAT ?_Mylast@?$_Vector_alloc@U?$_Vec_base_types@V?$vector@VNeuron@@V?$allocator@VNeuron@@@std@@@std@@V?$allocator@V?$vector@VNeuron@@V?$allocator@VNeuron@@@std@@@std@@@2@@std@@@std@@QBEABQAV?$vector@VNeuron@@V?$allocator@VNeuron@@@std@@@2@XZ
_TEXT	SEGMENT
_this$ = -4						; size = 4
?_Mylast@?$_Vector_alloc@U?$_Vec_base_types@V?$vector@VNeuron@@V?$allocator@VNeuron@@@std@@@std@@V?$allocator@V?$vector@VNeuron@@V?$allocator@VNeuron@@@std@@@std@@@2@@std@@@std@@QBEABQAV?$vector@VNeuron@@V?$allocator@VNeuron@@@std@@@2@XZ PROC ; std::_Vector_alloc<std::_Vec_base_types<std::vector<Neuron,std::allocator<Neuron> >,std::allocator<std::vector<Neuron,std::allocator<Neuron> > > > >::_Mylast, COMDAT
; _this$ = ecx

; 624  : 		{	// return const reference to _Mylast

	push	ebp
	mov	ebp, esp
	push	ecx
	mov	DWORD PTR [ebp-4], -858993460		; ccccccccH
	mov	DWORD PTR _this$[ebp], ecx

; 625  : 		return (_Get_data()._Mylast);

	mov	ecx, DWORD PTR _this$[ebp]
	call	?_Get_data@?$_Vector_alloc@U?$_Vec_base_types@V?$vector@VNeuron@@V?$allocator@VNeuron@@@std@@@std@@V?$allocator@V?$vector@VNeuron@@V?$allocator@VNeuron@@@std@@@std@@@2@@std@@@std@@QBEABV?$_Vector_val@U?$_Simple_types@V?$vector@VNeuron@@V?$allocator@VNeuron@@@std@@@std@@@std@@@2@XZ ; std::_Vector_alloc<std::_Vec_base_types<std::vector<Neuron,std::allocator<Neuron> >,std::allocator<std::vector<Neuron,std::allocator<Neuron> > > > >::_Get_data
	add	eax, 8

; 626  : 		}

	add	esp, 4
	cmp	ebp, esp
	call	__RTC_CheckEsp
	mov	esp, ebp
	pop	ebp
	ret	0
?_Mylast@?$_Vector_alloc@U?$_Vec_base_types@V?$vector@VNeuron@@V?$allocator@VNeuron@@@std@@@std@@V?$allocator@V?$vector@VNeuron@@V?$allocator@VNeuron@@@std@@@std@@@2@@std@@@std@@QBEABQAV?$vector@VNeuron@@V?$allocator@VNeuron@@@std@@@2@XZ ENDP ; std::_Vector_alloc<std::_Vec_base_types<std::vector<Neuron,std::allocator<Neuron> >,std::allocator<std::vector<Neuron,std::allocator<Neuron> > > > >::_Mylast
_TEXT	ENDS
; Function compile flags: /Odtp /RTCsu
; File c:\program files (x86)\microsoft visual studio\2017\community\vc\tools\msvc\14.11.25503\include\vector
;	COMDAT ?_Mylast@?$_Vector_alloc@U?$_Vec_base_types@V?$vector@VNeuron@@V?$allocator@VNeuron@@@std@@@std@@V?$allocator@V?$vector@VNeuron@@V?$allocator@VNeuron@@@std@@@std@@@2@@std@@@std@@QAEAAPAV?$vector@VNeuron@@V?$allocator@VNeuron@@@std@@@2@XZ
_TEXT	SEGMENT
_this$ = -4						; size = 4
?_Mylast@?$_Vector_alloc@U?$_Vec_base_types@V?$vector@VNeuron@@V?$allocator@VNeuron@@@std@@@std@@V?$allocator@V?$vector@VNeuron@@V?$allocator@VNeuron@@@std@@@std@@@2@@std@@@std@@QAEAAPAV?$vector@VNeuron@@V?$allocator@VNeuron@@@std@@@2@XZ PROC ; std::_Vector_alloc<std::_Vec_base_types<std::vector<Neuron,std::allocator<Neuron> >,std::allocator<std::vector<Neuron,std::allocator<Neuron> > > > >::_Mylast, COMDAT
; _this$ = ecx

; 619  : 		{	// return reference to _Mylast

	push	ebp
	mov	ebp, esp
	push	ecx
	mov	DWORD PTR [ebp-4], -858993460		; ccccccccH
	mov	DWORD PTR _this$[ebp], ecx

; 620  : 		return (_Get_data()._Mylast);

	mov	ecx, DWORD PTR _this$[ebp]
	call	?_Get_data@?$_Vector_alloc@U?$_Vec_base_types@V?$vector@VNeuron@@V?$allocator@VNeuron@@@std@@@std@@V?$allocator@V?$vector@VNeuron@@V?$allocator@VNeuron@@@std@@@std@@@2@@std@@@std@@QAEAAV?$_Vector_val@U?$_Simple_types@V?$vector@VNeuron@@V?$allocator@VNeuron@@@std@@@std@@@std@@@2@XZ ; std::_Vector_alloc<std::_Vec_base_types<std::vector<Neuron,std::allocator<Neuron> >,std::allocator<std::vector<Neuron,std::allocator<Neuron> > > > >::_Get_data
	add	eax, 8

; 621  : 		}

	add	esp, 4
	cmp	ebp, esp
	call	__RTC_CheckEsp
	mov	esp, ebp
	pop	ebp
	ret	0
?_Mylast@?$_Vector_alloc@U?$_Vec_base_types@V?$vector@VNeuron@@V?$allocator@VNeuron@@@std@@@std@@V?$allocator@V?$vector@VNeuron@@V?$allocator@VNeuron@@@std@@@std@@@2@@std@@@std@@QAEAAPAV?$vector@VNeuron@@V?$allocator@VNeuron@@@std@@@2@XZ ENDP ; std::_Vector_alloc<std::_Vec_base_types<std::vector<Neuron,std::allocator<Neuron> >,std::allocator<std::vector<Neuron,std::allocator<Neuron> > > > >::_Mylast
_TEXT	ENDS
; Function compile flags: /Odtp /RTCsu
; File c:\program files (x86)\microsoft visual studio\2017\community\vc\tools\msvc\14.11.25503\include\vector
;	COMDAT ?_Myfirst@?$_Vector_alloc@U?$_Vec_base_types@V?$vector@VNeuron@@V?$allocator@VNeuron@@@std@@@std@@V?$allocator@V?$vector@VNeuron@@V?$allocator@VNeuron@@@std@@@std@@@2@@std@@@std@@QBEABQAV?$vector@VNeuron@@V?$allocator@VNeuron@@@std@@@2@XZ
_TEXT	SEGMENT
_this$ = -4						; size = 4
?_Myfirst@?$_Vector_alloc@U?$_Vec_base_types@V?$vector@VNeuron@@V?$allocator@VNeuron@@@std@@@std@@V?$allocator@V?$vector@VNeuron@@V?$allocator@VNeuron@@@std@@@std@@@2@@std@@@std@@QBEABQAV?$vector@VNeuron@@V?$allocator@VNeuron@@@std@@@2@XZ PROC ; std::_Vector_alloc<std::_Vec_base_types<std::vector<Neuron,std::allocator<Neuron> >,std::allocator<std::vector<Neuron,std::allocator<Neuron> > > > >::_Myfirst, COMDAT
; _this$ = ecx

; 614  : 		{	// return const reference to _Myfirst

	push	ebp
	mov	ebp, esp
	push	ecx
	mov	DWORD PTR [ebp-4], -858993460		; ccccccccH
	mov	DWORD PTR _this$[ebp], ecx

; 615  : 		return (_Get_data()._Myfirst);

	mov	ecx, DWORD PTR _this$[ebp]
	call	?_Get_data@?$_Vector_alloc@U?$_Vec_base_types@V?$vector@VNeuron@@V?$allocator@VNeuron@@@std@@@std@@V?$allocator@V?$vector@VNeuron@@V?$allocator@VNeuron@@@std@@@std@@@2@@std@@@std@@QBEABV?$_Vector_val@U?$_Simple_types@V?$vector@VNeuron@@V?$allocator@VNeuron@@@std@@@std@@@std@@@2@XZ ; std::_Vector_alloc<std::_Vec_base_types<std::vector<Neuron,std::allocator<Neuron> >,std::allocator<std::vector<Neuron,std::allocator<Neuron> > > > >::_Get_data
	add	eax, 4

; 616  : 		}

	add	esp, 4
	cmp	ebp, esp
	call	__RTC_CheckEsp
	mov	esp, ebp
	pop	ebp
	ret	0
?_Myfirst@?$_Vector_alloc@U?$_Vec_base_types@V?$vector@VNeuron@@V?$allocator@VNeuron@@@std@@@std@@V?$allocator@V?$vector@VNeuron@@V?$allocator@VNeuron@@@std@@@std@@@2@@std@@@std@@QBEABQAV?$vector@VNeuron@@V?$allocator@VNeuron@@@std@@@2@XZ ENDP ; std::_Vector_alloc<std::_Vec_base_types<std::vector<Neuron,std::allocator<Neuron> >,std::allocator<std::vector<Neuron,std::allocator<Neuron> > > > >::_Myfirst
_TEXT	ENDS
; Function compile flags: /Odtp /RTCsu
; File c:\program files (x86)\microsoft visual studio\2017\community\vc\tools\msvc\14.11.25503\include\vector
;	COMDAT ?_Myfirst@?$_Vector_alloc@U?$_Vec_base_types@V?$vector@VNeuron@@V?$allocator@VNeuron@@@std@@@std@@V?$allocator@V?$vector@VNeuron@@V?$allocator@VNeuron@@@std@@@std@@@2@@std@@@std@@QAEAAPAV?$vector@VNeuron@@V?$allocator@VNeuron@@@std@@@2@XZ
_TEXT	SEGMENT
_this$ = -4						; size = 4
?_Myfirst@?$_Vector_alloc@U?$_Vec_base_types@V?$vector@VNeuron@@V?$allocator@VNeuron@@@std@@@std@@V?$allocator@V?$vector@VNeuron@@V?$allocator@VNeuron@@@std@@@std@@@2@@std@@@std@@QAEAAPAV?$vector@VNeuron@@V?$allocator@VNeuron@@@std@@@2@XZ PROC ; std::_Vector_alloc<std::_Vec_base_types<std::vector<Neuron,std::allocator<Neuron> >,std::allocator<std::vector<Neuron,std::allocator<Neuron> > > > >::_Myfirst, COMDAT
; _this$ = ecx

; 609  : 		{	// return reference to _Myfirst

	push	ebp
	mov	ebp, esp
	push	ecx
	mov	DWORD PTR [ebp-4], -858993460		; ccccccccH
	mov	DWORD PTR _this$[ebp], ecx

; 610  : 		return (_Get_data()._Myfirst);

	mov	ecx, DWORD PTR _this$[ebp]
	call	?_Get_data@?$_Vector_alloc@U?$_Vec_base_types@V?$vector@VNeuron@@V?$allocator@VNeuron@@@std@@@std@@V?$allocator@V?$vector@VNeuron@@V?$allocator@VNeuron@@@std@@@std@@@2@@std@@@std@@QAEAAV?$_Vector_val@U?$_Simple_types@V?$vector@VNeuron@@V?$allocator@VNeuron@@@std@@@std@@@std@@@2@XZ ; std::_Vector_alloc<std::_Vec_base_types<std::vector<Neuron,std::allocator<Neuron> >,std::allocator<std::vector<Neuron,std::allocator<Neuron> > > > >::_Get_data
	add	eax, 4

; 611  : 		}

	add	esp, 4
	cmp	ebp, esp
	call	__RTC_CheckEsp
	mov	esp, ebp
	pop	ebp
	ret	0
?_Myfirst@?$_Vector_alloc@U?$_Vec_base_types@V?$vector@VNeuron@@V?$allocator@VNeuron@@@std@@@std@@V?$allocator@V?$vector@VNeuron@@V?$allocator@VNeuron@@@std@@@std@@@2@@std@@@std@@QAEAAPAV?$vector@VNeuron@@V?$allocator@VNeuron@@@std@@@2@XZ ENDP ; std::_Vector_alloc<std::_Vec_base_types<std::vector<Neuron,std::allocator<Neuron> >,std::allocator<std::vector<Neuron,std::allocator<Neuron> > > > >::_Myfirst
_TEXT	ENDS
; Function compile flags: /Odtp /RTCsu
; File c:\program files (x86)\microsoft visual studio\2017\community\vc\tools\msvc\14.11.25503\include\vector
;	COMDAT ?_Get_data@?$_Vector_alloc@U?$_Vec_base_types@V?$vector@VNeuron@@V?$allocator@VNeuron@@@std@@@std@@V?$allocator@V?$vector@VNeuron@@V?$allocator@VNeuron@@@std@@@std@@@2@@std@@@std@@QBEABV?$_Vector_val@U?$_Simple_types@V?$vector@VNeuron@@V?$allocator@VNeuron@@@std@@@std@@@std@@@2@XZ
_TEXT	SEGMENT
_this$ = -4						; size = 4
?_Get_data@?$_Vector_alloc@U?$_Vec_base_types@V?$vector@VNeuron@@V?$allocator@VNeuron@@@std@@@std@@V?$allocator@V?$vector@VNeuron@@V?$allocator@VNeuron@@@std@@@std@@@2@@std@@@std@@QBEABV?$_Vector_val@U?$_Simple_types@V?$vector@VNeuron@@V?$allocator@VNeuron@@@std@@@std@@@std@@@2@XZ PROC ; std::_Vector_alloc<std::_Vec_base_types<std::vector<Neuron,std::allocator<Neuron> >,std::allocator<std::vector<Neuron,std::allocator<Neuron> > > > >::_Get_data, COMDAT
; _this$ = ecx

; 604  : 		{	// return const reference to _Vector_val

	push	ebp
	mov	ebp, esp
	push	ecx
	mov	DWORD PTR [ebp-4], -858993460		; ccccccccH
	mov	DWORD PTR _this$[ebp], ecx

; 605  : 		return (_Mypair._Get_second());

	mov	ecx, DWORD PTR _this$[ebp]
	call	?_Get_second@?$_Compressed_pair@V?$allocator@V?$vector@VNeuron@@V?$allocator@VNeuron@@@std@@@std@@@std@@V?$_Vector_val@U?$_Simple_types@V?$vector@VNeuron@@V?$allocator@VNeuron@@@std@@@std@@@std@@@2@$00@std@@QBEABV?$_Vector_val@U?$_Simple_types@V?$vector@VNeuron@@V?$allocator@VNeuron@@@std@@@std@@@std@@@2@XZ ; std::_Compressed_pair<std::allocator<std::vector<Neuron,std::allocator<Neuron> > >,std::_Vector_val<std::_Simple_types<std::vector<Neuron,std::allocator<Neuron> > > >,1>::_Get_second

; 606  : 		}

	add	esp, 4
	cmp	ebp, esp
	call	__RTC_CheckEsp
	mov	esp, ebp
	pop	ebp
	ret	0
?_Get_data@?$_Vector_alloc@U?$_Vec_base_types@V?$vector@VNeuron@@V?$allocator@VNeuron@@@std@@@std@@V?$allocator@V?$vector@VNeuron@@V?$allocator@VNeuron@@@std@@@std@@@2@@std@@@std@@QBEABV?$_Vector_val@U?$_Simple_types@V?$vector@VNeuron@@V?$allocator@VNeuron@@@std@@@std@@@std@@@2@XZ ENDP ; std::_Vector_alloc<std::_Vec_base_types<std::vector<Neuron,std::allocator<Neuron> >,std::allocator<std::vector<Neuron,std::allocator<Neuron> > > > >::_Get_data
_TEXT	ENDS
; Function compile flags: /Odtp /RTCsu
; File c:\program files (x86)\microsoft visual studio\2017\community\vc\tools\msvc\14.11.25503\include\vector
;	COMDAT ?_Get_data@?$_Vector_alloc@U?$_Vec_base_types@V?$vector@VNeuron@@V?$allocator@VNeuron@@@std@@@std@@V?$allocator@V?$vector@VNeuron@@V?$allocator@VNeuron@@@std@@@std@@@2@@std@@@std@@QAEAAV?$_Vector_val@U?$_Simple_types@V?$vector@VNeuron@@V?$allocator@VNeuron@@@std@@@std@@@std@@@2@XZ
_TEXT	SEGMENT
_this$ = -4						; size = 4
?_Get_data@?$_Vector_alloc@U?$_Vec_base_types@V?$vector@VNeuron@@V?$allocator@VNeuron@@@std@@@std@@V?$allocator@V?$vector@VNeuron@@V?$allocator@VNeuron@@@std@@@std@@@2@@std@@@std@@QAEAAV?$_Vector_val@U?$_Simple_types@V?$vector@VNeuron@@V?$allocator@VNeuron@@@std@@@std@@@std@@@2@XZ PROC ; std::_Vector_alloc<std::_Vec_base_types<std::vector<Neuron,std::allocator<Neuron> >,std::allocator<std::vector<Neuron,std::allocator<Neuron> > > > >::_Get_data, COMDAT
; _this$ = ecx

; 599  : 		{	// return reference to _Vector_val

	push	ebp
	mov	ebp, esp
	push	ecx
	mov	DWORD PTR [ebp-4], -858993460		; ccccccccH
	mov	DWORD PTR _this$[ebp], ecx

; 600  : 		return (_Mypair._Get_second());

	mov	ecx, DWORD PTR _this$[ebp]
	call	?_Get_second@?$_Compressed_pair@V?$allocator@V?$vector@VNeuron@@V?$allocator@VNeuron@@@std@@@std@@@std@@V?$_Vector_val@U?$_Simple_types@V?$vector@VNeuron@@V?$allocator@VNeuron@@@std@@@std@@@std@@@2@$00@std@@QAEAAV?$_Vector_val@U?$_Simple_types@V?$vector@VNeuron@@V?$allocator@VNeuron@@@std@@@std@@@std@@@2@XZ ; std::_Compressed_pair<std::allocator<std::vector<Neuron,std::allocator<Neuron> > >,std::_Vector_val<std::_Simple_types<std::vector<Neuron,std::allocator<Neuron> > > >,1>::_Get_second

; 601  : 		}

	add	esp, 4
	cmp	ebp, esp
	call	__RTC_CheckEsp
	mov	esp, ebp
	pop	ebp
	ret	0
?_Get_data@?$_Vector_alloc@U?$_Vec_base_types@V?$vector@VNeuron@@V?$allocator@VNeuron@@@std@@@std@@V?$allocator@V?$vector@VNeuron@@V?$allocator@VNeuron@@@std@@@std@@@2@@std@@@std@@QAEAAV?$_Vector_val@U?$_Simple_types@V?$vector@VNeuron@@V?$allocator@VNeuron@@@std@@@std@@@std@@@2@XZ ENDP ; std::_Vector_alloc<std::_Vec_base_types<std::vector<Neuron,std::allocator<Neuron> >,std::allocator<std::vector<Neuron,std::allocator<Neuron> > > > >::_Get_data
_TEXT	ENDS
; Function compile flags: /Odtp /RTCsu
; File c:\program files (x86)\microsoft visual studio\2017\community\vc\tools\msvc\14.11.25503\include\vector
;	COMDAT ?_Getal@?$_Vector_alloc@U?$_Vec_base_types@V?$vector@VNeuron@@V?$allocator@VNeuron@@@std@@@std@@V?$allocator@V?$vector@VNeuron@@V?$allocator@VNeuron@@@std@@@std@@@2@@std@@@std@@QBEABV?$allocator@V?$vector@VNeuron@@V?$allocator@VNeuron@@@std@@@std@@@2@XZ
_TEXT	SEGMENT
_this$ = -4						; size = 4
?_Getal@?$_Vector_alloc@U?$_Vec_base_types@V?$vector@VNeuron@@V?$allocator@VNeuron@@@std@@@std@@V?$allocator@V?$vector@VNeuron@@V?$allocator@VNeuron@@@std@@@std@@@2@@std@@@std@@QBEABV?$allocator@V?$vector@VNeuron@@V?$allocator@VNeuron@@@std@@@std@@@2@XZ PROC ; std::_Vector_alloc<std::_Vec_base_types<std::vector<Neuron,std::allocator<Neuron> >,std::allocator<std::vector<Neuron,std::allocator<Neuron> > > > >::_Getal, COMDAT
; _this$ = ecx

; 594  : 		{	// return const reference to allocator

	push	ebp
	mov	ebp, esp
	push	ecx
	mov	DWORD PTR [ebp-4], -858993460		; ccccccccH
	mov	DWORD PTR _this$[ebp], ecx

; 595  : 		return (_Mypair._Get_first());

	mov	ecx, DWORD PTR _this$[ebp]
	call	?_Get_first@?$_Compressed_pair@V?$allocator@V?$vector@VNeuron@@V?$allocator@VNeuron@@@std@@@std@@@std@@V?$_Vector_val@U?$_Simple_types@V?$vector@VNeuron@@V?$allocator@VNeuron@@@std@@@std@@@std@@@2@$00@std@@QBEABV?$allocator@V?$vector@VNeuron@@V?$allocator@VNeuron@@@std@@@std@@@2@XZ ; std::_Compressed_pair<std::allocator<std::vector<Neuron,std::allocator<Neuron> > >,std::_Vector_val<std::_Simple_types<std::vector<Neuron,std::allocator<Neuron> > > >,1>::_Get_first

; 596  : 		}

	add	esp, 4
	cmp	ebp, esp
	call	__RTC_CheckEsp
	mov	esp, ebp
	pop	ebp
	ret	0
?_Getal@?$_Vector_alloc@U?$_Vec_base_types@V?$vector@VNeuron@@V?$allocator@VNeuron@@@std@@@std@@V?$allocator@V?$vector@VNeuron@@V?$allocator@VNeuron@@@std@@@std@@@2@@std@@@std@@QBEABV?$allocator@V?$vector@VNeuron@@V?$allocator@VNeuron@@@std@@@std@@@2@XZ ENDP ; std::_Vector_alloc<std::_Vec_base_types<std::vector<Neuron,std::allocator<Neuron> >,std::allocator<std::vector<Neuron,std::allocator<Neuron> > > > >::_Getal
_TEXT	ENDS
; Function compile flags: /Odtp /RTCsu
; File c:\program files (x86)\microsoft visual studio\2017\community\vc\tools\msvc\14.11.25503\include\vector
;	COMDAT ?_Getal@?$_Vector_alloc@U?$_Vec_base_types@V?$vector@VNeuron@@V?$allocator@VNeuron@@@std@@@std@@V?$allocator@V?$vector@VNeuron@@V?$allocator@VNeuron@@@std@@@std@@@2@@std@@@std@@QAEAAV?$allocator@V?$vector@VNeuron@@V?$allocator@VNeuron@@@std@@@std@@@2@XZ
_TEXT	SEGMENT
_this$ = -4						; size = 4
?_Getal@?$_Vector_alloc@U?$_Vec_base_types@V?$vector@VNeuron@@V?$allocator@VNeuron@@@std@@@std@@V?$allocator@V?$vector@VNeuron@@V?$allocator@VNeuron@@@std@@@std@@@2@@std@@@std@@QAEAAV?$allocator@V?$vector@VNeuron@@V?$allocator@VNeuron@@@std@@@std@@@2@XZ PROC ; std::_Vector_alloc<std::_Vec_base_types<std::vector<Neuron,std::allocator<Neuron> >,std::allocator<std::vector<Neuron,std::allocator<Neuron> > > > >::_Getal, COMDAT
; _this$ = ecx

; 589  : 		{	// return reference to allocator

	push	ebp
	mov	ebp, esp
	push	ecx
	mov	DWORD PTR [ebp-4], -858993460		; ccccccccH
	mov	DWORD PTR _this$[ebp], ecx

; 590  : 		return (_Mypair._Get_first());

	mov	ecx, DWORD PTR _this$[ebp]
	call	?_Get_first@?$_Compressed_pair@V?$allocator@V?$vector@VNeuron@@V?$allocator@VNeuron@@@std@@@std@@@std@@V?$_Vector_val@U?$_Simple_types@V?$vector@VNeuron@@V?$allocator@VNeuron@@@std@@@std@@@std@@@2@$00@std@@QAEAAV?$allocator@V?$vector@VNeuron@@V?$allocator@VNeuron@@@std@@@std@@@2@XZ ; std::_Compressed_pair<std::allocator<std::vector<Neuron,std::allocator<Neuron> > >,std::_Vector_val<std::_Simple_types<std::vector<Neuron,std::allocator<Neuron> > > >,1>::_Get_first

; 591  : 		}

	add	esp, 4
	cmp	ebp, esp
	call	__RTC_CheckEsp
	mov	esp, ebp
	pop	ebp
	ret	0
?_Getal@?$_Vector_alloc@U?$_Vec_base_types@V?$vector@VNeuron@@V?$allocator@VNeuron@@@std@@@std@@V?$allocator@V?$vector@VNeuron@@V?$allocator@VNeuron@@@std@@@std@@@2@@std@@@std@@QAEAAV?$allocator@V?$vector@VNeuron@@V?$allocator@VNeuron@@@std@@@std@@@2@XZ ENDP ; std::_Vector_alloc<std::_Vec_base_types<std::vector<Neuron,std::allocator<Neuron> >,std::allocator<std::vector<Neuron,std::allocator<Neuron> > > > >::_Getal
_TEXT	ENDS
; Function compile flags: /Odtp /RTCsu
; File c:\program files (x86)\microsoft visual studio\2017\community\vc\tools\msvc\14.11.25503\include\vector
;	COMDAT ?_Orphan_all@?$_Vector_alloc@U?$_Vec_base_types@V?$vector@VNeuron@@V?$allocator@VNeuron@@@std@@@std@@V?$allocator@V?$vector@VNeuron@@V?$allocator@VNeuron@@@std@@@std@@@2@@std@@@std@@QAEXXZ
_TEXT	SEGMENT
_this$ = -4						; size = 4
?_Orphan_all@?$_Vector_alloc@U?$_Vec_base_types@V?$vector@VNeuron@@V?$allocator@VNeuron@@@std@@@std@@V?$allocator@V?$vector@VNeuron@@V?$allocator@VNeuron@@@std@@@std@@@2@@std@@@std@@QAEXXZ PROC ; std::_Vector_alloc<std::_Vec_base_types<std::vector<Neuron,std::allocator<Neuron> >,std::allocator<std::vector<Neuron,std::allocator<Neuron> > > > >::_Orphan_all, COMDAT
; _this$ = ecx

; 579  : 		{	// orphan all iterators

	push	ebp
	mov	ebp, esp
	push	ecx
	mov	DWORD PTR [ebp-4], -858993460		; ccccccccH
	mov	DWORD PTR _this$[ebp], ecx

; 580  : 		_Get_data()._Orphan_all();

	mov	ecx, DWORD PTR _this$[ebp]
	call	?_Get_data@?$_Vector_alloc@U?$_Vec_base_types@V?$vector@VNeuron@@V?$allocator@VNeuron@@@std@@@std@@V?$allocator@V?$vector@VNeuron@@V?$allocator@VNeuron@@@std@@@std@@@2@@std@@@std@@QAEAAV?$_Vector_val@U?$_Simple_types@V?$vector@VNeuron@@V?$allocator@VNeuron@@@std@@@std@@@std@@@2@XZ ; std::_Vector_alloc<std::_Vec_base_types<std::vector<Neuron,std::allocator<Neuron> >,std::allocator<std::vector<Neuron,std::allocator<Neuron> > > > >::_Get_data
	mov	ecx, eax
	call	?_Orphan_all@_Container_base12@std@@QAEXXZ ; std::_Container_base12::_Orphan_all

; 581  : 		}

	add	esp, 4
	cmp	ebp, esp
	call	__RTC_CheckEsp
	mov	esp, ebp
	pop	ebp
	ret	0
?_Orphan_all@?$_Vector_alloc@U?$_Vec_base_types@V?$vector@VNeuron@@V?$allocator@VNeuron@@@std@@@std@@V?$allocator@V?$vector@VNeuron@@V?$allocator@VNeuron@@@std@@@std@@@2@@std@@@std@@QAEXXZ ENDP ; std::_Vector_alloc<std::_Vec_base_types<std::vector<Neuron,std::allocator<Neuron> >,std::allocator<std::vector<Neuron,std::allocator<Neuron> > > > >::_Orphan_all
_TEXT	ENDS
; Function compile flags: /Odtp /RTCsu
; File c:\program files (x86)\microsoft visual studio\2017\community\vc\tools\msvc\14.11.25503\include\vector
;	COMDAT ?_Myproxy@?$_Vector_alloc@U?$_Vec_base_types@V?$vector@VNeuron@@V?$allocator@VNeuron@@@std@@@std@@V?$allocator@V?$vector@VNeuron@@V?$allocator@VNeuron@@@std@@@std@@@2@@std@@@std@@QAEAAPAU_Container_proxy@2@XZ
_TEXT	SEGMENT
_this$ = -4						; size = 4
?_Myproxy@?$_Vector_alloc@U?$_Vec_base_types@V?$vector@VNeuron@@V?$allocator@VNeuron@@@std@@@std@@V?$allocator@V?$vector@VNeuron@@V?$allocator@VNeuron@@@std@@@std@@@2@@std@@@std@@QAEAAPAU_Container_proxy@2@XZ PROC ; std::_Vector_alloc<std::_Vec_base_types<std::vector<Neuron,std::allocator<Neuron> >,std::allocator<std::vector<Neuron,std::allocator<Neuron> > > > >::_Myproxy, COMDAT
; _this$ = ecx

; 568  : 		{	// return reference to _Myproxy

	push	ebp
	mov	ebp, esp
	push	ecx
	mov	DWORD PTR [ebp-4], -858993460		; ccccccccH
	mov	DWORD PTR _this$[ebp], ecx

; 569  : 		return (_Get_data()._Myproxy);

	mov	ecx, DWORD PTR _this$[ebp]
	call	?_Get_data@?$_Vector_alloc@U?$_Vec_base_types@V?$vector@VNeuron@@V?$allocator@VNeuron@@@std@@@std@@V?$allocator@V?$vector@VNeuron@@V?$allocator@VNeuron@@@std@@@std@@@2@@std@@@std@@QAEAAV?$_Vector_val@U?$_Simple_types@V?$vector@VNeuron@@V?$allocator@VNeuron@@@std@@@std@@@std@@@2@XZ ; std::_Vector_alloc<std::_Vec_base_types<std::vector<Neuron,std::allocator<Neuron> >,std::allocator<std::vector<Neuron,std::allocator<Neuron> > > > >::_Get_data

; 570  : 		}

	add	esp, 4
	cmp	ebp, esp
	call	__RTC_CheckEsp
	mov	esp, ebp
	pop	ebp
	ret	0
?_Myproxy@?$_Vector_alloc@U?$_Vec_base_types@V?$vector@VNeuron@@V?$allocator@VNeuron@@@std@@@std@@V?$allocator@V?$vector@VNeuron@@V?$allocator@VNeuron@@@std@@@std@@@2@@std@@@std@@QAEAAPAU_Container_proxy@2@XZ ENDP ; std::_Vector_alloc<std::_Vec_base_types<std::vector<Neuron,std::allocator<Neuron> >,std::allocator<std::vector<Neuron,std::allocator<Neuron> > > > >::_Myproxy
_TEXT	ENDS
; Function compile flags: /Odtp /RTCsu
; File c:\program files (x86)\microsoft visual studio\2017\community\vc\tools\msvc\14.11.25503\include\vector
;	COMDAT ?_Getpfirst@?$_Vector_alloc@U?$_Vec_base_types@V?$vector@VNeuron@@V?$allocator@VNeuron@@@std@@@std@@V?$allocator@V?$vector@VNeuron@@V?$allocator@VNeuron@@@std@@@std@@@2@@std@@@std@@QBEPAPAU_Iterator_base12@2@XZ
_TEXT	SEGMENT
_this$ = -4						; size = 4
?_Getpfirst@?$_Vector_alloc@U?$_Vec_base_types@V?$vector@VNeuron@@V?$allocator@VNeuron@@@std@@@std@@V?$allocator@V?$vector@VNeuron@@V?$allocator@VNeuron@@@std@@@std@@@2@@std@@@std@@QBEPAPAU_Iterator_base12@2@XZ PROC ; std::_Vector_alloc<std::_Vec_base_types<std::vector<Neuron,std::allocator<Neuron> >,std::allocator<std::vector<Neuron,std::allocator<Neuron> > > > >::_Getpfirst, COMDAT
; _this$ = ecx

; 563  : 		{	// get address of iterator chain

	push	ebp
	mov	ebp, esp
	push	ecx
	mov	DWORD PTR [ebp-4], -858993460		; ccccccccH
	mov	DWORD PTR _this$[ebp], ecx

; 564  : 		return (_Get_data()._Getpfirst());

	mov	ecx, DWORD PTR _this$[ebp]
	call	?_Get_data@?$_Vector_alloc@U?$_Vec_base_types@V?$vector@VNeuron@@V?$allocator@VNeuron@@@std@@@std@@V?$allocator@V?$vector@VNeuron@@V?$allocator@VNeuron@@@std@@@std@@@2@@std@@@std@@QBEABV?$_Vector_val@U?$_Simple_types@V?$vector@VNeuron@@V?$allocator@VNeuron@@@std@@@std@@@std@@@2@XZ ; std::_Vector_alloc<std::_Vec_base_types<std::vector<Neuron,std::allocator<Neuron> >,std::allocator<std::vector<Neuron,std::allocator<Neuron> > > > >::_Get_data
	mov	ecx, eax
	call	?_Getpfirst@_Container_base12@std@@QBEPAPAU_Iterator_base12@2@XZ ; std::_Container_base12::_Getpfirst

; 565  : 		}

	add	esp, 4
	cmp	ebp, esp
	call	__RTC_CheckEsp
	mov	esp, ebp
	pop	ebp
	ret	0
?_Getpfirst@?$_Vector_alloc@U?$_Vec_base_types@V?$vector@VNeuron@@V?$allocator@VNeuron@@@std@@@std@@V?$allocator@V?$vector@VNeuron@@V?$allocator@VNeuron@@@std@@@std@@@2@@std@@@std@@QBEPAPAU_Iterator_base12@2@XZ ENDP ; std::_Vector_alloc<std::_Vec_base_types<std::vector<Neuron,std::allocator<Neuron> >,std::allocator<std::vector<Neuron,std::allocator<Neuron> > > > >::_Getpfirst
_TEXT	ENDS
; Function compile flags: /Odtp /RTCsu
; File c:\program files (x86)\microsoft visual studio\2017\community\vc\tools\msvc\14.11.25503\include\vector
;	COMDAT ?_Free_proxy@?$_Vector_alloc@U?$_Vec_base_types@V?$vector@VNeuron@@V?$allocator@VNeuron@@@std@@@std@@V?$allocator@V?$vector@VNeuron@@V?$allocator@VNeuron@@@std@@@std@@@2@@std@@@std@@QAEXXZ
_TEXT	SEGMENT
__Proxy_allocator$ = -9					; size = 1
_this$ = -4						; size = 4
?_Free_proxy@?$_Vector_alloc@U?$_Vec_base_types@V?$vector@VNeuron@@V?$allocator@VNeuron@@@std@@@std@@V?$allocator@V?$vector@VNeuron@@V?$allocator@VNeuron@@@std@@@std@@@2@@std@@@std@@QAEXXZ PROC ; std::_Vector_alloc<std::_Vec_base_types<std::vector<Neuron,std::allocator<Neuron> >,std::allocator<std::vector<Neuron,std::allocator<Neuron> > > > >::_Free_proxy, COMDAT
; _this$ = ecx

; 554  : 		{	// destroy proxy

	push	ebp
	mov	ebp, esp
	sub	esp, 16					; 00000010H
	mov	eax, -858993460				; ccccccccH
	mov	DWORD PTR [ebp-16], eax
	mov	DWORD PTR [ebp-12], eax
	mov	DWORD PTR [ebp-8], eax
	mov	DWORD PTR [ebp-4], eax
	mov	DWORD PTR _this$[ebp], ecx

; 555  : 		_Alproxy _Proxy_allocator(_Getal());

	mov	ecx, DWORD PTR _this$[ebp]
	call	?_Getal@?$_Vector_alloc@U?$_Vec_base_types@V?$vector@VNeuron@@V?$allocator@VNeuron@@@std@@@std@@V?$allocator@V?$vector@VNeuron@@V?$allocator@VNeuron@@@std@@@std@@@2@@std@@@std@@QAEAAV?$allocator@V?$vector@VNeuron@@V?$allocator@VNeuron@@@std@@@std@@@2@XZ ; std::_Vector_alloc<std::_Vec_base_types<std::vector<Neuron,std::allocator<Neuron> >,std::allocator<std::vector<Neuron,std::allocator<Neuron> > > > >::_Getal
	push	eax
	lea	ecx, DWORD PTR __Proxy_allocator$[ebp]
	call	??$?0V?$vector@VNeuron@@V?$allocator@VNeuron@@@std@@@std@@@?$allocator@U_Container_proxy@std@@@std@@QAE@ABV?$allocator@V?$vector@VNeuron@@V?$allocator@VNeuron@@@std@@@std@@@1@@Z ; std::allocator<std::_Container_proxy>::allocator<std::_Container_proxy><std::vector<Neuron,std::allocator<Neuron> > >

; 556  : 		_Orphan_all();

	mov	ecx, DWORD PTR _this$[ebp]
	call	?_Orphan_all@?$_Vector_alloc@U?$_Vec_base_types@V?$vector@VNeuron@@V?$allocator@VNeuron@@@std@@@std@@V?$allocator@V?$vector@VNeuron@@V?$allocator@VNeuron@@@std@@@std@@@2@@std@@@std@@QAEXXZ ; std::_Vector_alloc<std::_Vec_base_types<std::vector<Neuron,std::allocator<Neuron> >,std::allocator<std::vector<Neuron,std::allocator<Neuron> > > > >::_Orphan_all

; 557  : 		_Alproxy_traits::destroy(_Proxy_allocator, _Myproxy());

	mov	ecx, DWORD PTR _this$[ebp]
	call	?_Myproxy@?$_Vector_alloc@U?$_Vec_base_types@V?$vector@VNeuron@@V?$allocator@VNeuron@@@std@@@std@@V?$allocator@V?$vector@VNeuron@@V?$allocator@VNeuron@@@std@@@std@@@2@@std@@@std@@QAEAAPAU_Container_proxy@2@XZ ; std::_Vector_alloc<std::_Vec_base_types<std::vector<Neuron,std::allocator<Neuron> >,std::allocator<std::vector<Neuron,std::allocator<Neuron> > > > >::_Myproxy
	mov	eax, DWORD PTR [eax]
	push	eax
	lea	ecx, DWORD PTR __Proxy_allocator$[ebp]
	push	ecx
	call	??$destroy@U_Container_proxy@std@@@?$_Default_allocator_traits@V?$allocator@U_Container_proxy@std@@@std@@@std@@SAXAAV?$allocator@U_Container_proxy@std@@@1@QAU_Container_proxy@1@@Z ; std::_Default_allocator_traits<std::allocator<std::_Container_proxy> >::destroy<std::_Container_proxy>
	add	esp, 8

; 558  : 		_Deallocate_plain(_Proxy_allocator, _Myproxy());

	mov	ecx, DWORD PTR _this$[ebp]
	call	?_Myproxy@?$_Vector_alloc@U?$_Vec_base_types@V?$vector@VNeuron@@V?$allocator@VNeuron@@@std@@@std@@V?$allocator@V?$vector@VNeuron@@V?$allocator@VNeuron@@@std@@@std@@@2@@std@@@std@@QAEAAPAU_Container_proxy@2@XZ ; std::_Vector_alloc<std::_Vec_base_types<std::vector<Neuron,std::allocator<Neuron> >,std::allocator<std::vector<Neuron,std::allocator<Neuron> > > > >::_Myproxy
	mov	edx, DWORD PTR [eax]
	push	edx
	lea	eax, DWORD PTR __Proxy_allocator$[ebp]
	push	eax
	call	??$_Deallocate_plain@V?$allocator@U_Container_proxy@std@@@std@@$0A@@std@@YAXAAV?$allocator@U_Container_proxy@std@@@0@QAU_Container_proxy@0@@Z ; std::_Deallocate_plain<std::allocator<std::_Container_proxy>,0>
	add	esp, 8

; 559  : 		_Myproxy() = 0;

	mov	ecx, DWORD PTR _this$[ebp]
	call	?_Myproxy@?$_Vector_alloc@U?$_Vec_base_types@V?$vector@VNeuron@@V?$allocator@VNeuron@@@std@@@std@@V?$allocator@V?$vector@VNeuron@@V?$allocator@VNeuron@@@std@@@std@@@2@@std@@@std@@QAEAAPAU_Container_proxy@2@XZ ; std::_Vector_alloc<std::_Vec_base_types<std::vector<Neuron,std::allocator<Neuron> >,std::allocator<std::vector<Neuron,std::allocator<Neuron> > > > >::_Myproxy
	mov	DWORD PTR [eax], 0

; 560  : 		}

	push	edx
	mov	ecx, ebp
	push	eax
	lea	edx, DWORD PTR $LN5@Free_proxy
	call	@_RTC_CheckStackVars@8
	pop	eax
	pop	edx
	add	esp, 16					; 00000010H
	cmp	ebp, esp
	call	__RTC_CheckEsp
	mov	esp, ebp
	pop	ebp
	ret	0
	npad	2
$LN5@Free_proxy:
	DD	1
	DD	$LN4@Free_proxy
$LN4@Free_proxy:
	DD	-9					; fffffff7H
	DD	1
	DD	$LN3@Free_proxy
$LN3@Free_proxy:
	DB	95					; 0000005fH
	DB	80					; 00000050H
	DB	114					; 00000072H
	DB	111					; 0000006fH
	DB	120					; 00000078H
	DB	121					; 00000079H
	DB	95					; 0000005fH
	DB	97					; 00000061H
	DB	108					; 0000006cH
	DB	108					; 0000006cH
	DB	111					; 0000006fH
	DB	99					; 00000063H
	DB	97					; 00000061H
	DB	116					; 00000074H
	DB	111					; 0000006fH
	DB	114					; 00000072H
	DB	0
?_Free_proxy@?$_Vector_alloc@U?$_Vec_base_types@V?$vector@VNeuron@@V?$allocator@VNeuron@@@std@@@std@@V?$allocator@V?$vector@VNeuron@@V?$allocator@VNeuron@@@std@@@std@@@2@@std@@@std@@QAEXXZ ENDP ; std::_Vector_alloc<std::_Vec_base_types<std::vector<Neuron,std::allocator<Neuron> >,std::allocator<std::vector<Neuron,std::allocator<Neuron> > > > >::_Free_proxy
_TEXT	ENDS
; Function compile flags: /Odtp /RTCsu
; File c:\program files (x86)\microsoft visual studio\2017\community\vc\tools\msvc\14.11.25503\include\vector
;	COMDAT ?_Alloc_proxy@?$_Vector_alloc@U?$_Vec_base_types@V?$vector@VNeuron@@V?$allocator@VNeuron@@@std@@@std@@V?$allocator@V?$vector@VNeuron@@V?$allocator@VNeuron@@@std@@@std@@@2@@std@@@std@@QAEXXZ
_TEXT	SEGMENT
$T1 = -24						; size = 8
__Proxy_allocator$ = -9					; size = 1
_this$ = -4						; size = 4
?_Alloc_proxy@?$_Vector_alloc@U?$_Vec_base_types@V?$vector@VNeuron@@V?$allocator@VNeuron@@@std@@@std@@V?$allocator@V?$vector@VNeuron@@V?$allocator@VNeuron@@@std@@@std@@@2@@std@@@std@@QAEXXZ PROC ; std::_Vector_alloc<std::_Vec_base_types<std::vector<Neuron,std::allocator<Neuron> >,std::allocator<std::vector<Neuron,std::allocator<Neuron> > > > >::_Alloc_proxy, COMDAT
; _this$ = ecx

; 546  : 		{	// construct proxy

	push	ebp
	mov	ebp, esp
	sub	esp, 24					; 00000018H
	push	esi
	mov	eax, -858993460				; ccccccccH
	mov	DWORD PTR [ebp-24], eax
	mov	DWORD PTR [ebp-20], eax
	mov	DWORD PTR [ebp-16], eax
	mov	DWORD PTR [ebp-12], eax
	mov	DWORD PTR [ebp-8], eax
	mov	DWORD PTR [ebp-4], eax
	mov	DWORD PTR _this$[ebp], ecx

; 547  : 		_Alproxy _Proxy_allocator(_Getal());

	mov	ecx, DWORD PTR _this$[ebp]
	call	?_Getal@?$_Vector_alloc@U?$_Vec_base_types@V?$vector@VNeuron@@V?$allocator@VNeuron@@@std@@@std@@V?$allocator@V?$vector@VNeuron@@V?$allocator@VNeuron@@@std@@@std@@@2@@std@@@std@@QAEAAV?$allocator@V?$vector@VNeuron@@V?$allocator@VNeuron@@@std@@@std@@@2@XZ ; std::_Vector_alloc<std::_Vec_base_types<std::vector<Neuron,std::allocator<Neuron> >,std::allocator<std::vector<Neuron,std::allocator<Neuron> > > > >::_Getal
	push	eax
	lea	ecx, DWORD PTR __Proxy_allocator$[ebp]
	call	??$?0V?$vector@VNeuron@@V?$allocator@VNeuron@@@std@@@std@@@?$allocator@U_Container_proxy@std@@@std@@QAE@ABV?$allocator@V?$vector@VNeuron@@V?$allocator@VNeuron@@@std@@@std@@@1@@Z ; std::allocator<std::_Container_proxy>::allocator<std::_Container_proxy><std::vector<Neuron,std::allocator<Neuron> > >

; 548  : 		_Myproxy() = _Unfancy(_Proxy_allocator.allocate(1));

	push	1
	lea	ecx, DWORD PTR __Proxy_allocator$[ebp]
	call	?allocate@?$allocator@U_Container_proxy@std@@@std@@QAEPAU_Container_proxy@2@I@Z ; std::allocator<std::_Container_proxy>::allocate
	push	eax
	call	??$_Unfancy@U_Container_proxy@std@@@std@@YAPAU_Container_proxy@0@PAU10@@Z ; std::_Unfancy<std::_Container_proxy>
	add	esp, 4
	mov	esi, eax
	mov	ecx, DWORD PTR _this$[ebp]
	call	?_Myproxy@?$_Vector_alloc@U?$_Vec_base_types@V?$vector@VNeuron@@V?$allocator@VNeuron@@@std@@@std@@V?$allocator@V?$vector@VNeuron@@V?$allocator@VNeuron@@@std@@@std@@@2@@std@@@std@@QAEAAPAU_Container_proxy@2@XZ ; std::_Vector_alloc<std::_Vec_base_types<std::vector<Neuron,std::allocator<Neuron> >,std::allocator<std::vector<Neuron,std::allocator<Neuron> > > > >::_Myproxy
	mov	DWORD PTR [eax], esi

; 549  : 		_Alproxy_traits::construct(_Proxy_allocator, _Myproxy(), _Container_proxy());

	lea	ecx, DWORD PTR $T1[ebp]
	call	??0_Container_proxy@std@@QAE@XZ		; std::_Container_proxy::_Container_proxy
	push	eax
	mov	ecx, DWORD PTR _this$[ebp]
	call	?_Myproxy@?$_Vector_alloc@U?$_Vec_base_types@V?$vector@VNeuron@@V?$allocator@VNeuron@@@std@@@std@@V?$allocator@V?$vector@VNeuron@@V?$allocator@VNeuron@@@std@@@std@@@2@@std@@@std@@QAEAAPAU_Container_proxy@2@XZ ; std::_Vector_alloc<std::_Vec_base_types<std::vector<Neuron,std::allocator<Neuron> >,std::allocator<std::vector<Neuron,std::allocator<Neuron> > > > >::_Myproxy
	mov	eax, DWORD PTR [eax]
	push	eax
	lea	ecx, DWORD PTR __Proxy_allocator$[ebp]
	push	ecx
	call	??$construct@U_Container_proxy@std@@U12@@?$_Default_allocator_traits@V?$allocator@U_Container_proxy@std@@@std@@@std@@SAXAAV?$allocator@U_Container_proxy@std@@@1@QAU_Container_proxy@1@$$QAU31@@Z ; std::_Default_allocator_traits<std::allocator<std::_Container_proxy> >::construct<std::_Container_proxy,std::_Container_proxy>
	add	esp, 12					; 0000000cH

; 550  : 		_Myproxy()->_Mycont = _STD addressof(_Get_data());

	mov	ecx, DWORD PTR _this$[ebp]
	call	?_Get_data@?$_Vector_alloc@U?$_Vec_base_types@V?$vector@VNeuron@@V?$allocator@VNeuron@@@std@@@std@@V?$allocator@V?$vector@VNeuron@@V?$allocator@VNeuron@@@std@@@std@@@2@@std@@@std@@QAEAAV?$_Vector_val@U?$_Simple_types@V?$vector@VNeuron@@V?$allocator@VNeuron@@@std@@@std@@@std@@@2@XZ ; std::_Vector_alloc<std::_Vec_base_types<std::vector<Neuron,std::allocator<Neuron> >,std::allocator<std::vector<Neuron,std::allocator<Neuron> > > > >::_Get_data
	push	eax
	call	??$addressof@V?$_Vector_val@U?$_Simple_types@V?$vector@VNeuron@@V?$allocator@VNeuron@@@std@@@std@@@std@@@std@@@std@@YAPAV?$_Vector_val@U?$_Simple_types@V?$vector@VNeuron@@V?$allocator@VNeuron@@@std@@@std@@@std@@@0@AAV10@@Z ; std::addressof<std::_Vector_val<std::_Simple_types<std::vector<Neuron,std::allocator<Neuron> > > > >
	add	esp, 4
	mov	esi, eax
	mov	ecx, DWORD PTR _this$[ebp]
	call	?_Myproxy@?$_Vector_alloc@U?$_Vec_base_types@V?$vector@VNeuron@@V?$allocator@VNeuron@@@std@@@std@@V?$allocator@V?$vector@VNeuron@@V?$allocator@VNeuron@@@std@@@std@@@2@@std@@@std@@QAEAAPAU_Container_proxy@2@XZ ; std::_Vector_alloc<std::_Vec_base_types<std::vector<Neuron,std::allocator<Neuron> >,std::allocator<std::vector<Neuron,std::allocator<Neuron> > > > >::_Myproxy
	mov	edx, DWORD PTR [eax]
	mov	DWORD PTR [edx], esi

; 551  : 		}

	push	edx
	mov	ecx, ebp
	push	eax
	lea	edx, DWORD PTR $LN5@Alloc_prox
	call	@_RTC_CheckStackVars@8
	pop	eax
	pop	edx
	pop	esi
	add	esp, 24					; 00000018H
	cmp	ebp, esp
	call	__RTC_CheckEsp
	mov	esp, ebp
	pop	ebp
	ret	0
$LN5@Alloc_prox:
	DD	1
	DD	$LN4@Alloc_prox
$LN4@Alloc_prox:
	DD	-9					; fffffff7H
	DD	1
	DD	$LN3@Alloc_prox
$LN3@Alloc_prox:
	DB	95					; 0000005fH
	DB	80					; 00000050H
	DB	114					; 00000072H
	DB	111					; 0000006fH
	DB	120					; 00000078H
	DB	121					; 00000079H
	DB	95					; 0000005fH
	DB	97					; 00000061H
	DB	108					; 0000006cH
	DB	108					; 0000006cH
	DB	111					; 0000006fH
	DB	99					; 00000063H
	DB	97					; 00000061H
	DB	116					; 00000074H
	DB	111					; 0000006fH
	DB	114					; 00000072H
	DB	0
?_Alloc_proxy@?$_Vector_alloc@U?$_Vec_base_types@V?$vector@VNeuron@@V?$allocator@VNeuron@@@std@@@std@@V?$allocator@V?$vector@VNeuron@@V?$allocator@VNeuron@@@std@@@std@@@2@@std@@@std@@QAEXXZ ENDP ; std::_Vector_alloc<std::_Vec_base_types<std::vector<Neuron,std::allocator<Neuron> >,std::allocator<std::vector<Neuron,std::allocator<Neuron> > > > >::_Alloc_proxy
_TEXT	ENDS
; Function compile flags: /Odtp /RTCsu
; File c:\program files (x86)\microsoft visual studio\2017\community\vc\tools\msvc\14.11.25503\include\vector
;	COMDAT ??1?$_Vector_alloc@U?$_Vec_base_types@V?$vector@VNeuron@@V?$allocator@VNeuron@@@std@@@std@@V?$allocator@V?$vector@VNeuron@@V?$allocator@VNeuron@@@std@@@std@@@2@@std@@@std@@QAE@XZ
_TEXT	SEGMENT
_this$ = -16						; size = 4
__$EHRec$ = -12						; size = 12
??1?$_Vector_alloc@U?$_Vec_base_types@V?$vector@VNeuron@@V?$allocator@VNeuron@@@std@@@std@@V?$allocator@V?$vector@VNeuron@@V?$allocator@VNeuron@@@std@@@std@@@2@@std@@@std@@QAE@XZ PROC ; std::_Vector_alloc<std::_Vec_base_types<std::vector<Neuron,std::allocator<Neuron> >,std::allocator<std::vector<Neuron,std::allocator<Neuron> > > > >::~_Vector_alloc<std::_Vec_base_types<std::vector<Neuron,std::allocator<Neuron> >,std::allocator<std::vector<Neuron,std::allocator<Neuron> > > > >, COMDAT
; _this$ = ecx

; 505  : 		{	// destroy proxy

	push	ebp
	mov	ebp, esp
	push	-1
	push	__ehhandler$??1?$_Vector_alloc@U?$_Vec_base_types@V?$vector@VNeuron@@V?$allocator@VNeuron@@@std@@@std@@V?$allocator@V?$vector@VNeuron@@V?$allocator@VNeuron@@@std@@@std@@@2@@std@@@std@@QAE@XZ
	mov	eax, DWORD PTR fs:0
	push	eax
	push	ecx
	mov	DWORD PTR [ebp-16], -858993460		; ccccccccH
	mov	eax, DWORD PTR ___security_cookie
	xor	eax, ebp
	push	eax
	lea	eax, DWORD PTR __$EHRec$[ebp]
	mov	DWORD PTR fs:0, eax
	mov	DWORD PTR _this$[ebp], ecx

; 506  : 		_Free_proxy();

	mov	ecx, DWORD PTR _this$[ebp]
	call	?_Free_proxy@?$_Vector_alloc@U?$_Vec_base_types@V?$vector@VNeuron@@V?$allocator@VNeuron@@@std@@@std@@V?$allocator@V?$vector@VNeuron@@V?$allocator@VNeuron@@@std@@@std@@@2@@std@@@std@@QAEXXZ ; std::_Vector_alloc<std::_Vec_base_types<std::vector<Neuron,std::allocator<Neuron> >,std::allocator<std::vector<Neuron,std::allocator<Neuron> > > > >::_Free_proxy

; 507  : 		}

	mov	ecx, DWORD PTR _this$[ebp]
	call	??1?$_Compressed_pair@V?$allocator@V?$vector@VNeuron@@V?$allocator@VNeuron@@@std@@@std@@@std@@V?$_Vector_val@U?$_Simple_types@V?$vector@VNeuron@@V?$allocator@VNeuron@@@std@@@std@@@std@@@2@$00@std@@QAE@XZ
	mov	ecx, DWORD PTR __$EHRec$[ebp]
	mov	DWORD PTR fs:0, ecx
	pop	ecx
	add	esp, 16					; 00000010H
	cmp	ebp, esp
	call	__RTC_CheckEsp
	mov	esp, ebp
	pop	ebp
	ret	0
_TEXT	ENDS
;	COMDAT text$x
text$x	SEGMENT
__ehhandler$??1?$_Vector_alloc@U?$_Vec_base_types@V?$vector@VNeuron@@V?$allocator@VNeuron@@@std@@@std@@V?$allocator@V?$vector@VNeuron@@V?$allocator@VNeuron@@@std@@@std@@@2@@std@@@std@@QAE@XZ:
	mov	edx, DWORD PTR [esp+8]
	lea	eax, DWORD PTR [edx+12]
	mov	ecx, DWORD PTR [edx-8]
	xor	ecx, eax
	call	@__security_check_cookie@4
	mov	eax, OFFSET __ehfuncinfo$??1?$_Vector_alloc@U?$_Vec_base_types@V?$vector@VNeuron@@V?$allocator@VNeuron@@@std@@@std@@V?$allocator@V?$vector@VNeuron@@V?$allocator@VNeuron@@@std@@@std@@@2@@std@@@std@@QAE@XZ
	jmp	___CxxFrameHandler3
text$x	ENDS
??1?$_Vector_alloc@U?$_Vec_base_types@V?$vector@VNeuron@@V?$allocator@VNeuron@@@std@@@std@@V?$allocator@V?$vector@VNeuron@@V?$allocator@VNeuron@@@std@@@std@@@2@@std@@@std@@QAE@XZ ENDP ; std::_Vector_alloc<std::_Vec_base_types<std::vector<Neuron,std::allocator<Neuron> >,std::allocator<std::vector<Neuron,std::allocator<Neuron> > > > >::~_Vector_alloc<std::_Vec_base_types<std::vector<Neuron,std::allocator<Neuron> >,std::allocator<std::vector<Neuron,std::allocator<Neuron> > > > >
; Function compile flags: /Odtp /RTCsu
; File c:\program files (x86)\microsoft visual studio\2017\community\vc\tools\msvc\14.11.25503\include\vector
;	COMDAT ??0?$_Vector_alloc@U?$_Vec_base_types@V?$vector@VNeuron@@V?$allocator@VNeuron@@@std@@@std@@V?$allocator@V?$vector@VNeuron@@V?$allocator@VNeuron@@@std@@@std@@@2@@std@@@std@@QAE@XZ
_TEXT	SEGMENT
$T2 = -17						; size = 1
_this$ = -16						; size = 4
__$EHRec$ = -12						; size = 12
??0?$_Vector_alloc@U?$_Vec_base_types@V?$vector@VNeuron@@V?$allocator@VNeuron@@@std@@@std@@V?$allocator@V?$vector@VNeuron@@V?$allocator@VNeuron@@@std@@@std@@@2@@std@@@std@@QAE@XZ PROC ; std::_Vector_alloc<std::_Vec_base_types<std::vector<Neuron,std::allocator<Neuron> >,std::allocator<std::vector<Neuron,std::allocator<Neuron> > > > >::_Vector_alloc<std::_Vec_base_types<std::vector<Neuron,std::allocator<Neuron> >,std::allocator<std::vector<Neuron,std::allocator<Neuron> > > > >, COMDAT
; _this$ = ecx

; 491  : 		{	// default construct allocator

	push	ebp
	mov	ebp, esp
	push	-1
	push	__ehhandler$??0?$_Vector_alloc@U?$_Vec_base_types@V?$vector@VNeuron@@V?$allocator@VNeuron@@@std@@@std@@V?$allocator@V?$vector@VNeuron@@V?$allocator@VNeuron@@@std@@@std@@@2@@std@@@std@@QAE@XZ
	mov	eax, DWORD PTR fs:0
	push	eax
	sub	esp, 8
	mov	DWORD PTR [ebp-20], -858993460		; ccccccccH
	mov	DWORD PTR [ebp-16], -858993460		; ccccccccH
	mov	eax, DWORD PTR ___security_cookie
	xor	eax, ebp
	push	eax
	lea	eax, DWORD PTR __$EHRec$[ebp]
	mov	DWORD PTR fs:0, eax
	mov	DWORD PTR _this$[ebp], ecx

; 490  : 		: _Mypair(_Zero_then_variadic_args_t())

	movzx	eax, BYTE PTR $T2[ebp]
	push	eax
	mov	ecx, DWORD PTR _this$[ebp]
	call	??$?0$$V@?$_Compressed_pair@V?$allocator@V?$vector@VNeuron@@V?$allocator@VNeuron@@@std@@@std@@@std@@V?$_Vector_val@U?$_Simple_types@V?$vector@VNeuron@@V?$allocator@VNeuron@@@std@@@std@@@std@@@2@$00@std@@QAE@U_Zero_then_variadic_args_t@1@@Z ; std::_Compressed_pair<std::allocator<std::vector<Neuron,std::allocator<Neuron> > >,std::_Vector_val<std::_Simple_types<std::vector<Neuron,std::allocator<Neuron> > > >,1>::_Compressed_pair<std::allocator<std::vector<Neuron,std::allocator<Neuron> > >,std::_Vector_val<std::_Simple_types<std::vector<Neuron,std::allocator<Neuron> > > >,1><>
	mov	DWORD PTR __$EHRec$[ebp+8], 0

; 492  : 		_Alloc_proxy();

	mov	ecx, DWORD PTR _this$[ebp]
	call	?_Alloc_proxy@?$_Vector_alloc@U?$_Vec_base_types@V?$vector@VNeuron@@V?$allocator@VNeuron@@@std@@@std@@V?$allocator@V?$vector@VNeuron@@V?$allocator@VNeuron@@@std@@@std@@@2@@std@@@std@@QAEXXZ ; std::_Vector_alloc<std::_Vec_base_types<std::vector<Neuron,std::allocator<Neuron> >,std::allocator<std::vector<Neuron,std::allocator<Neuron> > > > >::_Alloc_proxy

; 493  : 		}

	mov	DWORD PTR __$EHRec$[ebp+8], -1
	mov	eax, DWORD PTR _this$[ebp]
	mov	ecx, DWORD PTR __$EHRec$[ebp]
	mov	DWORD PTR fs:0, ecx
	pop	ecx
	add	esp, 20					; 00000014H
	cmp	ebp, esp
	call	__RTC_CheckEsp
	mov	esp, ebp
	pop	ebp
	ret	0
_TEXT	ENDS
;	COMDAT text$x
text$x	SEGMENT
__unwindfunclet$??0?$_Vector_alloc@U?$_Vec_base_types@V?$vector@VNeuron@@V?$allocator@VNeuron@@@std@@@std@@V?$allocator@V?$vector@VNeuron@@V?$allocator@VNeuron@@@std@@@std@@@2@@std@@@std@@QAE@XZ$0:
	mov	ecx, DWORD PTR _this$[ebp]
	jmp	??1?$_Compressed_pair@V?$allocator@V?$vector@VNeuron@@V?$allocator@VNeuron@@@std@@@std@@@std@@V?$_Vector_val@U?$_Simple_types@V?$vector@VNeuron@@V?$allocator@VNeuron@@@std@@@std@@@std@@@2@$00@std@@QAE@XZ
__ehhandler$??0?$_Vector_alloc@U?$_Vec_base_types@V?$vector@VNeuron@@V?$allocator@VNeuron@@@std@@@std@@V?$allocator@V?$vector@VNeuron@@V?$allocator@VNeuron@@@std@@@std@@@2@@std@@@std@@QAE@XZ:
	mov	edx, DWORD PTR [esp+8]
	lea	eax, DWORD PTR [edx+12]
	mov	ecx, DWORD PTR [edx-12]
	xor	ecx, eax
	call	@__security_check_cookie@4
	mov	eax, OFFSET __ehfuncinfo$??0?$_Vector_alloc@U?$_Vec_base_types@V?$vector@VNeuron@@V?$allocator@VNeuron@@@std@@@std@@V?$allocator@V?$vector@VNeuron@@V?$allocator@VNeuron@@@std@@@std@@@2@@std@@@std@@QAE@XZ
	jmp	___CxxFrameHandler3
text$x	ENDS
??0?$_Vector_alloc@U?$_Vec_base_types@V?$vector@VNeuron@@V?$allocator@VNeuron@@@std@@@std@@V?$allocator@V?$vector@VNeuron@@V?$allocator@VNeuron@@@std@@@std@@@2@@std@@@std@@QAE@XZ ENDP ; std::_Vector_alloc<std::_Vec_base_types<std::vector<Neuron,std::allocator<Neuron> >,std::allocator<std::vector<Neuron,std::allocator<Neuron> > > > >::_Vector_alloc<std::_Vec_base_types<std::vector<Neuron,std::allocator<Neuron> >,std::allocator<std::vector<Neuron,std::allocator<Neuron> > > > >
; Function compile flags: /Odtp /RTCsu
; File c:\program files (x86)\microsoft visual studio\2017\community\vc\tools\msvc\14.11.25503\include\xmemory0
;	COMDAT ?max_size@?$_Default_allocator_traits@V?$allocator@V?$vector@VNeuron@@V?$allocator@VNeuron@@@std@@@std@@@std@@@std@@SAIABV?$allocator@V?$vector@VNeuron@@V?$allocator@VNeuron@@@std@@@std@@@2@@Z
_TEXT	SEGMENT
___formal$ = 8						; size = 4
?max_size@?$_Default_allocator_traits@V?$allocator@V?$vector@VNeuron@@V?$allocator@VNeuron@@@std@@@std@@@std@@@std@@SAIABV?$allocator@V?$vector@VNeuron@@V?$allocator@VNeuron@@@std@@@std@@@2@@Z PROC ; std::_Default_allocator_traits<std::allocator<std::vector<Neuron,std::allocator<Neuron> > > >::max_size, COMDAT

; 866  : 		{	// get maximum size

	push	ebp
	mov	ebp, esp

; 867  : 		return (static_cast<size_t>(-1) / sizeof(value_type));

	mov	eax, 268435455				; 0fffffffH

; 868  : 		}

	pop	ebp
	ret	0
?max_size@?$_Default_allocator_traits@V?$allocator@V?$vector@VNeuron@@V?$allocator@VNeuron@@@std@@@std@@@std@@@std@@SAIABV?$allocator@V?$vector@VNeuron@@V?$allocator@VNeuron@@@std@@@std@@@2@@Z ENDP ; std::_Default_allocator_traits<std::allocator<std::vector<Neuron,std::allocator<Neuron> > > >::max_size
_TEXT	ENDS
; Function compile flags: /Odtp /RTCsu
; File c:\program files (x86)\microsoft visual studio\2017\community\vc\tools\msvc\14.11.25503\include\xmemory0
;	COMDAT ?allocate@?$allocator@V?$vector@VNeuron@@V?$allocator@VNeuron@@@std@@@std@@@std@@QAEPAV?$vector@VNeuron@@V?$allocator@VNeuron@@@std@@@2@I@Z
_TEXT	SEGMENT
_this$ = -4						; size = 4
__Count$ = 8						; size = 4
?allocate@?$allocator@V?$vector@VNeuron@@V?$allocator@VNeuron@@@std@@@std@@@std@@QAEPAV?$vector@VNeuron@@V?$allocator@VNeuron@@@std@@@2@I@Z PROC ; std::allocator<std::vector<Neuron,std::allocator<Neuron> > >::allocate, COMDAT
; _this$ = ecx

; 945  : 		{	// allocate array of _Count elements

	push	ebp
	mov	ebp, esp
	push	ecx
	mov	DWORD PTR [ebp-4], -858993460		; ccccccccH
	mov	DWORD PTR _this$[ebp], ecx

; 946  : 		return (static_cast<pointer>(_Allocate(_Count, sizeof(_Ty))));

	push	1
	push	16					; 00000010H
	mov	eax, DWORD PTR __Count$[ebp]
	push	eax
	call	?_Allocate@std@@YAPAXII_N@Z		; std::_Allocate
	add	esp, 12					; 0000000cH

; 947  : 		}

	add	esp, 4
	cmp	ebp, esp
	call	__RTC_CheckEsp
	mov	esp, ebp
	pop	ebp
	ret	4
?allocate@?$allocator@V?$vector@VNeuron@@V?$allocator@VNeuron@@@std@@@std@@@std@@QAEPAV?$vector@VNeuron@@V?$allocator@VNeuron@@@std@@@2@I@Z ENDP ; std::allocator<std::vector<Neuron,std::allocator<Neuron> > >::allocate
_TEXT	ENDS
; Function compile flags: /Odtp /RTCsu
; File c:\program files (x86)\microsoft visual studio\2017\community\vc\tools\msvc\14.11.25503\include\xmemory0
;	COMDAT ?deallocate@?$allocator@V?$vector@VNeuron@@V?$allocator@VNeuron@@@std@@@std@@@std@@QAEXQAV?$vector@VNeuron@@V?$allocator@VNeuron@@@std@@@2@I@Z
_TEXT	SEGMENT
_this$ = -4						; size = 4
__Ptr$ = 8						; size = 4
__Count$ = 12						; size = 4
?deallocate@?$allocator@V?$vector@VNeuron@@V?$allocator@VNeuron@@@std@@@std@@@std@@QAEXQAV?$vector@VNeuron@@V?$allocator@VNeuron@@@std@@@2@I@Z PROC ; std::allocator<std::vector<Neuron,std::allocator<Neuron> > >::deallocate, COMDAT
; _this$ = ecx

; 940  : 		{	// deallocate object at _Ptr

	push	ebp
	mov	ebp, esp
	push	ecx
	mov	DWORD PTR [ebp-4], -858993460		; ccccccccH
	mov	DWORD PTR _this$[ebp], ecx

; 941  : 		_Deallocate(_Ptr, _Count, sizeof(_Ty));

	push	16					; 00000010H
	mov	eax, DWORD PTR __Count$[ebp]
	push	eax
	mov	ecx, DWORD PTR __Ptr$[ebp]
	push	ecx
	call	?_Deallocate@std@@YAXPAXII@Z		; std::_Deallocate
	add	esp, 12					; 0000000cH

; 942  : 		}

	add	esp, 4
	cmp	ebp, esp
	call	__RTC_CheckEsp
	mov	esp, ebp
	pop	ebp
	ret	8
?deallocate@?$allocator@V?$vector@VNeuron@@V?$allocator@VNeuron@@@std@@@std@@@std@@QAEXQAV?$vector@VNeuron@@V?$allocator@VNeuron@@@std@@@2@I@Z ENDP ; std::allocator<std::vector<Neuron,std::allocator<Neuron> > >::deallocate
_TEXT	ENDS
; Function compile flags: /Odtp /RTCsu
; File c:\program files (x86)\microsoft visual studio\2017\community\vc\tools\msvc\14.11.25503\include\xmemory0
;	COMDAT ??0?$allocator@V?$vector@VNeuron@@V?$allocator@VNeuron@@@std@@@std@@@std@@QAE@XZ
_TEXT	SEGMENT
_this$ = -4						; size = 4
??0?$allocator@V?$vector@VNeuron@@V?$allocator@VNeuron@@@std@@@std@@@std@@QAE@XZ PROC ; std::allocator<std::vector<Neuron,std::allocator<Neuron> > >::allocator<std::vector<Neuron,std::allocator<Neuron> > >, COMDAT
; _this$ = ecx

; 929  : 	allocator() _NOEXCEPT

	push	ebp
	mov	ebp, esp
	push	ecx
	mov	DWORD PTR [ebp-4], -858993460		; ccccccccH
	mov	DWORD PTR _this$[ebp], ecx

; 930  : 		{	// construct default allocator (do nothing)
; 931  : 		}

	mov	eax, DWORD PTR _this$[ebp]
	mov	esp, ebp
	pop	ebp
	ret	0
??0?$allocator@V?$vector@VNeuron@@V?$allocator@VNeuron@@@std@@@std@@@std@@QAE@XZ ENDP ; std::allocator<std::vector<Neuron,std::allocator<Neuron> > >::allocator<std::vector<Neuron,std::allocator<Neuron> > >
_TEXT	ENDS
; Function compile flags: /Odtp /RTCsu
; File c:\users\florian\desktop\iafinal\projetiafinal\projet\net.cpp
_TEXT	SEGMENT
_this$ = -4						; size = 4
??1Net@@QAE@XZ PROC					; Net::~Net
; _this$ = ecx

; 116  : {

	push	ebp
	mov	ebp, esp
	push	ecx
	mov	DWORD PTR [ebp-4], -858993460		; ccccccccH
	mov	DWORD PTR _this$[ebp], ecx

; 117  : }

	mov	ecx, DWORD PTR _this$[ebp]
	call	??1?$vector@V?$vector@VNeuron@@V?$allocator@VNeuron@@@std@@@std@@V?$allocator@V?$vector@VNeuron@@V?$allocator@VNeuron@@@std@@@std@@@2@@std@@QAE@XZ ; std::vector<std::vector<Neuron,std::allocator<Neuron> >,std::allocator<std::vector<Neuron,std::allocator<Neuron> > > >::~vector<std::vector<Neuron,std::allocator<Neuron> >,std::allocator<std::vector<Neuron,std::allocator<Neuron> > > >
	add	esp, 4
	cmp	ebp, esp
	call	__RTC_CheckEsp
	mov	esp, ebp
	pop	ebp
	ret	0
??1Net@@QAE@XZ ENDP					; Net::~Net
_TEXT	ENDS
; Function compile flags: /Odtp /RTCsu
; File c:\users\florian\desktop\iafinal\projetiafinal\projet\net.cpp
_TEXT	SEGMENT
$T1 = -16						; size = 8
_n$2 = -8						; size = 4
_this$ = -4						; size = 4
_resultVals$ = 8					; size = 4
?GetResult@Net@@QBEXAAV?$vector@NV?$allocator@N@std@@@std@@@Z PROC ; Net::GetResult
; _this$ = ecx

; 107  : {

	push	ebp
	mov	ebp, esp
	sub	esp, 16					; 00000010H
	mov	eax, -858993460				; ccccccccH
	mov	DWORD PTR [ebp-16], eax
	mov	DWORD PTR [ebp-12], eax
	mov	DWORD PTR [ebp-8], eax
	mov	DWORD PTR [ebp-4], eax
	mov	DWORD PTR _this$[ebp], ecx

; 108  : 	resultVals.clear();

	mov	ecx, DWORD PTR _resultVals$[ebp]
	call	?clear@?$vector@NV?$allocator@N@std@@@std@@QAEXXZ ; std::vector<double,std::allocator<double> >::clear

; 109  : 	for (unsigned n = 0; n < m_Layers.back().size() - 1; ++n) 

	mov	DWORD PTR _n$2[ebp], 0
	jmp	SHORT $LN4@GetResult
$LN2@GetResult:
	mov	eax, DWORD PTR _n$2[ebp]
	add	eax, 1
	mov	DWORD PTR _n$2[ebp], eax
$LN4@GetResult:
	mov	ecx, DWORD PTR _this$[ebp]
	call	?back@?$vector@V?$vector@VNeuron@@V?$allocator@VNeuron@@@std@@@std@@V?$allocator@V?$vector@VNeuron@@V?$allocator@VNeuron@@@std@@@std@@@2@@std@@QBEABV?$vector@VNeuron@@V?$allocator@VNeuron@@@std@@@2@XZ ; std::vector<std::vector<Neuron,std::allocator<Neuron> >,std::allocator<std::vector<Neuron,std::allocator<Neuron> > > >::back
	mov	ecx, eax
	call	?size@?$vector@VNeuron@@V?$allocator@VNeuron@@@std@@@std@@QBEIXZ ; std::vector<Neuron,std::allocator<Neuron> >::size
	sub	eax, 1
	cmp	DWORD PTR _n$2[ebp], eax
	jae	SHORT $LN3@GetResult

; 110  : 	{
; 111  : 		resultVals.push_back(m_Layers.back()[n].GetOutputVal());

	mov	ecx, DWORD PTR _n$2[ebp]
	push	ecx
	mov	ecx, DWORD PTR _this$[ebp]
	call	?back@?$vector@V?$vector@VNeuron@@V?$allocator@VNeuron@@@std@@@std@@V?$allocator@V?$vector@VNeuron@@V?$allocator@VNeuron@@@std@@@std@@@2@@std@@QBEABV?$vector@VNeuron@@V?$allocator@VNeuron@@@std@@@2@XZ ; std::vector<std::vector<Neuron,std::allocator<Neuron> >,std::allocator<std::vector<Neuron,std::allocator<Neuron> > > >::back
	mov	ecx, eax
	call	??A?$vector@VNeuron@@V?$allocator@VNeuron@@@std@@@std@@QBEABVNeuron@@I@Z ; std::vector<Neuron,std::allocator<Neuron> >::operator[]
	mov	ecx, eax
	call	?GetOutputVal@Neuron@@QBENXZ		; Neuron::GetOutputVal
	fstp	QWORD PTR $T1[ebp]
	lea	edx, DWORD PTR $T1[ebp]
	push	edx
	mov	ecx, DWORD PTR _resultVals$[ebp]
	call	?push_back@?$vector@NV?$allocator@N@std@@@std@@QAEX$$QAN@Z ; std::vector<double,std::allocator<double> >::push_back

; 112  : 	}

	jmp	SHORT $LN2@GetResult
$LN3@GetResult:

; 113  : }

	add	esp, 16					; 00000010H
	cmp	ebp, esp
	call	__RTC_CheckEsp
	mov	esp, ebp
	pop	ebp
	ret	4
?GetResult@Net@@QBEXAAV?$vector@NV?$allocator@N@std@@@std@@@Z ENDP ; Net::GetResult
_TEXT	ENDS
; Function compile flags: /Odtp /RTCsu
; File c:\users\florian\desktop\iafinal\projetiafinal\projet\net.cpp
_TEXT	SEGMENT
tv220 = -68						; size = 4
tv212 = -64						; size = 8
_n$1 = -56						; size = 4
_prevLayer$2 = -52					; size = 4
_layer$3 = -48						; size = 4
_layerNum$4 = -44					; size = 4
_n$5 = -40						; size = 4
_nextLayer$6 = -36					; size = 4
_hiddenLayer$7 = -32					; size = 4
_layerNum$8 = -28					; size = 4
_n$9 = -24						; size = 4
_delta$10 = -20						; size = 8
_n$11 = -12						; size = 4
_outputLayer$ = -8					; size = 4
_this$ = -4						; size = 4
_targetVals$ = 8					; size = 4
?BackProp@Net@@QAEXABV?$vector@NV?$allocator@N@std@@@std@@@Z PROC ; Net::BackProp
; _this$ = ecx

; 52   : {

	push	ebp
	mov	ebp, esp
	sub	esp, 68					; 00000044H
	push	esi
	push	edi
	push	ecx
	lea	edi, DWORD PTR [ebp-68]
	mov	ecx, 17					; 00000011H
	mov	eax, -858993460				; ccccccccH
	rep stosd
	pop	ecx
	mov	DWORD PTR _this$[ebp], ecx

; 53   : 	// Calculate overall net error (RMS (root mean square) of output neuron error)
; 54   : 	//rms = sqrt((1/n(sum(i->1->n)(target(i)-actual(i)))
; 55   : 	Layer &outputLayer = m_Layers.back();

	mov	ecx, DWORD PTR _this$[ebp]
	call	?back@?$vector@V?$vector@VNeuron@@V?$allocator@VNeuron@@@std@@@std@@V?$allocator@V?$vector@VNeuron@@V?$allocator@VNeuron@@@std@@@std@@@2@@std@@QAEAAV?$vector@VNeuron@@V?$allocator@VNeuron@@@std@@@2@XZ ; std::vector<std::vector<Neuron,std::allocator<Neuron> >,std::allocator<std::vector<Neuron,std::allocator<Neuron> > > >::back
	mov	DWORD PTR _outputLayer$[ebp], eax

; 56   : 	m_error = 0.0;

	mov	eax, DWORD PTR _this$[ebp]
	xorps	xmm0, xmm0
	movsd	QWORD PTR [eax+16], xmm0

; 57   : 
; 58   : 	for (unsigned n = 0; n < outputLayer.size() - 1; ++n)

	mov	DWORD PTR _n$11[ebp], 0
	jmp	SHORT $LN4@BackProp
$LN2@BackProp:
	mov	ecx, DWORD PTR _n$11[ebp]
	add	ecx, 1
	mov	DWORD PTR _n$11[ebp], ecx
$LN4@BackProp:
	mov	ecx, DWORD PTR _outputLayer$[ebp]
	call	?size@?$vector@VNeuron@@V?$allocator@VNeuron@@@std@@@std@@QBEIXZ ; std::vector<Neuron,std::allocator<Neuron> >::size
	sub	eax, 1
	cmp	DWORD PTR _n$11[ebp], eax
	jae	SHORT $LN3@BackProp

; 59   : 	{
; 60   : 		double delta = targetVals[n] - outputLayer[n].GetOutputVal();

	mov	edx, DWORD PTR _n$11[ebp]
	push	edx
	mov	ecx, DWORD PTR _targetVals$[ebp]
	call	??A?$vector@NV?$allocator@N@std@@@std@@QBEABNI@Z ; std::vector<double,std::allocator<double> >::operator[]
	mov	esi, eax
	mov	eax, DWORD PTR _n$11[ebp]
	push	eax
	mov	ecx, DWORD PTR _outputLayer$[ebp]
	call	??A?$vector@VNeuron@@V?$allocator@VNeuron@@@std@@@std@@QAEAAVNeuron@@I@Z ; std::vector<Neuron,std::allocator<Neuron> >::operator[]
	mov	ecx, eax
	call	?GetOutputVal@Neuron@@QBENXZ		; Neuron::GetOutputVal
	fstp	QWORD PTR tv212[ebp]
	movsd	xmm0, QWORD PTR [esi]
	subsd	xmm0, QWORD PTR tv212[ebp]
	movsd	QWORD PTR _delta$10[ebp], xmm0

; 61   : 		m_error += delta * delta;

	movsd	xmm0, QWORD PTR _delta$10[ebp]
	mulsd	xmm0, QWORD PTR _delta$10[ebp]
	mov	ecx, DWORD PTR _this$[ebp]
	addsd	xmm0, QWORD PTR [ecx+16]
	mov	edx, DWORD PTR _this$[ebp]
	movsd	QWORD PTR [edx+16], xmm0

; 62   : 	}

	jmp	SHORT $LN2@BackProp
$LN3@BackProp:

; 63   : 	m_error /= outputLayer.size() - 1; // get the average error squared

	mov	ecx, DWORD PTR _outputLayer$[ebp]
	call	?size@?$vector@VNeuron@@V?$allocator@VNeuron@@@std@@@std@@QBEIXZ ; std::vector<Neuron,std::allocator<Neuron> >::size
	sub	eax, 1
	mov	DWORD PTR tv220[ebp], eax
	cvtsi2sd xmm0, DWORD PTR tv220[ebp]
	mov	eax, DWORD PTR tv220[ebp]
	shr	eax, 31					; 0000001fH
	addsd	xmm0, QWORD PTR __xmm@41f00000000000000000000000000000[eax*8]
	mov	ecx, DWORD PTR _this$[ebp]
	movsd	xmm1, QWORD PTR [ecx+16]
	divsd	xmm1, xmm0
	mov	edx, DWORD PTR _this$[ebp]
	movsd	QWORD PTR [edx+16], xmm1

; 64   : 	m_error = sqrt(m_error); // RMS

	mov	eax, DWORD PTR _this$[ebp]
	sub	esp, 8
	movsd	xmm0, QWORD PTR [eax+16]
	movsd	QWORD PTR [esp], xmm0
	call	_sqrt
	add	esp, 8
	mov	ecx, DWORD PTR _this$[ebp]
	fstp	QWORD PTR [ecx+16]

; 65   : 
; 66   : 	// Implement a recent average measurement of the precedent error
; 67   : 	m_recentAverageError = (m_recentAverageError * m_recentAverageSmoothingFactor + m_error)

	mov	edx, DWORD PTR _this$[ebp]
	mov	eax, DWORD PTR _this$[ebp]
	movsd	xmm0, QWORD PTR [edx+24]
	mulsd	xmm0, QWORD PTR [eax+32]
	mov	ecx, DWORD PTR _this$[ebp]
	addsd	xmm0, QWORD PTR [ecx+16]
	mov	edx, DWORD PTR _this$[ebp]
	movsd	xmm1, QWORD PTR [edx+32]
	addsd	xmm1, QWORD PTR __real@3ff0000000000000
	divsd	xmm0, xmm1
	mov	eax, DWORD PTR _this$[ebp]
	movsd	QWORD PTR [eax+24], xmm0

; 68   : 		/ (m_recentAverageSmoothingFactor + 1.0);
; 69   : 
; 70   : 
; 71   : 	// Calculate output layer gradients
; 72   : 
; 73   : 	for (unsigned n = 0; n < outputLayer.size() - 1; ++n)

	mov	DWORD PTR _n$9[ebp], 0
	jmp	SHORT $LN7@BackProp
$LN5@BackProp:
	mov	ecx, DWORD PTR _n$9[ebp]
	add	ecx, 1
	mov	DWORD PTR _n$9[ebp], ecx
$LN7@BackProp:
	mov	ecx, DWORD PTR _outputLayer$[ebp]
	call	?size@?$vector@VNeuron@@V?$allocator@VNeuron@@@std@@@std@@QBEIXZ ; std::vector<Neuron,std::allocator<Neuron> >::size
	sub	eax, 1
	cmp	DWORD PTR _n$9[ebp], eax
	jae	SHORT $LN6@BackProp

; 74   : 	{
; 75   : 		outputLayer[n].CalcOutputGradients(targetVals[n]);

	mov	edx, DWORD PTR _n$9[ebp]
	push	edx
	mov	ecx, DWORD PTR _targetVals$[ebp]
	call	??A?$vector@NV?$allocator@N@std@@@std@@QBEABNI@Z ; std::vector<double,std::allocator<double> >::operator[]
	sub	esp, 8
	movsd	xmm0, QWORD PTR [eax]
	movsd	QWORD PTR [esp], xmm0
	mov	eax, DWORD PTR _n$9[ebp]
	push	eax
	mov	ecx, DWORD PTR _outputLayer$[ebp]
	call	??A?$vector@VNeuron@@V?$allocator@VNeuron@@@std@@@std@@QAEAAVNeuron@@I@Z ; std::vector<Neuron,std::allocator<Neuron> >::operator[]
	mov	ecx, eax
	call	?CalcOutputGradients@Neuron@@QAEXN@Z	; Neuron::CalcOutputGradients

; 76   : 	}

	jmp	SHORT $LN5@BackProp
$LN6@BackProp:

; 77   : 
; 78   : 	// Calculate gradient on hidden layers
; 79   : 
; 80   : 	for (unsigned layerNum = m_Layers.size() -2; layerNum > 0; --layerNum)

	mov	ecx, DWORD PTR _this$[ebp]
	call	?size@?$vector@V?$vector@VNeuron@@V?$allocator@VNeuron@@@std@@@std@@V?$allocator@V?$vector@VNeuron@@V?$allocator@VNeuron@@@std@@@std@@@2@@std@@QBEIXZ ; std::vector<std::vector<Neuron,std::allocator<Neuron> >,std::allocator<std::vector<Neuron,std::allocator<Neuron> > > >::size
	sub	eax, 2
	mov	DWORD PTR _layerNum$8[ebp], eax
	jmp	SHORT $LN10@BackProp
$LN8@BackProp:
	mov	ecx, DWORD PTR _layerNum$8[ebp]
	sub	ecx, 1
	mov	DWORD PTR _layerNum$8[ebp], ecx
$LN10@BackProp:
	cmp	DWORD PTR _layerNum$8[ebp], 0
	jbe	SHORT $LN9@BackProp

; 81   : 	{
; 82   : 		Layer &hiddenLayer = m_Layers[layerNum];

	mov	edx, DWORD PTR _layerNum$8[ebp]
	push	edx
	mov	ecx, DWORD PTR _this$[ebp]
	call	??A?$vector@V?$vector@VNeuron@@V?$allocator@VNeuron@@@std@@@std@@V?$allocator@V?$vector@VNeuron@@V?$allocator@VNeuron@@@std@@@std@@@2@@std@@QAEAAV?$vector@VNeuron@@V?$allocator@VNeuron@@@std@@@1@I@Z ; std::vector<std::vector<Neuron,std::allocator<Neuron> >,std::allocator<std::vector<Neuron,std::allocator<Neuron> > > >::operator[]
	mov	DWORD PTR _hiddenLayer$7[ebp], eax

; 83   : 		Layer &nextLayer = m_Layers[layerNum + 1];

	mov	eax, DWORD PTR _layerNum$8[ebp]
	add	eax, 1
	push	eax
	mov	ecx, DWORD PTR _this$[ebp]
	call	??A?$vector@V?$vector@VNeuron@@V?$allocator@VNeuron@@@std@@@std@@V?$allocator@V?$vector@VNeuron@@V?$allocator@VNeuron@@@std@@@std@@@2@@std@@QAEAAV?$vector@VNeuron@@V?$allocator@VNeuron@@@std@@@1@I@Z ; std::vector<std::vector<Neuron,std::allocator<Neuron> >,std::allocator<std::vector<Neuron,std::allocator<Neuron> > > >::operator[]
	mov	DWORD PTR _nextLayer$6[ebp], eax

; 84   : 
; 85   : 		for(unsigned n = 0; n < hiddenLayer.size(); ++n)

	mov	DWORD PTR _n$5[ebp], 0
	jmp	SHORT $LN13@BackProp
$LN11@BackProp:
	mov	ecx, DWORD PTR _n$5[ebp]
	add	ecx, 1
	mov	DWORD PTR _n$5[ebp], ecx
$LN13@BackProp:
	mov	ecx, DWORD PTR _hiddenLayer$7[ebp]
	call	?size@?$vector@VNeuron@@V?$allocator@VNeuron@@@std@@@std@@QBEIXZ ; std::vector<Neuron,std::allocator<Neuron> >::size
	cmp	DWORD PTR _n$5[ebp], eax
	jae	SHORT $LN12@BackProp

; 86   : 		{
; 87   : 			hiddenLayer[n].CalcHiddenGradients(nextLayer);

	mov	edx, DWORD PTR _nextLayer$6[ebp]
	push	edx
	mov	eax, DWORD PTR _n$5[ebp]
	push	eax
	mov	ecx, DWORD PTR _hiddenLayer$7[ebp]
	call	??A?$vector@VNeuron@@V?$allocator@VNeuron@@@std@@@std@@QAEAAVNeuron@@I@Z ; std::vector<Neuron,std::allocator<Neuron> >::operator[]
	mov	ecx, eax
	call	?CalcHiddenGradients@Neuron@@QAEXABV?$vector@VNeuron@@V?$allocator@VNeuron@@@std@@@std@@@Z ; Neuron::CalcHiddenGradients

; 88   : 		}

	jmp	SHORT $LN11@BackProp
$LN12@BackProp:

; 89   : 	}

	jmp	SHORT $LN8@BackProp
$LN9@BackProp:

; 90   : 
; 91   : 	// For all layers from ouputs to first hidden layer
; 92   : 	// Update the connection weights
; 93   : 
; 94   : 	for (unsigned layerNum = m_Layers.size() - 1; layerNum > 0; --layerNum)

	mov	ecx, DWORD PTR _this$[ebp]
	call	?size@?$vector@V?$vector@VNeuron@@V?$allocator@VNeuron@@@std@@@std@@V?$allocator@V?$vector@VNeuron@@V?$allocator@VNeuron@@@std@@@std@@@2@@std@@QBEIXZ ; std::vector<std::vector<Neuron,std::allocator<Neuron> >,std::allocator<std::vector<Neuron,std::allocator<Neuron> > > >::size
	sub	eax, 1
	mov	DWORD PTR _layerNum$4[ebp], eax
	jmp	SHORT $LN16@BackProp
$LN14@BackProp:
	mov	ecx, DWORD PTR _layerNum$4[ebp]
	sub	ecx, 1
	mov	DWORD PTR _layerNum$4[ebp], ecx
$LN16@BackProp:
	cmp	DWORD PTR _layerNum$4[ebp], 0
	jbe	SHORT $LN15@BackProp

; 95   : 	{
; 96   : 		Layer &layer = m_Layers[layerNum];

	mov	edx, DWORD PTR _layerNum$4[ebp]
	push	edx
	mov	ecx, DWORD PTR _this$[ebp]
	call	??A?$vector@V?$vector@VNeuron@@V?$allocator@VNeuron@@@std@@@std@@V?$allocator@V?$vector@VNeuron@@V?$allocator@VNeuron@@@std@@@std@@@2@@std@@QAEAAV?$vector@VNeuron@@V?$allocator@VNeuron@@@std@@@1@I@Z ; std::vector<std::vector<Neuron,std::allocator<Neuron> >,std::allocator<std::vector<Neuron,std::allocator<Neuron> > > >::operator[]
	mov	DWORD PTR _layer$3[ebp], eax

; 97   : 		Layer &prevLayer = m_Layers[layerNum - 1];

	mov	eax, DWORD PTR _layerNum$4[ebp]
	sub	eax, 1
	push	eax
	mov	ecx, DWORD PTR _this$[ebp]
	call	??A?$vector@V?$vector@VNeuron@@V?$allocator@VNeuron@@@std@@@std@@V?$allocator@V?$vector@VNeuron@@V?$allocator@VNeuron@@@std@@@std@@@2@@std@@QAEAAV?$vector@VNeuron@@V?$allocator@VNeuron@@@std@@@1@I@Z ; std::vector<std::vector<Neuron,std::allocator<Neuron> >,std::allocator<std::vector<Neuron,std::allocator<Neuron> > > >::operator[]
	mov	DWORD PTR _prevLayer$2[ebp], eax

; 98   : 
; 99   : 		for (unsigned n = 0; n < layer.size() - 1; ++n)

	mov	DWORD PTR _n$1[ebp], 0
	jmp	SHORT $LN19@BackProp
$LN17@BackProp:
	mov	ecx, DWORD PTR _n$1[ebp]
	add	ecx, 1
	mov	DWORD PTR _n$1[ebp], ecx
$LN19@BackProp:
	mov	ecx, DWORD PTR _layer$3[ebp]
	call	?size@?$vector@VNeuron@@V?$allocator@VNeuron@@@std@@@std@@QBEIXZ ; std::vector<Neuron,std::allocator<Neuron> >::size
	sub	eax, 1
	cmp	DWORD PTR _n$1[ebp], eax
	jae	SHORT $LN18@BackProp

; 100  : 		{
; 101  : 			layer[n].UpdateInputWeights(prevLayer);

	mov	edx, DWORD PTR _prevLayer$2[ebp]
	push	edx
	mov	eax, DWORD PTR _n$1[ebp]
	push	eax
	mov	ecx, DWORD PTR _layer$3[ebp]
	call	??A?$vector@VNeuron@@V?$allocator@VNeuron@@@std@@@std@@QAEAAVNeuron@@I@Z ; std::vector<Neuron,std::allocator<Neuron> >::operator[]
	mov	ecx, eax
	call	?UpdateInputWeights@Neuron@@QAEXAAV?$vector@VNeuron@@V?$allocator@VNeuron@@@std@@@std@@@Z ; Neuron::UpdateInputWeights

; 102  : 		}

	jmp	SHORT $LN17@BackProp
$LN18@BackProp:

; 103  : 	}

	jmp	SHORT $LN14@BackProp
$LN15@BackProp:

; 104  : }

	pop	edi
	pop	esi
	add	esp, 68					; 00000044H
	cmp	ebp, esp
	call	__RTC_CheckEsp
	mov	esp, ebp
	pop	ebp
	ret	4
?BackProp@Net@@QAEXABV?$vector@NV?$allocator@N@std@@@std@@@Z ENDP ; Net::BackProp
_TEXT	ENDS
; Function compile flags: /Odtp /RTCsu
; File c:\users\florian\desktop\iafinal\projetiafinal\projet\net.cpp
_TEXT	SEGMENT
_n$1 = -20						; size = 4
_prevLayer$2 = -16					; size = 4
_layerNum$3 = -12					; size = 4
_i$4 = -8						; size = 4
_this$ = -4						; size = 4
_inputVals$ = 8						; size = 4
?FeedForward@Net@@QAEXABV?$vector@NV?$allocator@N@std@@@std@@@Z PROC ; Net::FeedForward
; _this$ = ecx

; 27   : {

	push	ebp
	mov	ebp, esp
	sub	esp, 20					; 00000014H
	push	esi
	mov	eax, -858993460				; ccccccccH
	mov	DWORD PTR [ebp-20], eax
	mov	DWORD PTR [ebp-16], eax
	mov	DWORD PTR [ebp-12], eax
	mov	DWORD PTR [ebp-8], eax
	mov	DWORD PTR [ebp-4], eax
	mov	DWORD PTR _this$[ebp], ecx

; 28   : 	//check if the number of input values fit the number of input neurons
; 29   : 	//(counting the bias neuron)(m_Layers.size()-1)
; 30   : 
; 31   : 	assert(inputVals.size() == m_Layers[0].size() - 1);

	mov	ecx, DWORD PTR _inputVals$[ebp]
	call	?size@?$vector@NV?$allocator@N@std@@@std@@QBEIXZ ; std::vector<double,std::allocator<double> >::size
	mov	esi, eax
	push	0
	mov	ecx, DWORD PTR _this$[ebp]
	call	??A?$vector@V?$vector@VNeuron@@V?$allocator@VNeuron@@@std@@@std@@V?$allocator@V?$vector@VNeuron@@V?$allocator@VNeuron@@@std@@@std@@@2@@std@@QAEAAV?$vector@VNeuron@@V?$allocator@VNeuron@@@std@@@1@I@Z ; std::vector<std::vector<Neuron,std::allocator<Neuron> >,std::allocator<std::vector<Neuron,std::allocator<Neuron> > > >::operator[]
	mov	ecx, eax
	call	?size@?$vector@VNeuron@@V?$allocator@VNeuron@@@std@@@std@@QBEIXZ ; std::vector<Neuron,std::allocator<Neuron> >::size
	sub	eax, 1
	cmp	esi, eax
	je	SHORT $LN12@FeedForwar
	push	31					; 0000001fH
	push	OFFSET $SG30960
	push	OFFSET $SG30961
	call	__wassert
	add	esp, 12					; 0000000cH
$LN12@FeedForwar:

; 32   : 
; 33   : 	for (unsigned i = 0; i < inputVals.size(); ++i)

	mov	DWORD PTR _i$4[ebp], 0
	jmp	SHORT $LN4@FeedForwar
$LN2@FeedForwar:
	mov	ecx, DWORD PTR _i$4[ebp]
	add	ecx, 1
	mov	DWORD PTR _i$4[ebp], ecx
$LN4@FeedForwar:
	mov	ecx, DWORD PTR _inputVals$[ebp]
	call	?size@?$vector@NV?$allocator@N@std@@@std@@QBEIXZ ; std::vector<double,std::allocator<double> >::size
	cmp	DWORD PTR _i$4[ebp], eax
	jae	SHORT $LN3@FeedForwar

; 34   : 	{
; 35   : 		m_Layers[0][i].SetOutputVal(inputVals[i]);

	mov	edx, DWORD PTR _i$4[ebp]
	push	edx
	mov	ecx, DWORD PTR _inputVals$[ebp]
	call	??A?$vector@NV?$allocator@N@std@@@std@@QBEABNI@Z ; std::vector<double,std::allocator<double> >::operator[]
	sub	esp, 8
	movsd	xmm0, QWORD PTR [eax]
	movsd	QWORD PTR [esp], xmm0
	mov	eax, DWORD PTR _i$4[ebp]
	push	eax
	push	0
	mov	ecx, DWORD PTR _this$[ebp]
	call	??A?$vector@V?$vector@VNeuron@@V?$allocator@VNeuron@@@std@@@std@@V?$allocator@V?$vector@VNeuron@@V?$allocator@VNeuron@@@std@@@std@@@2@@std@@QAEAAV?$vector@VNeuron@@V?$allocator@VNeuron@@@std@@@1@I@Z ; std::vector<std::vector<Neuron,std::allocator<Neuron> >,std::allocator<std::vector<Neuron,std::allocator<Neuron> > > >::operator[]
	mov	ecx, eax
	call	??A?$vector@VNeuron@@V?$allocator@VNeuron@@@std@@@std@@QAEAAVNeuron@@I@Z ; std::vector<Neuron,std::allocator<Neuron> >::operator[]
	mov	ecx, eax
	call	?SetOutputVal@Neuron@@QAEXN@Z		; Neuron::SetOutputVal

; 36   : 	}

	jmp	SHORT $LN2@FeedForwar
$LN3@FeedForwar:

; 37   : 
; 38   : 	//forward propagate
; 39   : 	//the aim of this step is to pass to each neuron of all the layer his input
; 40   : 	//and transform the outpu in new input for the next layer of neurons
; 41   : 	for (unsigned layerNum = 1; layerNum < m_Layers.size(); ++layerNum)

	mov	DWORD PTR _layerNum$3[ebp], 1
	jmp	SHORT $LN7@FeedForwar
$LN5@FeedForwar:
	mov	ecx, DWORD PTR _layerNum$3[ebp]
	add	ecx, 1
	mov	DWORD PTR _layerNum$3[ebp], ecx
$LN7@FeedForwar:
	mov	ecx, DWORD PTR _this$[ebp]
	call	?size@?$vector@V?$vector@VNeuron@@V?$allocator@VNeuron@@@std@@@std@@V?$allocator@V?$vector@VNeuron@@V?$allocator@VNeuron@@@std@@@std@@@2@@std@@QBEIXZ ; std::vector<std::vector<Neuron,std::allocator<Neuron> >,std::allocator<std::vector<Neuron,std::allocator<Neuron> > > >::size
	cmp	DWORD PTR _layerNum$3[ebp], eax
	jae	SHORT $LN6@FeedForwar

; 42   : 	{
; 43   : 		Layer &prevLayer = m_Layers[layerNum - 1];

	mov	edx, DWORD PTR _layerNum$3[ebp]
	sub	edx, 1
	push	edx
	mov	ecx, DWORD PTR _this$[ebp]
	call	??A?$vector@V?$vector@VNeuron@@V?$allocator@VNeuron@@@std@@@std@@V?$allocator@V?$vector@VNeuron@@V?$allocator@VNeuron@@@std@@@std@@@2@@std@@QAEAAV?$vector@VNeuron@@V?$allocator@VNeuron@@@std@@@1@I@Z ; std::vector<std::vector<Neuron,std::allocator<Neuron> >,std::allocator<std::vector<Neuron,std::allocator<Neuron> > > >::operator[]
	mov	DWORD PTR _prevLayer$2[ebp], eax

; 44   : 		for (unsigned n = 0; n < m_Layers[layerNum].size() - 1; ++n)

	mov	DWORD PTR _n$1[ebp], 0
	jmp	SHORT $LN10@FeedForwar
$LN8@FeedForwar:
	mov	eax, DWORD PTR _n$1[ebp]
	add	eax, 1
	mov	DWORD PTR _n$1[ebp], eax
$LN10@FeedForwar:
	mov	ecx, DWORD PTR _layerNum$3[ebp]
	push	ecx
	mov	ecx, DWORD PTR _this$[ebp]
	call	??A?$vector@V?$vector@VNeuron@@V?$allocator@VNeuron@@@std@@@std@@V?$allocator@V?$vector@VNeuron@@V?$allocator@VNeuron@@@std@@@std@@@2@@std@@QAEAAV?$vector@VNeuron@@V?$allocator@VNeuron@@@std@@@1@I@Z ; std::vector<std::vector<Neuron,std::allocator<Neuron> >,std::allocator<std::vector<Neuron,std::allocator<Neuron> > > >::operator[]
	mov	ecx, eax
	call	?size@?$vector@VNeuron@@V?$allocator@VNeuron@@@std@@@std@@QBEIXZ ; std::vector<Neuron,std::allocator<Neuron> >::size
	sub	eax, 1
	cmp	DWORD PTR _n$1[ebp], eax
	jae	SHORT $LN9@FeedForwar

; 45   : 		{
; 46   : 			m_Layers[layerNum][n].FeedForward(prevLayer);

	mov	edx, DWORD PTR _prevLayer$2[ebp]
	push	edx
	mov	eax, DWORD PTR _n$1[ebp]
	push	eax
	mov	ecx, DWORD PTR _layerNum$3[ebp]
	push	ecx
	mov	ecx, DWORD PTR _this$[ebp]
	call	??A?$vector@V?$vector@VNeuron@@V?$allocator@VNeuron@@@std@@@std@@V?$allocator@V?$vector@VNeuron@@V?$allocator@VNeuron@@@std@@@std@@@2@@std@@QAEAAV?$vector@VNeuron@@V?$allocator@VNeuron@@@std@@@1@I@Z ; std::vector<std::vector<Neuron,std::allocator<Neuron> >,std::allocator<std::vector<Neuron,std::allocator<Neuron> > > >::operator[]
	mov	ecx, eax
	call	??A?$vector@VNeuron@@V?$allocator@VNeuron@@@std@@@std@@QAEAAVNeuron@@I@Z ; std::vector<Neuron,std::allocator<Neuron> >::operator[]
	mov	ecx, eax
	call	?FeedForward@Neuron@@QAEXABV?$vector@VNeuron@@V?$allocator@VNeuron@@@std@@@std@@@Z ; Neuron::FeedForward

; 47   : 		}

	jmp	SHORT $LN8@FeedForwar
$LN9@FeedForwar:

; 48   : 	}

	jmp	SHORT $LN5@FeedForwar
$LN6@FeedForwar:

; 49   : }

	pop	esi
	add	esp, 20					; 00000014H
	cmp	ebp, esp
	call	__RTC_CheckEsp
	mov	esp, ebp
	pop	ebp
	ret	4
?FeedForward@Net@@QAEXABV?$vector@NV?$allocator@N@std@@@std@@@Z ENDP ; Net::FeedForward
_TEXT	ENDS
; Function compile flags: /Odtp /RTCsu
; File c:\users\florian\desktop\iafinal\projetiafinal\projet\net.cpp
_TEXT	SEGMENT
tv149 = -108						; size = 4
tv150 = -104						; size = 4
tv88 = -100						; size = 4
tv147 = -96						; size = 4
tv66 = -92						; size = 4
$T2 = -88						; size = 40
$T3 = -48						; size = 16
_neuronNum$4 = -32					; size = 4
_numOutputs$5 = -28					; size = 4
_layerNum$6 = -24					; size = 4
_numLayers$ = -20					; size = 4
_this$ = -16						; size = 4
__$EHRec$ = -12						; size = 12
_topology$ = 8						; size = 4
??0Net@@QAE@ABV?$vector@IV?$allocator@I@std@@@std@@@Z PROC ; Net::Net
; _this$ = ecx

; 6    : {

	push	ebp
	mov	ebp, esp
	push	-1
	push	__ehhandler$??0Net@@QAE@ABV?$vector@IV?$allocator@I@std@@@std@@@Z
	mov	eax, DWORD PTR fs:0
	push	eax
	sub	esp, 96					; 00000060H
	push	edi
	push	ecx
	lea	edi, DWORD PTR [ebp-108]
	mov	ecx, 24					; 00000018H
	mov	eax, -858993460				; ccccccccH
	rep stosd
	pop	ecx
	mov	eax, DWORD PTR ___security_cookie
	xor	eax, ebp
	push	eax
	lea	eax, DWORD PTR __$EHRec$[ebp]
	mov	DWORD PTR fs:0, eax
	mov	DWORD PTR _this$[ebp], ecx
	mov	ecx, DWORD PTR _this$[ebp]
	call	??0?$vector@V?$vector@VNeuron@@V?$allocator@VNeuron@@@std@@@std@@V?$allocator@V?$vector@VNeuron@@V?$allocator@VNeuron@@@std@@@std@@@2@@std@@QAE@XZ ; std::vector<std::vector<Neuron,std::allocator<Neuron> >,std::allocator<std::vector<Neuron,std::allocator<Neuron> > > >::vector<std::vector<Neuron,std::allocator<Neuron> >,std::allocator<std::vector<Neuron,std::allocator<Neuron> > > >
	mov	DWORD PTR __$EHRec$[ebp+8], 0

; 7    : 	unsigned numLayers = topology.size();

	mov	ecx, DWORD PTR _topology$[ebp]
	call	?size@?$vector@IV?$allocator@I@std@@@std@@QBEIXZ ; std::vector<unsigned int,std::allocator<unsigned int> >::size
	mov	DWORD PTR _numLayers$[ebp], eax

; 8    : 	for (unsigned layerNum = 0; layerNum < numLayers; ++layerNum)

	mov	DWORD PTR _layerNum$6[ebp], 0
	jmp	SHORT $LN4@Net
$LN2@Net:
	mov	eax, DWORD PTR _layerNum$6[ebp]
	add	eax, 1
	mov	DWORD PTR _layerNum$6[ebp], eax
$LN4@Net:
	mov	ecx, DWORD PTR _layerNum$6[ebp]
	cmp	ecx, DWORD PTR _numLayers$[ebp]
	jae	$LN3@Net

; 9    : 	{
; 10   : 		m_Layers.push_back(Layer());

	lea	ecx, DWORD PTR $T3[ebp]
	call	??0?$vector@VNeuron@@V?$allocator@VNeuron@@@std@@@std@@QAE@XZ ; std::vector<Neuron,std::allocator<Neuron> >::vector<Neuron,std::allocator<Neuron> >
	mov	DWORD PTR tv66[ebp], eax
	mov	edx, DWORD PTR tv66[ebp]
	mov	DWORD PTR tv147[ebp], edx
	mov	BYTE PTR __$EHRec$[ebp+8], 1
	mov	eax, DWORD PTR tv147[ebp]
	push	eax
	mov	ecx, DWORD PTR _this$[ebp]
	call	?push_back@?$vector@V?$vector@VNeuron@@V?$allocator@VNeuron@@@std@@@std@@V?$allocator@V?$vector@VNeuron@@V?$allocator@VNeuron@@@std@@@std@@@2@@std@@QAEX$$QAV?$vector@VNeuron@@V?$allocator@VNeuron@@@std@@@2@@Z ; std::vector<std::vector<Neuron,std::allocator<Neuron> >,std::allocator<std::vector<Neuron,std::allocator<Neuron> > > >::push_back
	mov	BYTE PTR __$EHRec$[ebp+8], 0
	lea	ecx, DWORD PTR $T3[ebp]
	call	??1?$vector@VNeuron@@V?$allocator@VNeuron@@@std@@@std@@QAE@XZ ; std::vector<Neuron,std::allocator<Neuron> >::~vector<Neuron,std::allocator<Neuron> >

; 11   : 
; 12   : 		//the number of output connection is equal to the number of neuron of the next layer 
; 13   : 		unsigned numOutputs = layerNum == topology.size() - 1 ? 0 : topology[layerNum + 1];

	mov	ecx, DWORD PTR _topology$[ebp]
	call	?size@?$vector@IV?$allocator@I@std@@@std@@QBEIXZ ; std::vector<unsigned int,std::allocator<unsigned int> >::size
	sub	eax, 1
	cmp	DWORD PTR _layerNum$6[ebp], eax
	jne	SHORT $LN9@Net
	mov	DWORD PTR tv88[ebp], 0
	jmp	SHORT $LN10@Net
$LN9@Net:
	mov	ecx, DWORD PTR _layerNum$6[ebp]
	add	ecx, 1
	push	ecx
	mov	ecx, DWORD PTR _topology$[ebp]
	call	??A?$vector@IV?$allocator@I@std@@@std@@QBEABII@Z ; std::vector<unsigned int,std::allocator<unsigned int> >::operator[]
	mov	edx, DWORD PTR [eax]
	mov	DWORD PTR tv88[ebp], edx
$LN10@Net:
	mov	eax, DWORD PTR tv88[ebp]
	mov	DWORD PTR _numOutputs$5[ebp], eax

; 14   : 		//we made a new layer, now fill it with neurons, and add 
; 15   : 		//a bias neuron to the layer
; 16   : 		for (unsigned neuronNum = 0; neuronNum <= topology[layerNum]; ++neuronNum)

	mov	DWORD PTR _neuronNum$4[ebp], 0
	jmp	SHORT $LN7@Net
$LN5@Net:
	mov	ecx, DWORD PTR _neuronNum$4[ebp]
	add	ecx, 1
	mov	DWORD PTR _neuronNum$4[ebp], ecx
$LN7@Net:
	mov	edx, DWORD PTR _layerNum$6[ebp]
	push	edx
	mov	ecx, DWORD PTR _topology$[ebp]
	call	??A?$vector@IV?$allocator@I@std@@@std@@QBEABII@Z ; std::vector<unsigned int,std::allocator<unsigned int> >::operator[]
	mov	ecx, DWORD PTR _neuronNum$4[ebp]
	cmp	ecx, DWORD PTR [eax]
	ja	SHORT $LN6@Net

; 17   : 		{
; 18   : 			m_Layers.back().push_back(Neuron(numOutputs, neuronNum));

	mov	edx, DWORD PTR _neuronNum$4[ebp]
	push	edx
	mov	eax, DWORD PTR _numOutputs$5[ebp]
	push	eax
	lea	ecx, DWORD PTR $T2[ebp]
	call	??0Neuron@@QAE@II@Z			; Neuron::Neuron
	mov	DWORD PTR tv150[ebp], eax
	mov	ecx, DWORD PTR tv150[ebp]
	mov	DWORD PTR tv149[ebp], ecx
	mov	BYTE PTR __$EHRec$[ebp+8], 2
	mov	edx, DWORD PTR tv149[ebp]
	push	edx
	mov	ecx, DWORD PTR _this$[ebp]
	call	?back@?$vector@V?$vector@VNeuron@@V?$allocator@VNeuron@@@std@@@std@@V?$allocator@V?$vector@VNeuron@@V?$allocator@VNeuron@@@std@@@std@@@2@@std@@QAEAAV?$vector@VNeuron@@V?$allocator@VNeuron@@@std@@@2@XZ ; std::vector<std::vector<Neuron,std::allocator<Neuron> >,std::allocator<std::vector<Neuron,std::allocator<Neuron> > > >::back
	mov	ecx, eax
	call	?push_back@?$vector@VNeuron@@V?$allocator@VNeuron@@@std@@@std@@QAEX$$QAVNeuron@@@Z ; std::vector<Neuron,std::allocator<Neuron> >::push_back
	mov	BYTE PTR __$EHRec$[ebp+8], 0
	lea	ecx, DWORD PTR $T2[ebp]
	call	??1Neuron@@QAE@XZ			; Neuron::~Neuron

; 19   : 		}

	jmp	SHORT $LN5@Net
$LN6@Net:

; 20   : 
; 21   : 		// Force the bias node's output value to 1.0 , it is the last neuron created above
; 22   : 		m_Layers.back().back().SetOutputVal(1.0);

	sub	esp, 8
	movsd	xmm0, QWORD PTR __real@3ff0000000000000
	movsd	QWORD PTR [esp], xmm0
	mov	ecx, DWORD PTR _this$[ebp]
	call	?back@?$vector@V?$vector@VNeuron@@V?$allocator@VNeuron@@@std@@@std@@V?$allocator@V?$vector@VNeuron@@V?$allocator@VNeuron@@@std@@@std@@@2@@std@@QAEAAV?$vector@VNeuron@@V?$allocator@VNeuron@@@std@@@2@XZ ; std::vector<std::vector<Neuron,std::allocator<Neuron> >,std::allocator<std::vector<Neuron,std::allocator<Neuron> > > >::back
	mov	ecx, eax
	call	?back@?$vector@VNeuron@@V?$allocator@VNeuron@@@std@@@std@@QAEAAVNeuron@@XZ ; std::vector<Neuron,std::allocator<Neuron> >::back
	mov	ecx, eax
	call	?SetOutputVal@Neuron@@QAEXN@Z		; Neuron::SetOutputVal

; 23   : 	}

	jmp	$LN2@Net
$LN3@Net:

; 24   : }

	mov	DWORD PTR __$EHRec$[ebp+8], -1
	mov	eax, DWORD PTR _this$[ebp]
	mov	ecx, DWORD PTR __$EHRec$[ebp]
	mov	DWORD PTR fs:0, ecx
	pop	ecx
	pop	edi
	add	esp, 108				; 0000006cH
	cmp	ebp, esp
	call	__RTC_CheckEsp
	mov	esp, ebp
	pop	ebp
	ret	4
_TEXT	ENDS
text$x	SEGMENT
__unwindfunclet$??0Net@@QAE@ABV?$vector@IV?$allocator@I@std@@@std@@@Z$0:
	mov	ecx, DWORD PTR _this$[ebp]
	jmp	??1?$vector@V?$vector@VNeuron@@V?$allocator@VNeuron@@@std@@@std@@V?$allocator@V?$vector@VNeuron@@V?$allocator@VNeuron@@@std@@@std@@@2@@std@@QAE@XZ ; std::vector<std::vector<Neuron,std::allocator<Neuron> >,std::allocator<std::vector<Neuron,std::allocator<Neuron> > > >::~vector<std::vector<Neuron,std::allocator<Neuron> >,std::allocator<std::vector<Neuron,std::allocator<Neuron> > > >
__unwindfunclet$??0Net@@QAE@ABV?$vector@IV?$allocator@I@std@@@std@@@Z$1:
	lea	ecx, DWORD PTR $T3[ebp]
	jmp	??1?$vector@VNeuron@@V?$allocator@VNeuron@@@std@@@std@@QAE@XZ ; std::vector<Neuron,std::allocator<Neuron> >::~vector<Neuron,std::allocator<Neuron> >
__unwindfunclet$??0Net@@QAE@ABV?$vector@IV?$allocator@I@std@@@std@@@Z$2:
	lea	ecx, DWORD PTR $T2[ebp]
	jmp	??1Neuron@@QAE@XZ			; Neuron::~Neuron
__ehhandler$??0Net@@QAE@ABV?$vector@IV?$allocator@I@std@@@std@@@Z:
	mov	edx, DWORD PTR [esp+8]
	lea	eax, DWORD PTR [edx+12]
	mov	ecx, DWORD PTR [edx-104]
	xor	ecx, eax
	call	@__security_check_cookie@4
	mov	eax, OFFSET __ehfuncinfo$??0Net@@QAE@ABV?$vector@IV?$allocator@I@std@@@std@@@Z
	jmp	___CxxFrameHandler3
text$x	ENDS
??0Net@@QAE@ABV?$vector@IV?$allocator@I@std@@@std@@@Z ENDP ; Net::Net
; Function compile flags: /Odtp /RTCsu
;	COMDAT ??_GNeuron@@QAEPAXI@Z
_TEXT	SEGMENT
_this$ = -4						; size = 4
___flags$ = 8						; size = 4
??_GNeuron@@QAEPAXI@Z PROC				; Neuron::`scalar deleting destructor', COMDAT
; _this$ = ecx
	push	ebp
	mov	ebp, esp
	push	ecx
	mov	DWORD PTR [ebp-4], -858993460		; ccccccccH
	mov	DWORD PTR _this$[ebp], ecx
	mov	ecx, DWORD PTR _this$[ebp]
	call	??1Neuron@@QAE@XZ			; Neuron::~Neuron
	mov	eax, DWORD PTR ___flags$[ebp]
	and	eax, 1
	je	SHORT $LN2@scalar
	push	40					; 00000028H
	mov	ecx, DWORD PTR _this$[ebp]
	push	ecx
	call	??3@YAXPAXI@Z				; operator delete
	add	esp, 8
$LN2@scalar:
	mov	eax, DWORD PTR _this$[ebp]
	add	esp, 4
	cmp	ebp, esp
	call	__RTC_CheckEsp
	mov	esp, ebp
	pop	ebp
	ret	4
??_GNeuron@@QAEPAXI@Z ENDP				; Neuron::`scalar deleting destructor'
_TEXT	ENDS
; Function compile flags: /Odtp /RTCsu
;	COMDAT ??0Neuron@@QAE@ABV0@@Z
_TEXT	SEGMENT
_this$ = -4						; size = 4
___that$ = 8						; size = 4
??0Neuron@@QAE@ABV0@@Z PROC				; Neuron::Neuron, COMDAT
; _this$ = ecx
	push	ebp
	mov	ebp, esp
	push	ecx
	mov	DWORD PTR [ebp-4], -858993460		; ccccccccH
	mov	DWORD PTR _this$[ebp], ecx
	mov	eax, DWORD PTR _this$[ebp]
	mov	ecx, DWORD PTR ___that$[ebp]
	movsd	xmm0, QWORD PTR [ecx]
	movsd	QWORD PTR [eax], xmm0
	mov	edx, DWORD PTR ___that$[ebp]
	add	edx, 8
	push	edx
	mov	ecx, DWORD PTR _this$[ebp]
	add	ecx, 8
	call	??0?$vector@UConnection@@V?$allocator@UConnection@@@std@@@std@@QAE@ABV01@@Z ; std::vector<Connection,std::allocator<Connection> >::vector<Connection,std::allocator<Connection> >
	mov	eax, DWORD PTR _this$[ebp]
	mov	ecx, DWORD PTR ___that$[ebp]
	mov	edx, DWORD PTR [ecx+24]
	mov	DWORD PTR [eax+24], edx
	mov	eax, DWORD PTR _this$[ebp]
	mov	ecx, DWORD PTR ___that$[ebp]
	movsd	xmm0, QWORD PTR [ecx+32]
	movsd	QWORD PTR [eax+32], xmm0
	mov	eax, DWORD PTR _this$[ebp]
	add	esp, 4
	cmp	ebp, esp
	call	__RTC_CheckEsp
	mov	esp, ebp
	pop	ebp
	ret	4
??0Neuron@@QAE@ABV0@@Z ENDP				; Neuron::Neuron
_TEXT	ENDS
; Function compile flags: /Odtp /RTCsu
; File c:\program files (x86)\microsoft visual studio\2017\community\vc\tools\msvc\14.11.25503\include\vector
;	COMDAT ?_Xlength@?$vector@UConnection@@V?$allocator@UConnection@@@std@@@std@@CAXXZ
_TEXT	SEGMENT
?_Xlength@?$vector@UConnection@@V?$allocator@UConnection@@@std@@@std@@CAXXZ PROC ; std::vector<Connection,std::allocator<Connection> >::_Xlength, COMDAT

; 2016 : 		{	// report a length_error

	push	ebp
	mov	ebp, esp

; 2017 : 		_Xlength_error("vector<T> too long");

	push	OFFSET ??_C@_0BD@OLBABOEK@vector?$DMT?$DO?5too?5long?$AA@
	call	?_Xlength_error@std@@YAXPBD@Z		; std::_Xlength_error
$LN2@Xlength:

; 2018 : 		}

	cmp	ebp, esp
	call	__RTC_CheckEsp
	pop	ebp
	ret	0
?_Xlength@?$vector@UConnection@@V?$allocator@UConnection@@@std@@@std@@CAXXZ ENDP ; std::vector<Connection,std::allocator<Connection> >::_Xlength
_TEXT	ENDS
; Function compile flags: /Odtp /RTCsu
; File c:\program files (x86)\microsoft visual studio\2017\community\vc\tools\msvc\14.11.25503\include\vector
;	COMDAT ?_Tidy@?$vector@UConnection@@V?$allocator@UConnection@@@std@@@std@@AAEXXZ
_TEXT	SEGMENT
_this$ = -4						; size = 4
?_Tidy@?$vector@UConnection@@V?$allocator@UConnection@@@std@@@std@@AAEXXZ PROC ; std::vector<Connection,std::allocator<Connection> >::_Tidy, COMDAT
; _this$ = ecx

; 2001 : 		{	// free all storage

	push	ebp
	mov	ebp, esp
	push	ecx
	mov	DWORD PTR [ebp-4], -858993460		; ccccccccH
	mov	DWORD PTR _this$[ebp], ecx

; 2002 : 		this->_Orphan_all();

	mov	ecx, DWORD PTR _this$[ebp]
	call	?_Orphan_all@?$_Vector_alloc@U?$_Vec_base_types@UConnection@@V?$allocator@UConnection@@@std@@@std@@@std@@QAEXXZ ; std::_Vector_alloc<std::_Vec_base_types<Connection,std::allocator<Connection> > >::_Orphan_all

; 2003 : 
; 2004 : 		if (this->_Myfirst() != pointer())

	mov	ecx, DWORD PTR _this$[ebp]
	call	?_Myfirst@?$_Vector_alloc@U?$_Vec_base_types@UConnection@@V?$allocator@UConnection@@@std@@@std@@@std@@QAEAAPAUConnection@@XZ ; std::_Vector_alloc<std::_Vec_base_types<Connection,std::allocator<Connection> > >::_Myfirst
	cmp	DWORD PTR [eax], 0
	je	SHORT $LN1@Tidy

; 2005 : 			{	// destroy and deallocate old array
; 2006 : 			_Destroy(this->_Myfirst(), this->_Mylast());

	mov	ecx, DWORD PTR _this$[ebp]
	call	?_Mylast@?$_Vector_alloc@U?$_Vec_base_types@UConnection@@V?$allocator@UConnection@@@std@@@std@@@std@@QAEAAPAUConnection@@XZ ; std::_Vector_alloc<std::_Vec_base_types<Connection,std::allocator<Connection> > >::_Mylast
	mov	eax, DWORD PTR [eax]
	push	eax
	mov	ecx, DWORD PTR _this$[ebp]
	call	?_Myfirst@?$_Vector_alloc@U?$_Vec_base_types@UConnection@@V?$allocator@UConnection@@@std@@@std@@@std@@QAEAAPAUConnection@@XZ ; std::_Vector_alloc<std::_Vec_base_types<Connection,std::allocator<Connection> > >::_Myfirst
	mov	ecx, DWORD PTR [eax]
	push	ecx
	mov	ecx, DWORD PTR _this$[ebp]
	call	?_Destroy@?$vector@UConnection@@V?$allocator@UConnection@@@std@@@std@@AAEXPAUConnection@@0@Z ; std::vector<Connection,std::allocator<Connection> >::_Destroy

; 2007 : 			this->_Getal().deallocate(this->_Myfirst(), capacity());

	mov	ecx, DWORD PTR _this$[ebp]
	call	?capacity@?$vector@UConnection@@V?$allocator@UConnection@@@std@@@std@@QBEIXZ ; std::vector<Connection,std::allocator<Connection> >::capacity
	push	eax
	mov	ecx, DWORD PTR _this$[ebp]
	call	?_Myfirst@?$_Vector_alloc@U?$_Vec_base_types@UConnection@@V?$allocator@UConnection@@@std@@@std@@@std@@QAEAAPAUConnection@@XZ ; std::_Vector_alloc<std::_Vec_base_types<Connection,std::allocator<Connection> > >::_Myfirst
	mov	edx, DWORD PTR [eax]
	push	edx
	mov	ecx, DWORD PTR _this$[ebp]
	call	?_Getal@?$_Vector_alloc@U?$_Vec_base_types@UConnection@@V?$allocator@UConnection@@@std@@@std@@@std@@QAEAAV?$allocator@UConnection@@@2@XZ ; std::_Vector_alloc<std::_Vec_base_types<Connection,std::allocator<Connection> > >::_Getal
	mov	ecx, eax
	call	?deallocate@?$allocator@UConnection@@@std@@QAEXQAUConnection@@I@Z ; std::allocator<Connection>::deallocate

; 2008 : 
; 2009 : 			this->_Myfirst() = pointer();

	mov	ecx, DWORD PTR _this$[ebp]
	call	?_Myfirst@?$_Vector_alloc@U?$_Vec_base_types@UConnection@@V?$allocator@UConnection@@@std@@@std@@@std@@QAEAAPAUConnection@@XZ ; std::_Vector_alloc<std::_Vec_base_types<Connection,std::allocator<Connection> > >::_Myfirst
	mov	DWORD PTR [eax], 0

; 2010 : 			this->_Mylast() = pointer();

	mov	ecx, DWORD PTR _this$[ebp]
	call	?_Mylast@?$_Vector_alloc@U?$_Vec_base_types@UConnection@@V?$allocator@UConnection@@@std@@@std@@@std@@QAEAAPAUConnection@@XZ ; std::_Vector_alloc<std::_Vec_base_types<Connection,std::allocator<Connection> > >::_Mylast
	mov	DWORD PTR [eax], 0

; 2011 : 			this->_Myend() = pointer();

	mov	ecx, DWORD PTR _this$[ebp]
	call	?_Myend@?$_Vector_alloc@U?$_Vec_base_types@UConnection@@V?$allocator@UConnection@@@std@@@std@@@std@@QAEAAPAUConnection@@XZ ; std::_Vector_alloc<std::_Vec_base_types<Connection,std::allocator<Connection> > >::_Myend
	mov	DWORD PTR [eax], 0
$LN1@Tidy:

; 2012 : 			}
; 2013 : 		}

	add	esp, 4
	cmp	ebp, esp
	call	__RTC_CheckEsp
	mov	esp, ebp
	pop	ebp
	ret	0
?_Tidy@?$vector@UConnection@@V?$allocator@UConnection@@@std@@@std@@AAEXXZ ENDP ; std::vector<Connection,std::allocator<Connection> >::_Tidy
_TEXT	ENDS
; Function compile flags: /Odtp /RTCsu
; File c:\program files (x86)\microsoft visual studio\2017\community\vc\tools\msvc\14.11.25503\include\vector
;	COMDAT ?_Buy@?$vector@UConnection@@V?$allocator@UConnection@@@std@@@std@@AAE_NI@Z
_TEXT	SEGMENT
_this$ = -4						; size = 4
__Newcapacity$ = 8					; size = 4
?_Buy@?$vector@UConnection@@V?$allocator@UConnection@@@std@@@std@@AAE_NI@Z PROC ; std::vector<Connection,std::allocator<Connection> >::_Buy, COMDAT
; _this$ = ecx

; 1963 : 		{	// allocate array with _Newcapacity elements

	push	ebp
	mov	ebp, esp
	push	ecx
	push	esi
	mov	DWORD PTR [ebp-4], -858993460		; ccccccccH
	mov	DWORD PTR _this$[ebp], ecx

; 1964 : 		this->_Myfirst() = pointer();

	mov	ecx, DWORD PTR _this$[ebp]
	call	?_Myfirst@?$_Vector_alloc@U?$_Vec_base_types@UConnection@@V?$allocator@UConnection@@@std@@@std@@@std@@QAEAAPAUConnection@@XZ ; std::_Vector_alloc<std::_Vec_base_types<Connection,std::allocator<Connection> > >::_Myfirst
	mov	DWORD PTR [eax], 0

; 1965 : 		this->_Mylast() = pointer();

	mov	ecx, DWORD PTR _this$[ebp]
	call	?_Mylast@?$_Vector_alloc@U?$_Vec_base_types@UConnection@@V?$allocator@UConnection@@@std@@@std@@@std@@QAEAAPAUConnection@@XZ ; std::_Vector_alloc<std::_Vec_base_types<Connection,std::allocator<Connection> > >::_Mylast
	mov	DWORD PTR [eax], 0

; 1966 : 		this->_Myend() = pointer();

	mov	ecx, DWORD PTR _this$[ebp]
	call	?_Myend@?$_Vector_alloc@U?$_Vec_base_types@UConnection@@V?$allocator@UConnection@@@std@@@std@@@std@@QAEAAPAUConnection@@XZ ; std::_Vector_alloc<std::_Vec_base_types<Connection,std::allocator<Connection> > >::_Myend
	mov	DWORD PTR [eax], 0

; 1967 : 
; 1968 : 		if (_Newcapacity == 0)

	cmp	DWORD PTR __Newcapacity$[ebp], 0
	jne	SHORT $LN2@Buy

; 1969 : 			{
; 1970 : 			return (false);

	xor	al, al
	jmp	SHORT $LN4@Buy
$LN2@Buy:

; 1971 : 			}
; 1972 : 
; 1973 : 		if (_Newcapacity > max_size())

	mov	ecx, DWORD PTR _this$[ebp]
	call	?max_size@?$vector@UConnection@@V?$allocator@UConnection@@@std@@@std@@QBEIXZ ; std::vector<Connection,std::allocator<Connection> >::max_size
	cmp	DWORD PTR __Newcapacity$[ebp], eax
	jbe	SHORT $LN3@Buy

; 1974 : 			{
; 1975 : 			_Xlength();

	call	?_Xlength@?$vector@UConnection@@V?$allocator@UConnection@@@std@@@std@@CAXXZ ; std::vector<Connection,std::allocator<Connection> >::_Xlength
$LN3@Buy:

; 1976 : 			}
; 1977 : 
; 1978 : 		this->_Myfirst() = this->_Getal().allocate(_Newcapacity);

	mov	eax, DWORD PTR __Newcapacity$[ebp]
	push	eax
	mov	ecx, DWORD PTR _this$[ebp]
	call	?_Getal@?$_Vector_alloc@U?$_Vec_base_types@UConnection@@V?$allocator@UConnection@@@std@@@std@@@std@@QAEAAV?$allocator@UConnection@@@2@XZ ; std::_Vector_alloc<std::_Vec_base_types<Connection,std::allocator<Connection> > >::_Getal
	mov	ecx, eax
	call	?allocate@?$allocator@UConnection@@@std@@QAEPAUConnection@@I@Z ; std::allocator<Connection>::allocate
	mov	esi, eax
	mov	ecx, DWORD PTR _this$[ebp]
	call	?_Myfirst@?$_Vector_alloc@U?$_Vec_base_types@UConnection@@V?$allocator@UConnection@@@std@@@std@@@std@@QAEAAPAUConnection@@XZ ; std::_Vector_alloc<std::_Vec_base_types<Connection,std::allocator<Connection> > >::_Myfirst
	mov	DWORD PTR [eax], esi

; 1979 : 		this->_Mylast() = this->_Myfirst();

	mov	ecx, DWORD PTR _this$[ebp]
	call	?_Myfirst@?$_Vector_alloc@U?$_Vec_base_types@UConnection@@V?$allocator@UConnection@@@std@@@std@@@std@@QAEAAPAUConnection@@XZ ; std::_Vector_alloc<std::_Vec_base_types<Connection,std::allocator<Connection> > >::_Myfirst
	mov	esi, eax
	mov	ecx, DWORD PTR _this$[ebp]
	call	?_Mylast@?$_Vector_alloc@U?$_Vec_base_types@UConnection@@V?$allocator@UConnection@@@std@@@std@@@std@@QAEAAPAUConnection@@XZ ; std::_Vector_alloc<std::_Vec_base_types<Connection,std::allocator<Connection> > >::_Mylast
	mov	ecx, DWORD PTR [esi]
	mov	DWORD PTR [eax], ecx

; 1980 : 		this->_Myend() = this->_Myfirst() + _Newcapacity;

	mov	ecx, DWORD PTR _this$[ebp]
	call	?_Myfirst@?$_Vector_alloc@U?$_Vec_base_types@UConnection@@V?$allocator@UConnection@@@std@@@std@@@std@@QAEAAPAUConnection@@XZ ; std::_Vector_alloc<std::_Vec_base_types<Connection,std::allocator<Connection> > >::_Myfirst
	mov	esi, DWORD PTR __Newcapacity$[ebp]
	shl	esi, 4
	add	esi, DWORD PTR [eax]
	mov	ecx, DWORD PTR _this$[ebp]
	call	?_Myend@?$_Vector_alloc@U?$_Vec_base_types@UConnection@@V?$allocator@UConnection@@@std@@@std@@@std@@QAEAAPAUConnection@@XZ ; std::_Vector_alloc<std::_Vec_base_types<Connection,std::allocator<Connection> > >::_Myend
	mov	DWORD PTR [eax], esi

; 1981 : 
; 1982 : 		return (true);

	mov	al, 1
$LN4@Buy:

; 1983 : 		}

	pop	esi
	add	esp, 4
	cmp	ebp, esp
	call	__RTC_CheckEsp
	mov	esp, ebp
	pop	ebp
	ret	4
?_Buy@?$vector@UConnection@@V?$allocator@UConnection@@@std@@@std@@AAE_NI@Z ENDP ; std::vector<Connection,std::allocator<Connection> >::_Buy
_TEXT	ENDS
; Function compile flags: /Odtp /RTCsu
; File c:\program files (x86)\microsoft visual studio\2017\community\vc\tools\msvc\14.11.25503\include\vector
;	COMDAT ?_Destroy@?$vector@UConnection@@V?$allocator@UConnection@@@std@@@std@@AAEXPAUConnection@@0@Z
_TEXT	SEGMENT
_this$ = -4						; size = 4
__First$ = 8						; size = 4
__Last$ = 12						; size = 4
?_Destroy@?$vector@UConnection@@V?$allocator@UConnection@@@std@@@std@@AAEXPAUConnection@@0@Z PROC ; std::vector<Connection,std::allocator<Connection> >::_Destroy, COMDAT
; _this$ = ecx

; 1939 : 		{	// destroy [_First, _Last) using allocator

	push	ebp
	mov	ebp, esp
	push	ecx
	mov	DWORD PTR [ebp-4], -858993460		; ccccccccH
	mov	DWORD PTR _this$[ebp], ecx

; 1940 : 		_Destroy_range(_First, _Last, this->_Getal());

	mov	ecx, DWORD PTR _this$[ebp]
	call	?_Getal@?$_Vector_alloc@U?$_Vec_base_types@UConnection@@V?$allocator@UConnection@@@std@@@std@@@std@@QAEAAV?$allocator@UConnection@@@2@XZ ; std::_Vector_alloc<std::_Vec_base_types<Connection,std::allocator<Connection> > >::_Getal
	push	eax
	mov	eax, DWORD PTR __Last$[ebp]
	push	eax
	mov	ecx, DWORD PTR __First$[ebp]
	push	ecx
	call	??$_Destroy_range@V?$allocator@UConnection@@@std@@@std@@YAXPAUConnection@@0AAV?$allocator@UConnection@@@0@@Z ; std::_Destroy_range<std::allocator<Connection> >
	add	esp, 12					; 0000000cH

; 1941 : 		}

	add	esp, 4
	cmp	ebp, esp
	call	__RTC_CheckEsp
	mov	esp, ebp
	pop	ebp
	ret	8
?_Destroy@?$vector@UConnection@@V?$allocator@UConnection@@@std@@@std@@AAEXPAUConnection@@0@Z ENDP ; std::vector<Connection,std::allocator<Connection> >::_Destroy
_TEXT	ENDS
; Function compile flags: /Odtp /RTCsu
; File c:\program files (x86)\microsoft visual studio\2017\community\vc\tools\msvc\14.11.25503\include\vector
;	COMDAT ?capacity@?$vector@UConnection@@V?$allocator@UConnection@@@std@@@std@@QBEIXZ
_TEXT	SEGMENT
_this$ = -4						; size = 4
?capacity@?$vector@UConnection@@V?$allocator@UConnection@@@std@@@std@@QBEIXZ PROC ; std::vector<Connection,std::allocator<Connection> >::capacity, COMDAT
; _this$ = ecx

; 1775 : 		{	// return current length of allocated storage

	push	ebp
	mov	ebp, esp
	push	ecx
	push	esi
	mov	DWORD PTR [ebp-4], -858993460		; ccccccccH
	mov	DWORD PTR _this$[ebp], ecx

; 1776 : 		return (static_cast<size_type>(this->_Myend() - this->_Myfirst()));

	mov	ecx, DWORD PTR _this$[ebp]
	call	?_Myend@?$_Vector_alloc@U?$_Vec_base_types@UConnection@@V?$allocator@UConnection@@@std@@@std@@@std@@QBEABQAUConnection@@XZ ; std::_Vector_alloc<std::_Vec_base_types<Connection,std::allocator<Connection> > >::_Myend
	mov	esi, eax
	mov	ecx, DWORD PTR _this$[ebp]
	call	?_Myfirst@?$_Vector_alloc@U?$_Vec_base_types@UConnection@@V?$allocator@UConnection@@@std@@@std@@@std@@QBEABQAUConnection@@XZ ; std::_Vector_alloc<std::_Vec_base_types<Connection,std::allocator<Connection> > >::_Myfirst
	mov	ecx, DWORD PTR [esi]
	sub	ecx, DWORD PTR [eax]
	sar	ecx, 4
	mov	eax, ecx

; 1777 : 		}

	pop	esi
	add	esp, 4
	cmp	ebp, esp
	call	__RTC_CheckEsp
	mov	esp, ebp
	pop	ebp
	ret	0
?capacity@?$vector@UConnection@@V?$allocator@UConnection@@@std@@@std@@QBEIXZ ENDP ; std::vector<Connection,std::allocator<Connection> >::capacity
_TEXT	ENDS
; Function compile flags: /Odtp /RTCsu
; File c:\program files (x86)\microsoft visual studio\2017\community\vc\tools\msvc\14.11.25503\include\vector
;	COMDAT ?max_size@?$vector@UConnection@@V?$allocator@UConnection@@@std@@@std@@QBEIXZ
_TEXT	SEGMENT
$T1 = -12						; size = 4
$T2 = -8						; size = 4
_this$ = -4						; size = 4
?max_size@?$vector@UConnection@@V?$allocator@UConnection@@@std@@@std@@QBEIXZ PROC ; std::vector<Connection,std::allocator<Connection> >::max_size, COMDAT
; _this$ = ecx

; 1769 : 		{	// return maximum possible length of sequence

	push	ebp
	mov	ebp, esp
	sub	esp, 12					; 0000000cH
	mov	DWORD PTR [ebp-12], -858993460		; ccccccccH
	mov	DWORD PTR [ebp-8], -858993460		; ccccccccH
	mov	DWORD PTR [ebp-4], -858993460		; ccccccccH
	mov	DWORD PTR _this$[ebp], ecx

; 1770 : 		return (_Min_value(static_cast<size_type>((numeric_limits<difference_type>::max)()),

	mov	ecx, DWORD PTR _this$[ebp]
	call	?_Getal@?$_Vector_alloc@U?$_Vec_base_types@UConnection@@V?$allocator@UConnection@@@std@@@std@@@std@@QBEABV?$allocator@UConnection@@@2@XZ ; std::_Vector_alloc<std::_Vec_base_types<Connection,std::allocator<Connection> > >::_Getal
	push	eax
	call	?max_size@?$_Default_allocator_traits@V?$allocator@UConnection@@@std@@@std@@SAIABV?$allocator@UConnection@@@2@@Z ; std::_Default_allocator_traits<std::allocator<Connection> >::max_size
	add	esp, 4
	mov	DWORD PTR $T2[ebp], eax
	call	?max@?$numeric_limits@H@std@@SAHXZ	; std::numeric_limits<int>::max
	mov	DWORD PTR $T1[ebp], eax
	lea	eax, DWORD PTR $T2[ebp]
	push	eax
	lea	ecx, DWORD PTR $T1[ebp]
	push	ecx
	call	??$_Min_value@I@std@@YAABIABI0@Z	; std::_Min_value<unsigned int>
	add	esp, 8
	mov	eax, DWORD PTR [eax]

; 1771 : 			_Alty_traits::max_size(this->_Getal())));
; 1772 : 		}

	add	esp, 12					; 0000000cH
	cmp	ebp, esp
	call	__RTC_CheckEsp
	mov	esp, ebp
	pop	ebp
	ret	0
?max_size@?$vector@UConnection@@V?$allocator@UConnection@@@std@@@std@@QBEIXZ ENDP ; std::vector<Connection,std::allocator<Connection> >::max_size
_TEXT	ENDS
; Function compile flags: /Odtp /RTCsu
; File c:\program files (x86)\microsoft visual studio\2017\community\vc\tools\msvc\14.11.25503\include\vector
;	COMDAT ?size@?$vector@UConnection@@V?$allocator@UConnection@@@std@@@std@@QBEIXZ
_TEXT	SEGMENT
_this$ = -4						; size = 4
?size@?$vector@UConnection@@V?$allocator@UConnection@@@std@@@std@@QBEIXZ PROC ; std::vector<Connection,std::allocator<Connection> >::size, COMDAT
; _this$ = ecx

; 1764 : 		{	// return length of sequence

	push	ebp
	mov	ebp, esp
	push	ecx
	push	esi
	mov	DWORD PTR [ebp-4], -858993460		; ccccccccH
	mov	DWORD PTR _this$[ebp], ecx

; 1765 : 		return (static_cast<size_type>(this->_Mylast() - this->_Myfirst()));

	mov	ecx, DWORD PTR _this$[ebp]
	call	?_Mylast@?$_Vector_alloc@U?$_Vec_base_types@UConnection@@V?$allocator@UConnection@@@std@@@std@@@std@@QBEABQAUConnection@@XZ ; std::_Vector_alloc<std::_Vec_base_types<Connection,std::allocator<Connection> > >::_Mylast
	mov	esi, eax
	mov	ecx, DWORD PTR _this$[ebp]
	call	?_Myfirst@?$_Vector_alloc@U?$_Vec_base_types@UConnection@@V?$allocator@UConnection@@@std@@@std@@@std@@QBEABQAUConnection@@XZ ; std::_Vector_alloc<std::_Vec_base_types<Connection,std::allocator<Connection> > >::_Myfirst
	mov	ecx, DWORD PTR [esi]
	sub	ecx, DWORD PTR [eax]
	sar	ecx, 4
	mov	eax, ecx

; 1766 : 		}

	pop	esi
	add	esp, 4
	cmp	ebp, esp
	call	__RTC_CheckEsp
	mov	esp, ebp
	pop	ebp
	ret	0
?size@?$vector@UConnection@@V?$allocator@UConnection@@@std@@@std@@QBEIXZ ENDP ; std::vector<Connection,std::allocator<Connection> >::size
_TEXT	ENDS
; Function compile flags: /Odtp /RTCsu
; File c:\program files (x86)\microsoft visual studio\2017\community\vc\tools\msvc\14.11.25503\include\vector
;	COMDAT ??0?$vector@UConnection@@V?$allocator@UConnection@@@std@@@std@@QAE@ABV01@@Z
_TEXT	SEGMENT
tv69 = -28						; size = 4
$T2 = -21						; size = 1
_this$ = -20						; size = 4
__$EHRec$ = -16						; size = 16
__Right$ = 8						; size = 4
??0?$vector@UConnection@@V?$allocator@UConnection@@@std@@@std@@QAE@ABV01@@Z PROC ; std::vector<Connection,std::allocator<Connection> >::vector<Connection,std::allocator<Connection> >, COMDAT
; _this$ = ecx

; 768  : 		{	// construct by copying _Right

	push	ebp
	mov	ebp, esp
	push	-1
	push	__ehhandler$??0?$vector@UConnection@@V?$allocator@UConnection@@@std@@@std@@QAE@ABV01@@Z
	mov	eax, DWORD PTR fs:0
	push	eax
	push	ecx
	sub	esp, 12					; 0000000cH
	push	ebx
	push	esi
	push	edi
	mov	DWORD PTR [ebp-28], -858993460		; ccccccccH
	mov	DWORD PTR [ebp-24], -858993460		; ccccccccH
	mov	DWORD PTR [ebp-20], -858993460		; ccccccccH
	mov	eax, DWORD PTR ___security_cookie
	xor	eax, ebp
	push	eax
	lea	eax, DWORD PTR __$EHRec$[ebp+4]
	mov	DWORD PTR fs:0, eax
	mov	DWORD PTR __$EHRec$[ebp], esp
	mov	DWORD PTR _this$[ebp], ecx

; 767  : 		: _Mybase(_Alty_traits::select_on_container_copy_construction(_Right._Getal()))

	mov	ecx, DWORD PTR __Right$[ebp]
	call	?_Getal@?$_Vector_alloc@U?$_Vec_base_types@UConnection@@V?$allocator@UConnection@@@std@@@std@@@std@@QBEABV?$allocator@UConnection@@@2@XZ ; std::_Vector_alloc<std::_Vec_base_types<Connection,std::allocator<Connection> > >::_Getal
	push	eax
	lea	eax, DWORD PTR $T2[ebp]
	push	eax
	call	?select_on_container_copy_construction@?$_Default_allocator_traits@V?$allocator@UConnection@@@std@@@std@@SA?AV?$allocator@UConnection@@@2@ABV32@@Z ; std::_Default_allocator_traits<std::allocator<Connection> >::select_on_container_copy_construction
	add	esp, 8
	push	eax
	mov	ecx, DWORD PTR _this$[ebp]
	call	??$?0V?$allocator@UConnection@@@std@@X@?$_Vector_alloc@U?$_Vec_base_types@UConnection@@V?$allocator@UConnection@@@std@@@std@@@std@@QAE@$$QAV?$allocator@UConnection@@@1@@Z ; std::_Vector_alloc<std::_Vec_base_types<Connection,std::allocator<Connection> > >::_Vector_alloc<std::_Vec_base_types<Connection,std::allocator<Connection> > ><std::allocator<Connection>,void>
	mov	DWORD PTR __$EHRec$[ebp+12], 0

; 769  : 		if (_Buy(_Right.size()))

	mov	ecx, DWORD PTR __Right$[ebp]
	call	?size@?$vector@UConnection@@V?$allocator@UConnection@@@std@@@std@@QBEIXZ ; std::vector<Connection,std::allocator<Connection> >::size
	push	eax
	mov	ecx, DWORD PTR _this$[ebp]
	call	?_Buy@?$vector@UConnection@@V?$allocator@UConnection@@@std@@@std@@AAE_NI@Z ; std::vector<Connection,std::allocator<Connection> >::_Buy
	movzx	ecx, al
	test	ecx, ecx
	je	SHORT $LN1@vector

; 770  : 			{	// nonzero, fill it
; 771  : 			_TRY_BEGIN

	mov	BYTE PTR __$EHRec$[ebp+12], 1

; 772  : 			this->_Mylast() = _Ucopy(_Right._Myfirst(), _Right._Mylast(), this->_Myfirst());

	mov	ecx, DWORD PTR _this$[ebp]
	call	?_Myfirst@?$_Vector_alloc@U?$_Vec_base_types@UConnection@@V?$allocator@UConnection@@@std@@@std@@@std@@QAEAAPAUConnection@@XZ ; std::_Vector_alloc<std::_Vec_base_types<Connection,std::allocator<Connection> > >::_Myfirst
	mov	edx, DWORD PTR [eax]
	push	edx
	mov	ecx, DWORD PTR __Right$[ebp]
	call	?_Mylast@?$_Vector_alloc@U?$_Vec_base_types@UConnection@@V?$allocator@UConnection@@@std@@@std@@@std@@QBEABQAUConnection@@XZ ; std::_Vector_alloc<std::_Vec_base_types<Connection,std::allocator<Connection> > >::_Mylast
	mov	eax, DWORD PTR [eax]
	push	eax
	mov	ecx, DWORD PTR __Right$[ebp]
	call	?_Myfirst@?$_Vector_alloc@U?$_Vec_base_types@UConnection@@V?$allocator@UConnection@@@std@@@std@@@std@@QBEABQAUConnection@@XZ ; std::_Vector_alloc<std::_Vec_base_types<Connection,std::allocator<Connection> > >::_Myfirst
	mov	ecx, DWORD PTR [eax]
	push	ecx
	mov	ecx, DWORD PTR _this$[ebp]
	call	??$_Ucopy@PAUConnection@@@?$vector@UConnection@@V?$allocator@UConnection@@@std@@@std@@AAEPAUConnection@@PAU2@00@Z ; std::vector<Connection,std::allocator<Connection> >::_Ucopy<Connection *>
	mov	DWORD PTR tv69[ebp], eax
	mov	ecx, DWORD PTR _this$[ebp]
	call	?_Mylast@?$_Vector_alloc@U?$_Vec_base_types@UConnection@@V?$allocator@UConnection@@@std@@@std@@@std@@QAEAAPAUConnection@@XZ ; std::_Vector_alloc<std::_Vec_base_types<Connection,std::allocator<Connection> > >::_Mylast
	mov	edx, DWORD PTR tv69[ebp]
	mov	DWORD PTR [eax], edx
	jmp	SHORT $LN5@vector
__catch$??0?$vector@UConnection@@V?$allocator@UConnection@@@std@@@std@@QAE@ABV01@@Z$0:

; 773  : 			_CATCH_ALL
; 774  : 			_Tidy();

	mov	ecx, DWORD PTR _this$[ebp]
	call	?_Tidy@?$vector@UConnection@@V?$allocator@UConnection@@@std@@@std@@AAEXXZ ; std::vector<Connection,std::allocator<Connection> >::_Tidy

; 775  : 			_RERAISE;

	push	0
	push	0
	call	__CxxThrowException@8

; 776  : 			_CATCH_END

	mov	eax, $LN9@vector
	ret	0
$LN5@vector:
	mov	DWORD PTR __$EHRec$[ebp+12], 0
	jmp	SHORT $LN1@vector
$LN9@vector:
	mov	DWORD PTR __$EHRec$[ebp+12], 0
$LN1@vector:

; 777  : 			}
; 778  : 		}

	mov	DWORD PTR __$EHRec$[ebp+12], -1
	mov	eax, DWORD PTR _this$[ebp]
$LN4@vector:
	mov	ecx, DWORD PTR __$EHRec$[ebp+4]
	mov	DWORD PTR fs:0, ecx
	pop	ecx
	pop	edi
	pop	esi
	pop	ebx
	add	esp, 28					; 0000001cH
	cmp	ebp, esp
	call	__RTC_CheckEsp
	mov	esp, ebp
	pop	ebp
	ret	4
_TEXT	ENDS
;	COMDAT text$x
text$x	SEGMENT
__unwindfunclet$??0?$vector@UConnection@@V?$allocator@UConnection@@@std@@@std@@QAE@ABV01@@Z$2:
	mov	ecx, DWORD PTR _this$[ebp]
	jmp	??1?$_Vector_alloc@U?$_Vec_base_types@UConnection@@V?$allocator@UConnection@@@std@@@std@@@std@@QAE@XZ ; std::_Vector_alloc<std::_Vec_base_types<Connection,std::allocator<Connection> > >::~_Vector_alloc<std::_Vec_base_types<Connection,std::allocator<Connection> > >
__ehhandler$??0?$vector@UConnection@@V?$allocator@UConnection@@@std@@@std@@QAE@ABV01@@Z:
	mov	edx, DWORD PTR [esp+8]
	lea	eax, DWORD PTR [edx+12]
	mov	ecx, DWORD PTR [edx-32]
	xor	ecx, eax
	call	@__security_check_cookie@4
	mov	eax, OFFSET __ehfuncinfo$??0?$vector@UConnection@@V?$allocator@UConnection@@@std@@@std@@QAE@ABV01@@Z
	jmp	___CxxFrameHandler3
text$x	ENDS
??0?$vector@UConnection@@V?$allocator@UConnection@@@std@@@std@@QAE@ABV01@@Z ENDP ; std::vector<Connection,std::allocator<Connection> >::vector<Connection,std::allocator<Connection> >
; Function compile flags: /Odtp /RTCsu
;	COMDAT ??1?$_Compressed_pair@V?$allocator@UConnection@@@std@@V?$_Vector_val@U?$_Simple_types@UConnection@@@std@@@2@$00@std@@QAE@XZ
_TEXT	SEGMENT
_this$ = -4						; size = 4
??1?$_Compressed_pair@V?$allocator@UConnection@@@std@@V?$_Vector_val@U?$_Simple_types@UConnection@@@std@@@2@$00@std@@QAE@XZ PROC ; std::_Compressed_pair<std::allocator<Connection>,std::_Vector_val<std::_Simple_types<Connection> >,1>::~_Compressed_pair<std::allocator<Connection>,std::_Vector_val<std::_Simple_types<Connection> >,1>, COMDAT
; _this$ = ecx
	push	ebp
	mov	ebp, esp
	push	ecx
	mov	DWORD PTR [ebp-4], -858993460		; ccccccccH
	mov	DWORD PTR _this$[ebp], ecx
	mov	ecx, DWORD PTR _this$[ebp]
	call	??1?$_Vector_val@U?$_Simple_types@UConnection@@@std@@@std@@QAE@XZ
	add	esp, 4
	cmp	ebp, esp
	call	__RTC_CheckEsp
	mov	esp, ebp
	pop	ebp
	ret	0
??1?$_Compressed_pair@V?$allocator@UConnection@@@std@@V?$_Vector_val@U?$_Simple_types@UConnection@@@std@@@2@$00@std@@QAE@XZ ENDP ; std::_Compressed_pair<std::allocator<Connection>,std::_Vector_val<std::_Simple_types<Connection> >,1>::~_Compressed_pair<std::allocator<Connection>,std::_Vector_val<std::_Simple_types<Connection> >,1>
_TEXT	ENDS
; Function compile flags: /Odtp /RTCsu
; File c:\program files (x86)\microsoft visual studio\2017\community\vc\tools\msvc\14.11.25503\include\xutility
;	COMDAT ?_Get_second@?$_Compressed_pair@V?$allocator@UConnection@@@std@@V?$_Vector_val@U?$_Simple_types@UConnection@@@std@@@2@$00@std@@QBEABV?$_Vector_val@U?$_Simple_types@UConnection@@@std@@@2@XZ
_TEXT	SEGMENT
_this$ = -4						; size = 4
?_Get_second@?$_Compressed_pair@V?$allocator@UConnection@@@std@@V?$_Vector_val@U?$_Simple_types@UConnection@@@std@@@2@$00@std@@QBEABV?$_Vector_val@U?$_Simple_types@UConnection@@@std@@@2@XZ PROC ; std::_Compressed_pair<std::allocator<Connection>,std::_Vector_val<std::_Simple_types<Connection> >,1>::_Get_second, COMDAT
; _this$ = ecx

; 342  : 		{	// return const reference to second

	push	ebp
	mov	ebp, esp
	push	ecx
	mov	DWORD PTR [ebp-4], -858993460		; ccccccccH
	mov	DWORD PTR _this$[ebp], ecx

; 343  : 		return (_Myval2);

	mov	eax, DWORD PTR _this$[ebp]

; 344  : 		}

	mov	esp, ebp
	pop	ebp
	ret	0
?_Get_second@?$_Compressed_pair@V?$allocator@UConnection@@@std@@V?$_Vector_val@U?$_Simple_types@UConnection@@@std@@@2@$00@std@@QBEABV?$_Vector_val@U?$_Simple_types@UConnection@@@std@@@2@XZ ENDP ; std::_Compressed_pair<std::allocator<Connection>,std::_Vector_val<std::_Simple_types<Connection> >,1>::_Get_second
_TEXT	ENDS
; Function compile flags: /Odtp /RTCsu
; File c:\program files (x86)\microsoft visual studio\2017\community\vc\tools\msvc\14.11.25503\include\xutility
;	COMDAT ?_Get_second@?$_Compressed_pair@V?$allocator@UConnection@@@std@@V?$_Vector_val@U?$_Simple_types@UConnection@@@std@@@2@$00@std@@QAEAAV?$_Vector_val@U?$_Simple_types@UConnection@@@std@@@2@XZ
_TEXT	SEGMENT
_this$ = -4						; size = 4
?_Get_second@?$_Compressed_pair@V?$allocator@UConnection@@@std@@V?$_Vector_val@U?$_Simple_types@UConnection@@@std@@@2@$00@std@@QAEAAV?$_Vector_val@U?$_Simple_types@UConnection@@@std@@@2@XZ PROC ; std::_Compressed_pair<std::allocator<Connection>,std::_Vector_val<std::_Simple_types<Connection> >,1>::_Get_second, COMDAT
; _this$ = ecx

; 337  : 		{	// return reference to second

	push	ebp
	mov	ebp, esp
	push	ecx
	mov	DWORD PTR [ebp-4], -858993460		; ccccccccH
	mov	DWORD PTR _this$[ebp], ecx

; 338  : 		return (_Myval2);

	mov	eax, DWORD PTR _this$[ebp]

; 339  : 		}

	mov	esp, ebp
	pop	ebp
	ret	0
?_Get_second@?$_Compressed_pair@V?$allocator@UConnection@@@std@@V?$_Vector_val@U?$_Simple_types@UConnection@@@std@@@2@$00@std@@QAEAAV?$_Vector_val@U?$_Simple_types@UConnection@@@std@@@2@XZ ENDP ; std::_Compressed_pair<std::allocator<Connection>,std::_Vector_val<std::_Simple_types<Connection> >,1>::_Get_second
_TEXT	ENDS
; Function compile flags: /Odtp /RTCsu
; File c:\program files (x86)\microsoft visual studio\2017\community\vc\tools\msvc\14.11.25503\include\xutility
;	COMDAT ?_Get_first@?$_Compressed_pair@V?$allocator@UConnection@@@std@@V?$_Vector_val@U?$_Simple_types@UConnection@@@std@@@2@$00@std@@QBEABV?$allocator@UConnection@@@2@XZ
_TEXT	SEGMENT
_this$ = -4						; size = 4
?_Get_first@?$_Compressed_pair@V?$allocator@UConnection@@@std@@V?$_Vector_val@U?$_Simple_types@UConnection@@@std@@@2@$00@std@@QBEABV?$allocator@UConnection@@@2@XZ PROC ; std::_Compressed_pair<std::allocator<Connection>,std::_Vector_val<std::_Simple_types<Connection> >,1>::_Get_first, COMDAT
; _this$ = ecx

; 322  : 		{	// return const reference to first

	push	ebp
	mov	ebp, esp
	push	ecx
	mov	DWORD PTR [ebp-4], -858993460		; ccccccccH
	mov	DWORD PTR _this$[ebp], ecx

; 323  : 		return (*this);

	mov	eax, DWORD PTR _this$[ebp]

; 324  : 		}

	mov	esp, ebp
	pop	ebp
	ret	0
?_Get_first@?$_Compressed_pair@V?$allocator@UConnection@@@std@@V?$_Vector_val@U?$_Simple_types@UConnection@@@std@@@2@$00@std@@QBEABV?$allocator@UConnection@@@2@XZ ENDP ; std::_Compressed_pair<std::allocator<Connection>,std::_Vector_val<std::_Simple_types<Connection> >,1>::_Get_first
_TEXT	ENDS
; Function compile flags: /Odtp /RTCsu
; File c:\program files (x86)\microsoft visual studio\2017\community\vc\tools\msvc\14.11.25503\include\xutility
;	COMDAT ?_Get_first@?$_Compressed_pair@V?$allocator@UConnection@@@std@@V?$_Vector_val@U?$_Simple_types@UConnection@@@std@@@2@$00@std@@QAEAAV?$allocator@UConnection@@@2@XZ
_TEXT	SEGMENT
_this$ = -4						; size = 4
?_Get_first@?$_Compressed_pair@V?$allocator@UConnection@@@std@@V?$_Vector_val@U?$_Simple_types@UConnection@@@std@@@2@$00@std@@QAEAAV?$allocator@UConnection@@@2@XZ PROC ; std::_Compressed_pair<std::allocator<Connection>,std::_Vector_val<std::_Simple_types<Connection> >,1>::_Get_first, COMDAT
; _this$ = ecx

; 317  : 		{	// return reference to first

	push	ebp
	mov	ebp, esp
	push	ecx
	mov	DWORD PTR [ebp-4], -858993460		; ccccccccH
	mov	DWORD PTR _this$[ebp], ecx

; 318  : 		return (*this);

	mov	eax, DWORD PTR _this$[ebp]

; 319  : 		}

	mov	esp, ebp
	pop	ebp
	ret	0
?_Get_first@?$_Compressed_pair@V?$allocator@UConnection@@@std@@V?$_Vector_val@U?$_Simple_types@UConnection@@@std@@@2@$00@std@@QAEAAV?$allocator@UConnection@@@2@XZ ENDP ; std::_Compressed_pair<std::allocator<Connection>,std::_Vector_val<std::_Simple_types<Connection> >,1>::_Get_first
_TEXT	ENDS
; Function compile flags: /Odtp /RTCsu
;	COMDAT ??1?$_Vector_val@U?$_Simple_types@UConnection@@@std@@@std@@QAE@XZ
_TEXT	SEGMENT
_this$ = -4						; size = 4
??1?$_Vector_val@U?$_Simple_types@UConnection@@@std@@@std@@QAE@XZ PROC ; std::_Vector_val<std::_Simple_types<Connection> >::~_Vector_val<std::_Simple_types<Connection> >, COMDAT
; _this$ = ecx
	push	ebp
	mov	ebp, esp
	push	ecx
	mov	DWORD PTR [ebp-4], -858993460		; ccccccccH
	mov	DWORD PTR _this$[ebp], ecx
	mov	ecx, DWORD PTR _this$[ebp]
	call	??1_Container_base12@std@@QAE@XZ	; std::_Container_base12::~_Container_base12
	add	esp, 4
	cmp	ebp, esp
	call	__RTC_CheckEsp
	mov	esp, ebp
	pop	ebp
	ret	0
??1?$_Vector_val@U?$_Simple_types@UConnection@@@std@@@std@@QAE@XZ ENDP ; std::_Vector_val<std::_Simple_types<Connection> >::~_Vector_val<std::_Simple_types<Connection> >
_TEXT	ENDS
; Function compile flags: /Odtp /RTCsu
; File c:\program files (x86)\microsoft visual studio\2017\community\vc\tools\msvc\14.11.25503\include\vector
;	COMDAT ??0?$_Vector_val@U?$_Simple_types@UConnection@@@std@@@std@@QAE@XZ
_TEXT	SEGMENT
_this$ = -4						; size = 4
??0?$_Vector_val@U?$_Simple_types@UConnection@@@std@@@std@@QAE@XZ PROC ; std::_Vector_val<std::_Simple_types<Connection> >::_Vector_val<std::_Simple_types<Connection> >, COMDAT
; _this$ = ecx

; 437  : 		{	// initialize values

	push	ebp
	mov	ebp, esp
	push	ecx
	mov	DWORD PTR [ebp-4], -858993460		; ccccccccH
	mov	DWORD PTR _this$[ebp], ecx
	mov	ecx, DWORD PTR _this$[ebp]
	call	??0_Container_base12@std@@QAE@XZ	; std::_Container_base12::_Container_base12

; 434  : 		: _Myfirst(),

	mov	eax, DWORD PTR _this$[ebp]
	mov	DWORD PTR [eax+4], 0

; 435  : 		_Mylast(),

	mov	ecx, DWORD PTR _this$[ebp]
	mov	DWORD PTR [ecx+8], 0

; 436  : 		_Myend()

	mov	edx, DWORD PTR _this$[ebp]
	mov	DWORD PTR [edx+12], 0

; 438  : 		}

	mov	eax, DWORD PTR _this$[ebp]
	add	esp, 4
	cmp	ebp, esp
	call	__RTC_CheckEsp
	mov	esp, ebp
	pop	ebp
	ret	0
??0?$_Vector_val@U?$_Simple_types@UConnection@@@std@@@std@@QAE@XZ ENDP ; std::_Vector_val<std::_Simple_types<Connection> >::_Vector_val<std::_Simple_types<Connection> >
_TEXT	ENDS
; Function compile flags: /Odtp /RTCsu
; File c:\program files (x86)\microsoft visual studio\2017\community\vc\tools\msvc\14.11.25503\include\vector
;	COMDAT ?_Myend@?$_Vector_alloc@U?$_Vec_base_types@UConnection@@V?$allocator@UConnection@@@std@@@std@@@std@@QBEABQAUConnection@@XZ
_TEXT	SEGMENT
_this$ = -4						; size = 4
?_Myend@?$_Vector_alloc@U?$_Vec_base_types@UConnection@@V?$allocator@UConnection@@@std@@@std@@@std@@QBEABQAUConnection@@XZ PROC ; std::_Vector_alloc<std::_Vec_base_types<Connection,std::allocator<Connection> > >::_Myend, COMDAT
; _this$ = ecx

; 634  : 		{	// return const reference to _Myend

	push	ebp
	mov	ebp, esp
	push	ecx
	mov	DWORD PTR [ebp-4], -858993460		; ccccccccH
	mov	DWORD PTR _this$[ebp], ecx

; 635  : 		return (_Get_data()._Myend);

	mov	ecx, DWORD PTR _this$[ebp]
	call	?_Get_data@?$_Vector_alloc@U?$_Vec_base_types@UConnection@@V?$allocator@UConnection@@@std@@@std@@@std@@QBEABV?$_Vector_val@U?$_Simple_types@UConnection@@@std@@@2@XZ ; std::_Vector_alloc<std::_Vec_base_types<Connection,std::allocator<Connection> > >::_Get_data
	add	eax, 12					; 0000000cH

; 636  : 		}

	add	esp, 4
	cmp	ebp, esp
	call	__RTC_CheckEsp
	mov	esp, ebp
	pop	ebp
	ret	0
?_Myend@?$_Vector_alloc@U?$_Vec_base_types@UConnection@@V?$allocator@UConnection@@@std@@@std@@@std@@QBEABQAUConnection@@XZ ENDP ; std::_Vector_alloc<std::_Vec_base_types<Connection,std::allocator<Connection> > >::_Myend
_TEXT	ENDS
; Function compile flags: /Odtp /RTCsu
; File c:\program files (x86)\microsoft visual studio\2017\community\vc\tools\msvc\14.11.25503\include\vector
;	COMDAT ?_Myend@?$_Vector_alloc@U?$_Vec_base_types@UConnection@@V?$allocator@UConnection@@@std@@@std@@@std@@QAEAAPAUConnection@@XZ
_TEXT	SEGMENT
_this$ = -4						; size = 4
?_Myend@?$_Vector_alloc@U?$_Vec_base_types@UConnection@@V?$allocator@UConnection@@@std@@@std@@@std@@QAEAAPAUConnection@@XZ PROC ; std::_Vector_alloc<std::_Vec_base_types<Connection,std::allocator<Connection> > >::_Myend, COMDAT
; _this$ = ecx

; 629  : 		{	// return reference to _Myend

	push	ebp
	mov	ebp, esp
	push	ecx
	mov	DWORD PTR [ebp-4], -858993460		; ccccccccH
	mov	DWORD PTR _this$[ebp], ecx

; 630  : 		return (_Get_data()._Myend);

	mov	ecx, DWORD PTR _this$[ebp]
	call	?_Get_data@?$_Vector_alloc@U?$_Vec_base_types@UConnection@@V?$allocator@UConnection@@@std@@@std@@@std@@QAEAAV?$_Vector_val@U?$_Simple_types@UConnection@@@std@@@2@XZ ; std::_Vector_alloc<std::_Vec_base_types<Connection,std::allocator<Connection> > >::_Get_data
	add	eax, 12					; 0000000cH

; 631  : 		}

	add	esp, 4
	cmp	ebp, esp
	call	__RTC_CheckEsp
	mov	esp, ebp
	pop	ebp
	ret	0
?_Myend@?$_Vector_alloc@U?$_Vec_base_types@UConnection@@V?$allocator@UConnection@@@std@@@std@@@std@@QAEAAPAUConnection@@XZ ENDP ; std::_Vector_alloc<std::_Vec_base_types<Connection,std::allocator<Connection> > >::_Myend
_TEXT	ENDS
; Function compile flags: /Odtp /RTCsu
; File c:\program files (x86)\microsoft visual studio\2017\community\vc\tools\msvc\14.11.25503\include\vector
;	COMDAT ?_Mylast@?$_Vector_alloc@U?$_Vec_base_types@UConnection@@V?$allocator@UConnection@@@std@@@std@@@std@@QBEABQAUConnection@@XZ
_TEXT	SEGMENT
_this$ = -4						; size = 4
?_Mylast@?$_Vector_alloc@U?$_Vec_base_types@UConnection@@V?$allocator@UConnection@@@std@@@std@@@std@@QBEABQAUConnection@@XZ PROC ; std::_Vector_alloc<std::_Vec_base_types<Connection,std::allocator<Connection> > >::_Mylast, COMDAT
; _this$ = ecx

; 624  : 		{	// return const reference to _Mylast

	push	ebp
	mov	ebp, esp
	push	ecx
	mov	DWORD PTR [ebp-4], -858993460		; ccccccccH
	mov	DWORD PTR _this$[ebp], ecx

; 625  : 		return (_Get_data()._Mylast);

	mov	ecx, DWORD PTR _this$[ebp]
	call	?_Get_data@?$_Vector_alloc@U?$_Vec_base_types@UConnection@@V?$allocator@UConnection@@@std@@@std@@@std@@QBEABV?$_Vector_val@U?$_Simple_types@UConnection@@@std@@@2@XZ ; std::_Vector_alloc<std::_Vec_base_types<Connection,std::allocator<Connection> > >::_Get_data
	add	eax, 8

; 626  : 		}

	add	esp, 4
	cmp	ebp, esp
	call	__RTC_CheckEsp
	mov	esp, ebp
	pop	ebp
	ret	0
?_Mylast@?$_Vector_alloc@U?$_Vec_base_types@UConnection@@V?$allocator@UConnection@@@std@@@std@@@std@@QBEABQAUConnection@@XZ ENDP ; std::_Vector_alloc<std::_Vec_base_types<Connection,std::allocator<Connection> > >::_Mylast
_TEXT	ENDS
; Function compile flags: /Odtp /RTCsu
; File c:\program files (x86)\microsoft visual studio\2017\community\vc\tools\msvc\14.11.25503\include\vector
;	COMDAT ?_Mylast@?$_Vector_alloc@U?$_Vec_base_types@UConnection@@V?$allocator@UConnection@@@std@@@std@@@std@@QAEAAPAUConnection@@XZ
_TEXT	SEGMENT
_this$ = -4						; size = 4
?_Mylast@?$_Vector_alloc@U?$_Vec_base_types@UConnection@@V?$allocator@UConnection@@@std@@@std@@@std@@QAEAAPAUConnection@@XZ PROC ; std::_Vector_alloc<std::_Vec_base_types<Connection,std::allocator<Connection> > >::_Mylast, COMDAT
; _this$ = ecx

; 619  : 		{	// return reference to _Mylast

	push	ebp
	mov	ebp, esp
	push	ecx
	mov	DWORD PTR [ebp-4], -858993460		; ccccccccH
	mov	DWORD PTR _this$[ebp], ecx

; 620  : 		return (_Get_data()._Mylast);

	mov	ecx, DWORD PTR _this$[ebp]
	call	?_Get_data@?$_Vector_alloc@U?$_Vec_base_types@UConnection@@V?$allocator@UConnection@@@std@@@std@@@std@@QAEAAV?$_Vector_val@U?$_Simple_types@UConnection@@@std@@@2@XZ ; std::_Vector_alloc<std::_Vec_base_types<Connection,std::allocator<Connection> > >::_Get_data
	add	eax, 8

; 621  : 		}

	add	esp, 4
	cmp	ebp, esp
	call	__RTC_CheckEsp
	mov	esp, ebp
	pop	ebp
	ret	0
?_Mylast@?$_Vector_alloc@U?$_Vec_base_types@UConnection@@V?$allocator@UConnection@@@std@@@std@@@std@@QAEAAPAUConnection@@XZ ENDP ; std::_Vector_alloc<std::_Vec_base_types<Connection,std::allocator<Connection> > >::_Mylast
_TEXT	ENDS
; Function compile flags: /Odtp /RTCsu
; File c:\program files (x86)\microsoft visual studio\2017\community\vc\tools\msvc\14.11.25503\include\vector
;	COMDAT ?_Myfirst@?$_Vector_alloc@U?$_Vec_base_types@UConnection@@V?$allocator@UConnection@@@std@@@std@@@std@@QBEABQAUConnection@@XZ
_TEXT	SEGMENT
_this$ = -4						; size = 4
?_Myfirst@?$_Vector_alloc@U?$_Vec_base_types@UConnection@@V?$allocator@UConnection@@@std@@@std@@@std@@QBEABQAUConnection@@XZ PROC ; std::_Vector_alloc<std::_Vec_base_types<Connection,std::allocator<Connection> > >::_Myfirst, COMDAT
; _this$ = ecx

; 614  : 		{	// return const reference to _Myfirst

	push	ebp
	mov	ebp, esp
	push	ecx
	mov	DWORD PTR [ebp-4], -858993460		; ccccccccH
	mov	DWORD PTR _this$[ebp], ecx

; 615  : 		return (_Get_data()._Myfirst);

	mov	ecx, DWORD PTR _this$[ebp]
	call	?_Get_data@?$_Vector_alloc@U?$_Vec_base_types@UConnection@@V?$allocator@UConnection@@@std@@@std@@@std@@QBEABV?$_Vector_val@U?$_Simple_types@UConnection@@@std@@@2@XZ ; std::_Vector_alloc<std::_Vec_base_types<Connection,std::allocator<Connection> > >::_Get_data
	add	eax, 4

; 616  : 		}

	add	esp, 4
	cmp	ebp, esp
	call	__RTC_CheckEsp
	mov	esp, ebp
	pop	ebp
	ret	0
?_Myfirst@?$_Vector_alloc@U?$_Vec_base_types@UConnection@@V?$allocator@UConnection@@@std@@@std@@@std@@QBEABQAUConnection@@XZ ENDP ; std::_Vector_alloc<std::_Vec_base_types<Connection,std::allocator<Connection> > >::_Myfirst
_TEXT	ENDS
; Function compile flags: /Odtp /RTCsu
; File c:\program files (x86)\microsoft visual studio\2017\community\vc\tools\msvc\14.11.25503\include\vector
;	COMDAT ?_Myfirst@?$_Vector_alloc@U?$_Vec_base_types@UConnection@@V?$allocator@UConnection@@@std@@@std@@@std@@QAEAAPAUConnection@@XZ
_TEXT	SEGMENT
_this$ = -4						; size = 4
?_Myfirst@?$_Vector_alloc@U?$_Vec_base_types@UConnection@@V?$allocator@UConnection@@@std@@@std@@@std@@QAEAAPAUConnection@@XZ PROC ; std::_Vector_alloc<std::_Vec_base_types<Connection,std::allocator<Connection> > >::_Myfirst, COMDAT
; _this$ = ecx

; 609  : 		{	// return reference to _Myfirst

	push	ebp
	mov	ebp, esp
	push	ecx
	mov	DWORD PTR [ebp-4], -858993460		; ccccccccH
	mov	DWORD PTR _this$[ebp], ecx

; 610  : 		return (_Get_data()._Myfirst);

	mov	ecx, DWORD PTR _this$[ebp]
	call	?_Get_data@?$_Vector_alloc@U?$_Vec_base_types@UConnection@@V?$allocator@UConnection@@@std@@@std@@@std@@QAEAAV?$_Vector_val@U?$_Simple_types@UConnection@@@std@@@2@XZ ; std::_Vector_alloc<std::_Vec_base_types<Connection,std::allocator<Connection> > >::_Get_data
	add	eax, 4

; 611  : 		}

	add	esp, 4
	cmp	ebp, esp
	call	__RTC_CheckEsp
	mov	esp, ebp
	pop	ebp
	ret	0
?_Myfirst@?$_Vector_alloc@U?$_Vec_base_types@UConnection@@V?$allocator@UConnection@@@std@@@std@@@std@@QAEAAPAUConnection@@XZ ENDP ; std::_Vector_alloc<std::_Vec_base_types<Connection,std::allocator<Connection> > >::_Myfirst
_TEXT	ENDS
; Function compile flags: /Odtp /RTCsu
; File c:\program files (x86)\microsoft visual studio\2017\community\vc\tools\msvc\14.11.25503\include\vector
;	COMDAT ?_Get_data@?$_Vector_alloc@U?$_Vec_base_types@UConnection@@V?$allocator@UConnection@@@std@@@std@@@std@@QBEABV?$_Vector_val@U?$_Simple_types@UConnection@@@std@@@2@XZ
_TEXT	SEGMENT
_this$ = -4						; size = 4
?_Get_data@?$_Vector_alloc@U?$_Vec_base_types@UConnection@@V?$allocator@UConnection@@@std@@@std@@@std@@QBEABV?$_Vector_val@U?$_Simple_types@UConnection@@@std@@@2@XZ PROC ; std::_Vector_alloc<std::_Vec_base_types<Connection,std::allocator<Connection> > >::_Get_data, COMDAT
; _this$ = ecx

; 604  : 		{	// return const reference to _Vector_val

	push	ebp
	mov	ebp, esp
	push	ecx
	mov	DWORD PTR [ebp-4], -858993460		; ccccccccH
	mov	DWORD PTR _this$[ebp], ecx

; 605  : 		return (_Mypair._Get_second());

	mov	ecx, DWORD PTR _this$[ebp]
	call	?_Get_second@?$_Compressed_pair@V?$allocator@UConnection@@@std@@V?$_Vector_val@U?$_Simple_types@UConnection@@@std@@@2@$00@std@@QBEABV?$_Vector_val@U?$_Simple_types@UConnection@@@std@@@2@XZ ; std::_Compressed_pair<std::allocator<Connection>,std::_Vector_val<std::_Simple_types<Connection> >,1>::_Get_second

; 606  : 		}

	add	esp, 4
	cmp	ebp, esp
	call	__RTC_CheckEsp
	mov	esp, ebp
	pop	ebp
	ret	0
?_Get_data@?$_Vector_alloc@U?$_Vec_base_types@UConnection@@V?$allocator@UConnection@@@std@@@std@@@std@@QBEABV?$_Vector_val@U?$_Simple_types@UConnection@@@std@@@2@XZ ENDP ; std::_Vector_alloc<std::_Vec_base_types<Connection,std::allocator<Connection> > >::_Get_data
_TEXT	ENDS
; Function compile flags: /Odtp /RTCsu
; File c:\program files (x86)\microsoft visual studio\2017\community\vc\tools\msvc\14.11.25503\include\vector
;	COMDAT ?_Get_data@?$_Vector_alloc@U?$_Vec_base_types@UConnection@@V?$allocator@UConnection@@@std@@@std@@@std@@QAEAAV?$_Vector_val@U?$_Simple_types@UConnection@@@std@@@2@XZ
_TEXT	SEGMENT
_this$ = -4						; size = 4
?_Get_data@?$_Vector_alloc@U?$_Vec_base_types@UConnection@@V?$allocator@UConnection@@@std@@@std@@@std@@QAEAAV?$_Vector_val@U?$_Simple_types@UConnection@@@std@@@2@XZ PROC ; std::_Vector_alloc<std::_Vec_base_types<Connection,std::allocator<Connection> > >::_Get_data, COMDAT
; _this$ = ecx

; 599  : 		{	// return reference to _Vector_val

	push	ebp
	mov	ebp, esp
	push	ecx
	mov	DWORD PTR [ebp-4], -858993460		; ccccccccH
	mov	DWORD PTR _this$[ebp], ecx

; 600  : 		return (_Mypair._Get_second());

	mov	ecx, DWORD PTR _this$[ebp]
	call	?_Get_second@?$_Compressed_pair@V?$allocator@UConnection@@@std@@V?$_Vector_val@U?$_Simple_types@UConnection@@@std@@@2@$00@std@@QAEAAV?$_Vector_val@U?$_Simple_types@UConnection@@@std@@@2@XZ ; std::_Compressed_pair<std::allocator<Connection>,std::_Vector_val<std::_Simple_types<Connection> >,1>::_Get_second

; 601  : 		}

	add	esp, 4
	cmp	ebp, esp
	call	__RTC_CheckEsp
	mov	esp, ebp
	pop	ebp
	ret	0
?_Get_data@?$_Vector_alloc@U?$_Vec_base_types@UConnection@@V?$allocator@UConnection@@@std@@@std@@@std@@QAEAAV?$_Vector_val@U?$_Simple_types@UConnection@@@std@@@2@XZ ENDP ; std::_Vector_alloc<std::_Vec_base_types<Connection,std::allocator<Connection> > >::_Get_data
_TEXT	ENDS
; Function compile flags: /Odtp /RTCsu
; File c:\program files (x86)\microsoft visual studio\2017\community\vc\tools\msvc\14.11.25503\include\vector
;	COMDAT ?_Getal@?$_Vector_alloc@U?$_Vec_base_types@UConnection@@V?$allocator@UConnection@@@std@@@std@@@std@@QBEABV?$allocator@UConnection@@@2@XZ
_TEXT	SEGMENT
_this$ = -4						; size = 4
?_Getal@?$_Vector_alloc@U?$_Vec_base_types@UConnection@@V?$allocator@UConnection@@@std@@@std@@@std@@QBEABV?$allocator@UConnection@@@2@XZ PROC ; std::_Vector_alloc<std::_Vec_base_types<Connection,std::allocator<Connection> > >::_Getal, COMDAT
; _this$ = ecx

; 594  : 		{	// return const reference to allocator

	push	ebp
	mov	ebp, esp
	push	ecx
	mov	DWORD PTR [ebp-4], -858993460		; ccccccccH
	mov	DWORD PTR _this$[ebp], ecx

; 595  : 		return (_Mypair._Get_first());

	mov	ecx, DWORD PTR _this$[ebp]
	call	?_Get_first@?$_Compressed_pair@V?$allocator@UConnection@@@std@@V?$_Vector_val@U?$_Simple_types@UConnection@@@std@@@2@$00@std@@QBEABV?$allocator@UConnection@@@2@XZ ; std::_Compressed_pair<std::allocator<Connection>,std::_Vector_val<std::_Simple_types<Connection> >,1>::_Get_first

; 596  : 		}

	add	esp, 4
	cmp	ebp, esp
	call	__RTC_CheckEsp
	mov	esp, ebp
	pop	ebp
	ret	0
?_Getal@?$_Vector_alloc@U?$_Vec_base_types@UConnection@@V?$allocator@UConnection@@@std@@@std@@@std@@QBEABV?$allocator@UConnection@@@2@XZ ENDP ; std::_Vector_alloc<std::_Vec_base_types<Connection,std::allocator<Connection> > >::_Getal
_TEXT	ENDS
; Function compile flags: /Odtp /RTCsu
; File c:\program files (x86)\microsoft visual studio\2017\community\vc\tools\msvc\14.11.25503\include\vector
;	COMDAT ?_Getal@?$_Vector_alloc@U?$_Vec_base_types@UConnection@@V?$allocator@UConnection@@@std@@@std@@@std@@QAEAAV?$allocator@UConnection@@@2@XZ
_TEXT	SEGMENT
_this$ = -4						; size = 4
?_Getal@?$_Vector_alloc@U?$_Vec_base_types@UConnection@@V?$allocator@UConnection@@@std@@@std@@@std@@QAEAAV?$allocator@UConnection@@@2@XZ PROC ; std::_Vector_alloc<std::_Vec_base_types<Connection,std::allocator<Connection> > >::_Getal, COMDAT
; _this$ = ecx

; 589  : 		{	// return reference to allocator

	push	ebp
	mov	ebp, esp
	push	ecx
	mov	DWORD PTR [ebp-4], -858993460		; ccccccccH
	mov	DWORD PTR _this$[ebp], ecx

; 590  : 		return (_Mypair._Get_first());

	mov	ecx, DWORD PTR _this$[ebp]
	call	?_Get_first@?$_Compressed_pair@V?$allocator@UConnection@@@std@@V?$_Vector_val@U?$_Simple_types@UConnection@@@std@@@2@$00@std@@QAEAAV?$allocator@UConnection@@@2@XZ ; std::_Compressed_pair<std::allocator<Connection>,std::_Vector_val<std::_Simple_types<Connection> >,1>::_Get_first

; 591  : 		}

	add	esp, 4
	cmp	ebp, esp
	call	__RTC_CheckEsp
	mov	esp, ebp
	pop	ebp
	ret	0
?_Getal@?$_Vector_alloc@U?$_Vec_base_types@UConnection@@V?$allocator@UConnection@@@std@@@std@@@std@@QAEAAV?$allocator@UConnection@@@2@XZ ENDP ; std::_Vector_alloc<std::_Vec_base_types<Connection,std::allocator<Connection> > >::_Getal
_TEXT	ENDS
; Function compile flags: /Odtp /RTCsu
; File c:\program files (x86)\microsoft visual studio\2017\community\vc\tools\msvc\14.11.25503\include\vector
;	COMDAT ?_Orphan_all@?$_Vector_alloc@U?$_Vec_base_types@UConnection@@V?$allocator@UConnection@@@std@@@std@@@std@@QAEXXZ
_TEXT	SEGMENT
_this$ = -4						; size = 4
?_Orphan_all@?$_Vector_alloc@U?$_Vec_base_types@UConnection@@V?$allocator@UConnection@@@std@@@std@@@std@@QAEXXZ PROC ; std::_Vector_alloc<std::_Vec_base_types<Connection,std::allocator<Connection> > >::_Orphan_all, COMDAT
; _this$ = ecx

; 579  : 		{	// orphan all iterators

	push	ebp
	mov	ebp, esp
	push	ecx
	mov	DWORD PTR [ebp-4], -858993460		; ccccccccH
	mov	DWORD PTR _this$[ebp], ecx

; 580  : 		_Get_data()._Orphan_all();

	mov	ecx, DWORD PTR _this$[ebp]
	call	?_Get_data@?$_Vector_alloc@U?$_Vec_base_types@UConnection@@V?$allocator@UConnection@@@std@@@std@@@std@@QAEAAV?$_Vector_val@U?$_Simple_types@UConnection@@@std@@@2@XZ ; std::_Vector_alloc<std::_Vec_base_types<Connection,std::allocator<Connection> > >::_Get_data
	mov	ecx, eax
	call	?_Orphan_all@_Container_base12@std@@QAEXXZ ; std::_Container_base12::_Orphan_all

; 581  : 		}

	add	esp, 4
	cmp	ebp, esp
	call	__RTC_CheckEsp
	mov	esp, ebp
	pop	ebp
	ret	0
?_Orphan_all@?$_Vector_alloc@U?$_Vec_base_types@UConnection@@V?$allocator@UConnection@@@std@@@std@@@std@@QAEXXZ ENDP ; std::_Vector_alloc<std::_Vec_base_types<Connection,std::allocator<Connection> > >::_Orphan_all
_TEXT	ENDS
; Function compile flags: /Odtp /RTCsu
; File c:\program files (x86)\microsoft visual studio\2017\community\vc\tools\msvc\14.11.25503\include\vector
;	COMDAT ?_Myproxy@?$_Vector_alloc@U?$_Vec_base_types@UConnection@@V?$allocator@UConnection@@@std@@@std@@@std@@QAEAAPAU_Container_proxy@2@XZ
_TEXT	SEGMENT
_this$ = -4						; size = 4
?_Myproxy@?$_Vector_alloc@U?$_Vec_base_types@UConnection@@V?$allocator@UConnection@@@std@@@std@@@std@@QAEAAPAU_Container_proxy@2@XZ PROC ; std::_Vector_alloc<std::_Vec_base_types<Connection,std::allocator<Connection> > >::_Myproxy, COMDAT
; _this$ = ecx

; 568  : 		{	// return reference to _Myproxy

	push	ebp
	mov	ebp, esp
	push	ecx
	mov	DWORD PTR [ebp-4], -858993460		; ccccccccH
	mov	DWORD PTR _this$[ebp], ecx

; 569  : 		return (_Get_data()._Myproxy);

	mov	ecx, DWORD PTR _this$[ebp]
	call	?_Get_data@?$_Vector_alloc@U?$_Vec_base_types@UConnection@@V?$allocator@UConnection@@@std@@@std@@@std@@QAEAAV?$_Vector_val@U?$_Simple_types@UConnection@@@std@@@2@XZ ; std::_Vector_alloc<std::_Vec_base_types<Connection,std::allocator<Connection> > >::_Get_data

; 570  : 		}

	add	esp, 4
	cmp	ebp, esp
	call	__RTC_CheckEsp
	mov	esp, ebp
	pop	ebp
	ret	0
?_Myproxy@?$_Vector_alloc@U?$_Vec_base_types@UConnection@@V?$allocator@UConnection@@@std@@@std@@@std@@QAEAAPAU_Container_proxy@2@XZ ENDP ; std::_Vector_alloc<std::_Vec_base_types<Connection,std::allocator<Connection> > >::_Myproxy
_TEXT	ENDS
; Function compile flags: /Odtp /RTCsu
; File c:\program files (x86)\microsoft visual studio\2017\community\vc\tools\msvc\14.11.25503\include\vector
;	COMDAT ?_Free_proxy@?$_Vector_alloc@U?$_Vec_base_types@UConnection@@V?$allocator@UConnection@@@std@@@std@@@std@@QAEXXZ
_TEXT	SEGMENT
__Proxy_allocator$ = -9					; size = 1
_this$ = -4						; size = 4
?_Free_proxy@?$_Vector_alloc@U?$_Vec_base_types@UConnection@@V?$allocator@UConnection@@@std@@@std@@@std@@QAEXXZ PROC ; std::_Vector_alloc<std::_Vec_base_types<Connection,std::allocator<Connection> > >::_Free_proxy, COMDAT
; _this$ = ecx

; 554  : 		{	// destroy proxy

	push	ebp
	mov	ebp, esp
	sub	esp, 16					; 00000010H
	mov	eax, -858993460				; ccccccccH
	mov	DWORD PTR [ebp-16], eax
	mov	DWORD PTR [ebp-12], eax
	mov	DWORD PTR [ebp-8], eax
	mov	DWORD PTR [ebp-4], eax
	mov	DWORD PTR _this$[ebp], ecx

; 555  : 		_Alproxy _Proxy_allocator(_Getal());

	mov	ecx, DWORD PTR _this$[ebp]
	call	?_Getal@?$_Vector_alloc@U?$_Vec_base_types@UConnection@@V?$allocator@UConnection@@@std@@@std@@@std@@QAEAAV?$allocator@UConnection@@@2@XZ ; std::_Vector_alloc<std::_Vec_base_types<Connection,std::allocator<Connection> > >::_Getal
	push	eax
	lea	ecx, DWORD PTR __Proxy_allocator$[ebp]
	call	??$?0UConnection@@@?$allocator@U_Container_proxy@std@@@std@@QAE@ABV?$allocator@UConnection@@@1@@Z ; std::allocator<std::_Container_proxy>::allocator<std::_Container_proxy><Connection>

; 556  : 		_Orphan_all();

	mov	ecx, DWORD PTR _this$[ebp]
	call	?_Orphan_all@?$_Vector_alloc@U?$_Vec_base_types@UConnection@@V?$allocator@UConnection@@@std@@@std@@@std@@QAEXXZ ; std::_Vector_alloc<std::_Vec_base_types<Connection,std::allocator<Connection> > >::_Orphan_all

; 557  : 		_Alproxy_traits::destroy(_Proxy_allocator, _Myproxy());

	mov	ecx, DWORD PTR _this$[ebp]
	call	?_Myproxy@?$_Vector_alloc@U?$_Vec_base_types@UConnection@@V?$allocator@UConnection@@@std@@@std@@@std@@QAEAAPAU_Container_proxy@2@XZ ; std::_Vector_alloc<std::_Vec_base_types<Connection,std::allocator<Connection> > >::_Myproxy
	mov	eax, DWORD PTR [eax]
	push	eax
	lea	ecx, DWORD PTR __Proxy_allocator$[ebp]
	push	ecx
	call	??$destroy@U_Container_proxy@std@@@?$_Default_allocator_traits@V?$allocator@U_Container_proxy@std@@@std@@@std@@SAXAAV?$allocator@U_Container_proxy@std@@@1@QAU_Container_proxy@1@@Z ; std::_Default_allocator_traits<std::allocator<std::_Container_proxy> >::destroy<std::_Container_proxy>
	add	esp, 8

; 558  : 		_Deallocate_plain(_Proxy_allocator, _Myproxy());

	mov	ecx, DWORD PTR _this$[ebp]
	call	?_Myproxy@?$_Vector_alloc@U?$_Vec_base_types@UConnection@@V?$allocator@UConnection@@@std@@@std@@@std@@QAEAAPAU_Container_proxy@2@XZ ; std::_Vector_alloc<std::_Vec_base_types<Connection,std::allocator<Connection> > >::_Myproxy
	mov	edx, DWORD PTR [eax]
	push	edx
	lea	eax, DWORD PTR __Proxy_allocator$[ebp]
	push	eax
	call	??$_Deallocate_plain@V?$allocator@U_Container_proxy@std@@@std@@$0A@@std@@YAXAAV?$allocator@U_Container_proxy@std@@@0@QAU_Container_proxy@0@@Z ; std::_Deallocate_plain<std::allocator<std::_Container_proxy>,0>
	add	esp, 8

; 559  : 		_Myproxy() = 0;

	mov	ecx, DWORD PTR _this$[ebp]
	call	?_Myproxy@?$_Vector_alloc@U?$_Vec_base_types@UConnection@@V?$allocator@UConnection@@@std@@@std@@@std@@QAEAAPAU_Container_proxy@2@XZ ; std::_Vector_alloc<std::_Vec_base_types<Connection,std::allocator<Connection> > >::_Myproxy
	mov	DWORD PTR [eax], 0

; 560  : 		}

	push	edx
	mov	ecx, ebp
	push	eax
	lea	edx, DWORD PTR $LN5@Free_proxy
	call	@_RTC_CheckStackVars@8
	pop	eax
	pop	edx
	add	esp, 16					; 00000010H
	cmp	ebp, esp
	call	__RTC_CheckEsp
	mov	esp, ebp
	pop	ebp
	ret	0
	npad	2
$LN5@Free_proxy:
	DD	1
	DD	$LN4@Free_proxy
$LN4@Free_proxy:
	DD	-9					; fffffff7H
	DD	1
	DD	$LN3@Free_proxy
$LN3@Free_proxy:
	DB	95					; 0000005fH
	DB	80					; 00000050H
	DB	114					; 00000072H
	DB	111					; 0000006fH
	DB	120					; 00000078H
	DB	121					; 00000079H
	DB	95					; 0000005fH
	DB	97					; 00000061H
	DB	108					; 0000006cH
	DB	108					; 0000006cH
	DB	111					; 0000006fH
	DB	99					; 00000063H
	DB	97					; 00000061H
	DB	116					; 00000074H
	DB	111					; 0000006fH
	DB	114					; 00000072H
	DB	0
?_Free_proxy@?$_Vector_alloc@U?$_Vec_base_types@UConnection@@V?$allocator@UConnection@@@std@@@std@@@std@@QAEXXZ ENDP ; std::_Vector_alloc<std::_Vec_base_types<Connection,std::allocator<Connection> > >::_Free_proxy
_TEXT	ENDS
; Function compile flags: /Odtp /RTCsu
; File c:\program files (x86)\microsoft visual studio\2017\community\vc\tools\msvc\14.11.25503\include\vector
;	COMDAT ?_Alloc_proxy@?$_Vector_alloc@U?$_Vec_base_types@UConnection@@V?$allocator@UConnection@@@std@@@std@@@std@@QAEXXZ
_TEXT	SEGMENT
$T1 = -24						; size = 8
__Proxy_allocator$ = -9					; size = 1
_this$ = -4						; size = 4
?_Alloc_proxy@?$_Vector_alloc@U?$_Vec_base_types@UConnection@@V?$allocator@UConnection@@@std@@@std@@@std@@QAEXXZ PROC ; std::_Vector_alloc<std::_Vec_base_types<Connection,std::allocator<Connection> > >::_Alloc_proxy, COMDAT
; _this$ = ecx

; 546  : 		{	// construct proxy

	push	ebp
	mov	ebp, esp
	sub	esp, 24					; 00000018H
	push	esi
	mov	eax, -858993460				; ccccccccH
	mov	DWORD PTR [ebp-24], eax
	mov	DWORD PTR [ebp-20], eax
	mov	DWORD PTR [ebp-16], eax
	mov	DWORD PTR [ebp-12], eax
	mov	DWORD PTR [ebp-8], eax
	mov	DWORD PTR [ebp-4], eax
	mov	DWORD PTR _this$[ebp], ecx

; 547  : 		_Alproxy _Proxy_allocator(_Getal());

	mov	ecx, DWORD PTR _this$[ebp]
	call	?_Getal@?$_Vector_alloc@U?$_Vec_base_types@UConnection@@V?$allocator@UConnection@@@std@@@std@@@std@@QAEAAV?$allocator@UConnection@@@2@XZ ; std::_Vector_alloc<std::_Vec_base_types<Connection,std::allocator<Connection> > >::_Getal
	push	eax
	lea	ecx, DWORD PTR __Proxy_allocator$[ebp]
	call	??$?0UConnection@@@?$allocator@U_Container_proxy@std@@@std@@QAE@ABV?$allocator@UConnection@@@1@@Z ; std::allocator<std::_Container_proxy>::allocator<std::_Container_proxy><Connection>

; 548  : 		_Myproxy() = _Unfancy(_Proxy_allocator.allocate(1));

	push	1
	lea	ecx, DWORD PTR __Proxy_allocator$[ebp]
	call	?allocate@?$allocator@U_Container_proxy@std@@@std@@QAEPAU_Container_proxy@2@I@Z ; std::allocator<std::_Container_proxy>::allocate
	push	eax
	call	??$_Unfancy@U_Container_proxy@std@@@std@@YAPAU_Container_proxy@0@PAU10@@Z ; std::_Unfancy<std::_Container_proxy>
	add	esp, 4
	mov	esi, eax
	mov	ecx, DWORD PTR _this$[ebp]
	call	?_Myproxy@?$_Vector_alloc@U?$_Vec_base_types@UConnection@@V?$allocator@UConnection@@@std@@@std@@@std@@QAEAAPAU_Container_proxy@2@XZ ; std::_Vector_alloc<std::_Vec_base_types<Connection,std::allocator<Connection> > >::_Myproxy
	mov	DWORD PTR [eax], esi

; 549  : 		_Alproxy_traits::construct(_Proxy_allocator, _Myproxy(), _Container_proxy());

	lea	ecx, DWORD PTR $T1[ebp]
	call	??0_Container_proxy@std@@QAE@XZ		; std::_Container_proxy::_Container_proxy
	push	eax
	mov	ecx, DWORD PTR _this$[ebp]
	call	?_Myproxy@?$_Vector_alloc@U?$_Vec_base_types@UConnection@@V?$allocator@UConnection@@@std@@@std@@@std@@QAEAAPAU_Container_proxy@2@XZ ; std::_Vector_alloc<std::_Vec_base_types<Connection,std::allocator<Connection> > >::_Myproxy
	mov	eax, DWORD PTR [eax]
	push	eax
	lea	ecx, DWORD PTR __Proxy_allocator$[ebp]
	push	ecx
	call	??$construct@U_Container_proxy@std@@U12@@?$_Default_allocator_traits@V?$allocator@U_Container_proxy@std@@@std@@@std@@SAXAAV?$allocator@U_Container_proxy@std@@@1@QAU_Container_proxy@1@$$QAU31@@Z ; std::_Default_allocator_traits<std::allocator<std::_Container_proxy> >::construct<std::_Container_proxy,std::_Container_proxy>
	add	esp, 12					; 0000000cH

; 550  : 		_Myproxy()->_Mycont = _STD addressof(_Get_data());

	mov	ecx, DWORD PTR _this$[ebp]
	call	?_Get_data@?$_Vector_alloc@U?$_Vec_base_types@UConnection@@V?$allocator@UConnection@@@std@@@std@@@std@@QAEAAV?$_Vector_val@U?$_Simple_types@UConnection@@@std@@@2@XZ ; std::_Vector_alloc<std::_Vec_base_types<Connection,std::allocator<Connection> > >::_Get_data
	push	eax
	call	??$addressof@V?$_Vector_val@U?$_Simple_types@UConnection@@@std@@@std@@@std@@YAPAV?$_Vector_val@U?$_Simple_types@UConnection@@@std@@@0@AAV10@@Z ; std::addressof<std::_Vector_val<std::_Simple_types<Connection> > >
	add	esp, 4
	mov	esi, eax
	mov	ecx, DWORD PTR _this$[ebp]
	call	?_Myproxy@?$_Vector_alloc@U?$_Vec_base_types@UConnection@@V?$allocator@UConnection@@@std@@@std@@@std@@QAEAAPAU_Container_proxy@2@XZ ; std::_Vector_alloc<std::_Vec_base_types<Connection,std::allocator<Connection> > >::_Myproxy
	mov	edx, DWORD PTR [eax]
	mov	DWORD PTR [edx], esi

; 551  : 		}

	push	edx
	mov	ecx, ebp
	push	eax
	lea	edx, DWORD PTR $LN5@Alloc_prox
	call	@_RTC_CheckStackVars@8
	pop	eax
	pop	edx
	pop	esi
	add	esp, 24					; 00000018H
	cmp	ebp, esp
	call	__RTC_CheckEsp
	mov	esp, ebp
	pop	ebp
	ret	0
$LN5@Alloc_prox:
	DD	1
	DD	$LN4@Alloc_prox
$LN4@Alloc_prox:
	DD	-9					; fffffff7H
	DD	1
	DD	$LN3@Alloc_prox
$LN3@Alloc_prox:
	DB	95					; 0000005fH
	DB	80					; 00000050H
	DB	114					; 00000072H
	DB	111					; 0000006fH
	DB	120					; 00000078H
	DB	121					; 00000079H
	DB	95					; 0000005fH
	DB	97					; 00000061H
	DB	108					; 0000006cH
	DB	108					; 0000006cH
	DB	111					; 0000006fH
	DB	99					; 00000063H
	DB	97					; 00000061H
	DB	116					; 00000074H
	DB	111					; 0000006fH
	DB	114					; 00000072H
	DB	0
?_Alloc_proxy@?$_Vector_alloc@U?$_Vec_base_types@UConnection@@V?$allocator@UConnection@@@std@@@std@@@std@@QAEXXZ ENDP ; std::_Vector_alloc<std::_Vec_base_types<Connection,std::allocator<Connection> > >::_Alloc_proxy
_TEXT	ENDS
; Function compile flags: /Odtp /RTCsu
; File c:\program files (x86)\microsoft visual studio\2017\community\vc\tools\msvc\14.11.25503\include\vector
;	COMDAT ??1?$_Vector_alloc@U?$_Vec_base_types@UConnection@@V?$allocator@UConnection@@@std@@@std@@@std@@QAE@XZ
_TEXT	SEGMENT
_this$ = -16						; size = 4
__$EHRec$ = -12						; size = 12
??1?$_Vector_alloc@U?$_Vec_base_types@UConnection@@V?$allocator@UConnection@@@std@@@std@@@std@@QAE@XZ PROC ; std::_Vector_alloc<std::_Vec_base_types<Connection,std::allocator<Connection> > >::~_Vector_alloc<std::_Vec_base_types<Connection,std::allocator<Connection> > >, COMDAT
; _this$ = ecx

; 505  : 		{	// destroy proxy

	push	ebp
	mov	ebp, esp
	push	-1
	push	__ehhandler$??1?$_Vector_alloc@U?$_Vec_base_types@UConnection@@V?$allocator@UConnection@@@std@@@std@@@std@@QAE@XZ
	mov	eax, DWORD PTR fs:0
	push	eax
	push	ecx
	mov	DWORD PTR [ebp-16], -858993460		; ccccccccH
	mov	eax, DWORD PTR ___security_cookie
	xor	eax, ebp
	push	eax
	lea	eax, DWORD PTR __$EHRec$[ebp]
	mov	DWORD PTR fs:0, eax
	mov	DWORD PTR _this$[ebp], ecx

; 506  : 		_Free_proxy();

	mov	ecx, DWORD PTR _this$[ebp]
	call	?_Free_proxy@?$_Vector_alloc@U?$_Vec_base_types@UConnection@@V?$allocator@UConnection@@@std@@@std@@@std@@QAEXXZ ; std::_Vector_alloc<std::_Vec_base_types<Connection,std::allocator<Connection> > >::_Free_proxy

; 507  : 		}

	mov	ecx, DWORD PTR _this$[ebp]
	call	??1?$_Compressed_pair@V?$allocator@UConnection@@@std@@V?$_Vector_val@U?$_Simple_types@UConnection@@@std@@@2@$00@std@@QAE@XZ
	mov	ecx, DWORD PTR __$EHRec$[ebp]
	mov	DWORD PTR fs:0, ecx
	pop	ecx
	add	esp, 16					; 00000010H
	cmp	ebp, esp
	call	__RTC_CheckEsp
	mov	esp, ebp
	pop	ebp
	ret	0
_TEXT	ENDS
;	COMDAT text$x
text$x	SEGMENT
__ehhandler$??1?$_Vector_alloc@U?$_Vec_base_types@UConnection@@V?$allocator@UConnection@@@std@@@std@@@std@@QAE@XZ:
	mov	edx, DWORD PTR [esp+8]
	lea	eax, DWORD PTR [edx+12]
	mov	ecx, DWORD PTR [edx-8]
	xor	ecx, eax
	call	@__security_check_cookie@4
	mov	eax, OFFSET __ehfuncinfo$??1?$_Vector_alloc@U?$_Vec_base_types@UConnection@@V?$allocator@UConnection@@@std@@@std@@@std@@QAE@XZ
	jmp	___CxxFrameHandler3
text$x	ENDS
??1?$_Vector_alloc@U?$_Vec_base_types@UConnection@@V?$allocator@UConnection@@@std@@@std@@@std@@QAE@XZ ENDP ; std::_Vector_alloc<std::_Vec_base_types<Connection,std::allocator<Connection> > >::~_Vector_alloc<std::_Vec_base_types<Connection,std::allocator<Connection> > >
; Function compile flags: /Odtp /RTCsu
; File c:\program files (x86)\microsoft visual studio\2017\community\vc\tools\msvc\14.11.25503\include\xmemory0
;	COMDAT ?select_on_container_copy_construction@?$_Default_allocator_traits@V?$allocator@UConnection@@@std@@@std@@SA?AV?$allocator@UConnection@@@2@ABV32@@Z
_TEXT	SEGMENT
___$ReturnUdt$ = 8					; size = 4
__Al$ = 12						; size = 4
?select_on_container_copy_construction@?$_Default_allocator_traits@V?$allocator@UConnection@@@std@@@std@@SA?AV?$allocator@UConnection@@@2@ABV32@@Z PROC ; std::_Default_allocator_traits<std::allocator<Connection> >::select_on_container_copy_construction, COMDAT

; 871  : 		{	// get allocator to use

	push	ebp
	mov	ebp, esp

; 872  : 		return (_Al);

	mov	eax, DWORD PTR ___$ReturnUdt$[ebp]

; 873  : 		}

	pop	ebp
	ret	0
?select_on_container_copy_construction@?$_Default_allocator_traits@V?$allocator@UConnection@@@std@@@std@@SA?AV?$allocator@UConnection@@@2@ABV32@@Z ENDP ; std::_Default_allocator_traits<std::allocator<Connection> >::select_on_container_copy_construction
_TEXT	ENDS
; Function compile flags: /Odtp /RTCsu
; File c:\program files (x86)\microsoft visual studio\2017\community\vc\tools\msvc\14.11.25503\include\xmemory0
;	COMDAT ?max_size@?$_Default_allocator_traits@V?$allocator@UConnection@@@std@@@std@@SAIABV?$allocator@UConnection@@@2@@Z
_TEXT	SEGMENT
___formal$ = 8						; size = 4
?max_size@?$_Default_allocator_traits@V?$allocator@UConnection@@@std@@@std@@SAIABV?$allocator@UConnection@@@2@@Z PROC ; std::_Default_allocator_traits<std::allocator<Connection> >::max_size, COMDAT

; 866  : 		{	// get maximum size

	push	ebp
	mov	ebp, esp

; 867  : 		return (static_cast<size_t>(-1) / sizeof(value_type));

	mov	eax, 268435455				; 0fffffffH

; 868  : 		}

	pop	ebp
	ret	0
?max_size@?$_Default_allocator_traits@V?$allocator@UConnection@@@std@@@std@@SAIABV?$allocator@UConnection@@@2@@Z ENDP ; std::_Default_allocator_traits<std::allocator<Connection> >::max_size
_TEXT	ENDS
; Function compile flags: /Odtp /RTCsu
; File c:\program files (x86)\microsoft visual studio\2017\community\vc\tools\msvc\14.11.25503\include\xmemory0
;	COMDAT ?allocate@?$allocator@UConnection@@@std@@QAEPAUConnection@@I@Z
_TEXT	SEGMENT
_this$ = -4						; size = 4
__Count$ = 8						; size = 4
?allocate@?$allocator@UConnection@@@std@@QAEPAUConnection@@I@Z PROC ; std::allocator<Connection>::allocate, COMDAT
; _this$ = ecx

; 945  : 		{	// allocate array of _Count elements

	push	ebp
	mov	ebp, esp
	push	ecx
	mov	DWORD PTR [ebp-4], -858993460		; ccccccccH
	mov	DWORD PTR _this$[ebp], ecx

; 946  : 		return (static_cast<pointer>(_Allocate(_Count, sizeof(_Ty))));

	push	1
	push	16					; 00000010H
	mov	eax, DWORD PTR __Count$[ebp]
	push	eax
	call	?_Allocate@std@@YAPAXII_N@Z		; std::_Allocate
	add	esp, 12					; 0000000cH

; 947  : 		}

	add	esp, 4
	cmp	ebp, esp
	call	__RTC_CheckEsp
	mov	esp, ebp
	pop	ebp
	ret	4
?allocate@?$allocator@UConnection@@@std@@QAEPAUConnection@@I@Z ENDP ; std::allocator<Connection>::allocate
_TEXT	ENDS
; Function compile flags: /Odtp /RTCsu
; File c:\program files (x86)\microsoft visual studio\2017\community\vc\tools\msvc\14.11.25503\include\xmemory0
;	COMDAT ?deallocate@?$allocator@UConnection@@@std@@QAEXQAUConnection@@I@Z
_TEXT	SEGMENT
_this$ = -4						; size = 4
__Ptr$ = 8						; size = 4
__Count$ = 12						; size = 4
?deallocate@?$allocator@UConnection@@@std@@QAEXQAUConnection@@I@Z PROC ; std::allocator<Connection>::deallocate, COMDAT
; _this$ = ecx

; 940  : 		{	// deallocate object at _Ptr

	push	ebp
	mov	ebp, esp
	push	ecx
	mov	DWORD PTR [ebp-4], -858993460		; ccccccccH
	mov	DWORD PTR _this$[ebp], ecx

; 941  : 		_Deallocate(_Ptr, _Count, sizeof(_Ty));

	push	16					; 00000010H
	mov	eax, DWORD PTR __Count$[ebp]
	push	eax
	mov	ecx, DWORD PTR __Ptr$[ebp]
	push	ecx
	call	?_Deallocate@std@@YAXPAXII@Z		; std::_Deallocate
	add	esp, 12					; 0000000cH

; 942  : 		}

	add	esp, 4
	cmp	ebp, esp
	call	__RTC_CheckEsp
	mov	esp, ebp
	pop	ebp
	ret	8
?deallocate@?$allocator@UConnection@@@std@@QAEXQAUConnection@@I@Z ENDP ; std::allocator<Connection>::deallocate
_TEXT	ENDS
; Function compile flags: /Odtp /RTCsu
; File c:\users\florian\desktop\iafinal\projetiafinal\projet\neuron.h
;	COMDAT ?GetOutputVal@Neuron@@QBENXZ
_TEXT	SEGMENT
_this$ = -4						; size = 4
?GetOutputVal@Neuron@@QBENXZ PROC			; Neuron::GetOutputVal, COMDAT
; _this$ = ecx

; 22   : 	double GetOutputVal() const { return m_outputVal; }

	push	ebp
	mov	ebp, esp
	push	ecx
	mov	DWORD PTR [ebp-4], -858993460		; ccccccccH
	mov	DWORD PTR _this$[ebp], ecx
	mov	eax, DWORD PTR _this$[ebp]
	fld	QWORD PTR [eax]
	mov	esp, ebp
	pop	ebp
	ret	0
?GetOutputVal@Neuron@@QBENXZ ENDP			; Neuron::GetOutputVal
_TEXT	ENDS
; Function compile flags: /Odtp /RTCsu
; File c:\users\florian\desktop\iafinal\projetiafinal\projet\neuron.h
;	COMDAT ?SetOutputVal@Neuron@@QAEXN@Z
_TEXT	SEGMENT
_this$ = -4						; size = 4
_val$ = 8						; size = 8
?SetOutputVal@Neuron@@QAEXN@Z PROC			; Neuron::SetOutputVal, COMDAT
; _this$ = ecx

; 21   : 	void SetOutputVal(double val) { m_outputVal = val; }

	push	ebp
	mov	ebp, esp
	push	ecx
	mov	DWORD PTR [ebp-4], -858993460		; ccccccccH
	mov	DWORD PTR _this$[ebp], ecx
	mov	eax, DWORD PTR _this$[ebp]
	movsd	xmm0, QWORD PTR _val$[ebp]
	movsd	QWORD PTR [eax], xmm0
	mov	esp, ebp
	pop	ebp
	ret	8
?SetOutputVal@Neuron@@QAEXN@Z ENDP			; Neuron::SetOutputVal
_TEXT	ENDS
; Function compile flags: /Odtp /RTCsu
; File c:\program files (x86)\microsoft visual studio\2017\community\vc\tools\msvc\14.11.25503\include\xmemory0
;	COMDAT ?_Deallocate@std@@YAXPAXII@Z
_TEXT	SEGMENT
__Ptr_container$1 = -12					; size = 4
__Ptr_ptr$2 = -8					; size = 4
__Ptr_user$3 = -4					; size = 4
__Ptr$ = 8						; size = 4
__Count$ = 12						; size = 4
__Sz$ = 16						; size = 4
?_Deallocate@std@@YAXPAXII@Z PROC			; std::_Deallocate, COMDAT

; 101  : 	{	// deallocate storage for _Count elements of size _Sz

	push	ebp
	mov	ebp, esp
	sub	esp, 12					; 0000000cH
	mov	DWORD PTR [ebp-12], -858993460		; ccccccccH
	mov	DWORD PTR [ebp-8], -858993460		; ccccccccH
	mov	DWORD PTR [ebp-4], -858993460		; ccccccccH

; 102  : 	if (_Count > static_cast<size_t>(-1) / _Sz)

	or	eax, -1
	xor	edx, edx
	div	DWORD PTR __Sz$[ebp]
	cmp	DWORD PTR __Count$[ebp], eax
	jbe	SHORT $LN2@Deallocate

; 103  : 		{
; 104  : 		goto _Invalid_parameter; // TRANSITION, VSO#359498

	jmp	$_Invalid_parameter$16
	jmp	$_Invalid_parameter$16
$LN2@Deallocate:

; 105  : 		}
; 106  : 
; 107  : 	if (_BIG_ALLOCATION_THRESHOLD <= _Count * _Sz)

	mov	eax, DWORD PTR __Count$[ebp]
	imul	eax, DWORD PTR __Sz$[ebp]
	cmp	eax, 4096				; 00001000H
	jb	SHORT $LN4@Deallocate

; 108  : 		{	// deallocate large block
; 109  : 		const uintptr_t _Ptr_user = reinterpret_cast<uintptr_t>(_Ptr);

	mov	ecx, DWORD PTR __Ptr$[ebp]
	mov	DWORD PTR __Ptr_user$3[ebp], ecx

; 110  : 		if ((_Ptr_user & (_BIG_ALLOCATION_ALIGNMENT - 1)) != 0)

	mov	edx, DWORD PTR __Ptr_user$3[ebp]
	and	edx, 31					; 0000001fH
	je	SHORT $LN5@Deallocate

; 111  : 			{
; 112  : 			goto _Invalid_parameter;

	jmp	SHORT $_Invalid_parameter$16
	jmp	SHORT $_Invalid_parameter$16
$LN5@Deallocate:

; 113  : 			}
; 114  : 
; 115  : 		const uintptr_t _Ptr_ptr = _Ptr_user - sizeof(void *);

	mov	eax, DWORD PTR __Ptr_user$3[ebp]
	sub	eax, 4
	mov	DWORD PTR __Ptr_ptr$2[ebp], eax

; 116  : 		const uintptr_t _Ptr_container =
; 117  : 			*reinterpret_cast<uintptr_t *>(_Ptr_ptr);

	mov	ecx, DWORD PTR __Ptr_ptr$2[ebp]
	mov	edx, DWORD PTR [ecx]
	mov	DWORD PTR __Ptr_container$1[ebp], edx

; 118  : 
; 119  :  #ifdef _DEBUG
; 120  : 		// If the following asserts, it likely means that we are performing
; 121  : 		// an aligned delete on memory coming from an unaligned allocation.
; 122  : 		if (reinterpret_cast<uintptr_t *>(_Ptr_ptr)[-1] != _BIG_ALLOCATION_SENTINEL)

	mov	eax, 4
	imul	ecx, eax, -1
	mov	edx, DWORD PTR __Ptr_ptr$2[ebp]
	cmp	DWORD PTR [edx+ecx], -84215046		; fafafafaH
	je	SHORT $LN7@Deallocate

; 123  : 			{
; 124  : 			goto _Invalid_parameter;

	jmp	SHORT $_Invalid_parameter$16
	jmp	SHORT $_Invalid_parameter$16
$LN7@Deallocate:

; 125  : 			}
; 126  :  #endif /* _DEBUG */
; 127  : 
; 128  : 		// Extra paranoia on aligned allocation/deallocation
; 129  : 		if (_Ptr_container >= _Ptr_user)

	mov	eax, DWORD PTR __Ptr_container$1[ebp]
	cmp	eax, DWORD PTR __Ptr_user$3[ebp]
	jb	SHORT $LN9@Deallocate

; 130  : 			{
; 131  : 			goto _Invalid_parameter;

	jmp	SHORT $_Invalid_parameter$16
	jmp	SHORT $_Invalid_parameter$16
$LN9@Deallocate:

; 132  : 			}
; 133  : 
; 134  :  #ifdef _DEBUG
; 135  : 		if (2 * sizeof(void *) > _Ptr_user - _Ptr_container)

	mov	ecx, DWORD PTR __Ptr_user$3[ebp]
	sub	ecx, DWORD PTR __Ptr_container$1[ebp]
	cmp	ecx, 8
	jae	SHORT $LN11@Deallocate

; 136  :  #else /* _DEBUG */
; 137  : 		if (sizeof(void *) > _Ptr_user - _Ptr_container)
; 138  :  #endif /* _DEBUG */
; 139  : 			{
; 140  : 			goto _Invalid_parameter;

	jmp	SHORT $_Invalid_parameter$16
	jmp	SHORT $_Invalid_parameter$16
$LN11@Deallocate:

; 141  : 			}
; 142  : 
; 143  : 		if (_Ptr_user - _Ptr_container > _NON_USER_SIZE)

	mov	edx, DWORD PTR __Ptr_user$3[ebp]
	sub	edx, DWORD PTR __Ptr_container$1[ebp]
	cmp	edx, 39					; 00000027H
	jbe	SHORT $LN13@Deallocate

; 144  : 			{
; 145  : 			goto _Invalid_parameter;

	jmp	SHORT $_Invalid_parameter$16
	jmp	SHORT $_Invalid_parameter$16
$LN13@Deallocate:

; 146  : 			}
; 147  : 
; 148  : 		_Ptr = reinterpret_cast<void *>(_Ptr_container);

	mov	eax, DWORD PTR __Ptr_container$1[ebp]
	mov	DWORD PTR __Ptr$[ebp], eax
$LN4@Deallocate:

; 149  : 		}
; 150  : 
; 151  : 	::operator delete(_Ptr);

	mov	ecx, DWORD PTR __Ptr$[ebp]
	push	ecx
	call	??3@YAXPAX@Z				; operator delete
	add	esp, 4

; 152  : 	return;

	jmp	SHORT $LN1@Deallocate
$_Invalid_parameter$16:

; 153  : 
; 154  : _Invalid_parameter:
; 155  : 	_SCL_SECURE_INVALID_ARGUMENT_NO_ASSERT;

	push	0
	push	155					; 0000009bH
	push	OFFSET ??_C@_1NC@LIFDFPCJ@?$AAC?$AA?3?$AA?2?$AAP?$AAr?$AAo?$AAg?$AAr?$AAa?$AAm?$AA?5?$AAF?$AAi?$AAl?$AAe?$AAs?$AA?5?$AA?$CI?$AAx?$AA8?$AA6?$AA?$CJ?$AA?2?$AAM?$AAi?$AAc?$AAr?$AAo?$AAs?$AAo?$AAf?$AAt@
	push	OFFSET ??_C@_1CC@LOFJFFDB@?$AAs?$AAt?$AAd?$AA?3?$AA?3?$AA_?$AAD?$AAe?$AAa?$AAl?$AAl?$AAo?$AAc?$AAa?$AAt?$AAe?$AA?$AA@
	push	OFFSET ??_C@_1CG@JNLFBNGN@?$AA?$CC?$AAi?$AAn?$AAv?$AAa?$AAl?$AAi?$AAd?$AA?5?$AAa?$AAr?$AAg?$AAu?$AAm?$AAe?$AAn?$AAt?$AA?$CC?$AA?$AA@
	call	__invalid_parameter
	add	esp, 20					; 00000014H
$LN1@Deallocate:

; 156  : 	}

	add	esp, 12					; 0000000cH
	cmp	ebp, esp
	call	__RTC_CheckEsp
	mov	esp, ebp
	pop	ebp
	ret	0
?_Deallocate@std@@YAXPAXII@Z ENDP			; std::_Deallocate
_TEXT	ENDS
; Function compile flags: /Odtp /RTCsu
; File c:\program files (x86)\microsoft visual studio\2017\community\vc\tools\msvc\14.11.25503\include\xmemory0
;	COMDAT ?_Allocate@std@@YAPAXII_N@Z
_TEXT	SEGMENT
__Ptr_container$1 = -16					; size = 4
__Block_size$2 = -12					; size = 4
__User_size$ = -8					; size = 4
__Ptr$ = -4						; size = 4
__Count$ = 8						; size = 4
__Sz$ = 12						; size = 4
__Try_aligned_allocation$ = 16				; size = 1
?_Allocate@std@@YAPAXII_N@Z PROC			; std::_Allocate, COMDAT

; 49   : 	{	// allocate storage for _Count elements of size _Sz

	push	ebp
	mov	ebp, esp
	sub	esp, 16					; 00000010H
	mov	eax, -858993460				; ccccccccH
	mov	DWORD PTR [ebp-16], eax
	mov	DWORD PTR [ebp-12], eax
	mov	DWORD PTR [ebp-8], eax
	mov	DWORD PTR [ebp-4], eax

; 50   : 	void *_Ptr = 0;

	mov	DWORD PTR __Ptr$[ebp], 0

; 51   : 
; 52   : 	if (_Count == 0)

	cmp	DWORD PTR __Count$[ebp], 0
	jne	SHORT $LN2@Allocate

; 53   : 		{
; 54   : 		return (_Ptr);

	mov	eax, DWORD PTR __Ptr$[ebp]
	jmp	$LN8@Allocate
$LN2@Allocate:

; 55   : 		}
; 56   : 
; 57   : 	// check overflow of multiply
; 58   : 	if (static_cast<size_t>(-1) / _Sz < _Count)

	or	eax, -1
	xor	edx, edx
	div	DWORD PTR __Sz$[ebp]
	cmp	eax, DWORD PTR __Count$[ebp]
	jae	SHORT $LN3@Allocate

; 59   : 		{
; 60   : 		_Xbad_alloc();	// report no memory

	call	?_Xbad_alloc@std@@YAXXZ			; std::_Xbad_alloc
$LN3@Allocate:

; 61   : 		}
; 62   : 
; 63   : 	const size_t _User_size = _Count * _Sz;

	mov	eax, DWORD PTR __Count$[ebp]
	imul	eax, DWORD PTR __Sz$[ebp]
	mov	DWORD PTR __User_size$[ebp], eax

; 64   : 
; 65   : #if defined(_M_IX86) || defined(_M_X64)
; 66   : 	if (_Try_aligned_allocation
; 67   : 		&& _BIG_ALLOCATION_THRESHOLD <= _User_size)

	movzx	ecx, BYTE PTR __Try_aligned_allocation$[ebp]
	test	ecx, ecx
	je	$LN4@Allocate
	cmp	DWORD PTR __User_size$[ebp], 4096	; 00001000H
	jb	$LN4@Allocate

; 68   : 		{	// allocate large block
; 69   : 		static_assert(sizeof(void *) < _BIG_ALLOCATION_ALIGNMENT,
; 70   : 			"Big allocations should at least match vector register size");
; 71   : 		const size_t _Block_size = _NON_USER_SIZE + _User_size;

	mov	edx, DWORD PTR __User_size$[ebp]
	add	edx, 39					; 00000027H
	mov	DWORD PTR __Block_size$2[ebp], edx

; 72   : 		if (_Block_size <= _User_size)

	mov	eax, DWORD PTR __Block_size$2[ebp]
	cmp	eax, DWORD PTR __User_size$[ebp]
	ja	SHORT $LN5@Allocate

; 73   : 			{
; 74   : 			_Xbad_alloc();	// report no memory

	call	?_Xbad_alloc@std@@YAXXZ			; std::_Xbad_alloc
$LN5@Allocate:

; 75   : 			}
; 76   : 
; 77   : 		const uintptr_t _Ptr_container =
; 78   : 			reinterpret_cast<uintptr_t>(::operator new(_Block_size));

	mov	ecx, DWORD PTR __Block_size$2[ebp]
	push	ecx
	call	??2@YAPAXI@Z				; operator new
	add	esp, 4
	mov	DWORD PTR __Ptr_container$1[ebp], eax

; 79   : 		_SCL_SECURE_ALWAYS_VALIDATE(_Ptr_container != 0);

	cmp	DWORD PTR __Ptr_container$1[ebp], 0
	jne	SHORT $LN6@Allocate
	mov	edx, OFFSET ??_C@_0BE@LMNLACIC@_Ptr_container?5?$CB?$DN?50?$AA@
	test	edx, edx
	je	SHORT $LN9@Allocate
	xor	eax, eax
	jne	SHORT $LN10@Allocate
$LN9@Allocate:
	push	OFFSET ??_C@_1DG@HGDKEBPG@?$AA?$CC?$AA_?$AAP?$AAt?$AAr?$AA_?$AAc?$AAo?$AAn?$AAt?$AAa?$AAi?$AAn?$AAe?$AAr?$AA?5?$AA?$CB?$AA?$DN?$AA?5?$AA0?$AA?$CC?$AA?5?$AA?$CG?$AA?$CG?$AA?5?$AA0?$AA?$AA@
	push	OFFSET ??_C@_17CNPHIMPH@?$AA?$CF?$AAl?$AAs?$AA?$AA@
	push	0
	push	79					; 0000004fH
	push	OFFSET ??_C@_1NC@LIFDFPCJ@?$AAC?$AA?3?$AA?2?$AAP?$AAr?$AAo?$AAg?$AAr?$AAa?$AAm?$AA?5?$AAF?$AAi?$AAl?$AAe?$AAs?$AA?5?$AA?$CI?$AAx?$AA8?$AA6?$AA?$CJ?$AA?2?$AAM?$AAi?$AAc?$AAr?$AAo?$AAs?$AAo?$AAf?$AAt@
	push	2
	call	__CrtDbgReportW
	add	esp, 24					; 00000018H
	cmp	eax, 1
	jne	SHORT $LN10@Allocate
	int	3
$LN10@Allocate:
	push	0
	push	79					; 0000004fH
	push	OFFSET ??_C@_1NC@LIFDFPCJ@?$AAC?$AA?3?$AA?2?$AAP?$AAr?$AAo?$AAg?$AAr?$AAa?$AAm?$AA?5?$AAF?$AAi?$AAl?$AAe?$AAs?$AA?5?$AA?$CI?$AAx?$AA8?$AA6?$AA?$CJ?$AA?2?$AAM?$AAi?$AAc?$AAr?$AAo?$AAs?$AAo?$AAf?$AAt@
	push	OFFSET ??_C@_1BO@NKFMJPA@?$AAs?$AAt?$AAd?$AA?3?$AA?3?$AA_?$AAA?$AAl?$AAl?$AAo?$AAc?$AAa?$AAt?$AAe?$AA?$AA@
	push	OFFSET ??_C@_1CG@JNLFBNGN@?$AA?$CC?$AAi?$AAn?$AAv?$AAa?$AAl?$AAi?$AAd?$AA?5?$AAa?$AAr?$AAg?$AAu?$AAm?$AAe?$AAn?$AAt?$AA?$CC?$AA?$AA@
	call	__invalid_parameter
	add	esp, 20					; 00000014H
$LN6@Allocate:

; 80   : 		_Ptr = reinterpret_cast<void *>((_Ptr_container + _NON_USER_SIZE)

	mov	edx, DWORD PTR __Ptr_container$1[ebp]
	add	edx, 39					; 00000027H
	and	edx, -32				; ffffffe0H
	mov	DWORD PTR __Ptr$[ebp], edx

; 81   : 			& ~(_BIG_ALLOCATION_ALIGNMENT - 1));
; 82   : 		static_cast<uintptr_t *>(_Ptr)[-1] = _Ptr_container;

	mov	eax, 4
	imul	ecx, eax, -1
	mov	edx, DWORD PTR __Ptr$[ebp]
	mov	eax, DWORD PTR __Ptr_container$1[ebp]
	mov	DWORD PTR [edx+ecx], eax

; 83   : 
; 84   :  #ifdef _DEBUG
; 85   : 		static_cast<uintptr_t *>(_Ptr)[-2] = _BIG_ALLOCATION_SENTINEL;

	mov	ecx, 4
	imul	edx, ecx, -2
	mov	eax, DWORD PTR __Ptr$[ebp]
	mov	DWORD PTR [eax+edx], -84215046		; fafafafaH

; 86   :  #endif /* _DEBUG */
; 87   :  		return (_Ptr);

	mov	eax, DWORD PTR __Ptr$[ebp]
	jmp	SHORT $LN8@Allocate
$LN4@Allocate:

; 88   : 		}
; 89   : #else /* ^^^ x86/x64 hardware ^^^ // vvv ARM hardware vvv */
; 90   : 	(void)_Try_aligned_allocation;
; 91   : #endif /* defined(_M_IX86) || defined(_M_X64) */
; 92   : 
; 93   : 	_Ptr = ::operator new(_User_size);

	mov	ecx, DWORD PTR __User_size$[ebp]
	push	ecx
	call	??2@YAPAXI@Z				; operator new
	add	esp, 4
	mov	DWORD PTR __Ptr$[ebp], eax

; 94   : 	_SCL_SECURE_ALWAYS_VALIDATE(_Ptr != 0);

	cmp	DWORD PTR __Ptr$[ebp], 0
	jne	SHORT $LN7@Allocate
	mov	edx, OFFSET ??_C@_09GLJCAGLP@_Ptr?5?$CB?$DN?50?$AA@
	test	edx, edx
	je	SHORT $LN11@Allocate
	xor	eax, eax
	jne	SHORT $LN12@Allocate
$LN11@Allocate:
	push	OFFSET ??_C@_1CC@GKJLLHIM@?$AA?$CC?$AA_?$AAP?$AAt?$AAr?$AA?5?$AA?$CB?$AA?$DN?$AA?5?$AA0?$AA?$CC?$AA?5?$AA?$CG?$AA?$CG?$AA?5?$AA0?$AA?$AA@
	push	OFFSET ??_C@_17CNPHIMPH@?$AA?$CF?$AAl?$AAs?$AA?$AA@
	push	0
	push	94					; 0000005eH
	push	OFFSET ??_C@_1NC@LIFDFPCJ@?$AAC?$AA?3?$AA?2?$AAP?$AAr?$AAo?$AAg?$AAr?$AAa?$AAm?$AA?5?$AAF?$AAi?$AAl?$AAe?$AAs?$AA?5?$AA?$CI?$AAx?$AA8?$AA6?$AA?$CJ?$AA?2?$AAM?$AAi?$AAc?$AAr?$AAo?$AAs?$AAo?$AAf?$AAt@
	push	2
	call	__CrtDbgReportW
	add	esp, 24					; 00000018H
	cmp	eax, 1
	jne	SHORT $LN12@Allocate
	int	3
$LN12@Allocate:
	push	0
	push	94					; 0000005eH
	push	OFFSET ??_C@_1NC@LIFDFPCJ@?$AAC?$AA?3?$AA?2?$AAP?$AAr?$AAo?$AAg?$AAr?$AAa?$AAm?$AA?5?$AAF?$AAi?$AAl?$AAe?$AAs?$AA?5?$AA?$CI?$AAx?$AA8?$AA6?$AA?$CJ?$AA?2?$AAM?$AAi?$AAc?$AAr?$AAo?$AAs?$AAo?$AAf?$AAt@
	push	OFFSET ??_C@_1BO@NKFMJPA@?$AAs?$AAt?$AAd?$AA?3?$AA?3?$AA_?$AAA?$AAl?$AAl?$AAo?$AAc?$AAa?$AAt?$AAe?$AA?$AA@
	push	OFFSET ??_C@_1CG@JNLFBNGN@?$AA?$CC?$AAi?$AAn?$AAv?$AAa?$AAl?$AAi?$AAd?$AA?5?$AAa?$AAr?$AAg?$AAu?$AAm?$AAe?$AAn?$AAt?$AA?$CC?$AA?$AA@
	call	__invalid_parameter
	add	esp, 20					; 00000014H
$LN7@Allocate:

; 95   : 	return (_Ptr);

	mov	eax, DWORD PTR __Ptr$[ebp]
$LN8@Allocate:

; 96   : 	}

	add	esp, 16					; 00000010H
	cmp	ebp, esp
	call	__RTC_CheckEsp
	mov	esp, ebp
	pop	ebp
	ret	0
?_Allocate@std@@YAPAXII_N@Z ENDP			; std::_Allocate
_TEXT	ENDS
; Function compile flags: /Odtp /RTCsu
; File c:\program files (x86)\microsoft visual studio\2017\community\vc\tools\msvc\14.11.25503\include\xutility
;	COMDAT ?_Getpnext@_Iterator_base12@std@@QAEPAPAU12@XZ
_TEXT	SEGMENT
_this$ = -4						; size = 4
?_Getpnext@_Iterator_base12@std@@QAEPAPAU12@XZ PROC	; std::_Iterator_base12::_Getpnext, COMDAT
; _this$ = ecx

; 209  : 		{	// get address of remaining iterator chain

	push	ebp
	mov	ebp, esp
	push	ecx
	mov	DWORD PTR [ebp-4], -858993460		; ccccccccH
	mov	DWORD PTR _this$[ebp], ecx

; 210  : 		return (&_Mynextiter);

	mov	eax, DWORD PTR _this$[ebp]
	add	eax, 4

; 211  : 		}

	mov	esp, ebp
	pop	ebp
	ret	0
?_Getpnext@_Iterator_base12@std@@QAEPAPAU12@XZ ENDP	; std::_Iterator_base12::_Getpnext
_TEXT	ENDS
; Function compile flags: /Odtp /RTCsu
; File c:\program files (x86)\microsoft visual studio\2017\community\vc\tools\msvc\14.11.25503\include\xutility
;	COMDAT ?_Clrcont@_Iterator_base12@std@@QAEXXZ
_TEXT	SEGMENT
_this$ = -4						; size = 4
?_Clrcont@_Iterator_base12@std@@QAEXXZ PROC		; std::_Iterator_base12::_Clrcont, COMDAT
; _this$ = ecx

; 199  : 		{	// disown owning container

	push	ebp
	mov	ebp, esp
	push	ecx
	mov	DWORD PTR [ebp-4], -858993460		; ccccccccH
	mov	DWORD PTR _this$[ebp], ecx

; 200  : 		_Myproxy = 0;

	mov	eax, DWORD PTR _this$[ebp]
	mov	DWORD PTR [eax], 0

; 201  : 		}

	mov	esp, ebp
	pop	ebp
	ret	0
?_Clrcont@_Iterator_base12@std@@QAEXXZ ENDP		; std::_Iterator_base12::_Clrcont
_TEXT	ENDS
; Function compile flags: /Odtp /RTCsu
; File c:\program files (x86)\microsoft visual studio\2017\community\vc\tools\msvc\14.11.25503\include\xutility
;	COMDAT ?_Swap_all@_Container_base12@std@@QAEXAAU12@@Z
_TEXT	SEGMENT
__Temp$ = -32						; size = 4
__Lock$ = -24						; size = 4
_this$ = -16						; size = 4
__$EHRec$ = -12						; size = 12
__Right$ = 8						; size = 4
?_Swap_all@_Container_base12@std@@QAEXAAU12@@Z PROC	; std::_Container_base12::_Swap_all, COMDAT
; _this$ = ecx

; 254  : 	{	// swap all iterators

	push	ebp
	mov	ebp, esp
	push	-1
	push	__ehhandler$?_Swap_all@_Container_base12@std@@QAEXAAU12@@Z
	mov	eax, DWORD PTR fs:0
	push	eax
	sub	esp, 20					; 00000014H
	mov	eax, -858993460				; ccccccccH
	mov	DWORD PTR [ebp-32], eax
	mov	DWORD PTR [ebp-28], eax
	mov	DWORD PTR [ebp-24], eax
	mov	DWORD PTR [ebp-20], eax
	mov	DWORD PTR [ebp-16], eax
	mov	eax, DWORD PTR ___security_cookie
	xor	eax, ebp
	push	eax
	lea	eax, DWORD PTR __$EHRec$[ebp]
	mov	DWORD PTR fs:0, eax
	mov	DWORD PTR _this$[ebp], ecx

; 255  :  #if _ITERATOR_DEBUG_LEVEL == 2
; 256  : 	_Lockit _Lock(_LOCK_DEBUG);

	push	3
	lea	ecx, DWORD PTR __Lock$[ebp]
	call	??0_Lockit@std@@QAE@H@Z			; std::_Lockit::_Lockit

; 257  :  #endif /* _ITERATOR_DEBUG_LEVEL == 2 */
; 258  : 
; 259  : 	_Container_proxy *_Temp = _Myproxy;

	mov	eax, DWORD PTR _this$[ebp]
	mov	ecx, DWORD PTR [eax]
	mov	DWORD PTR __Temp$[ebp], ecx

; 260  : 	_Myproxy = _Right._Myproxy;

	mov	edx, DWORD PTR _this$[ebp]
	mov	eax, DWORD PTR __Right$[ebp]
	mov	ecx, DWORD PTR [eax]
	mov	DWORD PTR [edx], ecx

; 261  : 	_Right._Myproxy = _Temp;

	mov	edx, DWORD PTR __Right$[ebp]
	mov	eax, DWORD PTR __Temp$[ebp]
	mov	DWORD PTR [edx], eax

; 262  : 
; 263  : 	if (_Myproxy != 0)

	mov	ecx, DWORD PTR _this$[ebp]
	cmp	DWORD PTR [ecx], 0
	je	SHORT $LN2@Swap_all

; 264  : 		_Myproxy->_Mycont = (_Container_base12 *)this;

	mov	edx, DWORD PTR _this$[ebp]
	mov	eax, DWORD PTR [edx]
	mov	ecx, DWORD PTR _this$[ebp]
	mov	DWORD PTR [eax], ecx
$LN2@Swap_all:

; 265  : 	if (_Right._Myproxy != 0)

	mov	edx, DWORD PTR __Right$[ebp]
	cmp	DWORD PTR [edx], 0
	je	SHORT $LN3@Swap_all

; 266  : 		_Right._Myproxy->_Mycont = (_Container_base12 *)&_Right;

	mov	eax, DWORD PTR __Right$[ebp]
	mov	ecx, DWORD PTR [eax]
	mov	edx, DWORD PTR __Right$[ebp]
	mov	DWORD PTR [ecx], edx
$LN3@Swap_all:

; 267  : 	}

	lea	ecx, DWORD PTR __Lock$[ebp]
	call	??1_Lockit@std@@QAE@XZ			; std::_Lockit::~_Lockit
	push	edx
	mov	ecx, ebp
	push	eax
	lea	edx, DWORD PTR $LN8@Swap_all
	call	@_RTC_CheckStackVars@8
	pop	eax
	pop	edx
	mov	ecx, DWORD PTR __$EHRec$[ebp]
	mov	DWORD PTR fs:0, ecx
	pop	ecx
	add	esp, 32					; 00000020H
	cmp	ebp, esp
	call	__RTC_CheckEsp
	mov	esp, ebp
	pop	ebp
	ret	4
$LN8@Swap_all:
	DD	1
	DD	$LN7@Swap_all
$LN7@Swap_all:
	DD	-24					; ffffffe8H
	DD	4
	DD	$LN5@Swap_all
$LN5@Swap_all:
	DB	95					; 0000005fH
	DB	76					; 0000004cH
	DB	111					; 0000006fH
	DB	99					; 00000063H
	DB	107					; 0000006bH
	DB	0
_TEXT	ENDS
;	COMDAT text$x
text$x	SEGMENT
__ehhandler$?_Swap_all@_Container_base12@std@@QAEXAAU12@@Z:
	mov	edx, DWORD PTR [esp+8]
	lea	eax, DWORD PTR [edx+12]
	mov	ecx, DWORD PTR [edx-24]
	xor	ecx, eax
	call	@__security_check_cookie@4
	mov	eax, OFFSET __ehfuncinfo$?_Swap_all@_Container_base12@std@@QAEXAAU12@@Z
	jmp	___CxxFrameHandler3
text$x	ENDS
?_Swap_all@_Container_base12@std@@QAEXAAU12@@Z ENDP	; std::_Container_base12::_Swap_all
; Function compile flags: /Odtp /RTCsu
; File c:\program files (x86)\microsoft visual studio\2017\community\vc\tools\msvc\14.11.25503\include\xutility
;	COMDAT ?_Orphan_all@_Container_base12@std@@QAEXXZ
_TEXT	SEGMENT
__Pnext$2 = -32						; size = 4
__Lock$3 = -24						; size = 4
_this$ = -16						; size = 4
__$EHRec$ = -12						; size = 12
?_Orphan_all@_Container_base12@std@@QAEXXZ PROC		; std::_Container_base12::_Orphan_all, COMDAT
; _this$ = ecx

; 239  : 	{	// orphan all iterators

	push	ebp
	mov	ebp, esp
	push	-1
	push	__ehhandler$?_Orphan_all@_Container_base12@std@@QAEXXZ
	mov	eax, DWORD PTR fs:0
	push	eax
	sub	esp, 20					; 00000014H
	mov	eax, -858993460				; ccccccccH
	mov	DWORD PTR [ebp-32], eax
	mov	DWORD PTR [ebp-28], eax
	mov	DWORD PTR [ebp-24], eax
	mov	DWORD PTR [ebp-20], eax
	mov	DWORD PTR [ebp-16], eax
	mov	eax, DWORD PTR ___security_cookie
	xor	eax, ebp
	push	eax
	lea	eax, DWORD PTR __$EHRec$[ebp]
	mov	DWORD PTR fs:0, eax
	mov	DWORD PTR _this$[ebp], ecx

; 240  :  #if _ITERATOR_DEBUG_LEVEL == 2
; 241  : 	if (_Myproxy != 0)

	mov	eax, DWORD PTR _this$[ebp]
	cmp	DWORD PTR [eax], 0
	je	SHORT $LN6@Orphan_all

; 242  : 		{	// proxy allocated, drain it
; 243  : 		_Lockit _Lock(_LOCK_DEBUG);

	push	3
	lea	ecx, DWORD PTR __Lock$3[ebp]
	call	??0_Lockit@std@@QAE@H@Z			; std::_Lockit::_Lockit

; 244  : 
; 245  : 		for (_Iterator_base12 **_Pnext = &_Myproxy->_Myfirstiter;

	mov	ecx, DWORD PTR _this$[ebp]
	mov	edx, DWORD PTR [ecx]
	add	edx, 4
	mov	DWORD PTR __Pnext$2[ebp], edx
	jmp	SHORT $LN4@Orphan_all
$LN2@Orphan_all:

; 246  : 			*_Pnext != 0; *_Pnext = (*_Pnext)->_Mynextiter)

	mov	eax, DWORD PTR __Pnext$2[ebp]
	mov	ecx, DWORD PTR [eax]
	mov	edx, DWORD PTR __Pnext$2[ebp]
	mov	eax, DWORD PTR [ecx+4]
	mov	DWORD PTR [edx], eax
$LN4@Orphan_all:
	mov	ecx, DWORD PTR __Pnext$2[ebp]
	cmp	DWORD PTR [ecx], 0
	je	SHORT $LN3@Orphan_all

; 247  : 			(*_Pnext)->_Myproxy = 0;

	mov	edx, DWORD PTR __Pnext$2[ebp]
	mov	eax, DWORD PTR [edx]
	mov	DWORD PTR [eax], 0
	jmp	SHORT $LN2@Orphan_all
$LN3@Orphan_all:

; 248  : 		_Myproxy->_Myfirstiter = 0;

	mov	ecx, DWORD PTR _this$[ebp]
	mov	edx, DWORD PTR [ecx]
	mov	DWORD PTR [edx+4], 0

; 249  : 		}

	lea	ecx, DWORD PTR __Lock$3[ebp]
	call	??1_Lockit@std@@QAE@XZ			; std::_Lockit::~_Lockit
$LN6@Orphan_all:

; 250  :  #endif /* _ITERATOR_DEBUG_LEVEL == 2 */
; 251  : 	}

	push	edx
	mov	ecx, ebp
	push	eax
	lea	edx, DWORD PTR $LN10@Orphan_all
	call	@_RTC_CheckStackVars@8
	pop	eax
	pop	edx
	mov	ecx, DWORD PTR __$EHRec$[ebp]
	mov	DWORD PTR fs:0, ecx
	pop	ecx
	add	esp, 32					; 00000020H
	cmp	ebp, esp
	call	__RTC_CheckEsp
	mov	esp, ebp
	pop	ebp
	ret	0
	npad	1
$LN10@Orphan_all:
	DD	1
	DD	$LN9@Orphan_all
$LN9@Orphan_all:
	DD	-24					; ffffffe8H
	DD	4
	DD	$LN7@Orphan_all
$LN7@Orphan_all:
	DB	95					; 0000005fH
	DB	76					; 0000004cH
	DB	111					; 0000006fH
	DB	99					; 00000063H
	DB	107					; 0000006bH
	DB	0
_TEXT	ENDS
;	COMDAT text$x
text$x	SEGMENT
__ehhandler$?_Orphan_all@_Container_base12@std@@QAEXXZ:
	mov	edx, DWORD PTR [esp+8]
	lea	eax, DWORD PTR [edx+12]
	mov	ecx, DWORD PTR [edx-24]
	xor	ecx, eax
	call	@__security_check_cookie@4
	mov	eax, OFFSET __ehfuncinfo$?_Orphan_all@_Container_base12@std@@QAEXXZ
	jmp	___CxxFrameHandler3
text$x	ENDS
?_Orphan_all@_Container_base12@std@@QAEXXZ ENDP		; std::_Container_base12::_Orphan_all
; Function compile flags: /Odtp /RTCsu
; File c:\program files (x86)\microsoft visual studio\2017\community\vc\tools\msvc\14.11.25503\include\xutility
;	COMDAT ?_Getpfirst@_Container_base12@std@@QBEPAPAU_Iterator_base12@2@XZ
_TEXT	SEGMENT
tv68 = -8						; size = 4
_this$ = -4						; size = 4
?_Getpfirst@_Container_base12@std@@QBEPAPAU_Iterator_base12@2@XZ PROC ; std::_Container_base12::_Getpfirst, COMDAT
; _this$ = ecx

; 120  : 		{	// get address of iterator chain

	push	ebp
	mov	ebp, esp
	sub	esp, 8
	mov	DWORD PTR [ebp-8], -858993460		; ccccccccH
	mov	DWORD PTR [ebp-4], -858993460		; ccccccccH
	mov	DWORD PTR _this$[ebp], ecx

; 121  : 		return (_Myproxy == 0 ? 0 : &_Myproxy->_Myfirstiter);

	mov	eax, DWORD PTR _this$[ebp]
	cmp	DWORD PTR [eax], 0
	jne	SHORT $LN3@Getpfirst
	mov	DWORD PTR tv68[ebp], 0
	jmp	SHORT $LN4@Getpfirst
$LN3@Getpfirst:
	mov	ecx, DWORD PTR _this$[ebp]
	mov	edx, DWORD PTR [ecx]
	add	edx, 4
	mov	DWORD PTR tv68[ebp], edx
$LN4@Getpfirst:
	mov	eax, DWORD PTR tv68[ebp]

; 122  : 		}

	mov	esp, ebp
	pop	ebp
	ret	0
?_Getpfirst@_Container_base12@std@@QBEPAPAU_Iterator_base12@2@XZ ENDP ; std::_Container_base12::_Getpfirst
_TEXT	ENDS
; Function compile flags: /Odtp /RTCsu
; File c:\program files (x86)\microsoft visual studio\2017\community\vc\tools\msvc\14.11.25503\include\xutility
;	COMDAT ??1_Container_base12@std@@QAE@XZ
_TEXT	SEGMENT
_this$ = -4						; size = 4
??1_Container_base12@std@@QAE@XZ PROC			; std::_Container_base12::~_Container_base12, COMDAT
; _this$ = ecx

; 115  : 		{	// destroy the container

	push	ebp
	mov	ebp, esp
	push	ecx
	mov	DWORD PTR [ebp-4], -858993460		; ccccccccH
	mov	DWORD PTR _this$[ebp], ecx

; 116  : 		_Orphan_all();

	mov	ecx, DWORD PTR _this$[ebp]
	call	?_Orphan_all@_Container_base12@std@@QAEXXZ ; std::_Container_base12::_Orphan_all

; 117  : 		}

	add	esp, 4
	cmp	ebp, esp
	call	__RTC_CheckEsp
	mov	esp, ebp
	pop	ebp
	ret	0
??1_Container_base12@std@@QAE@XZ ENDP			; std::_Container_base12::~_Container_base12
_TEXT	ENDS
; Function compile flags: /Odtp /RTCsu
; File c:\program files (x86)\microsoft visual studio\2017\community\vc\tools\msvc\14.11.25503\include\xutility
;	COMDAT ??0_Container_base12@std@@QAE@XZ
_TEXT	SEGMENT
_this$ = -4						; size = 4
??0_Container_base12@std@@QAE@XZ PROC			; std::_Container_base12::_Container_base12, COMDAT
; _this$ = ecx

; 101  : 		{	// construct childless container

	push	ebp
	mov	ebp, esp
	push	ecx
	mov	DWORD PTR [ebp-4], -858993460		; ccccccccH
	mov	DWORD PTR _this$[ebp], ecx

; 100  : 		: _Myproxy(0)

	mov	eax, DWORD PTR _this$[ebp]
	mov	DWORD PTR [eax], 0

; 102  : 		}

	mov	eax, DWORD PTR _this$[ebp]
	mov	esp, ebp
	pop	ebp
	ret	0
??0_Container_base12@std@@QAE@XZ ENDP			; std::_Container_base12::_Container_base12
_TEXT	ENDS
; Function compile flags: /Odtp /RTCsu
; File c:\program files (x86)\microsoft visual studio\2017\community\vc\tools\msvc\14.11.25503\include\xutility
;	COMDAT ??0_Container_proxy@std@@QAE@XZ
_TEXT	SEGMENT
_this$ = -4						; size = 4
??0_Container_proxy@std@@QAE@XZ PROC			; std::_Container_proxy::_Container_proxy, COMDAT
; _this$ = ecx

; 89   : 		{	// construct from pointers

	push	ebp
	mov	ebp, esp
	push	ecx
	mov	DWORD PTR [ebp-4], -858993460		; ccccccccH
	mov	DWORD PTR _this$[ebp], ecx

; 88   : 		: _Mycont(0), _Myfirstiter(0)

	mov	eax, DWORD PTR _this$[ebp]
	mov	DWORD PTR [eax], 0
	mov	ecx, DWORD PTR _this$[ebp]
	mov	DWORD PTR [ecx+4], 0

; 90   : 		}

	mov	eax, DWORD PTR _this$[ebp]
	mov	esp, ebp
	pop	ebp
	ret	0
??0_Container_proxy@std@@QAE@XZ ENDP			; std::_Container_proxy::_Container_proxy
_TEXT	ENDS
; Function compile flags: /Odtp /RTCsu
; File c:\program files (x86)\microsoft visual studio\2017\community\vc\tools\msvc\14.11.25503\include\vcruntime_new.h
;	COMDAT ??3@YAXPAX0@Z
_TEXT	SEGMENT
___formal$ = 8						; size = 4
___formal$ = 12						; size = 4
??3@YAXPAX0@Z PROC					; operator delete, COMDAT

; 97   :     {

	push	ebp
	mov	ebp, esp

; 98   :         return;
; 99   :     }

	pop	ebp
	ret	0
??3@YAXPAX0@Z ENDP					; operator delete
_TEXT	ENDS
; Function compile flags: /Odtp /RTCsu
; File c:\program files (x86)\microsoft visual studio\2017\community\vc\tools\msvc\14.11.25503\include\vcruntime_new.h
;	COMDAT ??2@YAPAXIPAX@Z
_TEXT	SEGMENT
__Size$ = 8						; size = 4
__Where$ = 12						; size = 4
??2@YAPAXIPAX@Z PROC					; operator new, COMDAT

; 91   :     {

	push	ebp
	mov	ebp, esp

; 92   :         (void)_Size;
; 93   :         return _Where;

	mov	eax, DWORD PTR __Where$[ebp]

; 94   :     }

	pop	ebp
	ret	0
??2@YAPAXIPAX@Z ENDP					; operator new
_TEXT	ENDS
; Function compile flags: /Odtp /RTCsu
; File c:\program files (x86)\microsoft visual studio\2017\community\vc\tools\msvc\14.11.25503\include\limits
;	COMDAT ?max@?$numeric_limits@H@std@@SAHXZ
_TEXT	SEGMENT
?max@?$numeric_limits@H@std@@SAHXZ PROC			; std::numeric_limits<int>::max, COMDAT

; 682  : 		{	// return maximum value

	push	ebp
	mov	ebp, esp

; 683  : 		return (INT_MAX);

	mov	eax, 2147483647				; 7fffffffH

; 684  : 		}

	pop	ebp
	ret	0
?max@?$numeric_limits@H@std@@SAHXZ ENDP			; std::numeric_limits<int>::max
_TEXT	ENDS
END
