; Listing generated by Microsoft (R) Optimizing Compiler Version 19.11.25547.0 

	TITLE	C:\Users\Florian\Desktop\IAFinal\ProjetIAFinal\Projet\Net.cpp
	.686P
	.XMM
	include listing.inc
	.model	flat

INCLUDELIB LIBCMTD
INCLUDELIB OLDNAMES

CONST	SEGMENT
$SG30960 DB	'N', 00H, 'e', 00H, 't', 00H, '.', 00H, 'c', 00H, 'p', 00H
	DB	'p', 00H, 00H, 00H
$SG30961 DB	'i', 00H, 'n', 00H, 'p', 00H, 'u', 00H, 't', 00H, 'V', 00H
	DB	'a', 00H, 'l', 00H, 's', 00H, '.', 00H, 's', 00H, 'i', 00H, 'z'
	DB	00H, 'e', 00H, '(', 00H, ')', 00H, ' ', 00H, '=', 00H, '=', 00H
	DB	' ', 00H, 'm', 00H, '_', 00H, 'L', 00H, 'a', 00H, 'y', 00H, 'e'
	DB	00H, 'r', 00H, 's', 00H, '[', 00H, '0', 00H, ']', 00H, '.', 00H
	DB	's', 00H, 'i', 00H, 'z', 00H, 'e', 00H, '(', 00H, ')', 00H, ' '
	DB	00H, '-', 00H, ' ', 00H, '1', 00H, 00H, 00H
CONST	ENDS
PUBLIC	?max@?$numeric_limits@H@std@@SAHXZ		; std::numeric_limits<int>::max
PUBLIC	??2@YAPAXIPAX@Z					; operator new
PUBLIC	??3@YAXPAX0@Z					; operator delete
PUBLIC	??0_Container_proxy@std@@QAE@XZ			; std::_Container_proxy::_Container_proxy
PUBLIC	??0_Container_base12@std@@QAE@XZ		; std::_Container_base12::_Container_base12
PUBLIC	??1_Container_base12@std@@QAE@XZ		; std::_Container_base12::~_Container_base12
PUBLIC	?_Getpfirst@_Container_base12@std@@QBEPAPAU_Iterator_base12@2@XZ ; std::_Container_base12::_Getpfirst
PUBLIC	?_Orphan_all@_Container_base12@std@@QAEXXZ	; std::_Container_base12::_Orphan_all
PUBLIC	?_Swap_all@_Container_base12@std@@QAEXAAU12@@Z	; std::_Container_base12::_Swap_all
PUBLIC	?_Clrcont@_Iterator_base12@std@@QAEXXZ		; std::_Iterator_base12::_Clrcont
PUBLIC	?_Getpnext@_Iterator_base12@std@@QAEPAPAU12@XZ	; std::_Iterator_base12::_Getpnext
PUBLIC	?_Allocate@std@@YAPAXII_N@Z			; std::_Allocate
PUBLIC	?_Deallocate@std@@YAXPAXII@Z			; std::_Deallocate
PUBLIC	?SetOutputVal@Neuron@@QAEXN@Z			; Neuron::SetOutputVal
PUBLIC	?GetOutputVal@Neuron@@QBENXZ			; Neuron::GetOutputVal
PUBLIC	?deallocate@?$allocator@UConnection@@@std@@QAEXQAUConnection@@I@Z ; std::allocator<Connection>::deallocate
PUBLIC	?allocate@?$allocator@UConnection@@@std@@QAEPAUConnection@@I@Z ; std::allocator<Connection>::allocate
PUBLIC	?max_size@?$_Default_allocator_traits@V?$allocator@UConnection@@@std@@@std@@SAIABV?$allocator@UConnection@@@2@@Z ; std::_Default_allocator_traits<std::allocator<Connection> >::max_size
PUBLIC	?select_on_container_copy_construction@?$_Default_allocator_traits@V?$allocator@UConnection@@@std@@@std@@SA?AV?$allocator@UConnection@@@2@ABV32@@Z ; std::_Default_allocator_traits<std::allocator<Connection> >::select_on_container_copy_construction
PUBLIC	??1?$_Vector_alloc@U?$_Vec_base_types@UConnection@@V?$allocator@UConnection@@@std@@@std@@@std@@QAE@XZ ; std::_Vector_alloc<std::_Vec_base_types<Connection,std::allocator<Connection> > >::~_Vector_alloc<std::_Vec_base_types<Connection,std::allocator<Connection> > >
PUBLIC	?_Alloc_proxy@?$_Vector_alloc@U?$_Vec_base_types@UConnection@@V?$allocator@UConnection@@@std@@@std@@@std@@QAEXXZ ; std::_Vector_alloc<std::_Vec_base_types<Connection,std::allocator<Connection> > >::_Alloc_proxy
PUBLIC	?_Free_proxy@?$_Vector_alloc@U?$_Vec_base_types@UConnection@@V?$allocator@UConnection@@@std@@@std@@@std@@QAEXXZ ; std::_Vector_alloc<std::_Vec_base_types<Connection,std::allocator<Connection> > >::_Free_proxy
PUBLIC	?_Myproxy@?$_Vector_alloc@U?$_Vec_base_types@UConnection@@V?$allocator@UConnection@@@std@@@std@@@std@@QAEAAPAU_Container_proxy@2@XZ ; std::_Vector_alloc<std::_Vec_base_types<Connection,std::allocator<Connection> > >::_Myproxy
PUBLIC	?_Orphan_all@?$_Vector_alloc@U?$_Vec_base_types@UConnection@@V?$allocator@UConnection@@@std@@@std@@@std@@QAEXXZ ; std::_Vector_alloc<std::_Vec_base_types<Connection,std::allocator<Connection> > >::_Orphan_all
PUBLIC	?_Getal@?$_Vector_alloc@U?$_Vec_base_types@UConnection@@V?$allocator@UConnection@@@std@@@std@@@std@@QAEAAV?$allocator@UConnection@@@2@XZ ; std::_Vector_alloc<std::_Vec_base_types<Connection,std::allocator<Connection> > >::_Getal
PUBLIC	?_Getal@?$_Vector_alloc@U?$_Vec_base_types@UConnection@@V?$allocator@UConnection@@@std@@@std@@@std@@QBEABV?$allocator@UConnection@@@2@XZ ; std::_Vector_alloc<std::_Vec_base_types<Connection,std::allocator<Connection> > >::_Getal
PUBLIC	?_Get_data@?$_Vector_alloc@U?$_Vec_base_types@UConnection@@V?$allocator@UConnection@@@std@@@std@@@std@@QAEAAV?$_Vector_val@U?$_Simple_types@UConnection@@@std@@@2@XZ ; std::_Vector_alloc<std::_Vec_base_types<Connection,std::allocator<Connection> > >::_Get_data
PUBLIC	?_Get_data@?$_Vector_alloc@U?$_Vec_base_types@UConnection@@V?$allocator@UConnection@@@std@@@std@@@std@@QBEABV?$_Vector_val@U?$_Simple_types@UConnection@@@std@@@2@XZ ; std::_Vector_alloc<std::_Vec_base_types<Connection,std::allocator<Connection> > >::_Get_data
PUBLIC	?_Myfirst@?$_Vector_alloc@U?$_Vec_base_types@UConnection@@V?$allocator@UConnection@@@std@@@std@@@std@@QAEAAPAUConnection@@XZ ; std::_Vector_alloc<std::_Vec_base_types<Connection,std::allocator<Connection> > >::_Myfirst
PUBLIC	?_Myfirst@?$_Vector_alloc@U?$_Vec_base_types@UConnection@@V?$allocator@UConnection@@@std@@@std@@@std@@QBEABQAUConnection@@XZ ; std::_Vector_alloc<std::_Vec_base_types<Connection,std::allocator<Connection> > >::_Myfirst
PUBLIC	?_Mylast@?$_Vector_alloc@U?$_Vec_base_types@UConnection@@V?$allocator@UConnection@@@std@@@std@@@std@@QAEAAPAUConnection@@XZ ; std::_Vector_alloc<std::_Vec_base_types<Connection,std::allocator<Connection> > >::_Mylast
PUBLIC	?_Mylast@?$_Vector_alloc@U?$_Vec_base_types@UConnection@@V?$allocator@UConnection@@@std@@@std@@@std@@QBEABQAUConnection@@XZ ; std::_Vector_alloc<std::_Vec_base_types<Connection,std::allocator<Connection> > >::_Mylast
PUBLIC	?_Myend@?$_Vector_alloc@U?$_Vec_base_types@UConnection@@V?$allocator@UConnection@@@std@@@std@@@std@@QAEAAPAUConnection@@XZ ; std::_Vector_alloc<std::_Vec_base_types<Connection,std::allocator<Connection> > >::_Myend
PUBLIC	?_Myend@?$_Vector_alloc@U?$_Vec_base_types@UConnection@@V?$allocator@UConnection@@@std@@@std@@@std@@QBEABQAUConnection@@XZ ; std::_Vector_alloc<std::_Vec_base_types<Connection,std::allocator<Connection> > >::_Myend
PUBLIC	??0?$_Vector_val@U?$_Simple_types@UConnection@@@std@@@std@@QAE@XZ ; std::_Vector_val<std::_Simple_types<Connection> >::_Vector_val<std::_Simple_types<Connection> >
PUBLIC	??1?$_Vector_val@U?$_Simple_types@UConnection@@@std@@@std@@QAE@XZ ; std::_Vector_val<std::_Simple_types<Connection> >::~_Vector_val<std::_Simple_types<Connection> >
PUBLIC	?_Get_first@?$_Compressed_pair@V?$allocator@UConnection@@@std@@V?$_Vector_val@U?$_Simple_types@UConnection@@@std@@@2@$00@std@@QAEAAV?$allocator@UConnection@@@2@XZ ; std::_Compressed_pair<std::allocator<Connection>,std::_Vector_val<std::_Simple_types<Connection> >,1>::_Get_first
PUBLIC	?_Get_first@?$_Compressed_pair@V?$allocator@UConnection@@@std@@V?$_Vector_val@U?$_Simple_types@UConnection@@@std@@@2@$00@std@@QBEABV?$allocator@UConnection@@@2@XZ ; std::_Compressed_pair<std::allocator<Connection>,std::_Vector_val<std::_Simple_types<Connection> >,1>::_Get_first
PUBLIC	?_Get_second@?$_Compressed_pair@V?$allocator@UConnection@@@std@@V?$_Vector_val@U?$_Simple_types@UConnection@@@std@@@2@$00@std@@QAEAAV?$_Vector_val@U?$_Simple_types@UConnection@@@std@@@2@XZ ; std::_Compressed_pair<std::allocator<Connection>,std::_Vector_val<std::_Simple_types<Connection> >,1>::_Get_second
PUBLIC	?_Get_second@?$_Compressed_pair@V?$allocator@UConnection@@@std@@V?$_Vector_val@U?$_Simple_types@UConnection@@@std@@@2@$00@std@@QBEABV?$_Vector_val@U?$_Simple_types@UConnection@@@std@@@2@XZ ; std::_Compressed_pair<std::allocator<Connection>,std::_Vector_val<std::_Simple_types<Connection> >,1>::_Get_second
PUBLIC	??1?$_Compressed_pair@V?$allocator@UConnection@@@std@@V?$_Vector_val@U?$_Simple_types@UConnection@@@std@@@2@$00@std@@QAE@XZ ; std::_Compressed_pair<std::allocator<Connection>,std::_Vector_val<std::_Simple_types<Connection> >,1>::~_Compressed_pair<std::allocator<Connection>,std::_Vector_val<std::_Simple_types<Connection> >,1>
PUBLIC	??0?$vector@UConnection@@V?$allocator@UConnection@@@std@@@std@@QAE@ABV01@@Z ; std::vector<Connection,std::allocator<Connection> >::vector<Connection,std::allocator<Connection> >
PUBLIC	?size@?$vector@UConnection@@V?$allocator@UConnection@@@std@@@std@@QBEIXZ ; std::vector<Connection,std::allocator<Connection> >::size
PUBLIC	?max_size@?$vector@UConnection@@V?$allocator@UConnection@@@std@@@std@@QBEIXZ ; std::vector<Connection,std::allocator<Connection> >::max_size
PUBLIC	?capacity@?$vector@UConnection@@V?$allocator@UConnection@@@std@@@std@@QBEIXZ ; std::vector<Connection,std::allocator<Connection> >::capacity
PUBLIC	?_Destroy@?$vector@UConnection@@V?$allocator@UConnection@@@std@@@std@@AAEXPAUConnection@@0@Z ; std::vector<Connection,std::allocator<Connection> >::_Destroy
PUBLIC	?_Buy@?$vector@UConnection@@V?$allocator@UConnection@@@std@@@std@@AAE_NI@Z ; std::vector<Connection,std::allocator<Connection> >::_Buy
PUBLIC	?_Tidy@?$vector@UConnection@@V?$allocator@UConnection@@@std@@@std@@AAEXXZ ; std::vector<Connection,std::allocator<Connection> >::_Tidy
PUBLIC	?_Xlength@?$vector@UConnection@@V?$allocator@UConnection@@@std@@@std@@CAXXZ ; std::vector<Connection,std::allocator<Connection> >::_Xlength
PUBLIC	??0Neuron@@QAE@ABV0@@Z				; Neuron::Neuron
PUBLIC	??_GNeuron@@QAEPAXI@Z				; Neuron::`scalar deleting destructor'
PUBLIC	??0Net@@QAE@ABV?$vector@IV?$allocator@I@std@@@std@@@Z ; Net::Net
PUBLIC	?FeedForward@Net@@QAEXABV?$vector@NV?$allocator@N@std@@@std@@@Z ; Net::FeedForward
PUBLIC	?BackProp@Net@@QAEXABV?$vector@NV?$allocator@N@std@@@std@@@Z ; Net::BackProp
PUBLIC	?GetResult@Net@@QBEXAAV?$vector@NV?$allocator@N@std@@@std@@@Z ; Net::GetResult
PUBLIC	??1Net@@QAE@XZ					; Net::~Net
PUBLIC	??0?$allocator@V?$vector@VNeuron@@V?$allocator@VNeuron@@@std@@@std@@@std@@QAE@XZ ; std::allocator<std::vector<Neuron,std::allocator<Neuron> > >::allocator<std::vector<Neuron,std::allocator<Neuron> > >
PUBLIC	?deallocate@?$allocator@V?$vector@VNeuron@@V?$allocator@VNeuron@@@std@@@std@@@std@@QAEXQAV?$vector@VNeuron@@V?$allocator@VNeuron@@@std@@@2@I@Z ; std::allocator<std::vector<Neuron,std::allocator<Neuron> > >::deallocate
PUBLIC	?allocate@?$allocator@V?$vector@VNeuron@@V?$allocator@VNeuron@@@std@@@std@@@std@@QAEPAV?$vector@VNeuron@@V?$allocator@VNeuron@@@std@@@2@I@Z ; std::allocator<std::vector<Neuron,std::allocator<Neuron> > >::allocate
PUBLIC	?max_size@?$_Default_allocator_traits@V?$allocator@V?$vector@VNeuron@@V?$allocator@VNeuron@@@std@@@std@@@std@@@std@@SAIABV?$allocator@V?$vector@VNeuron@@V?$allocator@VNeuron@@@std@@@std@@@2@@Z ; std::_Default_allocator_traits<std::allocator<std::vector<Neuron,std::allocator<Neuron> > > >::max_size
PUBLIC	??0?$_Vector_alloc@U?$_Vec_base_types@V?$vector@VNeuron@@V?$allocator@VNeuron@@@std@@@std@@V?$allocator@V?$vector@VNeuron@@V?$allocator@VNeuron@@@std@@@std@@@2@@std@@@std@@QAE@XZ ; std::_Vector_alloc<std::_Vec_base_types<std::vector<Neuron,std::allocator<Neuron> >,std::allocator<std::vector<Neuron,std::allocator<Neuron> > > > >::_Vector_alloc<std::_Vec_base_types<std::vector<Neuron,std::allocator<Neuron> >,std::allocator<std::vector<Neuron,std::allocator<Neuron> > > > >
PUBLIC	??1?$_Vector_alloc@U?$_Vec_base_types@V?$vector@VNeuron@@V?$allocator@VNeuron@@@std@@@std@@V?$allocator@V?$vector@VNeuron@@V?$allocator@VNeuron@@@std@@@std@@@2@@std@@@std@@QAE@XZ ; std::_Vector_alloc<std::_Vec_base_types<std::vector<Neuron,std::allocator<Neuron> >,std::allocator<std::vector<Neuron,std::allocator<Neuron> > > > >::~_Vector_alloc<std::_Vec_base_types<std::vector<Neuron,std::allocator<Neuron> >,std::allocator<std::vector<Neuron,std::allocator<Neuron> > > > >
PUBLIC	?_Alloc_proxy@?$_Vector_alloc@U?$_Vec_base_types@V?$vector@VNeuron@@V?$allocator@VNeuron@@@std@@@std@@V?$allocator@V?$vector@VNeuron@@V?$allocator@VNeuron@@@std@@@std@@@2@@std@@@std@@QAEXXZ ; std::_Vector_alloc<std::_Vec_base_types<std::vector<Neuron,std::allocator<Neuron> >,std::allocator<std::vector<Neuron,std::allocator<Neuron> > > > >::_Alloc_proxy
PUBLIC	?_Free_proxy@?$_Vector_alloc@U?$_Vec_base_types@V?$vector@VNeuron@@V?$allocator@VNeuron@@@std@@@std@@V?$allocator@V?$vector@VNeuron@@V?$allocator@VNeuron@@@std@@@std@@@2@@std@@@std@@QAEXXZ ; std::_Vector_alloc<std::_Vec_base_types<std::vector<Neuron,std::allocator<Neuron> >,std::allocator<std::vector<Neuron,std::allocator<Neuron> > > > >::_Free_proxy
PUBLIC	?_Getpfirst@?$_Vector_alloc@U?$_Vec_base_types@V?$vector@VNeuron@@V?$allocator@VNeuron@@@std@@@std@@V?$allocator@V?$vector@VNeuron@@V?$allocator@VNeuron@@@std@@@std@@@2@@std@@@std@@QBEPAPAU_Iterator_base12@2@XZ ; std::_Vector_alloc<std::_Vec_base_types<std::vector<Neuron,std::allocator<Neuron> >,std::allocator<std::vector<Neuron,std::allocator<Neuron> > > > >::_Getpfirst
PUBLIC	?_Myproxy@?$_Vector_alloc@U?$_Vec_base_types@V?$vector@VNeuron@@V?$allocator@VNeuron@@@std@@@std@@V?$allocator@V?$vector@VNeuron@@V?$allocator@VNeuron@@@std@@@std@@@2@@std@@@std@@QAEAAPAU_Container_proxy@2@XZ ; std::_Vector_alloc<std::_Vec_base_types<std::vector<Neuron,std::allocator<Neuron> >,std::allocator<std::vector<Neuron,std::allocator<Neuron> > > > >::_Myproxy
PUBLIC	?_Orphan_all@?$_Vector_alloc@U?$_Vec_base_types@V?$vector@VNeuron@@V?$allocator@VNeuron@@@std@@@std@@V?$allocator@V?$vector@VNeuron@@V?$allocator@VNeuron@@@std@@@std@@@2@@std@@@std@@QAEXXZ ; std::_Vector_alloc<std::_Vec_base_types<std::vector<Neuron,std::allocator<Neuron> >,std::allocator<std::vector<Neuron,std::allocator<Neuron> > > > >::_Orphan_all
PUBLIC	?_Getal@?$_Vector_alloc@U?$_Vec_base_types@V?$vector@VNeuron@@V?$allocator@VNeuron@@@std@@@std@@V?$allocator@V?$vector@VNeuron@@V?$allocator@VNeuron@@@std@@@std@@@2@@std@@@std@@QAEAAV?$allocator@V?$vector@VNeuron@@V?$allocator@VNeuron@@@std@@@std@@@2@XZ ; std::_Vector_alloc<std::_Vec_base_types<std::vector<Neuron,std::allocator<Neuron> >,std::allocator<std::vector<Neuron,std::allocator<Neuron> > > > >::_Getal
PUBLIC	?_Getal@?$_Vector_alloc@U?$_Vec_base_types@V?$vector@VNeuron@@V?$allocator@VNeuron@@@std@@@std@@V?$allocator@V?$vector@VNeuron@@V?$allocator@VNeuron@@@std@@@std@@@2@@std@@@std@@QBEABV?$allocator@V?$vector@VNeuron@@V?$allocator@VNeuron@@@std@@@std@@@2@XZ ; std::_Vector_alloc<std::_Vec_base_types<std::vector<Neuron,std::allocator<Neuron> >,std::allocator<std::vector<Neuron,std::allocator<Neuron> > > > >::_Getal
PUBLIC	?_Get_data@?$_Vector_alloc@U?$_Vec_base_types@V?$vector@VNeuron@@V?$allocator@VNeuron@@@std@@@std@@V?$allocator@V?$vector@VNeuron@@V?$allocator@VNeuron@@@std@@@std@@@2@@std@@@std@@QAEAAV?$_Vector_val@U?$_Simple_types@V?$vector@VNeuron@@V?$allocator@VNeuron@@@std@@@std@@@std@@@2@XZ ; std::_Vector_alloc<std::_Vec_base_types<std::vector<Neuron,std::allocator<Neuron> >,std::allocator<std::vector<Neuron,std::allocator<Neuron> > > > >::_Get_data
PUBLIC	?_Get_data@?$_Vector_alloc@U?$_Vec_base_types@V?$vector@VNeuron@@V?$allocator@VNeuron@@@std@@@std@@V?$allocator@V?$vector@VNeuron@@V?$allocator@VNeuron@@@std@@@std@@@2@@std@@@std@@QBEABV?$_Vector_val@U?$_Simple_types@V?$vector@VNeuron@@V?$allocator@VNeuron@@@std@@@std@@@std@@@2@XZ ; std::_Vector_alloc<std::_Vec_base_types<std::vector<Neuron,std::allocator<Neuron> >,std::allocator<std::vector<Neuron,std::allocator<Neuron> > > > >::_Get_data
PUBLIC	?_Myfirst@?$_Vector_alloc@U?$_Vec_base_types@V?$vector@VNeuron@@V?$allocator@VNeuron@@@std@@@std@@V?$allocator@V?$vector@VNeuron@@V?$allocator@VNeuron@@@std@@@std@@@2@@std@@@std@@QAEAAPAV?$vector@VNeuron@@V?$allocator@VNeuron@@@std@@@2@XZ ; std::_Vector_alloc<std::_Vec_base_types<std::vector<Neuron,std::allocator<Neuron> >,std::allocator<std::vector<Neuron,std::allocator<Neuron> > > > >::_Myfirst
PUBLIC	?_Myfirst@?$_Vector_alloc@U?$_Vec_base_types@V?$vector@VNeuron@@V?$allocator@VNeuron@@@std@@@std@@V?$allocator@V?$vector@VNeuron@@V?$allocator@VNeuron@@@std@@@std@@@2@@std@@@std@@QBEABQAV?$vector@VNeuron@@V?$allocator@VNeuron@@@std@@@2@XZ ; std::_Vector_alloc<std::_Vec_base_types<std::vector<Neuron,std::allocator<Neuron> >,std::allocator<std::vector<Neuron,std::allocator<Neuron> > > > >::_Myfirst
PUBLIC	?_Mylast@?$_Vector_alloc@U?$_Vec_base_types@V?$vector@VNeuron@@V?$allocator@VNeuron@@@std@@@std@@V?$allocator@V?$vector@VNeuron@@V?$allocator@VNeuron@@@std@@@std@@@2@@std@@@std@@QAEAAPAV?$vector@VNeuron@@V?$allocator@VNeuron@@@std@@@2@XZ ; std::_Vector_alloc<std::_Vec_base_types<std::vector<Neuron,std::allocator<Neuron> >,std::allocator<std::vector<Neuron,std::allocator<Neuron> > > > >::_Mylast
PUBLIC	?_Mylast@?$_Vector_alloc@U?$_Vec_base_types@V?$vector@VNeuron@@V?$allocator@VNeuron@@@std@@@std@@V?$allocator@V?$vector@VNeuron@@V?$allocator@VNeuron@@@std@@@std@@@2@@std@@@std@@QBEABQAV?$vector@VNeuron@@V?$allocator@VNeuron@@@std@@@2@XZ ; std::_Vector_alloc<std::_Vec_base_types<std::vector<Neuron,std::allocator<Neuron> >,std::allocator<std::vector<Neuron,std::allocator<Neuron> > > > >::_Mylast
PUBLIC	?_Myend@?$_Vector_alloc@U?$_Vec_base_types@V?$vector@VNeuron@@V?$allocator@VNeuron@@@std@@@std@@V?$allocator@V?$vector@VNeuron@@V?$allocator@VNeuron@@@std@@@std@@@2@@std@@@std@@QAEAAPAV?$vector@VNeuron@@V?$allocator@VNeuron@@@std@@@2@XZ ; std::_Vector_alloc<std::_Vec_base_types<std::vector<Neuron,std::allocator<Neuron> >,std::allocator<std::vector<Neuron,std::allocator<Neuron> > > > >::_Myend
PUBLIC	?_Myend@?$_Vector_alloc@U?$_Vec_base_types@V?$vector@VNeuron@@V?$allocator@VNeuron@@@std@@@std@@V?$allocator@V?$vector@VNeuron@@V?$allocator@VNeuron@@@std@@@std@@@2@@std@@@std@@QBEABQAV?$vector@VNeuron@@V?$allocator@VNeuron@@@std@@@2@XZ ; std::_Vector_alloc<std::_Vec_base_types<std::vector<Neuron,std::allocator<Neuron> >,std::allocator<std::vector<Neuron,std::allocator<Neuron> > > > >::_Myend
PUBLIC	??0?$_Vector_val@U?$_Simple_types@V?$vector@VNeuron@@V?$allocator@VNeuron@@@std@@@std@@@std@@@std@@QAE@XZ ; std::_Vector_val<std::_Simple_types<std::vector<Neuron,std::allocator<Neuron> > > >::_Vector_val<std::_Simple_types<std::vector<Neuron,std::allocator<Neuron> > > >
PUBLIC	??1?$_Vector_val@U?$_Simple_types@V?$vector@VNeuron@@V?$allocator@VNeuron@@@std@@@std@@@std@@@std@@QAE@XZ ; std::_Vector_val<std::_Simple_types<std::vector<Neuron,std::allocator<Neuron> > > >::~_Vector_val<std::_Simple_types<std::vector<Neuron,std::allocator<Neuron> > > >
PUBLIC	?_Get_first@?$_Compressed_pair@V?$allocator@V?$vector@VNeuron@@V?$allocator@VNeuron@@@std@@@std@@@std@@V?$_Vector_val@U?$_Simple_types@V?$vector@VNeuron@@V?$allocator@VNeuron@@@std@@@std@@@std@@@2@$00@std@@QAEAAV?$allocator@V?$vector@VNeuron@@V?$allocator@VNeuron@@@std@@@std@@@2@XZ ; std::_Compressed_pair<std::allocator<std::vector<Neuron,std::allocator<Neuron> > >,std::_Vector_val<std::_Simple_types<std::vector<Neuron,std::allocator<Neuron> > > >,1>::_Get_first
PUBLIC	?_Get_first@?$_Compressed_pair@V?$allocator@V?$vector@VNeuron@@V?$allocator@VNeuron@@@std@@@std@@@std@@V?$_Vector_val@U?$_Simple_types@V?$vector@VNeuron@@V?$allocator@VNeuron@@@std@@@std@@@std@@@2@$00@std@@QBEABV?$allocator@V?$vector@VNeuron@@V?$allocator@VNeuron@@@std@@@std@@@2@XZ ; std::_Compressed_pair<std::allocator<std::vector<Neuron,std::allocator<Neuron> > >,std::_Vector_val<std::_Simple_types<std::vector<Neuron,std::allocator<Neuron> > > >,1>::_Get_first
PUBLIC	?_Get_second@?$_Compressed_pair@V?$allocator@V?$vector@VNeuron@@V?$allocator@VNeuron@@@std@@@std@@@std@@V?$_Vector_val@U?$_Simple_types@V?$vector@VNeuron@@V?$allocator@VNeuron@@@std@@@std@@@std@@@2@$00@std@@QAEAAV?$_Vector_val@U?$_Simple_types@V?$vector@VNeuron@@V?$allocator@VNeuron@@@std@@@std@@@std@@@2@XZ ; std::_Compressed_pair<std::allocator<std::vector<Neuron,std::allocator<Neuron> > >,std::_Vector_val<std::_Simple_types<std::vector<Neuron,std::allocator<Neuron> > > >,1>::_Get_second
PUBLIC	?_Get_second@?$_Compressed_pair@V?$allocator@V?$vector@VNeuron@@V?$allocator@VNeuron@@@std@@@std@@@std@@V?$_Vector_val@U?$_Simple_types@V?$vector@VNeuron@@V?$allocator@VNeuron@@@std@@@std@@@std@@@2@$00@std@@QBEABV?$_Vector_val@U?$_Simple_types@V?$vector@VNeuron@@V?$allocator@VNeuron@@@std@@@std@@@std@@@2@XZ ; std::_Compressed_pair<std::allocator<std::vector<Neuron,std::allocator<Neuron> > >,std::_Vector_val<std::_Simple_types<std::vector<Neuron,std::allocator<Neuron> > > >,1>::_Get_second
PUBLIC	??1?$_Compressed_pair@V?$allocator@V?$vector@VNeuron@@V?$allocator@VNeuron@@@std@@@std@@@std@@V?$_Vector_val@U?$_Simple_types@V?$vector@VNeuron@@V?$allocator@VNeuron@@@std@@@std@@@std@@@2@$00@std@@QAE@XZ ; std::_Compressed_pair<std::allocator<std::vector<Neuron,std::allocator<Neuron> > >,std::_Vector_val<std::_Simple_types<std::vector<Neuron,std::allocator<Neuron> > > >,1>::~_Compressed_pair<std::allocator<std::vector<Neuron,std::allocator<Neuron> > >,std::_Vector_val<std::_Simple_types<std::vector<Neuron,std::allocator<Neuron> > > >,1>
PUBLIC	??0?$vector@V?$vector@VNeuron@@V?$allocator@VNeuron@@@std@@@std@@V?$allocator@V?$vector@VNeuron@@V?$allocator@VNeuron@@@std@@@std@@@2@@std@@QAE@XZ ; std::vector<std::vector<Neuron,std::allocator<Neuron> >,std::allocator<std::vector<Neuron,std::allocator<Neuron> > > >::vector<std::vector<Neuron,std::allocator<Neuron> >,std::allocator<std::vector<Neuron,std::allocator<Neuron> > > >
PUBLIC	??1?$vector@V?$vector@VNeuron@@V?$allocator@VNeuron@@@std@@@std@@V?$allocator@V?$vector@VNeuron@@V?$allocator@VNeuron@@@std@@@std@@@2@@std@@QAE@XZ ; std::vector<std::vector<Neuron,std::allocator<Neuron> >,std::allocator<std::vector<Neuron,std::allocator<Neuron> > > >::~vector<std::vector<Neuron,std::allocator<Neuron> >,std::allocator<std::vector<Neuron,std::allocator<Neuron> > > >
PUBLIC	?push_back@?$vector@V?$vector@VNeuron@@V?$allocator@VNeuron@@@std@@@std@@V?$allocator@V?$vector@VNeuron@@V?$allocator@VNeuron@@@std@@@std@@@2@@std@@QAEX$$QAV?$vector@VNeuron@@V?$allocator@VNeuron@@@std@@@2@@Z ; std::vector<std::vector<Neuron,std::allocator<Neuron> >,std::allocator<std::vector<Neuron,std::allocator<Neuron> > > >::push_back
PUBLIC	?empty@?$vector@V?$vector@VNeuron@@V?$allocator@VNeuron@@@std@@@std@@V?$allocator@V?$vector@VNeuron@@V?$allocator@VNeuron@@@std@@@std@@@2@@std@@QBE_NXZ ; std::vector<std::vector<Neuron,std::allocator<Neuron> >,std::allocator<std::vector<Neuron,std::allocator<Neuron> > > >::empty
PUBLIC	?size@?$vector@V?$vector@VNeuron@@V?$allocator@VNeuron@@@std@@@std@@V?$allocator@V?$vector@VNeuron@@V?$allocator@VNeuron@@@std@@@std@@@2@@std@@QBEIXZ ; std::vector<std::vector<Neuron,std::allocator<Neuron> >,std::allocator<std::vector<Neuron,std::allocator<Neuron> > > >::size
PUBLIC	?max_size@?$vector@V?$vector@VNeuron@@V?$allocator@VNeuron@@@std@@@std@@V?$allocator@V?$vector@VNeuron@@V?$allocator@VNeuron@@@std@@@std@@@2@@std@@QBEIXZ ; std::vector<std::vector<Neuron,std::allocator<Neuron> >,std::allocator<std::vector<Neuron,std::allocator<Neuron> > > >::max_size
PUBLIC	?capacity@?$vector@V?$vector@VNeuron@@V?$allocator@VNeuron@@@std@@@std@@V?$allocator@V?$vector@VNeuron@@V?$allocator@VNeuron@@@std@@@std@@@2@@std@@QBEIXZ ; std::vector<std::vector<Neuron,std::allocator<Neuron> >,std::allocator<std::vector<Neuron,std::allocator<Neuron> > > >::capacity
PUBLIC	?_Has_unused_capacity@?$vector@V?$vector@VNeuron@@V?$allocator@VNeuron@@@std@@@std@@V?$allocator@V?$vector@VNeuron@@V?$allocator@VNeuron@@@std@@@std@@@2@@std@@ABE_NXZ ; std::vector<std::vector<Neuron,std::allocator<Neuron> >,std::allocator<std::vector<Neuron,std::allocator<Neuron> > > >::_Has_unused_capacity
PUBLIC	??A?$vector@V?$vector@VNeuron@@V?$allocator@VNeuron@@@std@@@std@@V?$allocator@V?$vector@VNeuron@@V?$allocator@VNeuron@@@std@@@std@@@2@@std@@QAEAAV?$vector@VNeuron@@V?$allocator@VNeuron@@@std@@@1@I@Z ; std::vector<std::vector<Neuron,std::allocator<Neuron> >,std::allocator<std::vector<Neuron,std::allocator<Neuron> > > >::operator[]
PUBLIC	?back@?$vector@V?$vector@VNeuron@@V?$allocator@VNeuron@@@std@@@std@@V?$allocator@V?$vector@VNeuron@@V?$allocator@VNeuron@@@std@@@std@@@2@@std@@QAEAAV?$vector@VNeuron@@V?$allocator@VNeuron@@@std@@@2@XZ ; std::vector<std::vector<Neuron,std::allocator<Neuron> >,std::allocator<std::vector<Neuron,std::allocator<Neuron> > > >::back
PUBLIC	?back@?$vector@V?$vector@VNeuron@@V?$allocator@VNeuron@@@std@@@std@@V?$allocator@V?$vector@VNeuron@@V?$allocator@VNeuron@@@std@@@std@@@2@@std@@QBEABV?$vector@VNeuron@@V?$allocator@VNeuron@@@std@@@2@XZ ; std::vector<std::vector<Neuron,std::allocator<Neuron> >,std::allocator<std::vector<Neuron,std::allocator<Neuron> > > >::back
PUBLIC	?_Umove_if_noexcept1@?$vector@V?$vector@VNeuron@@V?$allocator@VNeuron@@@std@@@std@@V?$allocator@V?$vector@VNeuron@@V?$allocator@VNeuron@@@std@@@std@@@2@@std@@AAEXPAV?$vector@VNeuron@@V?$allocator@VNeuron@@@std@@@2@00U?$integral_constant@_N$00@2@@Z ; std::vector<std::vector<Neuron,std::allocator<Neuron> >,std::allocator<std::vector<Neuron,std::allocator<Neuron> > > >::_Umove_if_noexcept1
PUBLIC	?_Umove_if_noexcept@?$vector@V?$vector@VNeuron@@V?$allocator@VNeuron@@@std@@@std@@V?$allocator@V?$vector@VNeuron@@V?$allocator@VNeuron@@@std@@@std@@@2@@std@@AAEXPAV?$vector@VNeuron@@V?$allocator@VNeuron@@@std@@@2@00@Z ; std::vector<std::vector<Neuron,std::allocator<Neuron> >,std::allocator<std::vector<Neuron,std::allocator<Neuron> > > >::_Umove_if_noexcept
PUBLIC	?_Destroy@?$vector@V?$vector@VNeuron@@V?$allocator@VNeuron@@@std@@@std@@V?$allocator@V?$vector@VNeuron@@V?$allocator@VNeuron@@@std@@@std@@@2@@std@@AAEXPAV?$vector@VNeuron@@V?$allocator@VNeuron@@@std@@@2@0@Z ; std::vector<std::vector<Neuron,std::allocator<Neuron> >,std::allocator<std::vector<Neuron,std::allocator<Neuron> > > >::_Destroy
PUBLIC	?_Calculate_growth@?$vector@V?$vector@VNeuron@@V?$allocator@VNeuron@@@std@@@std@@V?$allocator@V?$vector@VNeuron@@V?$allocator@VNeuron@@@std@@@std@@@2@@std@@ABEII@Z ; std::vector<std::vector<Neuron,std::allocator<Neuron> >,std::allocator<std::vector<Neuron,std::allocator<Neuron> > > >::_Calculate_growth
PUBLIC	?_Change_array@?$vector@V?$vector@VNeuron@@V?$allocator@VNeuron@@@std@@@std@@V?$allocator@V?$vector@VNeuron@@V?$allocator@VNeuron@@@std@@@std@@@2@@std@@AAEXQAV?$vector@VNeuron@@V?$allocator@VNeuron@@@std@@@2@II@Z ; std::vector<std::vector<Neuron,std::allocator<Neuron> >,std::allocator<std::vector<Neuron,std::allocator<Neuron> > > >::_Change_array
PUBLIC	?_Tidy@?$vector@V?$vector@VNeuron@@V?$allocator@VNeuron@@@std@@@std@@V?$allocator@V?$vector@VNeuron@@V?$allocator@VNeuron@@@std@@@std@@@2@@std@@AAEXXZ ; std::vector<std::vector<Neuron,std::allocator<Neuron> >,std::allocator<std::vector<Neuron,std::allocator<Neuron> > > >::_Tidy
PUBLIC	?_Xlength@?$vector@V?$vector@VNeuron@@V?$allocator@VNeuron@@@std@@@std@@V?$allocator@V?$vector@VNeuron@@V?$allocator@VNeuron@@@std@@@std@@@2@@std@@CAXXZ ; std::vector<std::vector<Neuron,std::allocator<Neuron> >,std::allocator<std::vector<Neuron,std::allocator<Neuron> > > >::_Xlength
PUBLIC	?_Orphan_range@?$vector@V?$vector@VNeuron@@V?$allocator@VNeuron@@@std@@@std@@V?$allocator@V?$vector@VNeuron@@V?$allocator@VNeuron@@@std@@@std@@@2@@std@@ABEXPAV?$vector@VNeuron@@V?$allocator@VNeuron@@@std@@@2@0@Z ; std::vector<std::vector<Neuron,std::allocator<Neuron> >,std::allocator<std::vector<Neuron,std::allocator<Neuron> > > >::_Orphan_range
PUBLIC	?_Get_data@?$_Vector_alloc@U?$_Vec_base_types@IV?$allocator@I@std@@@std@@@std@@QBEABV?$_Vector_val@U?$_Simple_types@I@std@@@2@XZ ; std::_Vector_alloc<std::_Vec_base_types<unsigned int,std::allocator<unsigned int> > >::_Get_data
PUBLIC	?_Myfirst@?$_Vector_alloc@U?$_Vec_base_types@IV?$allocator@I@std@@@std@@@std@@QBEABQAIXZ ; std::_Vector_alloc<std::_Vec_base_types<unsigned int,std::allocator<unsigned int> > >::_Myfirst
PUBLIC	?_Mylast@?$_Vector_alloc@U?$_Vec_base_types@IV?$allocator@I@std@@@std@@@std@@QBEABQAIXZ ; std::_Vector_alloc<std::_Vec_base_types<unsigned int,std::allocator<unsigned int> > >::_Mylast
PUBLIC	?_Get_second@?$_Compressed_pair@V?$allocator@I@std@@V?$_Vector_val@U?$_Simple_types@I@std@@@2@$00@std@@QBEABV?$_Vector_val@U?$_Simple_types@I@std@@@2@XZ ; std::_Compressed_pair<std::allocator<unsigned int>,std::_Vector_val<std::_Simple_types<unsigned int> >,1>::_Get_second
PUBLIC	?size@?$vector@IV?$allocator@I@std@@@std@@QBEIXZ ; std::vector<unsigned int,std::allocator<unsigned int> >::size
PUBLIC	??A?$vector@IV?$allocator@I@std@@@std@@QBEABII@Z ; std::vector<unsigned int,std::allocator<unsigned int> >::operator[]
PUBLIC	??0?$allocator@VNeuron@@@std@@QAE@XZ		; std::allocator<Neuron>::allocator<Neuron>
PUBLIC	?deallocate@?$allocator@VNeuron@@@std@@QAEXQAVNeuron@@I@Z ; std::allocator<Neuron>::deallocate
PUBLIC	?allocate@?$allocator@VNeuron@@@std@@QAEPAVNeuron@@I@Z ; std::allocator<Neuron>::allocate
PUBLIC	?max_size@?$_Default_allocator_traits@V?$allocator@VNeuron@@@std@@@std@@SAIABV?$allocator@VNeuron@@@2@@Z ; std::_Default_allocator_traits<std::allocator<Neuron> >::max_size
PUBLIC	??0?$_Vector_alloc@U?$_Vec_base_types@VNeuron@@V?$allocator@VNeuron@@@std@@@std@@@std@@QAE@XZ ; std::_Vector_alloc<std::_Vec_base_types<Neuron,std::allocator<Neuron> > >::_Vector_alloc<std::_Vec_base_types<Neuron,std::allocator<Neuron> > >
PUBLIC	??1?$_Vector_alloc@U?$_Vec_base_types@VNeuron@@V?$allocator@VNeuron@@@std@@@std@@@std@@QAE@XZ ; std::_Vector_alloc<std::_Vec_base_types<Neuron,std::allocator<Neuron> > >::~_Vector_alloc<std::_Vec_base_types<Neuron,std::allocator<Neuron> > >
PUBLIC	?_Alloc_proxy@?$_Vector_alloc@U?$_Vec_base_types@VNeuron@@V?$allocator@VNeuron@@@std@@@std@@@std@@QAEXXZ ; std::_Vector_alloc<std::_Vec_base_types<Neuron,std::allocator<Neuron> > >::_Alloc_proxy
PUBLIC	?_Free_proxy@?$_Vector_alloc@U?$_Vec_base_types@VNeuron@@V?$allocator@VNeuron@@@std@@@std@@@std@@QAEXXZ ; std::_Vector_alloc<std::_Vec_base_types<Neuron,std::allocator<Neuron> > >::_Free_proxy
PUBLIC	?_Getpfirst@?$_Vector_alloc@U?$_Vec_base_types@VNeuron@@V?$allocator@VNeuron@@@std@@@std@@@std@@QBEPAPAU_Iterator_base12@2@XZ ; std::_Vector_alloc<std::_Vec_base_types<Neuron,std::allocator<Neuron> > >::_Getpfirst
PUBLIC	?_Myproxy@?$_Vector_alloc@U?$_Vec_base_types@VNeuron@@V?$allocator@VNeuron@@@std@@@std@@@std@@QAEAAPAU_Container_proxy@2@XZ ; std::_Vector_alloc<std::_Vec_base_types<Neuron,std::allocator<Neuron> > >::_Myproxy
PUBLIC	?_Orphan_all@?$_Vector_alloc@U?$_Vec_base_types@VNeuron@@V?$allocator@VNeuron@@@std@@@std@@@std@@QAEXXZ ; std::_Vector_alloc<std::_Vec_base_types<Neuron,std::allocator<Neuron> > >::_Orphan_all
PUBLIC	?_Swap_all@?$_Vector_alloc@U?$_Vec_base_types@VNeuron@@V?$allocator@VNeuron@@@std@@@std@@@std@@QAEXAAV12@@Z ; std::_Vector_alloc<std::_Vec_base_types<Neuron,std::allocator<Neuron> > >::_Swap_all
PUBLIC	?_Getal@?$_Vector_alloc@U?$_Vec_base_types@VNeuron@@V?$allocator@VNeuron@@@std@@@std@@@std@@QAEAAV?$allocator@VNeuron@@@2@XZ ; std::_Vector_alloc<std::_Vec_base_types<Neuron,std::allocator<Neuron> > >::_Getal
PUBLIC	?_Getal@?$_Vector_alloc@U?$_Vec_base_types@VNeuron@@V?$allocator@VNeuron@@@std@@@std@@@std@@QBEABV?$allocator@VNeuron@@@2@XZ ; std::_Vector_alloc<std::_Vec_base_types<Neuron,std::allocator<Neuron> > >::_Getal
PUBLIC	?_Get_data@?$_Vector_alloc@U?$_Vec_base_types@VNeuron@@V?$allocator@VNeuron@@@std@@@std@@@std@@QAEAAV?$_Vector_val@U?$_Simple_types@VNeuron@@@std@@@2@XZ ; std::_Vector_alloc<std::_Vec_base_types<Neuron,std::allocator<Neuron> > >::_Get_data
PUBLIC	?_Get_data@?$_Vector_alloc@U?$_Vec_base_types@VNeuron@@V?$allocator@VNeuron@@@std@@@std@@@std@@QBEABV?$_Vector_val@U?$_Simple_types@VNeuron@@@std@@@2@XZ ; std::_Vector_alloc<std::_Vec_base_types<Neuron,std::allocator<Neuron> > >::_Get_data
PUBLIC	?_Myfirst@?$_Vector_alloc@U?$_Vec_base_types@VNeuron@@V?$allocator@VNeuron@@@std@@@std@@@std@@QAEAAPAVNeuron@@XZ ; std::_Vector_alloc<std::_Vec_base_types<Neuron,std::allocator<Neuron> > >::_Myfirst
PUBLIC	?_Myfirst@?$_Vector_alloc@U?$_Vec_base_types@VNeuron@@V?$allocator@VNeuron@@@std@@@std@@@std@@QBEABQAVNeuron@@XZ ; std::_Vector_alloc<std::_Vec_base_types<Neuron,std::allocator<Neuron> > >::_Myfirst
PUBLIC	?_Mylast@?$_Vector_alloc@U?$_Vec_base_types@VNeuron@@V?$allocator@VNeuron@@@std@@@std@@@std@@QAEAAPAVNeuron@@XZ ; std::_Vector_alloc<std::_Vec_base_types<Neuron,std::allocator<Neuron> > >::_Mylast
PUBLIC	?_Mylast@?$_Vector_alloc@U?$_Vec_base_types@VNeuron@@V?$allocator@VNeuron@@@std@@@std@@@std@@QBEABQAVNeuron@@XZ ; std::_Vector_alloc<std::_Vec_base_types<Neuron,std::allocator<Neuron> > >::_Mylast
PUBLIC	?_Myend@?$_Vector_alloc@U?$_Vec_base_types@VNeuron@@V?$allocator@VNeuron@@@std@@@std@@@std@@QAEAAPAVNeuron@@XZ ; std::_Vector_alloc<std::_Vec_base_types<Neuron,std::allocator<Neuron> > >::_Myend
PUBLIC	?_Myend@?$_Vector_alloc@U?$_Vec_base_types@VNeuron@@V?$allocator@VNeuron@@@std@@@std@@@std@@QBEABQAVNeuron@@XZ ; std::_Vector_alloc<std::_Vec_base_types<Neuron,std::allocator<Neuron> > >::_Myend
PUBLIC	??0?$_Vector_val@U?$_Simple_types@VNeuron@@@std@@@std@@QAE@XZ ; std::_Vector_val<std::_Simple_types<Neuron> >::_Vector_val<std::_Simple_types<Neuron> >
PUBLIC	??1?$_Vector_val@U?$_Simple_types@VNeuron@@@std@@@std@@QAE@XZ ; std::_Vector_val<std::_Simple_types<Neuron> >::~_Vector_val<std::_Simple_types<Neuron> >
PUBLIC	?_Get_first@?$_Compressed_pair@V?$allocator@VNeuron@@@std@@V?$_Vector_val@U?$_Simple_types@VNeuron@@@std@@@2@$00@std@@QAEAAV?$allocator@VNeuron@@@2@XZ ; std::_Compressed_pair<std::allocator<Neuron>,std::_Vector_val<std::_Simple_types<Neuron> >,1>::_Get_first
PUBLIC	?_Get_first@?$_Compressed_pair@V?$allocator@VNeuron@@@std@@V?$_Vector_val@U?$_Simple_types@VNeuron@@@std@@@2@$00@std@@QBEABV?$allocator@VNeuron@@@2@XZ ; std::_Compressed_pair<std::allocator<Neuron>,std::_Vector_val<std::_Simple_types<Neuron> >,1>::_Get_first
PUBLIC	?_Get_second@?$_Compressed_pair@V?$allocator@VNeuron@@@std@@V?$_Vector_val@U?$_Simple_types@VNeuron@@@std@@@2@$00@std@@QAEAAV?$_Vector_val@U?$_Simple_types@VNeuron@@@std@@@2@XZ ; std::_Compressed_pair<std::allocator<Neuron>,std::_Vector_val<std::_Simple_types<Neuron> >,1>::_Get_second
PUBLIC	?_Get_second@?$_Compressed_pair@V?$allocator@VNeuron@@@std@@V?$_Vector_val@U?$_Simple_types@VNeuron@@@std@@@2@$00@std@@QBEABV?$_Vector_val@U?$_Simple_types@VNeuron@@@std@@@2@XZ ; std::_Compressed_pair<std::allocator<Neuron>,std::_Vector_val<std::_Simple_types<Neuron> >,1>::_Get_second
PUBLIC	??1?$_Compressed_pair@V?$allocator@VNeuron@@@std@@V?$_Vector_val@U?$_Simple_types@VNeuron@@@std@@@2@$00@std@@QAE@XZ ; std::_Compressed_pair<std::allocator<Neuron>,std::_Vector_val<std::_Simple_types<Neuron> >,1>::~_Compressed_pair<std::allocator<Neuron>,std::_Vector_val<std::_Simple_types<Neuron> >,1>
PUBLIC	??0?$vector@VNeuron@@V?$allocator@VNeuron@@@std@@@std@@QAE@XZ ; std::vector<Neuron,std::allocator<Neuron> >::vector<Neuron,std::allocator<Neuron> >
PUBLIC	?_Move_from@?$vector@VNeuron@@V?$allocator@VNeuron@@@std@@@std@@AAEX$$QAV12@U?$integral_constant@_N$00@2@@Z ; std::vector<Neuron,std::allocator<Neuron> >::_Move_from
PUBLIC	??0?$vector@VNeuron@@V?$allocator@VNeuron@@@std@@@std@@QAE@$$QAV01@@Z ; std::vector<Neuron,std::allocator<Neuron> >::vector<Neuron,std::allocator<Neuron> >
PUBLIC	??1?$vector@VNeuron@@V?$allocator@VNeuron@@@std@@@std@@QAE@XZ ; std::vector<Neuron,std::allocator<Neuron> >::~vector<Neuron,std::allocator<Neuron> >
PUBLIC	?push_back@?$vector@VNeuron@@V?$allocator@VNeuron@@@std@@@std@@QAEX$$QAVNeuron@@@Z ; std::vector<Neuron,std::allocator<Neuron> >::push_back
PUBLIC	?empty@?$vector@VNeuron@@V?$allocator@VNeuron@@@std@@@std@@QBE_NXZ ; std::vector<Neuron,std::allocator<Neuron> >::empty
PUBLIC	?size@?$vector@VNeuron@@V?$allocator@VNeuron@@@std@@@std@@QBEIXZ ; std::vector<Neuron,std::allocator<Neuron> >::size
PUBLIC	?max_size@?$vector@VNeuron@@V?$allocator@VNeuron@@@std@@@std@@QBEIXZ ; std::vector<Neuron,std::allocator<Neuron> >::max_size
PUBLIC	?capacity@?$vector@VNeuron@@V?$allocator@VNeuron@@@std@@@std@@QBEIXZ ; std::vector<Neuron,std::allocator<Neuron> >::capacity
PUBLIC	?_Has_unused_capacity@?$vector@VNeuron@@V?$allocator@VNeuron@@@std@@@std@@ABE_NXZ ; std::vector<Neuron,std::allocator<Neuron> >::_Has_unused_capacity
PUBLIC	??A?$vector@VNeuron@@V?$allocator@VNeuron@@@std@@@std@@QAEAAVNeuron@@I@Z ; std::vector<Neuron,std::allocator<Neuron> >::operator[]
PUBLIC	??A?$vector@VNeuron@@V?$allocator@VNeuron@@@std@@@std@@QBEABVNeuron@@I@Z ; std::vector<Neuron,std::allocator<Neuron> >::operator[]
PUBLIC	?back@?$vector@VNeuron@@V?$allocator@VNeuron@@@std@@@std@@QAEAAVNeuron@@XZ ; std::vector<Neuron,std::allocator<Neuron> >::back
PUBLIC	?_Umove_if_noexcept1@?$vector@VNeuron@@V?$allocator@VNeuron@@@std@@@std@@AAEXPAVNeuron@@00U?$integral_constant@_N$0A@@2@@Z ; std::vector<Neuron,std::allocator<Neuron> >::_Umove_if_noexcept1
PUBLIC	?_Umove_if_noexcept@?$vector@VNeuron@@V?$allocator@VNeuron@@@std@@@std@@AAEXPAVNeuron@@00@Z ; std::vector<Neuron,std::allocator<Neuron> >::_Umove_if_noexcept
PUBLIC	?_Destroy@?$vector@VNeuron@@V?$allocator@VNeuron@@@std@@@std@@AAEXPAVNeuron@@0@Z ; std::vector<Neuron,std::allocator<Neuron> >::_Destroy
PUBLIC	?_Calculate_growth@?$vector@VNeuron@@V?$allocator@VNeuron@@@std@@@std@@ABEII@Z ; std::vector<Neuron,std::allocator<Neuron> >::_Calculate_growth
PUBLIC	?_Change_array@?$vector@VNeuron@@V?$allocator@VNeuron@@@std@@@std@@AAEXQAVNeuron@@II@Z ; std::vector<Neuron,std::allocator<Neuron> >::_Change_array
PUBLIC	?_Tidy@?$vector@VNeuron@@V?$allocator@VNeuron@@@std@@@std@@AAEXXZ ; std::vector<Neuron,std::allocator<Neuron> >::_Tidy
PUBLIC	?_Xlength@?$vector@VNeuron@@V?$allocator@VNeuron@@@std@@@std@@CAXXZ ; std::vector<Neuron,std::allocator<Neuron> >::_Xlength
PUBLIC	?_Orphan_range@?$vector@VNeuron@@V?$allocator@VNeuron@@@std@@@std@@ABEXPAVNeuron@@0@Z ; std::vector<Neuron,std::allocator<Neuron> >::_Orphan_range
PUBLIC	??_G?$vector@VNeuron@@V?$allocator@VNeuron@@@std@@@std@@QAEPAXI@Z ; std::vector<Neuron,std::allocator<Neuron> >::`scalar deleting destructor'
PUBLIC	?deallocate@?$allocator@N@std@@QAEXQANI@Z	; std::allocator<double>::deallocate
PUBLIC	?allocate@?$allocator@N@std@@QAEPANI@Z		; std::allocator<double>::allocate
PUBLIC	?max_size@?$_Default_allocator_traits@V?$allocator@N@std@@@std@@SAIABV?$allocator@N@2@@Z ; std::_Default_allocator_traits<std::allocator<double> >::max_size
PUBLIC	?_Getpfirst@?$_Vector_alloc@U?$_Vec_base_types@NV?$allocator@N@std@@@std@@@std@@QBEPAPAU_Iterator_base12@2@XZ ; std::_Vector_alloc<std::_Vec_base_types<double,std::allocator<double> > >::_Getpfirst
PUBLIC	?_Orphan_all@?$_Vector_alloc@U?$_Vec_base_types@NV?$allocator@N@std@@@std@@@std@@QAEXXZ ; std::_Vector_alloc<std::_Vec_base_types<double,std::allocator<double> > >::_Orphan_all
PUBLIC	?_Getal@?$_Vector_alloc@U?$_Vec_base_types@NV?$allocator@N@std@@@std@@@std@@QAEAAV?$allocator@N@2@XZ ; std::_Vector_alloc<std::_Vec_base_types<double,std::allocator<double> > >::_Getal
PUBLIC	?_Getal@?$_Vector_alloc@U?$_Vec_base_types@NV?$allocator@N@std@@@std@@@std@@QBEABV?$allocator@N@2@XZ ; std::_Vector_alloc<std::_Vec_base_types<double,std::allocator<double> > >::_Getal
PUBLIC	?_Get_data@?$_Vector_alloc@U?$_Vec_base_types@NV?$allocator@N@std@@@std@@@std@@QAEAAV?$_Vector_val@U?$_Simple_types@N@std@@@2@XZ ; std::_Vector_alloc<std::_Vec_base_types<double,std::allocator<double> > >::_Get_data
PUBLIC	?_Get_data@?$_Vector_alloc@U?$_Vec_base_types@NV?$allocator@N@std@@@std@@@std@@QBEABV?$_Vector_val@U?$_Simple_types@N@std@@@2@XZ ; std::_Vector_alloc<std::_Vec_base_types<double,std::allocator<double> > >::_Get_data
PUBLIC	?_Myfirst@?$_Vector_alloc@U?$_Vec_base_types@NV?$allocator@N@std@@@std@@@std@@QAEAAPANXZ ; std::_Vector_alloc<std::_Vec_base_types<double,std::allocator<double> > >::_Myfirst
PUBLIC	?_Myfirst@?$_Vector_alloc@U?$_Vec_base_types@NV?$allocator@N@std@@@std@@@std@@QBEABQANXZ ; std::_Vector_alloc<std::_Vec_base_types<double,std::allocator<double> > >::_Myfirst
PUBLIC	?_Mylast@?$_Vector_alloc@U?$_Vec_base_types@NV?$allocator@N@std@@@std@@@std@@QAEAAPANXZ ; std::_Vector_alloc<std::_Vec_base_types<double,std::allocator<double> > >::_Mylast
PUBLIC	?_Mylast@?$_Vector_alloc@U?$_Vec_base_types@NV?$allocator@N@std@@@std@@@std@@QBEABQANXZ ; std::_Vector_alloc<std::_Vec_base_types<double,std::allocator<double> > >::_Mylast
PUBLIC	?_Myend@?$_Vector_alloc@U?$_Vec_base_types@NV?$allocator@N@std@@@std@@@std@@QAEAAPANXZ ; std::_Vector_alloc<std::_Vec_base_types<double,std::allocator<double> > >::_Myend
PUBLIC	?_Myend@?$_Vector_alloc@U?$_Vec_base_types@NV?$allocator@N@std@@@std@@@std@@QBEABQANXZ ; std::_Vector_alloc<std::_Vec_base_types<double,std::allocator<double> > >::_Myend
PUBLIC	?_Get_first@?$_Compressed_pair@V?$allocator@N@std@@V?$_Vector_val@U?$_Simple_types@N@std@@@2@$00@std@@QAEAAV?$allocator@N@2@XZ ; std::_Compressed_pair<std::allocator<double>,std::_Vector_val<std::_Simple_types<double> >,1>::_Get_first
PUBLIC	?_Get_first@?$_Compressed_pair@V?$allocator@N@std@@V?$_Vector_val@U?$_Simple_types@N@std@@@2@$00@std@@QBEABV?$allocator@N@2@XZ ; std::_Compressed_pair<std::allocator<double>,std::_Vector_val<std::_Simple_types<double> >,1>::_Get_first
PUBLIC	?_Get_second@?$_Compressed_pair@V?$allocator@N@std@@V?$_Vector_val@U?$_Simple_types@N@std@@@2@$00@std@@QAEAAV?$_Vector_val@U?$_Simple_types@N@std@@@2@XZ ; std::_Compressed_pair<std::allocator<double>,std::_Vector_val<std::_Simple_types<double> >,1>::_Get_second
PUBLIC	?_Get_second@?$_Compressed_pair@V?$allocator@N@std@@V?$_Vector_val@U?$_Simple_types@N@std@@@2@$00@std@@QBEABV?$_Vector_val@U?$_Simple_types@N@std@@@2@XZ ; std::_Compressed_pair<std::allocator<double>,std::_Vector_val<std::_Simple_types<double> >,1>::_Get_second
PUBLIC	?push_back@?$vector@NV?$allocator@N@std@@@std@@QAEX$$QAN@Z ; std::vector<double,std::allocator<double> >::push_back
PUBLIC	?clear@?$vector@NV?$allocator@N@std@@@std@@QAEXXZ ; std::vector<double,std::allocator<double> >::clear
PUBLIC	?size@?$vector@NV?$allocator@N@std@@@std@@QBEIXZ ; std::vector<double,std::allocator<double> >::size
PUBLIC	?max_size@?$vector@NV?$allocator@N@std@@@std@@QBEIXZ ; std::vector<double,std::allocator<double> >::max_size
PUBLIC	?capacity@?$vector@NV?$allocator@N@std@@@std@@QBEIXZ ; std::vector<double,std::allocator<double> >::capacity
PUBLIC	?_Has_unused_capacity@?$vector@NV?$allocator@N@std@@@std@@ABE_NXZ ; std::vector<double,std::allocator<double> >::_Has_unused_capacity
PUBLIC	??A?$vector@NV?$allocator@N@std@@@std@@QBEABNI@Z ; std::vector<double,std::allocator<double> >::operator[]
PUBLIC	?_Umove_if_noexcept1@?$vector@NV?$allocator@N@std@@@std@@AAEXPAN00U?$integral_constant@_N$00@2@@Z ; std::vector<double,std::allocator<double> >::_Umove_if_noexcept1
PUBLIC	?_Umove_if_noexcept@?$vector@NV?$allocator@N@std@@@std@@AAEXPAN00@Z ; std::vector<double,std::allocator<double> >::_Umove_if_noexcept
PUBLIC	?_Destroy@?$vector@NV?$allocator@N@std@@@std@@AAEXPAN0@Z ; std::vector<double,std::allocator<double> >::_Destroy
PUBLIC	?_Calculate_growth@?$vector@NV?$allocator@N@std@@@std@@ABEII@Z ; std::vector<double,std::allocator<double> >::_Calculate_growth
PUBLIC	?_Change_array@?$vector@NV?$allocator@N@std@@@std@@AAEXQANII@Z ; std::vector<double,std::allocator<double> >::_Change_array
PUBLIC	?_Xlength@?$vector@NV?$allocator@N@std@@@std@@CAXXZ ; std::vector<double,std::allocator<double> >::_Xlength
PUBLIC	?_Orphan_range@?$vector@NV?$allocator@N@std@@@std@@ABEXPAN0@Z ; std::vector<double,std::allocator<double> >::_Orphan_range
PUBLIC	??$move@AAV?$vector@VNeuron@@V?$allocator@VNeuron@@@std@@@std@@@std@@YA$$QAV?$vector@VNeuron@@V?$allocator@VNeuron@@@std@@@0@AAV10@@Z ; std::move<std::vector<Neuron,std::allocator<Neuron> > &>
PUBLIC	??$emplace_back@V?$vector@VNeuron@@V?$allocator@VNeuron@@@std@@@std@@@?$vector@V?$vector@VNeuron@@V?$allocator@VNeuron@@@std@@@std@@V?$allocator@V?$vector@VNeuron@@V?$allocator@VNeuron@@@std@@@std@@@2@@std@@QAE@$$QAV?$vector@VNeuron@@V?$allocator@VNeuron@@@std@@@1@@Z ; std::vector<std::vector<Neuron,std::allocator<Neuron> >,std::allocator<std::vector<Neuron,std::allocator<Neuron> > > >::emplace_back<std::vector<Neuron,std::allocator<Neuron> > >
PUBLIC	??$forward@V?$vector@VNeuron@@V?$allocator@VNeuron@@@std@@@std@@@std@@YA$$QAV?$vector@VNeuron@@V?$allocator@VNeuron@@@std@@@0@AAV10@@Z ; std::forward<std::vector<Neuron,std::allocator<Neuron> > >
PUBLIC	??$_Emplace_back_with_unused_capacity@V?$vector@VNeuron@@V?$allocator@VNeuron@@@std@@@std@@@?$vector@V?$vector@VNeuron@@V?$allocator@VNeuron@@@std@@@std@@V?$allocator@V?$vector@VNeuron@@V?$allocator@VNeuron@@@std@@@std@@@2@@std@@AAEX$$QAV?$vector@VNeuron@@V?$allocator@VNeuron@@@std@@@1@@Z ; std::vector<std::vector<Neuron,std::allocator<Neuron> >,std::allocator<std::vector<Neuron,std::allocator<Neuron> > > >::_Emplace_back_with_unused_capacity<std::vector<Neuron,std::allocator<Neuron> > >
PUBLIC	??$_Unfancy@V?$vector@VNeuron@@V?$allocator@VNeuron@@@std@@@std@@@std@@YAPAV?$vector@VNeuron@@V?$allocator@VNeuron@@@std@@@0@PAV10@@Z ; std::_Unfancy<std::vector<Neuron,std::allocator<Neuron> > >
PUBLIC	??$construct@V?$vector@VNeuron@@V?$allocator@VNeuron@@@std@@@std@@V12@@?$_Default_allocator_traits@V?$allocator@V?$vector@VNeuron@@V?$allocator@VNeuron@@@std@@@std@@@std@@@std@@SAXAAV?$allocator@V?$vector@VNeuron@@V?$allocator@VNeuron@@@std@@@std@@@1@QAV?$vector@VNeuron@@V?$allocator@VNeuron@@@std@@@1@$$QAV31@@Z ; std::_Default_allocator_traits<std::allocator<std::vector<Neuron,std::allocator<Neuron> > > >::construct<std::vector<Neuron,std::allocator<Neuron> >,std::vector<Neuron,std::allocator<Neuron> > >
PUBLIC	??$destroy@V?$vector@VNeuron@@V?$allocator@VNeuron@@@std@@@std@@@?$_Default_allocator_traits@V?$allocator@V?$vector@VNeuron@@V?$allocator@VNeuron@@@std@@@std@@@std@@@std@@SAXAAV?$allocator@V?$vector@VNeuron@@V?$allocator@VNeuron@@@std@@@std@@@1@QAV?$vector@VNeuron@@V?$allocator@VNeuron@@@std@@@1@@Z ; std::_Default_allocator_traits<std::allocator<std::vector<Neuron,std::allocator<Neuron> > > >::destroy<std::vector<Neuron,std::allocator<Neuron> > >
PUBLIC	??$move@AAN@std@@YA$$QANAAN@Z			; std::move<double &>
PUBLIC	??$emplace_back@N@?$vector@NV?$allocator@N@std@@@std@@QAE@$$QAN@Z ; std::vector<double,std::allocator<double> >::emplace_back<double>
PUBLIC	??$forward@N@std@@YA$$QANAAN@Z			; std::forward<double>
PUBLIC	??$_Emplace_back_with_unused_capacity@N@?$vector@NV?$allocator@N@std@@@std@@AAEX$$QAN@Z ; std::vector<double,std::allocator<double> >::_Emplace_back_with_unused_capacity<double>
PUBLIC	??$_Unfancy@N@std@@YAPANPAN@Z			; std::_Unfancy<double>
PUBLIC	??$construct@NN@?$_Default_allocator_traits@V?$allocator@N@std@@@std@@SAXAAV?$allocator@N@1@QAN$$QAN@Z ; std::_Default_allocator_traits<std::allocator<double> >::construct<double,double>
PUBLIC	??$destroy@N@?$_Default_allocator_traits@V?$allocator@N@std@@@std@@SAXAAV?$allocator@N@1@QAN@Z ; std::_Default_allocator_traits<std::allocator<double> >::destroy<double>
PUBLIC	??$move@AAVNeuron@@@std@@YA$$QAVNeuron@@AAV1@@Z	; std::move<Neuron &>
PUBLIC	??$emplace_back@VNeuron@@@?$vector@VNeuron@@V?$allocator@VNeuron@@@std@@@std@@QAE@$$QAVNeuron@@@Z ; std::vector<Neuron,std::allocator<Neuron> >::emplace_back<Neuron>
PUBLIC	??$forward@VNeuron@@@std@@YA$$QAVNeuron@@AAV1@@Z ; std::forward<Neuron>
PUBLIC	??$_Emplace_back_with_unused_capacity@VNeuron@@@?$vector@VNeuron@@V?$allocator@VNeuron@@@std@@@std@@AAEX$$QAVNeuron@@@Z ; std::vector<Neuron,std::allocator<Neuron> >::_Emplace_back_with_unused_capacity<Neuron>
PUBLIC	??$_Unfancy@VNeuron@@@std@@YAPAVNeuron@@PAV1@@Z	; std::_Unfancy<Neuron>
PUBLIC	??$construct@VNeuron@@V1@@?$_Default_allocator_traits@V?$allocator@VNeuron@@@std@@@std@@SAXAAV?$allocator@VNeuron@@@1@QAVNeuron@@$$QAV3@@Z ; std::_Default_allocator_traits<std::allocator<Neuron> >::construct<Neuron,Neuron>
PUBLIC	??$destroy@VNeuron@@@?$_Default_allocator_traits@V?$allocator@VNeuron@@@std@@@std@@SAXAAV?$allocator@VNeuron@@@1@QAVNeuron@@@Z ; std::_Default_allocator_traits<std::allocator<Neuron> >::destroy<Neuron>
PUBLIC	??$?0$$V@?$_Compressed_pair@V?$allocator@VNeuron@@@std@@V?$_Vector_val@U?$_Simple_types@VNeuron@@@std@@@2@$00@std@@QAE@U_Zero_then_variadic_args_t@1@@Z ; std::_Compressed_pair<std::allocator<Neuron>,std::_Vector_val<std::_Simple_types<Neuron> >,1>::_Compressed_pair<std::allocator<Neuron>,std::_Vector_val<std::_Simple_types<Neuron> >,1><>
PUBLIC	??$?0$$V@?$_Compressed_pair@V?$allocator@V?$vector@VNeuron@@V?$allocator@VNeuron@@@std@@@std@@@std@@V?$_Vector_val@U?$_Simple_types@V?$vector@VNeuron@@V?$allocator@VNeuron@@@std@@@std@@@std@@@2@$00@std@@QAE@U_Zero_then_variadic_args_t@1@@Z ; std::_Compressed_pair<std::allocator<std::vector<Neuron,std::allocator<Neuron> > >,std::_Vector_val<std::_Simple_types<std::vector<Neuron,std::allocator<Neuron> > > >,1>::_Compressed_pair<std::allocator<std::vector<Neuron,std::allocator<Neuron> > >,std::_Vector_val<std::_Simple_types<std::vector<Neuron,std::allocator<Neuron> > > >,1><>
PUBLIC	??$_Min_value@I@std@@YAABIABI0@Z		; std::_Min_value<unsigned int>
PUBLIC	??$_Destroy_range@V?$allocator@N@std@@@std@@YAXPAN0AAV?$allocator@N@0@@Z ; std::_Destroy_range<std::allocator<double> >
PUBLIC	?allocate@?$allocator@U_Container_proxy@std@@@std@@QAEPAU_Container_proxy@2@I@Z ; std::allocator<std::_Container_proxy>::allocate
PUBLIC	??$?0VNeuron@@@?$allocator@U_Container_proxy@std@@@std@@QAE@ABV?$allocator@VNeuron@@@1@@Z ; std::allocator<std::_Container_proxy>::allocator<std::_Container_proxy><Neuron>
PUBLIC	?deallocate@?$_Default_allocator_traits@V?$allocator@U_Container_proxy@std@@@std@@@std@@SAXAAV?$allocator@U_Container_proxy@std@@@2@QAU_Container_proxy@2@I@Z ; std::_Default_allocator_traits<std::allocator<std::_Container_proxy> >::deallocate
PUBLIC	??$destroy@U_Container_proxy@std@@@?$_Default_allocator_traits@V?$allocator@U_Container_proxy@std@@@std@@@std@@SAXAAV?$allocator@U_Container_proxy@std@@@1@QAU_Container_proxy@1@@Z ; std::_Default_allocator_traits<std::allocator<std::_Container_proxy> >::destroy<std::_Container_proxy>
PUBLIC	??$_Deallocate_plain@V?$allocator@U_Container_proxy@std@@@std@@$0A@@std@@YAXAAV?$allocator@U_Container_proxy@std@@@0@QAU_Container_proxy@0@@Z ; std::_Deallocate_plain<std::allocator<std::_Container_proxy>,0>
PUBLIC	??$_Unfancy@U_Container_proxy@std@@@std@@YAPAU_Container_proxy@0@PAU10@@Z ; std::_Unfancy<std::_Container_proxy>
PUBLIC	??$construct@U_Container_proxy@std@@U12@@?$_Default_allocator_traits@V?$allocator@U_Container_proxy@std@@@std@@@std@@SAXAAV?$allocator@U_Container_proxy@std@@@1@QAU_Container_proxy@1@$$QAU31@@Z ; std::_Default_allocator_traits<std::allocator<std::_Container_proxy> >::construct<std::_Container_proxy,std::_Container_proxy>
PUBLIC	??$addressof@V?$_Vector_val@U?$_Simple_types@VNeuron@@@std@@@std@@@std@@YAPAV?$_Vector_val@U?$_Simple_types@VNeuron@@@std@@@0@AAV10@@Z ; std::addressof<std::_Vector_val<std::_Simple_types<Neuron> > >
PUBLIC	??$?0V?$vector@VNeuron@@V?$allocator@VNeuron@@@std@@@std@@@?$allocator@U_Container_proxy@std@@@std@@QAE@ABV?$allocator@V?$vector@VNeuron@@V?$allocator@VNeuron@@@std@@@std@@@1@@Z ; std::allocator<std::_Container_proxy>::allocator<std::_Container_proxy><std::vector<Neuron,std::allocator<Neuron> > >
PUBLIC	??$addressof@V?$_Vector_val@U?$_Simple_types@V?$vector@VNeuron@@V?$allocator@VNeuron@@@std@@@std@@@std@@@std@@@std@@YAPAV?$_Vector_val@U?$_Simple_types@V?$vector@VNeuron@@V?$allocator@VNeuron@@@std@@@std@@@std@@@0@AAV10@@Z ; std::addressof<std::_Vector_val<std::_Simple_types<std::vector<Neuron,std::allocator<Neuron> > > > >
PUBLIC	??$_Destroy_range@V?$allocator@V?$vector@VNeuron@@V?$allocator@VNeuron@@@std@@@std@@@std@@@std@@YAXPAV?$vector@VNeuron@@V?$allocator@VNeuron@@@std@@@0@0AAV?$allocator@V?$vector@VNeuron@@V?$allocator@VNeuron@@@std@@@std@@@0@@Z ; std::_Destroy_range<std::allocator<std::vector<Neuron,std::allocator<Neuron> > > >
PUBLIC	??$_Uninitialized_move@PAV?$vector@VNeuron@@V?$allocator@VNeuron@@@std@@@std@@PAV12@V?$allocator@V?$vector@VNeuron@@V?$allocator@VNeuron@@@std@@@std@@@2@@std@@YAPAV?$vector@VNeuron@@V?$allocator@VNeuron@@@std@@@0@PAV10@00AAV?$allocator@V?$vector@VNeuron@@V?$allocator@VNeuron@@@std@@@std@@@0@@Z ; std::_Uninitialized_move<std::vector<Neuron,std::allocator<Neuron> > *,std::vector<Neuron,std::allocator<Neuron> > *,std::allocator<std::vector<Neuron,std::allocator<Neuron> > > >
PUBLIC	??$_Uninitialized_move@PANPANV?$allocator@N@std@@@std@@YAPANPAN00AAV?$allocator@N@0@@Z ; std::_Uninitialized_move<double *,double *,std::allocator<double> >
PUBLIC	??$_Destroy_range@V?$allocator@VNeuron@@@std@@@std@@YAXPAVNeuron@@0AAV?$allocator@VNeuron@@@0@@Z ; std::_Destroy_range<std::allocator<Neuron> >
PUBLIC	??$_Uninitialized_copy@PAVNeuron@@PAV1@V?$allocator@VNeuron@@@std@@@std@@YAPAVNeuron@@PAV1@00AAV?$allocator@VNeuron@@@0@@Z ; std::_Uninitialized_copy<Neuron *,Neuron *,std::allocator<Neuron> >
PUBLIC	??$_Destroy_range1@V?$allocator@N@std@@@std@@YAXPAN0AAV?$allocator@N@0@U?$integral_constant@_N$00@0@@Z ; std::_Destroy_range1<std::allocator<double> >
PUBLIC	??$forward@U_Container_proxy@std@@@std@@YA$$QAU_Container_proxy@0@AAU10@@Z ; std::forward<std::_Container_proxy>
PUBLIC	??$_Destroy_range1@V?$allocator@V?$vector@VNeuron@@V?$allocator@VNeuron@@@std@@@std@@@std@@@std@@YAXPAV?$vector@VNeuron@@V?$allocator@VNeuron@@@std@@@0@0AAV?$allocator@V?$vector@VNeuron@@V?$allocator@VNeuron@@@std@@@std@@@0@U?$integral_constant@_N$0A@@0@@Z ; std::_Destroy_range1<std::allocator<std::vector<Neuron,std::allocator<Neuron> > > >
PUBLIC	??$_Unchecked@PAV?$vector@VNeuron@@V?$allocator@VNeuron@@@std@@@std@@@std@@YAPAV?$vector@VNeuron@@V?$allocator@VNeuron@@@std@@@0@PAV10@@Z ; std::_Unchecked<std::vector<Neuron,std::allocator<Neuron> > *>
PUBLIC	??$_Ptr_move_cat@V?$vector@VNeuron@@V?$allocator@VNeuron@@@std@@@std@@V12@@std@@YA?AU_General_ptr_iterator_tag@0@ABQAV?$vector@VNeuron@@V?$allocator@VNeuron@@@std@@@0@0@Z ; std::_Ptr_move_cat<std::vector<Neuron,std::allocator<Neuron> >,std::vector<Neuron,std::allocator<Neuron> > >
PUBLIC	??$_Uninitialized_move_al_unchecked@PAV?$vector@VNeuron@@V?$allocator@VNeuron@@@std@@@std@@PAV12@V?$allocator@V?$vector@VNeuron@@V?$allocator@VNeuron@@@std@@@std@@@2@@std@@YAPAV?$vector@VNeuron@@V?$allocator@VNeuron@@@std@@@0@PAV10@00AAV?$allocator@V?$vector@VNeuron@@V?$allocator@VNeuron@@@std@@@std@@@0@U_General_ptr_iterator_tag@0@U_Unused_parameter@0@@Z ; std::_Uninitialized_move_al_unchecked<std::vector<Neuron,std::allocator<Neuron> > *,std::vector<Neuron,std::allocator<Neuron> > *,std::allocator<std::vector<Neuron,std::allocator<Neuron> > > >
PUBLIC	??$?0U?$integral_constant@_N$00@std@@@_Unused_parameter@std@@QAE@$$QAU?$integral_constant@_N$00@1@@Z ; std::_Unused_parameter::_Unused_parameter<std::integral_constant<bool,1> >
PUBLIC	??$_Rechecked@PAV?$vector@VNeuron@@V?$allocator@VNeuron@@@std@@@std@@PAV12@@std@@YAAAPAV?$vector@VNeuron@@V?$allocator@VNeuron@@@std@@@0@AAPAV10@PAV10@@Z ; std::_Rechecked<std::vector<Neuron,std::allocator<Neuron> > *,std::vector<Neuron,std::allocator<Neuron> > *>
PUBLIC	??$_Unchecked@PAN@std@@YAPANPAN@Z		; std::_Unchecked<double *>
PUBLIC	??$_Ptr_move_cat@NN@std@@YA?AU_Really_trivial_ptr_iterator_tag@0@ABQAN0@Z ; std::_Ptr_move_cat<double,double>
PUBLIC	??$_Uninitialized_move_al_unchecked@NNV?$allocator@N@std@@@std@@YAPANPAN00AAV?$allocator@N@0@U_Really_trivial_ptr_iterator_tag@0@U?$integral_constant@_N$00@0@@Z ; std::_Uninitialized_move_al_unchecked<double,double,std::allocator<double> >
PUBLIC	??$_Rechecked@PANPAN@std@@YAAAPANAAPANPAN@Z	; std::_Rechecked<double *,double *>
PUBLIC	??$_Destroy_range1@V?$allocator@VNeuron@@@std@@@std@@YAXPAVNeuron@@0AAV?$allocator@VNeuron@@@0@U?$integral_constant@_N$0A@@0@@Z ; std::_Destroy_range1<std::allocator<Neuron> >
PUBLIC	??$_Unchecked@PAVNeuron@@@std@@YAPAVNeuron@@PAV1@@Z ; std::_Unchecked<Neuron *>
PUBLIC	??$_Ptr_copy_cat@VNeuron@@V1@@std@@YA?AU_General_ptr_iterator_tag@0@ABQAVNeuron@@0@Z ; std::_Ptr_copy_cat<Neuron,Neuron>
PUBLIC	??$_Uninitialized_copy_al_unchecked@PAVNeuron@@PAV1@V?$allocator@VNeuron@@@std@@@std@@YAPAVNeuron@@PAV1@00AAV?$allocator@VNeuron@@@0@U_General_ptr_iterator_tag@0@U_Unused_parameter@0@@Z ; std::_Uninitialized_copy_al_unchecked<Neuron *,Neuron *,std::allocator<Neuron> >
PUBLIC	??$_Rechecked@PAVNeuron@@PAV1@@std@@YAAAPAVNeuron@@AAPAV1@PAV1@@Z ; std::_Rechecked<Neuron *,Neuron *>
PUBLIC	??$?0V?$allocator@UConnection@@@std@@X@?$_Vector_alloc@U?$_Vec_base_types@UConnection@@V?$allocator@UConnection@@@std@@@std@@@std@@QAE@$$QAV?$allocator@UConnection@@@1@@Z ; std::_Vector_alloc<std::_Vec_base_types<Connection,std::allocator<Connection> > >::_Vector_alloc<std::_Vec_base_types<Connection,std::allocator<Connection> > ><std::allocator<Connection>,void>
PUBLIC	??$_Ucopy@PAUConnection@@@?$vector@UConnection@@V?$allocator@UConnection@@@std@@@std@@AAEPAUConnection@@PAU2@00@Z ; std::vector<Connection,std::allocator<Connection> >::_Ucopy<Connection *>
PUBLIC	??$move@AAV?$allocator@VNeuron@@@std@@@std@@YA$$QAV?$allocator@VNeuron@@@0@AAV10@@Z ; std::move<std::allocator<Neuron> &>
PUBLIC	??$?0V?$allocator@VNeuron@@@std@@X@?$_Vector_alloc@U?$_Vec_base_types@VNeuron@@V?$allocator@VNeuron@@@std@@@std@@@std@@QAE@$$QAV?$allocator@VNeuron@@@1@@Z ; std::_Vector_alloc<std::_Vec_base_types<Neuron,std::allocator<Neuron> > >::_Vector_alloc<std::_Vec_base_types<Neuron,std::allocator<Neuron> > ><std::allocator<Neuron>,void>
PUBLIC	??$?0UConnection@@@?$allocator@U_Container_proxy@std@@@std@@QAE@ABV?$allocator@UConnection@@@1@@Z ; std::allocator<std::_Container_proxy>::allocator<std::_Container_proxy><Connection>
PUBLIC	??$_Destroy_range@V?$allocator@UConnection@@@std@@@std@@YAXPAUConnection@@0AAV?$allocator@UConnection@@@0@@Z ; std::_Destroy_range<std::allocator<Connection> >
PUBLIC	??$_Copy_memmove@PANPAN@std@@YAPANPAN00@Z	; std::_Copy_memmove<double *,double *>
PUBLIC	??$construct@VNeuron@@AAV1@@?$_Default_allocator_traits@V?$allocator@VNeuron@@@std@@@std@@SAXAAV?$allocator@VNeuron@@@1@QAVNeuron@@AAV3@@Z ; std::_Default_allocator_traits<std::allocator<Neuron> >::construct<Neuron,Neuron &>
PUBLIC	??$forward@V?$allocator@UConnection@@@std@@@std@@YA$$QAV?$allocator@UConnection@@@0@AAV10@@Z ; std::forward<std::allocator<Connection> >
PUBLIC	??$?0V?$allocator@UConnection@@@std@@$$V@?$_Compressed_pair@V?$allocator@UConnection@@@std@@V?$_Vector_val@U?$_Simple_types@UConnection@@@std@@@2@$00@std@@QAE@U_One_then_variadic_args_t@1@$$QAV?$allocator@UConnection@@@1@@Z ; std::_Compressed_pair<std::allocator<Connection>,std::_Vector_val<std::_Simple_types<Connection> >,1>::_Compressed_pair<std::allocator<Connection>,std::_Vector_val<std::_Simple_types<Connection> >,1><std::allocator<Connection> >
PUBLIC	??$_Uninitialized_copy@PAUConnection@@PAU1@V?$allocator@UConnection@@@std@@@std@@YAPAUConnection@@PAU1@00AAV?$allocator@UConnection@@@0@@Z ; std::_Uninitialized_copy<Connection *,Connection *,std::allocator<Connection> >
PUBLIC	??$forward@V?$allocator@VNeuron@@@std@@@std@@YA$$QAV?$allocator@VNeuron@@@0@AAV10@@Z ; std::forward<std::allocator<Neuron> >
PUBLIC	??$?0V?$allocator@VNeuron@@@std@@$$V@?$_Compressed_pair@V?$allocator@VNeuron@@@std@@V?$_Vector_val@U?$_Simple_types@VNeuron@@@std@@@2@$00@std@@QAE@U_One_then_variadic_args_t@1@$$QAV?$allocator@VNeuron@@@1@@Z ; std::_Compressed_pair<std::allocator<Neuron>,std::_Vector_val<std::_Simple_types<Neuron> >,1>::_Compressed_pair<std::allocator<Neuron>,std::_Vector_val<std::_Simple_types<Neuron> >,1><std::allocator<Neuron> >
PUBLIC	??$_Destroy_range1@V?$allocator@UConnection@@@std@@@std@@YAXPAUConnection@@0AAV?$allocator@UConnection@@@0@U?$integral_constant@_N$00@0@@Z ; std::_Destroy_range1<std::allocator<Connection> >
PUBLIC	??$addressof@V?$_Vector_val@U?$_Simple_types@UConnection@@@std@@@std@@@std@@YAPAV?$_Vector_val@U?$_Simple_types@UConnection@@@std@@@0@AAV10@@Z ; std::addressof<std::_Vector_val<std::_Simple_types<Connection> > >
PUBLIC	??$forward@AAVNeuron@@@std@@YAAAVNeuron@@AAV1@@Z ; std::forward<Neuron &>
PUBLIC	??$_Unchecked@PAUConnection@@@std@@YAPAUConnection@@PAU1@@Z ; std::_Unchecked<Connection *>
PUBLIC	??$_Ptr_copy_cat@UConnection@@U1@@std@@YA?AU_Really_trivial_ptr_iterator_tag@0@ABQAUConnection@@0@Z ; std::_Ptr_copy_cat<Connection,Connection>
PUBLIC	??$_Uninitialized_copy_al_unchecked@UConnection@@U1@V?$allocator@UConnection@@@std@@@std@@YAPAUConnection@@PAU1@00AAV?$allocator@UConnection@@@0@U_Really_trivial_ptr_iterator_tag@0@U?$integral_constant@_N$00@0@@Z ; std::_Uninitialized_copy_al_unchecked<Connection,Connection,std::allocator<Connection> >
PUBLIC	??$_Rechecked@PAUConnection@@PAU1@@std@@YAAAPAUConnection@@AAPAU1@PAU1@@Z ; std::_Rechecked<Connection *,Connection *>
PUBLIC	??$_Copy_memmove@PAUConnection@@PAU1@@std@@YAPAUConnection@@PAU1@00@Z ; std::_Copy_memmove<Connection *,Connection *>
PUBLIC	??_C@_0BE@LMNLACIC@_Ptr_container?5?$CB?$DN?50?$AA@ ; `string'
PUBLIC	??_C@_1DG@HGDKEBPG@?$AA?$CC?$AA_?$AAP?$AAt?$AAr?$AA_?$AAc?$AAo?$AAn?$AAt?$AAa?$AAi?$AAn?$AAe?$AAr?$AA?5?$AA?$CB?$AA?$DN?$AA?5?$AA0?$AA?$CC?$AA?5?$AA?$CG?$AA?$CG?$AA?5?$AA0?$AA?$AA@ ; `string'
PUBLIC	??_C@_17CNPHIMPH@?$AA?$CF?$AAl?$AAs?$AA?$AA@	; `string'
PUBLIC	??_C@_1NC@LIFDFPCJ@?$AAC?$AA?3?$AA?2?$AAP?$AAr?$AAo?$AAg?$AAr?$AAa?$AAm?$AA?5?$AAF?$AAi?$AAl?$AAe?$AAs?$AA?5?$AA?$CI?$AAx?$AA8?$AA6?$AA?$CJ?$AA?2?$AAM?$AAi?$AAc?$AAr?$AAo?$AAs?$AAo?$AAf?$AAt@ ; `string'
PUBLIC	??_C@_1BO@NKFMJPA@?$AAs?$AAt?$AAd?$AA?3?$AA?3?$AA_?$AAA?$AAl?$AAl?$AAo?$AAc?$AAa?$AAt?$AAe?$AA?$AA@ ; `string'
PUBLIC	??_C@_1CG@JNLFBNGN@?$AA?$CC?$AAi?$AAn?$AAv?$AAa?$AAl?$AAi?$AAd?$AA?5?$AAa?$AAr?$AAg?$AAu?$AAm?$AAe?$AAn?$AAt?$AA?$CC?$AA?$AA@ ; `string'
PUBLIC	??_C@_09GLJCAGLP@_Ptr?5?$CB?$DN?50?$AA@		; `string'
PUBLIC	??_C@_1CC@GKJLLHIM@?$AA?$CC?$AA_?$AAP?$AAt?$AAr?$AA?5?$AA?$CB?$AA?$DN?$AA?5?$AA0?$AA?$CC?$AA?5?$AA?$CG?$AA?$CG?$AA?5?$AA0?$AA?$AA@ ; `string'
PUBLIC	??_C@_1CC@LOFJFFDB@?$AAs?$AAt?$AAd?$AA?3?$AA?3?$AA_?$AAD?$AAe?$AAa?$AAl?$AAl?$AAo?$AAc?$AAa?$AAt?$AAe?$AA?$AA@ ; `string'
PUBLIC	??_C@_1MO@PKCMDADL@?$AAC?$AA?3?$AA?2?$AAP?$AAr?$AAo?$AAg?$AAr?$AAa?$AAm?$AA?5?$AAF?$AAi?$AAl?$AAe?$AAs?$AA?5?$AA?$CI?$AAx?$AA8?$AA6?$AA?$CJ?$AA?2?$AAM?$AAi?$AAc?$AAr?$AAo?$AAs?$AAo?$AAf?$AAt@ ; `string'
PUBLIC	??_C@_1DM@ONDPIFDL@?$AAb?$AAa?$AAc?$AAk?$AA?$CI?$AA?$CJ?$AA?5?$AAc?$AAa?$AAl?$AAl?$AAe?$AAd?$AA?5?$AAo?$AAn?$AA?5?$AAe?$AAm?$AAp?$AAt?$AAy?$AA?5?$AAv?$AAe?$AAc?$AAt?$AAo?$AAr?$AA?$AA@ ; `string'
PUBLIC	??_C@_1BGG@JAANBMMO@?$AAs?$AAt?$AAd?$AA?3?$AA?3?$AAv?$AAe?$AAc?$AAt?$AAo?$AAr?$AA?$DM?$AAc?$AAl?$AAa?$AAs?$AAs?$AA?5?$AAs?$AAt?$AAd?$AA?3?$AA?3?$AAv?$AAe?$AAc?$AAt?$AAo?$AAr?$AA?$DM?$AAc?$AAl@ ; `string'
PUBLIC	??_C@_1EA@OBAHGFFK@?$AA?$CC?$AAb?$AAa?$AAc?$AAk?$AA?$CI?$AA?$CJ?$AA?5?$AAc?$AAa?$AAl?$AAl?$AAe?$AAd?$AA?5?$AAo?$AAn?$AA?5?$AAe?$AAm?$AAp?$AAt?$AAy?$AA?5?$AAv?$AAe?$AAc?$AAt?$AAo?$AAr?$AA?$CC?$AA?$AA@ ; `string'
PUBLIC	??_C@_1DM@LHGCHCBA@?$AAv?$AAe?$AAc?$AAt?$AAo?$AAr?$AA?5?$AAs?$AAu?$AAb?$AAs?$AAc?$AAr?$AAi?$AAp?$AAt?$AA?5?$AAo?$AAu?$AAt?$AA?5?$AAo?$AAf?$AA?5?$AAr?$AAa?$AAn?$AAg?$AAe?$AA?$AA@ ; `string'
PUBLIC	??_C@_1BHE@NMOOFJOG@?$AAs?$AAt?$AAd?$AA?3?$AA?3?$AAv?$AAe?$AAc?$AAt?$AAo?$AAr?$AA?$DM?$AAc?$AAl?$AAa?$AAs?$AAs?$AA?5?$AAs?$AAt?$AAd?$AA?3?$AA?3?$AAv?$AAe?$AAc?$AAt?$AAo?$AAr?$AA?$DM?$AAc?$AAl@ ; `string'
PUBLIC	??_C@_1EA@LEKOKFNB@?$AA?$CC?$AAv?$AAe?$AAc?$AAt?$AAo?$AAr?$AA?5?$AAs?$AAu?$AAb?$AAs?$AAc?$AAr?$AAi?$AAp?$AAt?$AA?5?$AAo?$AAu?$AAt?$AA?5?$AAo?$AAf?$AA?5?$AAr?$AAa?$AAn?$AAg?$AAe?$AA?$CC?$AA?$AA@ ; `string'
PUBLIC	??_C@_1HO@GLEAPAMD@?$AAs?$AAt?$AAd?$AA?3?$AA?3?$AAv?$AAe?$AAc?$AAt?$AAo?$AAr?$AA?$DM?$AAd?$AAo?$AAu?$AAb?$AAl?$AAe?$AA?0?$AAc?$AAl?$AAa?$AAs?$AAs?$AA?5?$AAs?$AAt?$AAd?$AA?3?$AA?3?$AAa?$AAl@ ; `string'
PUBLIC	??_C@_1JG@ILDNFCDK@?$AAs?$AAt?$AAd?$AA?3?$AA?3?$AAv?$AAe?$AAc?$AAt?$AAo?$AAr?$AA?$DM?$AAu?$AAn?$AAs?$AAi?$AAg?$AAn?$AAe?$AAd?$AA?5?$AAi?$AAn?$AAt?$AA?0?$AAc?$AAl?$AAa?$AAs?$AAs?$AA?5?$AAs@ ; `string'
PUBLIC	??_C@_1II@GDHAIEKJ@?$AAs?$AAt?$AAd?$AA?3?$AA?3?$AAv?$AAe?$AAc?$AAt?$AAo?$AAr?$AA?$DM?$AAc?$AAl?$AAa?$AAs?$AAs?$AA?5?$AAN?$AAe?$AAu?$AAr?$AAo?$AAn?$AA?0?$AAc?$AAl?$AAa?$AAs?$AAs?$AA?5?$AAs@ ; `string'
PUBLIC	??_C@_1JG@NBFEKNNI@?$AAs?$AAt?$AAd?$AA?3?$AA?3?$AAv?$AAe?$AAc?$AAt?$AAo?$AAr?$AA?$DM?$AAc?$AAl?$AAa?$AAs?$AAs?$AA?5?$AAN?$AAe?$AAu?$AAr?$AAo?$AAn?$AA?0?$AAc?$AAl?$AAa?$AAs?$AAs?$AA?5?$AAs@ ; `string'
PUBLIC	??_C@_0BD@OLBABOEK@vector?$DMT?$DO?5too?5long?$AA@ ; `string'
PUBLIC	__real@3ff0000000000000
PUBLIC	__xmm@41f00000000000000000000000000000
EXTRN	??2@YAPAXI@Z:PROC				; operator new
EXTRN	??3@YAXPAX@Z:PROC				; operator delete
EXTRN	??3@YAXPAXI@Z:PROC				; operator delete
EXTRN	__invalid_parameter:PROC
EXTRN	??0_Lockit@std@@QAE@H@Z:PROC			; std::_Lockit::_Lockit
EXTRN	??1_Lockit@std@@QAE@XZ:PROC			; std::_Lockit::~_Lockit
EXTRN	_sqrt:PROC
EXTRN	_memmove:PROC
EXTRN	__CrtDbgReportW:PROC
EXTRN	?_Debug_message@std@@YAXPB_W0I@Z:PROC		; std::_Debug_message
EXTRN	?_Xbad_alloc@std@@YAXXZ:PROC			; std::_Xbad_alloc
EXTRN	?_Xlength_error@std@@YAXPBD@Z:PROC		; std::_Xlength_error
EXTRN	??0Neuron@@QAE@II@Z:PROC			; Neuron::Neuron
EXTRN	??1Neuron@@QAE@XZ:PROC				; Neuron::~Neuron
EXTRN	?FeedForward@Neuron@@QAEXABV?$vector@VNeuron@@V?$allocator@VNeuron@@@std@@@std@@@Z:PROC ; Neuron::FeedForward
EXTRN	?CalcOutputGradients@Neuron@@QAEXN@Z:PROC	; Neuron::CalcOutputGradients
EXTRN	?CalcHiddenGradients@Neuron@@QAEXABV?$vector@VNeuron@@V?$allocator@VNeuron@@@std@@@std@@@Z:PROC ; Neuron::CalcHiddenGradients
EXTRN	?UpdateInputWeights@Neuron@@QAEXAAV?$vector@VNeuron@@V?$allocator@VNeuron@@@std@@@std@@@Z:PROC ; Neuron::UpdateInputWeights
EXTRN	__wassert:PROC
EXTRN	@_RTC_CheckStackVars@8:PROC
EXTRN	@__security_check_cookie@4:PROC
EXTRN	__CxxThrowException@8:PROC
EXTRN	__RTC_CheckEsp:PROC
EXTRN	__RTC_InitBase:PROC
EXTRN	__RTC_Shutdown:PROC
EXTRN	___CxxFrameHandler3:PROC
EXTRN	___security_cookie:DWORD
EXTRN	__fltused:DWORD
;	COMDAT __xmm@41f00000000000000000000000000000
CONST	SEGMENT
__xmm@41f00000000000000000000000000000 DB 00H, 00H, 00H, 00H, 00H, 00H, 00H
	DB	00H, 00H, 00H, 00H, 00H, 00H, 00H, 0f0H, 'A'
CONST	ENDS
;	COMDAT __real@3ff0000000000000
CONST	SEGMENT
__real@3ff0000000000000 DQ 03ff0000000000000r	; 1
CONST	ENDS
;	COMDAT rtc$TMZ
rtc$TMZ	SEGMENT
__RTC_Shutdown.rtc$TMZ DD FLAT:__RTC_Shutdown
rtc$TMZ	ENDS
;	COMDAT rtc$IMZ
rtc$IMZ	SEGMENT
__RTC_InitBase.rtc$IMZ DD FLAT:__RTC_InitBase
rtc$IMZ	ENDS
;	COMDAT ??_C@_0BD@OLBABOEK@vector?$DMT?$DO?5too?5long?$AA@
CONST	SEGMENT
??_C@_0BD@OLBABOEK@vector?$DMT?$DO?5too?5long?$AA@ DB 'vector<T> too long'
	DB	00H						; `string'
CONST	ENDS
;	COMDAT ??_C@_1JG@NBFEKNNI@?$AAs?$AAt?$AAd?$AA?3?$AA?3?$AAv?$AAe?$AAc?$AAt?$AAo?$AAr?$AA?$DM?$AAc?$AAl?$AAa?$AAs?$AAs?$AA?5?$AAN?$AAe?$AAu?$AAr?$AAo?$AAn?$AA?0?$AAc?$AAl?$AAa?$AAs?$AAs?$AA?5?$AAs@
CONST	SEGMENT
??_C@_1JG@NBFEKNNI@?$AAs?$AAt?$AAd?$AA?3?$AA?3?$AAv?$AAe?$AAc?$AAt?$AAo?$AAr?$AA?$DM?$AAc?$AAl?$AAa?$AAs?$AAs?$AA?5?$AAN?$AAe?$AAu?$AAr?$AAo?$AAn?$AA?0?$AAc?$AAl?$AAa?$AAs?$AAs?$AA?5?$AAs@ DB 's'
	DB	00H, 't', 00H, 'd', 00H, ':', 00H, ':', 00H, 'v', 00H, 'e', 00H
	DB	'c', 00H, 't', 00H, 'o', 00H, 'r', 00H, '<', 00H, 'c', 00H, 'l'
	DB	00H, 'a', 00H, 's', 00H, 's', 00H, ' ', 00H, 'N', 00H, 'e', 00H
	DB	'u', 00H, 'r', 00H, 'o', 00H, 'n', 00H, ',', 00H, 'c', 00H, 'l'
	DB	00H, 'a', 00H, 's', 00H, 's', 00H, ' ', 00H, 's', 00H, 't', 00H
	DB	'd', 00H, ':', 00H, ':', 00H, 'a', 00H, 'l', 00H, 'l', 00H, 'o'
	DB	00H, 'c', 00H, 'a', 00H, 't', 00H, 'o', 00H, 'r', 00H, '<', 00H
	DB	'c', 00H, 'l', 00H, 'a', 00H, 's', 00H, 's', 00H, ' ', 00H, 'N'
	DB	00H, 'e', 00H, 'u', 00H, 'r', 00H, 'o', 00H, 'n', 00H, '>', 00H
	DB	' ', 00H, '>', 00H, ':', 00H, ':', 00H, 'o', 00H, 'p', 00H, 'e'
	DB	00H, 'r', 00H, 'a', 00H, 't', 00H, 'o', 00H, 'r', 00H, ' ', 00H
	DB	'[', 00H, ']', 00H, 00H, 00H			; `string'
CONST	ENDS
;	COMDAT ??_C@_1II@GDHAIEKJ@?$AAs?$AAt?$AAd?$AA?3?$AA?3?$AAv?$AAe?$AAc?$AAt?$AAo?$AAr?$AA?$DM?$AAc?$AAl?$AAa?$AAs?$AAs?$AA?5?$AAN?$AAe?$AAu?$AAr?$AAo?$AAn?$AA?0?$AAc?$AAl?$AAa?$AAs?$AAs?$AA?5?$AAs@
CONST	SEGMENT
??_C@_1II@GDHAIEKJ@?$AAs?$AAt?$AAd?$AA?3?$AA?3?$AAv?$AAe?$AAc?$AAt?$AAo?$AAr?$AA?$DM?$AAc?$AAl?$AAa?$AAs?$AAs?$AA?5?$AAN?$AAe?$AAu?$AAr?$AAo?$AAn?$AA?0?$AAc?$AAl?$AAa?$AAs?$AAs?$AA?5?$AAs@ DB 's'
	DB	00H, 't', 00H, 'd', 00H, ':', 00H, ':', 00H, 'v', 00H, 'e', 00H
	DB	'c', 00H, 't', 00H, 'o', 00H, 'r', 00H, '<', 00H, 'c', 00H, 'l'
	DB	00H, 'a', 00H, 's', 00H, 's', 00H, ' ', 00H, 'N', 00H, 'e', 00H
	DB	'u', 00H, 'r', 00H, 'o', 00H, 'n', 00H, ',', 00H, 'c', 00H, 'l'
	DB	00H, 'a', 00H, 's', 00H, 's', 00H, ' ', 00H, 's', 00H, 't', 00H
	DB	'd', 00H, ':', 00H, ':', 00H, 'a', 00H, 'l', 00H, 'l', 00H, 'o'
	DB	00H, 'c', 00H, 'a', 00H, 't', 00H, 'o', 00H, 'r', 00H, '<', 00H
	DB	'c', 00H, 'l', 00H, 'a', 00H, 's', 00H, 's', 00H, ' ', 00H, 'N'
	DB	00H, 'e', 00H, 'u', 00H, 'r', 00H, 'o', 00H, 'n', 00H, '>', 00H
	DB	' ', 00H, '>', 00H, ':', 00H, ':', 00H, 'b', 00H, 'a', 00H, 'c'
	DB	00H, 'k', 00H, 00H, 00H			; `string'
CONST	ENDS
;	COMDAT ??_C@_1JG@ILDNFCDK@?$AAs?$AAt?$AAd?$AA?3?$AA?3?$AAv?$AAe?$AAc?$AAt?$AAo?$AAr?$AA?$DM?$AAu?$AAn?$AAs?$AAi?$AAg?$AAn?$AAe?$AAd?$AA?5?$AAi?$AAn?$AAt?$AA?0?$AAc?$AAl?$AAa?$AAs?$AAs?$AA?5?$AAs@
CONST	SEGMENT
??_C@_1JG@ILDNFCDK@?$AAs?$AAt?$AAd?$AA?3?$AA?3?$AAv?$AAe?$AAc?$AAt?$AAo?$AAr?$AA?$DM?$AAu?$AAn?$AAs?$AAi?$AAg?$AAn?$AAe?$AAd?$AA?5?$AAi?$AAn?$AAt?$AA?0?$AAc?$AAl?$AAa?$AAs?$AAs?$AA?5?$AAs@ DB 's'
	DB	00H, 't', 00H, 'd', 00H, ':', 00H, ':', 00H, 'v', 00H, 'e', 00H
	DB	'c', 00H, 't', 00H, 'o', 00H, 'r', 00H, '<', 00H, 'u', 00H, 'n'
	DB	00H, 's', 00H, 'i', 00H, 'g', 00H, 'n', 00H, 'e', 00H, 'd', 00H
	DB	' ', 00H, 'i', 00H, 'n', 00H, 't', 00H, ',', 00H, 'c', 00H, 'l'
	DB	00H, 'a', 00H, 's', 00H, 's', 00H, ' ', 00H, 's', 00H, 't', 00H
	DB	'd', 00H, ':', 00H, ':', 00H, 'a', 00H, 'l', 00H, 'l', 00H, 'o'
	DB	00H, 'c', 00H, 'a', 00H, 't', 00H, 'o', 00H, 'r', 00H, '<', 00H
	DB	'u', 00H, 'n', 00H, 's', 00H, 'i', 00H, 'g', 00H, 'n', 00H, 'e'
	DB	00H, 'd', 00H, ' ', 00H, 'i', 00H, 'n', 00H, 't', 00H, '>', 00H
	DB	' ', 00H, '>', 00H, ':', 00H, ':', 00H, 'o', 00H, 'p', 00H, 'e'
	DB	00H, 'r', 00H, 'a', 00H, 't', 00H, 'o', 00H, 'r', 00H, ' ', 00H
	DB	'[', 00H, ']', 00H, 00H, 00H			; `string'
CONST	ENDS
;	COMDAT ??_C@_1HO@GLEAPAMD@?$AAs?$AAt?$AAd?$AA?3?$AA?3?$AAv?$AAe?$AAc?$AAt?$AAo?$AAr?$AA?$DM?$AAd?$AAo?$AAu?$AAb?$AAl?$AAe?$AA?0?$AAc?$AAl?$AAa?$AAs?$AAs?$AA?5?$AAs?$AAt?$AAd?$AA?3?$AA?3?$AAa?$AAl@
CONST	SEGMENT
??_C@_1HO@GLEAPAMD@?$AAs?$AAt?$AAd?$AA?3?$AA?3?$AAv?$AAe?$AAc?$AAt?$AAo?$AAr?$AA?$DM?$AAd?$AAo?$AAu?$AAb?$AAl?$AAe?$AA?0?$AAc?$AAl?$AAa?$AAs?$AAs?$AA?5?$AAs?$AAt?$AAd?$AA?3?$AA?3?$AAa?$AAl@ DB 's'
	DB	00H, 't', 00H, 'd', 00H, ':', 00H, ':', 00H, 'v', 00H, 'e', 00H
	DB	'c', 00H, 't', 00H, 'o', 00H, 'r', 00H, '<', 00H, 'd', 00H, 'o'
	DB	00H, 'u', 00H, 'b', 00H, 'l', 00H, 'e', 00H, ',', 00H, 'c', 00H
	DB	'l', 00H, 'a', 00H, 's', 00H, 's', 00H, ' ', 00H, 's', 00H, 't'
	DB	00H, 'd', 00H, ':', 00H, ':', 00H, 'a', 00H, 'l', 00H, 'l', 00H
	DB	'o', 00H, 'c', 00H, 'a', 00H, 't', 00H, 'o', 00H, 'r', 00H, '<'
	DB	00H, 'd', 00H, 'o', 00H, 'u', 00H, 'b', 00H, 'l', 00H, 'e', 00H
	DB	'>', 00H, ' ', 00H, '>', 00H, ':', 00H, ':', 00H, 'o', 00H, 'p'
	DB	00H, 'e', 00H, 'r', 00H, 'a', 00H, 't', 00H, 'o', 00H, 'r', 00H
	DB	' ', 00H, '[', 00H, ']', 00H, 00H, 00H	; `string'
CONST	ENDS
;	COMDAT ??_C@_1EA@LEKOKFNB@?$AA?$CC?$AAv?$AAe?$AAc?$AAt?$AAo?$AAr?$AA?5?$AAs?$AAu?$AAb?$AAs?$AAc?$AAr?$AAi?$AAp?$AAt?$AA?5?$AAo?$AAu?$AAt?$AA?5?$AAo?$AAf?$AA?5?$AAr?$AAa?$AAn?$AAg?$AAe?$AA?$CC?$AA?$AA@
CONST	SEGMENT
??_C@_1EA@LEKOKFNB@?$AA?$CC?$AAv?$AAe?$AAc?$AAt?$AAo?$AAr?$AA?5?$AAs?$AAu?$AAb?$AAs?$AAc?$AAr?$AAi?$AAp?$AAt?$AA?5?$AAo?$AAu?$AAt?$AA?5?$AAo?$AAf?$AA?5?$AAr?$AAa?$AAn?$AAg?$AAe?$AA?$CC?$AA?$AA@ DB '"'
	DB	00H, 'v', 00H, 'e', 00H, 'c', 00H, 't', 00H, 'o', 00H, 'r', 00H
	DB	' ', 00H, 's', 00H, 'u', 00H, 'b', 00H, 's', 00H, 'c', 00H, 'r'
	DB	00H, 'i', 00H, 'p', 00H, 't', 00H, ' ', 00H, 'o', 00H, 'u', 00H
	DB	't', 00H, ' ', 00H, 'o', 00H, 'f', 00H, ' ', 00H, 'r', 00H, 'a'
	DB	00H, 'n', 00H, 'g', 00H, 'e', 00H, '"', 00H, 00H, 00H ; `string'
CONST	ENDS
;	COMDAT ??_C@_1BHE@NMOOFJOG@?$AAs?$AAt?$AAd?$AA?3?$AA?3?$AAv?$AAe?$AAc?$AAt?$AAo?$AAr?$AA?$DM?$AAc?$AAl?$AAa?$AAs?$AAs?$AA?5?$AAs?$AAt?$AAd?$AA?3?$AA?3?$AAv?$AAe?$AAc?$AAt?$AAo?$AAr?$AA?$DM?$AAc?$AAl@
CONST	SEGMENT
??_C@_1BHE@NMOOFJOG@?$AAs?$AAt?$AAd?$AA?3?$AA?3?$AAv?$AAe?$AAc?$AAt?$AAo?$AAr?$AA?$DM?$AAc?$AAl?$AAa?$AAs?$AAs?$AA?5?$AAs?$AAt?$AAd?$AA?3?$AA?3?$AAv?$AAe?$AAc?$AAt?$AAo?$AAr?$AA?$DM?$AAc?$AAl@ DB 's'
	DB	00H, 't', 00H, 'd', 00H, ':', 00H, ':', 00H, 'v', 00H, 'e', 00H
	DB	'c', 00H, 't', 00H, 'o', 00H, 'r', 00H, '<', 00H, 'c', 00H, 'l'
	DB	00H, 'a', 00H, 's', 00H, 's', 00H, ' ', 00H, 's', 00H, 't', 00H
	DB	'd', 00H, ':', 00H, ':', 00H, 'v', 00H, 'e', 00H, 'c', 00H, 't'
	DB	00H, 'o', 00H, 'r', 00H, '<', 00H, 'c', 00H, 'l', 00H, 'a', 00H
	DB	's', 00H, 's', 00H, ' ', 00H, 'N', 00H, 'e', 00H, 'u', 00H, 'r'
	DB	00H, 'o', 00H, 'n', 00H, ',', 00H, 'c', 00H, 'l', 00H, 'a', 00H
	DB	's', 00H, 's', 00H, ' ', 00H, 's', 00H, 't', 00H, 'd', 00H, ':'
	DB	00H, ':', 00H, 'a', 00H, 'l', 00H, 'l', 00H, 'o', 00H, 'c', 00H
	DB	'a', 00H, 't', 00H, 'o', 00H, 'r', 00H, '<', 00H, 'c', 00H, 'l'
	DB	00H, 'a', 00H, 's', 00H, 's', 00H, ' ', 00H, 'N', 00H, 'e', 00H
	DB	'u', 00H, 'r', 00H, 'o', 00H, 'n', 00H, '>', 00H, ' ', 00H, '>'
	DB	00H, ',', 00H, 'c', 00H, 'l', 00H, 'a', 00H, 's', 00H, 's', 00H
	DB	' ', 00H, 's', 00H, 't', 00H, 'd', 00H, ':', 00H, ':', 00H, 'a'
	DB	00H, 'l', 00H, 'l', 00H, 'o', 00H, 'c', 00H, 'a', 00H, 't', 00H
	DB	'o', 00H, 'r', 00H, '<', 00H, 'c', 00H, 'l', 00H, 'a', 00H, 's'
	DB	00H, 's', 00H, ' ', 00H, 's', 00H, 't', 00H, 'd', 00H, ':', 00H
	DB	':', 00H, 'v', 00H, 'e', 00H, 'c', 00H, 't', 00H, 'o', 00H, 'r'
	DB	00H, '<', 00H, 'c', 00H, 'l', 00H, 'a', 00H, 's', 00H, 's', 00H
	DB	' ', 00H, 'N', 00H, 'e', 00H, 'u', 00H, 'r', 00H, 'o', 00H, 'n'
	DB	00H, ',', 00H, 'c', 00H, 'l', 00H, 'a', 00H, 's', 00H, 's', 00H
	DB	' ', 00H, 's', 00H, 't', 00H, 'd', 00H, ':', 00H, ':', 00H, 'a'
	DB	00H, 'l', 00H, 'l', 00H, 'o', 00H, 'c', 00H, 'a', 00H, 't', 00H
	DB	'o', 00H, 'r', 00H, '<', 00H, 'c', 00H, 'l', 00H, 'a', 00H, 's'
	DB	00H, 's', 00H, ' ', 00H, 'N', 00H, 'e', 00H, 'u', 00H, 'r', 00H
	DB	'o', 00H, 'n', 00H, '>', 00H, ' ', 00H, '>', 00H, ' ', 00H, '>'
	DB	00H, ' ', 00H, '>', 00H, ':', 00H, ':', 00H, 'o', 00H, 'p', 00H
	DB	'e', 00H, 'r', 00H, 'a', 00H, 't', 00H, 'o', 00H, 'r', 00H, ' '
	DB	00H, '[', 00H, ']', 00H, 00H, 00H		; `string'
CONST	ENDS
;	COMDAT ??_C@_1DM@LHGCHCBA@?$AAv?$AAe?$AAc?$AAt?$AAo?$AAr?$AA?5?$AAs?$AAu?$AAb?$AAs?$AAc?$AAr?$AAi?$AAp?$AAt?$AA?5?$AAo?$AAu?$AAt?$AA?5?$AAo?$AAf?$AA?5?$AAr?$AAa?$AAn?$AAg?$AAe?$AA?$AA@
CONST	SEGMENT
??_C@_1DM@LHGCHCBA@?$AAv?$AAe?$AAc?$AAt?$AAo?$AAr?$AA?5?$AAs?$AAu?$AAb?$AAs?$AAc?$AAr?$AAi?$AAp?$AAt?$AA?5?$AAo?$AAu?$AAt?$AA?5?$AAo?$AAf?$AA?5?$AAr?$AAa?$AAn?$AAg?$AAe?$AA?$AA@ DB 'v'
	DB	00H, 'e', 00H, 'c', 00H, 't', 00H, 'o', 00H, 'r', 00H, ' ', 00H
	DB	's', 00H, 'u', 00H, 'b', 00H, 's', 00H, 'c', 00H, 'r', 00H, 'i'
	DB	00H, 'p', 00H, 't', 00H, ' ', 00H, 'o', 00H, 'u', 00H, 't', 00H
	DB	' ', 00H, 'o', 00H, 'f', 00H, ' ', 00H, 'r', 00H, 'a', 00H, 'n'
	DB	00H, 'g', 00H, 'e', 00H, 00H, 00H		; `string'
CONST	ENDS
;	COMDAT ??_C@_1EA@OBAHGFFK@?$AA?$CC?$AAb?$AAa?$AAc?$AAk?$AA?$CI?$AA?$CJ?$AA?5?$AAc?$AAa?$AAl?$AAl?$AAe?$AAd?$AA?5?$AAo?$AAn?$AA?5?$AAe?$AAm?$AAp?$AAt?$AAy?$AA?5?$AAv?$AAe?$AAc?$AAt?$AAo?$AAr?$AA?$CC?$AA?$AA@
CONST	SEGMENT
??_C@_1EA@OBAHGFFK@?$AA?$CC?$AAb?$AAa?$AAc?$AAk?$AA?$CI?$AA?$CJ?$AA?5?$AAc?$AAa?$AAl?$AAl?$AAe?$AAd?$AA?5?$AAo?$AAn?$AA?5?$AAe?$AAm?$AAp?$AAt?$AAy?$AA?5?$AAv?$AAe?$AAc?$AAt?$AAo?$AAr?$AA?$CC?$AA?$AA@ DB '"'
	DB	00H, 'b', 00H, 'a', 00H, 'c', 00H, 'k', 00H, '(', 00H, ')', 00H
	DB	' ', 00H, 'c', 00H, 'a', 00H, 'l', 00H, 'l', 00H, 'e', 00H, 'd'
	DB	00H, ' ', 00H, 'o', 00H, 'n', 00H, ' ', 00H, 'e', 00H, 'm', 00H
	DB	'p', 00H, 't', 00H, 'y', 00H, ' ', 00H, 'v', 00H, 'e', 00H, 'c'
	DB	00H, 't', 00H, 'o', 00H, 'r', 00H, '"', 00H, 00H, 00H ; `string'
CONST	ENDS
;	COMDAT ??_C@_1BGG@JAANBMMO@?$AAs?$AAt?$AAd?$AA?3?$AA?3?$AAv?$AAe?$AAc?$AAt?$AAo?$AAr?$AA?$DM?$AAc?$AAl?$AAa?$AAs?$AAs?$AA?5?$AAs?$AAt?$AAd?$AA?3?$AA?3?$AAv?$AAe?$AAc?$AAt?$AAo?$AAr?$AA?$DM?$AAc?$AAl@
CONST	SEGMENT
??_C@_1BGG@JAANBMMO@?$AAs?$AAt?$AAd?$AA?3?$AA?3?$AAv?$AAe?$AAc?$AAt?$AAo?$AAr?$AA?$DM?$AAc?$AAl?$AAa?$AAs?$AAs?$AA?5?$AAs?$AAt?$AAd?$AA?3?$AA?3?$AAv?$AAe?$AAc?$AAt?$AAo?$AAr?$AA?$DM?$AAc?$AAl@ DB 's'
	DB	00H, 't', 00H, 'd', 00H, ':', 00H, ':', 00H, 'v', 00H, 'e', 00H
	DB	'c', 00H, 't', 00H, 'o', 00H, 'r', 00H, '<', 00H, 'c', 00H, 'l'
	DB	00H, 'a', 00H, 's', 00H, 's', 00H, ' ', 00H, 's', 00H, 't', 00H
	DB	'd', 00H, ':', 00H, ':', 00H, 'v', 00H, 'e', 00H, 'c', 00H, 't'
	DB	00H, 'o', 00H, 'r', 00H, '<', 00H, 'c', 00H, 'l', 00H, 'a', 00H
	DB	's', 00H, 's', 00H, ' ', 00H, 'N', 00H, 'e', 00H, 'u', 00H, 'r'
	DB	00H, 'o', 00H, 'n', 00H, ',', 00H, 'c', 00H, 'l', 00H, 'a', 00H
	DB	's', 00H, 's', 00H, ' ', 00H, 's', 00H, 't', 00H, 'd', 00H, ':'
	DB	00H, ':', 00H, 'a', 00H, 'l', 00H, 'l', 00H, 'o', 00H, 'c', 00H
	DB	'a', 00H, 't', 00H, 'o', 00H, 'r', 00H, '<', 00H, 'c', 00H, 'l'
	DB	00H, 'a', 00H, 's', 00H, 's', 00H, ' ', 00H, 'N', 00H, 'e', 00H
	DB	'u', 00H, 'r', 00H, 'o', 00H, 'n', 00H, '>', 00H, ' ', 00H, '>'
	DB	00H, ',', 00H, 'c', 00H, 'l', 00H, 'a', 00H, 's', 00H, 's', 00H
	DB	' ', 00H, 's', 00H, 't', 00H, 'd', 00H, ':', 00H, ':', 00H, 'a'
	DB	00H, 'l', 00H, 'l', 00H, 'o', 00H, 'c', 00H, 'a', 00H, 't', 00H
	DB	'o', 00H, 'r', 00H, '<', 00H, 'c', 00H, 'l', 00H, 'a', 00H, 's'
	DB	00H, 's', 00H, ' ', 00H, 's', 00H, 't', 00H, 'd', 00H, ':', 00H
	DB	':', 00H, 'v', 00H, 'e', 00H, 'c', 00H, 't', 00H, 'o', 00H, 'r'
	DB	00H, '<', 00H, 'c', 00H, 'l', 00H, 'a', 00H, 's', 00H, 's', 00H
	DB	' ', 00H, 'N', 00H, 'e', 00H, 'u', 00H, 'r', 00H, 'o', 00H, 'n'
	DB	00H, ',', 00H, 'c', 00H, 'l', 00H, 'a', 00H, 's', 00H, 's', 00H
	DB	' ', 00H, 's', 00H, 't', 00H, 'd', 00H, ':', 00H, ':', 00H, 'a'
	DB	00H, 'l', 00H, 'l', 00H, 'o', 00H, 'c', 00H, 'a', 00H, 't', 00H
	DB	'o', 00H, 'r', 00H, '<', 00H, 'c', 00H, 'l', 00H, 'a', 00H, 's'
	DB	00H, 's', 00H, ' ', 00H, 'N', 00H, 'e', 00H, 'u', 00H, 'r', 00H
	DB	'o', 00H, 'n', 00H, '>', 00H, ' ', 00H, '>', 00H, ' ', 00H, '>'
	DB	00H, ' ', 00H, '>', 00H, ':', 00H, ':', 00H, 'b', 00H, 'a', 00H
	DB	'c', 00H, 'k', 00H, 00H, 00H			; `string'
CONST	ENDS
;	COMDAT ??_C@_1DM@ONDPIFDL@?$AAb?$AAa?$AAc?$AAk?$AA?$CI?$AA?$CJ?$AA?5?$AAc?$AAa?$AAl?$AAl?$AAe?$AAd?$AA?5?$AAo?$AAn?$AA?5?$AAe?$AAm?$AAp?$AAt?$AAy?$AA?5?$AAv?$AAe?$AAc?$AAt?$AAo?$AAr?$AA?$AA@
CONST	SEGMENT
??_C@_1DM@ONDPIFDL@?$AAb?$AAa?$AAc?$AAk?$AA?$CI?$AA?$CJ?$AA?5?$AAc?$AAa?$AAl?$AAl?$AAe?$AAd?$AA?5?$AAo?$AAn?$AA?5?$AAe?$AAm?$AAp?$AAt?$AAy?$AA?5?$AAv?$AAe?$AAc?$AAt?$AAo?$AAr?$AA?$AA@ DB 'b'
	DB	00H, 'a', 00H, 'c', 00H, 'k', 00H, '(', 00H, ')', 00H, ' ', 00H
	DB	'c', 00H, 'a', 00H, 'l', 00H, 'l', 00H, 'e', 00H, 'd', 00H, ' '
	DB	00H, 'o', 00H, 'n', 00H, ' ', 00H, 'e', 00H, 'm', 00H, 'p', 00H
	DB	't', 00H, 'y', 00H, ' ', 00H, 'v', 00H, 'e', 00H, 'c', 00H, 't'
	DB	00H, 'o', 00H, 'r', 00H, 00H, 00H		; `string'
CONST	ENDS
;	COMDAT ??_C@_1MO@PKCMDADL@?$AAC?$AA?3?$AA?2?$AAP?$AAr?$AAo?$AAg?$AAr?$AAa?$AAm?$AA?5?$AAF?$AAi?$AAl?$AAe?$AAs?$AA?5?$AA?$CI?$AAx?$AA8?$AA6?$AA?$CJ?$AA?2?$AAM?$AAi?$AAc?$AAr?$AAo?$AAs?$AAo?$AAf?$AAt@
CONST	SEGMENT
??_C@_1MO@PKCMDADL@?$AAC?$AA?3?$AA?2?$AAP?$AAr?$AAo?$AAg?$AAr?$AAa?$AAm?$AA?5?$AAF?$AAi?$AAl?$AAe?$AAs?$AA?5?$AA?$CI?$AAx?$AA8?$AA6?$AA?$CJ?$AA?2?$AAM?$AAi?$AAc?$AAr?$AAo?$AAs?$AAo?$AAf?$AAt@ DB 'C'
	DB	00H, ':', 00H, '\', 00H, 'P', 00H, 'r', 00H, 'o', 00H, 'g', 00H
	DB	'r', 00H, 'a', 00H, 'm', 00H, ' ', 00H, 'F', 00H, 'i', 00H, 'l'
	DB	00H, 'e', 00H, 's', 00H, ' ', 00H, '(', 00H, 'x', 00H, '8', 00H
	DB	'6', 00H, ')', 00H, '\', 00H, 'M', 00H, 'i', 00H, 'c', 00H, 'r'
	DB	00H, 'o', 00H, 's', 00H, 'o', 00H, 'f', 00H, 't', 00H, ' ', 00H
	DB	'V', 00H, 'i', 00H, 's', 00H, 'u', 00H, 'a', 00H, 'l', 00H, ' '
	DB	00H, 'S', 00H, 't', 00H, 'u', 00H, 'd', 00H, 'i', 00H, 'o', 00H
	DB	'\', 00H, '2', 00H, '0', 00H, '1', 00H, '7', 00H, '\', 00H, 'C'
	DB	00H, 'o', 00H, 'm', 00H, 'm', 00H, 'u', 00H, 'n', 00H, 'i', 00H
	DB	't', 00H, 'y', 00H, '\', 00H, 'V', 00H, 'C', 00H, '\', 00H, 'T'
	DB	00H, 'o', 00H, 'o', 00H, 'l', 00H, 's', 00H, '\', 00H, 'M', 00H
	DB	'S', 00H, 'V', 00H, 'C', 00H, '\', 00H, '1', 00H, '4', 00H, '.'
	DB	00H, '1', 00H, '1', 00H, '.', 00H, '2', 00H, '5', 00H, '5', 00H
	DB	'0', 00H, '3', 00H, '\', 00H, 'i', 00H, 'n', 00H, 'c', 00H, 'l'
	DB	00H, 'u', 00H, 'd', 00H, 'e', 00H, '\', 00H, 'v', 00H, 'e', 00H
	DB	'c', 00H, 't', 00H, 'o', 00H, 'r', 00H, 00H, 00H ; `string'
CONST	ENDS
;	COMDAT ??_C@_1CC@LOFJFFDB@?$AAs?$AAt?$AAd?$AA?3?$AA?3?$AA_?$AAD?$AAe?$AAa?$AAl?$AAl?$AAo?$AAc?$AAa?$AAt?$AAe?$AA?$AA@
CONST	SEGMENT
??_C@_1CC@LOFJFFDB@?$AAs?$AAt?$AAd?$AA?3?$AA?3?$AA_?$AAD?$AAe?$AAa?$AAl?$AAl?$AAo?$AAc?$AAa?$AAt?$AAe?$AA?$AA@ DB 's'
	DB	00H, 't', 00H, 'd', 00H, ':', 00H, ':', 00H, '_', 00H, 'D', 00H
	DB	'e', 00H, 'a', 00H, 'l', 00H, 'l', 00H, 'o', 00H, 'c', 00H, 'a'
	DB	00H, 't', 00H, 'e', 00H, 00H, 00H		; `string'
CONST	ENDS
;	COMDAT ??_C@_1CC@GKJLLHIM@?$AA?$CC?$AA_?$AAP?$AAt?$AAr?$AA?5?$AA?$CB?$AA?$DN?$AA?5?$AA0?$AA?$CC?$AA?5?$AA?$CG?$AA?$CG?$AA?5?$AA0?$AA?$AA@
CONST	SEGMENT
??_C@_1CC@GKJLLHIM@?$AA?$CC?$AA_?$AAP?$AAt?$AAr?$AA?5?$AA?$CB?$AA?$DN?$AA?5?$AA0?$AA?$CC?$AA?5?$AA?$CG?$AA?$CG?$AA?5?$AA0?$AA?$AA@ DB '"'
	DB	00H, '_', 00H, 'P', 00H, 't', 00H, 'r', 00H, ' ', 00H, '!', 00H
	DB	'=', 00H, ' ', 00H, '0', 00H, '"', 00H, ' ', 00H, '&', 00H, '&'
	DB	00H, ' ', 00H, '0', 00H, 00H, 00H		; `string'
CONST	ENDS
;	COMDAT ??_C@_09GLJCAGLP@_Ptr?5?$CB?$DN?50?$AA@
CONST	SEGMENT
??_C@_09GLJCAGLP@_Ptr?5?$CB?$DN?50?$AA@ DB '_Ptr != 0', 00H ; `string'
CONST	ENDS
;	COMDAT ??_C@_1CG@JNLFBNGN@?$AA?$CC?$AAi?$AAn?$AAv?$AAa?$AAl?$AAi?$AAd?$AA?5?$AAa?$AAr?$AAg?$AAu?$AAm?$AAe?$AAn?$AAt?$AA?$CC?$AA?$AA@
CONST	SEGMENT
??_C@_1CG@JNLFBNGN@?$AA?$CC?$AAi?$AAn?$AAv?$AAa?$AAl?$AAi?$AAd?$AA?5?$AAa?$AAr?$AAg?$AAu?$AAm?$AAe?$AAn?$AAt?$AA?$CC?$AA?$AA@ DB '"'
	DB	00H, 'i', 00H, 'n', 00H, 'v', 00H, 'a', 00H, 'l', 00H, 'i', 00H
	DB	'd', 00H, ' ', 00H, 'a', 00H, 'r', 00H, 'g', 00H, 'u', 00H, 'm'
	DB	00H, 'e', 00H, 'n', 00H, 't', 00H, '"', 00H, 00H, 00H ; `string'
CONST	ENDS
;	COMDAT ??_C@_1BO@NKFMJPA@?$AAs?$AAt?$AAd?$AA?3?$AA?3?$AA_?$AAA?$AAl?$AAl?$AAo?$AAc?$AAa?$AAt?$AAe?$AA?$AA@
CONST	SEGMENT
??_C@_1BO@NKFMJPA@?$AAs?$AAt?$AAd?$AA?3?$AA?3?$AA_?$AAA?$AAl?$AAl?$AAo?$AAc?$AAa?$AAt?$AAe?$AA?$AA@ DB 's'
	DB	00H, 't', 00H, 'd', 00H, ':', 00H, ':', 00H, '_', 00H, 'A', 00H
	DB	'l', 00H, 'l', 00H, 'o', 00H, 'c', 00H, 'a', 00H, 't', 00H, 'e'
	DB	00H, 00H, 00H				; `string'
CONST	ENDS
;	COMDAT ??_C@_1NC@LIFDFPCJ@?$AAC?$AA?3?$AA?2?$AAP?$AAr?$AAo?$AAg?$AAr?$AAa?$AAm?$AA?5?$AAF?$AAi?$AAl?$AAe?$AAs?$AA?5?$AA?$CI?$AAx?$AA8?$AA6?$AA?$CJ?$AA?2?$AAM?$AAi?$AAc?$AAr?$AAo?$AAs?$AAo?$AAf?$AAt@
CONST	SEGMENT
??_C@_1NC@LIFDFPCJ@?$AAC?$AA?3?$AA?2?$AAP?$AAr?$AAo?$AAg?$AAr?$AAa?$AAm?$AA?5?$AAF?$AAi?$AAl?$AAe?$AAs?$AA?5?$AA?$CI?$AAx?$AA8?$AA6?$AA?$CJ?$AA?2?$AAM?$AAi?$AAc?$AAr?$AAo?$AAs?$AAo?$AAf?$AAt@ DB 'C'
	DB	00H, ':', 00H, '\', 00H, 'P', 00H, 'r', 00H, 'o', 00H, 'g', 00H
	DB	'r', 00H, 'a', 00H, 'm', 00H, ' ', 00H, 'F', 00H, 'i', 00H, 'l'
	DB	00H, 'e', 00H, 's', 00H, ' ', 00H, '(', 00H, 'x', 00H, '8', 00H
	DB	'6', 00H, ')', 00H, '\', 00H, 'M', 00H, 'i', 00H, 'c', 00H, 'r'
	DB	00H, 'o', 00H, 's', 00H, 'o', 00H, 'f', 00H, 't', 00H, ' ', 00H
	DB	'V', 00H, 'i', 00H, 's', 00H, 'u', 00H, 'a', 00H, 'l', 00H, ' '
	DB	00H, 'S', 00H, 't', 00H, 'u', 00H, 'd', 00H, 'i', 00H, 'o', 00H
	DB	'\', 00H, '2', 00H, '0', 00H, '1', 00H, '7', 00H, '\', 00H, 'C'
	DB	00H, 'o', 00H, 'm', 00H, 'm', 00H, 'u', 00H, 'n', 00H, 'i', 00H
	DB	't', 00H, 'y', 00H, '\', 00H, 'V', 00H, 'C', 00H, '\', 00H, 'T'
	DB	00H, 'o', 00H, 'o', 00H, 'l', 00H, 's', 00H, '\', 00H, 'M', 00H
	DB	'S', 00H, 'V', 00H, 'C', 00H, '\', 00H, '1', 00H, '4', 00H, '.'
	DB	00H, '1', 00H, '1', 00H, '.', 00H, '2', 00H, '5', 00H, '5', 00H
	DB	'0', 00H, '3', 00H, '\', 00H, 'i', 00H, 'n', 00H, 'c', 00H, 'l'
	DB	00H, 'u', 00H, 'd', 00H, 'e', 00H, '\', 00H, 'x', 00H, 'm', 00H
	DB	'e', 00H, 'm', 00H, 'o', 00H, 'r', 00H, 'y', 00H, '0', 00H, 00H
	DB	00H						; `string'
CONST	ENDS
;	COMDAT ??_C@_17CNPHIMPH@?$AA?$CF?$AAl?$AAs?$AA?$AA@
CONST	SEGMENT
??_C@_17CNPHIMPH@?$AA?$CF?$AAl?$AAs?$AA?$AA@ DB '%', 00H, 'l', 00H, 's', 00H
	DB	00H, 00H					; `string'
CONST	ENDS
;	COMDAT ??_C@_1DG@HGDKEBPG@?$AA?$CC?$AA_?$AAP?$AAt?$AAr?$AA_?$AAc?$AAo?$AAn?$AAt?$AAa?$AAi?$AAn?$AAe?$AAr?$AA?5?$AA?$CB?$AA?$DN?$AA?5?$AA0?$AA?$CC?$AA?5?$AA?$CG?$AA?$CG?$AA?5?$AA0?$AA?$AA@
CONST	SEGMENT
??_C@_1DG@HGDKEBPG@?$AA?$CC?$AA_?$AAP?$AAt?$AAr?$AA_?$AAc?$AAo?$AAn?$AAt?$AAa?$AAi?$AAn?$AAe?$AAr?$AA?5?$AA?$CB?$AA?$DN?$AA?5?$AA0?$AA?$CC?$AA?5?$AA?$CG?$AA?$CG?$AA?5?$AA0?$AA?$AA@ DB '"'
	DB	00H, '_', 00H, 'P', 00H, 't', 00H, 'r', 00H, '_', 00H, 'c', 00H
	DB	'o', 00H, 'n', 00H, 't', 00H, 'a', 00H, 'i', 00H, 'n', 00H, 'e'
	DB	00H, 'r', 00H, ' ', 00H, '!', 00H, '=', 00H, ' ', 00H, '0', 00H
	DB	'"', 00H, ' ', 00H, '&', 00H, '&', 00H, ' ', 00H, '0', 00H, 00H
	DB	00H						; `string'
CONST	ENDS
;	COMDAT ??_C@_0BE@LMNLACIC@_Ptr_container?5?$CB?$DN?50?$AA@
CONST	SEGMENT
??_C@_0BE@LMNLACIC@_Ptr_container?5?$CB?$DN?50?$AA@ DB '_Ptr_container !='
	DB	' 0', 00H					; `string'
CONST	ENDS
;	COMDAT xdata$x
xdata$x	SEGMENT
__unwindtable$??$construct@VNeuron@@AAV1@@?$_Default_allocator_traits@V?$allocator@VNeuron@@@std@@@std@@SAXAAV?$allocator@VNeuron@@@1@QAVNeuron@@AAV3@@Z DD 0ffffffffH
	DD	FLAT:__unwindfunclet$??$construct@VNeuron@@AAV1@@?$_Default_allocator_traits@V?$allocator@VNeuron@@@std@@@std@@SAXAAV?$allocator@VNeuron@@@1@QAVNeuron@@AAV3@@Z$0
__ehfuncinfo$??$construct@VNeuron@@AAV1@@?$_Default_allocator_traits@V?$allocator@VNeuron@@@std@@@std@@SAXAAV?$allocator@VNeuron@@@1@QAVNeuron@@AAV3@@Z DD 019930522H
	DD	01H
	DD	FLAT:__unwindtable$??$construct@VNeuron@@AAV1@@?$_Default_allocator_traits@V?$allocator@VNeuron@@@std@@@std@@SAXAAV?$allocator@VNeuron@@@1@QAVNeuron@@AAV3@@Z
	DD	2 DUP(00H)
	DD	2 DUP(00H)
	DD	00H
	DD	01H
xdata$x	ENDS
;	COMDAT xdata$x
xdata$x	SEGMENT
__unwindtable$??$?0V?$allocator@VNeuron@@@std@@X@?$_Vector_alloc@U?$_Vec_base_types@VNeuron@@V?$allocator@VNeuron@@@std@@@std@@@std@@QAE@$$QAV?$allocator@VNeuron@@@1@@Z DD 0ffffffffH
	DD	FLAT:__unwindfunclet$??$?0V?$allocator@VNeuron@@@std@@X@?$_Vector_alloc@U?$_Vec_base_types@VNeuron@@V?$allocator@VNeuron@@@std@@@std@@@std@@QAE@$$QAV?$allocator@VNeuron@@@1@@Z$0
__ehfuncinfo$??$?0V?$allocator@VNeuron@@@std@@X@?$_Vector_alloc@U?$_Vec_base_types@VNeuron@@V?$allocator@VNeuron@@@std@@@std@@@std@@QAE@$$QAV?$allocator@VNeuron@@@1@@Z DD 019930522H
	DD	01H
	DD	FLAT:__unwindtable$??$?0V?$allocator@VNeuron@@@std@@X@?$_Vector_alloc@U?$_Vec_base_types@VNeuron@@V?$allocator@VNeuron@@@std@@@std@@@std@@QAE@$$QAV?$allocator@VNeuron@@@1@@Z
	DD	2 DUP(00H)
	DD	2 DUP(00H)
	DD	00H
	DD	01H
xdata$x	ENDS
;	COMDAT xdata$x
xdata$x	SEGMENT
__unwindtable$??$?0V?$allocator@UConnection@@@std@@X@?$_Vector_alloc@U?$_Vec_base_types@UConnection@@V?$allocator@UConnection@@@std@@@std@@@std@@QAE@$$QAV?$allocator@UConnection@@@1@@Z DD 0ffffffffH
	DD	FLAT:__unwindfunclet$??$?0V?$allocator@UConnection@@@std@@X@?$_Vector_alloc@U?$_Vec_base_types@UConnection@@V?$allocator@UConnection@@@std@@@std@@@std@@QAE@$$QAV?$allocator@UConnection@@@1@@Z$0
__ehfuncinfo$??$?0V?$allocator@UConnection@@@std@@X@?$_Vector_alloc@U?$_Vec_base_types@UConnection@@V?$allocator@UConnection@@@std@@@std@@@std@@QAE@$$QAV?$allocator@UConnection@@@1@@Z DD 019930522H
	DD	01H
	DD	FLAT:__unwindtable$??$?0V?$allocator@UConnection@@@std@@X@?$_Vector_alloc@U?$_Vec_base_types@UConnection@@V?$allocator@UConnection@@@std@@@std@@@std@@QAE@$$QAV?$allocator@UConnection@@@1@@Z
	DD	2 DUP(00H)
	DD	2 DUP(00H)
	DD	00H
	DD	01H
xdata$x	ENDS
;	COMDAT xdata$x
xdata$x	SEGMENT
__catchsym$??$_Uninitialized_copy_al_unchecked@PAVNeuron@@PAV1@V?$allocator@VNeuron@@@std@@@std@@YAPAVNeuron@@PAV1@00AAV?$allocator@VNeuron@@@0@U_General_ptr_iterator_tag@0@U_Unused_parameter@0@@Z$2 DD 040H
	DD	00H
	DD	00H
	DD	FLAT:__catch$??$_Uninitialized_copy_al_unchecked@PAVNeuron@@PAV1@V?$allocator@VNeuron@@@std@@@std@@YAPAVNeuron@@PAV1@00AAV?$allocator@VNeuron@@@0@U_General_ptr_iterator_tag@0@U_Unused_parameter@0@@Z$0
__unwindtable$??$_Uninitialized_copy_al_unchecked@PAVNeuron@@PAV1@V?$allocator@VNeuron@@@std@@@std@@YAPAVNeuron@@PAV1@00AAV?$allocator@VNeuron@@@0@U_General_ptr_iterator_tag@0@U_Unused_parameter@0@@Z DD 0ffffffffH
	DD	00H
	DD	0ffffffffH
	DD	00H
__tryblocktable$??$_Uninitialized_copy_al_unchecked@PAVNeuron@@PAV1@V?$allocator@VNeuron@@@std@@@std@@YAPAVNeuron@@PAV1@00AAV?$allocator@VNeuron@@@0@U_General_ptr_iterator_tag@0@U_Unused_parameter@0@@Z DD 00H
	DD	00H
	DD	01H
	DD	01H
	DD	FLAT:__catchsym$??$_Uninitialized_copy_al_unchecked@PAVNeuron@@PAV1@V?$allocator@VNeuron@@@std@@@std@@YAPAVNeuron@@PAV1@00AAV?$allocator@VNeuron@@@0@U_General_ptr_iterator_tag@0@U_Unused_parameter@0@@Z$2
__ehfuncinfo$??$_Uninitialized_copy_al_unchecked@PAVNeuron@@PAV1@V?$allocator@VNeuron@@@std@@@std@@YAPAVNeuron@@PAV1@00AAV?$allocator@VNeuron@@@0@U_General_ptr_iterator_tag@0@U_Unused_parameter@0@@Z DD 019930522H
	DD	02H
	DD	FLAT:__unwindtable$??$_Uninitialized_copy_al_unchecked@PAVNeuron@@PAV1@V?$allocator@VNeuron@@@std@@@std@@YAPAVNeuron@@PAV1@00AAV?$allocator@VNeuron@@@0@U_General_ptr_iterator_tag@0@U_Unused_parameter@0@@Z
	DD	01H
	DD	FLAT:__tryblocktable$??$_Uninitialized_copy_al_unchecked@PAVNeuron@@PAV1@V?$allocator@VNeuron@@@std@@@std@@YAPAVNeuron@@PAV1@00AAV?$allocator@VNeuron@@@0@U_General_ptr_iterator_tag@0@U_Unused_parameter@0@@Z
	DD	2 DUP(00H)
	DD	00H
	DD	01H
xdata$x	ENDS
;	COMDAT xdata$x
xdata$x	SEGMENT
__catchsym$??$_Uninitialized_move_al_unchecked@PAV?$vector@VNeuron@@V?$allocator@VNeuron@@@std@@@std@@PAV12@V?$allocator@V?$vector@VNeuron@@V?$allocator@VNeuron@@@std@@@std@@@2@@std@@YAPAV?$vector@VNeuron@@V?$allocator@VNeuron@@@std@@@0@PAV10@00AAV?$allocator@V?$vector@VNeuron@@V?$allocator@VNeuron@@@std@@@std@@@0@U_General_ptr_iterator_tag@0@U_Unused_parameter@0@@Z$2 DD 040H
	DD	00H
	DD	00H
	DD	FLAT:__catch$??$_Uninitialized_move_al_unchecked@PAV?$vector@VNeuron@@V?$allocator@VNeuron@@@std@@@std@@PAV12@V?$allocator@V?$vector@VNeuron@@V?$allocator@VNeuron@@@std@@@std@@@2@@std@@YAPAV?$vector@VNeuron@@V?$allocator@VNeuron@@@std@@@0@PAV10@00AAV?$allocator@V?$vector@VNeuron@@V?$allocator@VNeuron@@@std@@@std@@@0@U_General_ptr_iterator_tag@0@U_Unused_parameter@0@@Z$0
__unwindtable$??$_Uninitialized_move_al_unchecked@PAV?$vector@VNeuron@@V?$allocator@VNeuron@@@std@@@std@@PAV12@V?$allocator@V?$vector@VNeuron@@V?$allocator@VNeuron@@@std@@@std@@@2@@std@@YAPAV?$vector@VNeuron@@V?$allocator@VNeuron@@@std@@@0@PAV10@00AAV?$allocator@V?$vector@VNeuron@@V?$allocator@VNeuron@@@std@@@std@@@0@U_General_ptr_iterator_tag@0@U_Unused_parameter@0@@Z DD 0ffffffffH
	DD	00H
	DD	0ffffffffH
	DD	00H
__tryblocktable$??$_Uninitialized_move_al_unchecked@PAV?$vector@VNeuron@@V?$allocator@VNeuron@@@std@@@std@@PAV12@V?$allocator@V?$vector@VNeuron@@V?$allocator@VNeuron@@@std@@@std@@@2@@std@@YAPAV?$vector@VNeuron@@V?$allocator@VNeuron@@@std@@@0@PAV10@00AAV?$allocator@V?$vector@VNeuron@@V?$allocator@VNeuron@@@std@@@std@@@0@U_General_ptr_iterator_tag@0@U_Unused_parameter@0@@Z DD 00H
	DD	00H
	DD	01H
	DD	01H
	DD	FLAT:__catchsym$??$_Uninitialized_move_al_unchecked@PAV?$vector@VNeuron@@V?$allocator@VNeuron@@@std@@@std@@PAV12@V?$allocator@V?$vector@VNeuron@@V?$allocator@VNeuron@@@std@@@std@@@2@@std@@YAPAV?$vector@VNeuron@@V?$allocator@VNeuron@@@std@@@0@PAV10@00AAV?$allocator@V?$vector@VNeuron@@V?$allocator@VNeuron@@@std@@@std@@@0@U_General_ptr_iterator_tag@0@U_Unused_parameter@0@@Z$2
__ehfuncinfo$??$_Uninitialized_move_al_unchecked@PAV?$vector@VNeuron@@V?$allocator@VNeuron@@@std@@@std@@PAV12@V?$allocator@V?$vector@VNeuron@@V?$allocator@VNeuron@@@std@@@std@@@2@@std@@YAPAV?$vector@VNeuron@@V?$allocator@VNeuron@@@std@@@0@PAV10@00AAV?$allocator@V?$vector@VNeuron@@V?$allocator@VNeuron@@@std@@@std@@@0@U_General_ptr_iterator_tag@0@U_Unused_parameter@0@@Z DD 019930522H
	DD	02H
	DD	FLAT:__unwindtable$??$_Uninitialized_move_al_unchecked@PAV?$vector@VNeuron@@V?$allocator@VNeuron@@@std@@@std@@PAV12@V?$allocator@V?$vector@VNeuron@@V?$allocator@VNeuron@@@std@@@std@@@2@@std@@YAPAV?$vector@VNeuron@@V?$allocator@VNeuron@@@std@@@0@PAV10@00AAV?$allocator@V?$vector@VNeuron@@V?$allocator@VNeuron@@@std@@@std@@@0@U_General_ptr_iterator_tag@0@U_Unused_parameter@0@@Z
	DD	01H
	DD	FLAT:__tryblocktable$??$_Uninitialized_move_al_unchecked@PAV?$vector@VNeuron@@V?$allocator@VNeuron@@@std@@@std@@PAV12@V?$allocator@V?$vector@VNeuron@@V?$allocator@VNeuron@@@std@@@std@@@2@@std@@YAPAV?$vector@VNeuron@@V?$allocator@VNeuron@@@std@@@0@PAV10@00AAV?$allocator@V?$vector@VNeuron@@V?$allocator@VNeuron@@@std@@@std@@@0@U_General_ptr_iterator_tag@0@U_Unused_parameter@0@@Z
	DD	2 DUP(00H)
	DD	00H
	DD	01H
xdata$x	ENDS
;	COMDAT xdata$x
xdata$x	SEGMENT
__unwindtable$??$construct@VNeuron@@V1@@?$_Default_allocator_traits@V?$allocator@VNeuron@@@std@@@std@@SAXAAV?$allocator@VNeuron@@@1@QAVNeuron@@$$QAV3@@Z DD 0ffffffffH
	DD	FLAT:__unwindfunclet$??$construct@VNeuron@@V1@@?$_Default_allocator_traits@V?$allocator@VNeuron@@@std@@@std@@SAXAAV?$allocator@VNeuron@@@1@QAVNeuron@@$$QAV3@@Z$0
__ehfuncinfo$??$construct@VNeuron@@V1@@?$_Default_allocator_traits@V?$allocator@VNeuron@@@std@@@std@@SAXAAV?$allocator@VNeuron@@@1@QAVNeuron@@$$QAV3@@Z DD 019930522H
	DD	01H
	DD	FLAT:__unwindtable$??$construct@VNeuron@@V1@@?$_Default_allocator_traits@V?$allocator@VNeuron@@@std@@@std@@SAXAAV?$allocator@VNeuron@@@1@QAVNeuron@@$$QAV3@@Z
	DD	2 DUP(00H)
	DD	2 DUP(00H)
	DD	00H
	DD	01H
xdata$x	ENDS
;	COMDAT xdata$x
xdata$x	SEGMENT
__catchsym$??$emplace_back@VNeuron@@@?$vector@VNeuron@@V?$allocator@VNeuron@@@std@@@std@@QAE@$$QAVNeuron@@@Z$2 DD 040H
	DD	00H
	DD	00H
	DD	FLAT:__catch$??$emplace_back@VNeuron@@@?$vector@VNeuron@@V?$allocator@VNeuron@@@std@@@std@@QAE@$$QAVNeuron@@@Z$0
__unwindtable$??$emplace_back@VNeuron@@@?$vector@VNeuron@@V?$allocator@VNeuron@@@std@@@std@@QAE@$$QAVNeuron@@@Z DD 0ffffffffH
	DD	00H
	DD	0ffffffffH
	DD	00H
__tryblocktable$??$emplace_back@VNeuron@@@?$vector@VNeuron@@V?$allocator@VNeuron@@@std@@@std@@QAE@$$QAVNeuron@@@Z DD 00H
	DD	00H
	DD	01H
	DD	01H
	DD	FLAT:__catchsym$??$emplace_back@VNeuron@@@?$vector@VNeuron@@V?$allocator@VNeuron@@@std@@@std@@QAE@$$QAVNeuron@@@Z$2
__ehfuncinfo$??$emplace_back@VNeuron@@@?$vector@VNeuron@@V?$allocator@VNeuron@@@std@@@std@@QAE@$$QAVNeuron@@@Z DD 019930522H
	DD	02H
	DD	FLAT:__unwindtable$??$emplace_back@VNeuron@@@?$vector@VNeuron@@V?$allocator@VNeuron@@@std@@@std@@QAE@$$QAVNeuron@@@Z
	DD	01H
	DD	FLAT:__tryblocktable$??$emplace_back@VNeuron@@@?$vector@VNeuron@@V?$allocator@VNeuron@@@std@@@std@@QAE@$$QAVNeuron@@@Z
	DD	2 DUP(00H)
	DD	00H
	DD	01H
xdata$x	ENDS
;	COMDAT xdata$x
xdata$x	SEGMENT
__catchsym$??$emplace_back@N@?$vector@NV?$allocator@N@std@@@std@@QAE@$$QAN@Z$2 DD 040H
	DD	00H
	DD	00H
	DD	FLAT:__catch$??$emplace_back@N@?$vector@NV?$allocator@N@std@@@std@@QAE@$$QAN@Z$0
__unwindtable$??$emplace_back@N@?$vector@NV?$allocator@N@std@@@std@@QAE@$$QAN@Z DD 0ffffffffH
	DD	00H
	DD	0ffffffffH
	DD	00H
__tryblocktable$??$emplace_back@N@?$vector@NV?$allocator@N@std@@@std@@QAE@$$QAN@Z DD 00H
	DD	00H
	DD	01H
	DD	01H
	DD	FLAT:__catchsym$??$emplace_back@N@?$vector@NV?$allocator@N@std@@@std@@QAE@$$QAN@Z$2
__ehfuncinfo$??$emplace_back@N@?$vector@NV?$allocator@N@std@@@std@@QAE@$$QAN@Z DD 019930522H
	DD	02H
	DD	FLAT:__unwindtable$??$emplace_back@N@?$vector@NV?$allocator@N@std@@@std@@QAE@$$QAN@Z
	DD	01H
	DD	FLAT:__tryblocktable$??$emplace_back@N@?$vector@NV?$allocator@N@std@@@std@@QAE@$$QAN@Z
	DD	2 DUP(00H)
	DD	00H
	DD	01H
xdata$x	ENDS
;	COMDAT xdata$x
xdata$x	SEGMENT
__catchsym$??$emplace_back@V?$vector@VNeuron@@V?$allocator@VNeuron@@@std@@@std@@@?$vector@V?$vector@VNeuron@@V?$allocator@VNeuron@@@std@@@std@@V?$allocator@V?$vector@VNeuron@@V?$allocator@VNeuron@@@std@@@std@@@2@@std@@QAE@$$QAV?$vector@VNeuron@@V?$allocator@VNeuron@@@std@@@1@@Z$2 DD 040H
	DD	00H
	DD	00H
	DD	FLAT:__catch$??$emplace_back@V?$vector@VNeuron@@V?$allocator@VNeuron@@@std@@@std@@@?$vector@V?$vector@VNeuron@@V?$allocator@VNeuron@@@std@@@std@@V?$allocator@V?$vector@VNeuron@@V?$allocator@VNeuron@@@std@@@std@@@2@@std@@QAE@$$QAV?$vector@VNeuron@@V?$allocator@VNeuron@@@std@@@1@@Z$0
__unwindtable$??$emplace_back@V?$vector@VNeuron@@V?$allocator@VNeuron@@@std@@@std@@@?$vector@V?$vector@VNeuron@@V?$allocator@VNeuron@@@std@@@std@@V?$allocator@V?$vector@VNeuron@@V?$allocator@VNeuron@@@std@@@std@@@2@@std@@QAE@$$QAV?$vector@VNeuron@@V?$allocator@VNeuron@@@std@@@1@@Z DD 0ffffffffH
	DD	00H
	DD	0ffffffffH
	DD	00H
__tryblocktable$??$emplace_back@V?$vector@VNeuron@@V?$allocator@VNeuron@@@std@@@std@@@?$vector@V?$vector@VNeuron@@V?$allocator@VNeuron@@@std@@@std@@V?$allocator@V?$vector@VNeuron@@V?$allocator@VNeuron@@@std@@@std@@@2@@std@@QAE@$$QAV?$vector@VNeuron@@V?$allocator@VNeuron@@@std@@@1@@Z DD 00H
	DD	00H
	DD	01H
	DD	01H
	DD	FLAT:__catchsym$??$emplace_back@V?$vector@VNeuron@@V?$allocator@VNeuron@@@std@@@std@@@?$vector@V?$vector@VNeuron@@V?$allocator@VNeuron@@@std@@@std@@V?$allocator@V?$vector@VNeuron@@V?$allocator@VNeuron@@@std@@@std@@@2@@std@@QAE@$$QAV?$vector@VNeuron@@V?$allocator@VNeuron@@@std@@@1@@Z$2
__ehfuncinfo$??$emplace_back@V?$vector@VNeuron@@V?$allocator@VNeuron@@@std@@@std@@@?$vector@V?$vector@VNeuron@@V?$allocator@VNeuron@@@std@@@std@@V?$allocator@V?$vector@VNeuron@@V?$allocator@VNeuron@@@std@@@std@@@2@@std@@QAE@$$QAV?$vector@VNeuron@@V?$allocator@VNeuron@@@std@@@1@@Z DD 019930522H
	DD	02H
	DD	FLAT:__unwindtable$??$emplace_back@V?$vector@VNeuron@@V?$allocator@VNeuron@@@std@@@std@@@?$vector@V?$vector@VNeuron@@V?$allocator@VNeuron@@@std@@@std@@V?$allocator@V?$vector@VNeuron@@V?$allocator@VNeuron@@@std@@@std@@@2@@std@@QAE@$$QAV?$vector@VNeuron@@V?$allocator@VNeuron@@@std@@@1@@Z
	DD	01H
	DD	FLAT:__tryblocktable$??$emplace_back@V?$vector@VNeuron@@V?$allocator@VNeuron@@@std@@@std@@@?$vector@V?$vector@VNeuron@@V?$allocator@VNeuron@@@std@@@std@@V?$allocator@V?$vector@VNeuron@@V?$allocator@VNeuron@@@std@@@std@@@2@@std@@QAE@$$QAV?$vector@VNeuron@@V?$allocator@VNeuron@@@std@@@1@@Z
	DD	2 DUP(00H)
	DD	00H
	DD	01H
xdata$x	ENDS
;	COMDAT xdata$x
xdata$x	SEGMENT
__unwindtable$?_Orphan_range@?$vector@NV?$allocator@N@std@@@std@@ABEXPAN0@Z DD 0ffffffffH
	DD	FLAT:__unwindfunclet$?_Orphan_range@?$vector@NV?$allocator@N@std@@@std@@ABEXPAN0@Z$0
__ehfuncinfo$?_Orphan_range@?$vector@NV?$allocator@N@std@@@std@@ABEXPAN0@Z DD 019930522H
	DD	01H
	DD	FLAT:__unwindtable$?_Orphan_range@?$vector@NV?$allocator@N@std@@@std@@ABEXPAN0@Z
	DD	2 DUP(00H)
	DD	2 DUP(00H)
	DD	00H
	DD	01H
xdata$x	ENDS
;	COMDAT xdata$x
xdata$x	SEGMENT
__ehfuncinfo$?clear@?$vector@NV?$allocator@N@std@@@std@@QAEXXZ DD 019930522H
	DD	00H
	DD	00H
	DD	2 DUP(00H)
	DD	2 DUP(00H)
	DD	00H
	DD	05H
xdata$x	ENDS
;	COMDAT xdata$x
xdata$x	SEGMENT
__unwindtable$?_Orphan_range@?$vector@VNeuron@@V?$allocator@VNeuron@@@std@@@std@@ABEXPAVNeuron@@0@Z DD 0ffffffffH
	DD	FLAT:__unwindfunclet$?_Orphan_range@?$vector@VNeuron@@V?$allocator@VNeuron@@@std@@@std@@ABEXPAVNeuron@@0@Z$0
__ehfuncinfo$?_Orphan_range@?$vector@VNeuron@@V?$allocator@VNeuron@@@std@@@std@@ABEXPAVNeuron@@0@Z DD 019930522H
	DD	01H
	DD	FLAT:__unwindtable$?_Orphan_range@?$vector@VNeuron@@V?$allocator@VNeuron@@@std@@@std@@ABEXPAVNeuron@@0@Z
	DD	2 DUP(00H)
	DD	2 DUP(00H)
	DD	00H
	DD	01H
xdata$x	ENDS
;	COMDAT xdata$x
xdata$x	SEGMENT
__ehfuncinfo$??1?$vector@VNeuron@@V?$allocator@VNeuron@@@std@@@std@@QAE@XZ DD 019930522H
	DD	00H
	DD	00H
	DD	2 DUP(00H)
	DD	2 DUP(00H)
	DD	00H
	DD	05H
xdata$x	ENDS
;	COMDAT xdata$x
xdata$x	SEGMENT
__ehfuncinfo$??0?$vector@VNeuron@@V?$allocator@VNeuron@@@std@@@std@@QAE@$$QAV01@@Z DD 019930522H
	DD	00H
	DD	00H
	DD	2 DUP(00H)
	DD	2 DUP(00H)
	DD	00H
	DD	05H
xdata$x	ENDS
;	COMDAT xdata$x
xdata$x	SEGMENT
__ehfuncinfo$??0?$vector@VNeuron@@V?$allocator@VNeuron@@@std@@@std@@QAE@XZ DD 019930522H
	DD	00H
	DD	00H
	DD	2 DUP(00H)
	DD	2 DUP(00H)
	DD	00H
	DD	05H
xdata$x	ENDS
;	COMDAT xdata$x
xdata$x	SEGMENT
__ehfuncinfo$??1?$_Vector_alloc@U?$_Vec_base_types@VNeuron@@V?$allocator@VNeuron@@@std@@@std@@@std@@QAE@XZ DD 019930522H
	DD	00H
	DD	00H
	DD	2 DUP(00H)
	DD	2 DUP(00H)
	DD	00H
	DD	05H
xdata$x	ENDS
;	COMDAT xdata$x
xdata$x	SEGMENT
__unwindtable$??0?$_Vector_alloc@U?$_Vec_base_types@VNeuron@@V?$allocator@VNeuron@@@std@@@std@@@std@@QAE@XZ DD 0ffffffffH
	DD	FLAT:__unwindfunclet$??0?$_Vector_alloc@U?$_Vec_base_types@VNeuron@@V?$allocator@VNeuron@@@std@@@std@@@std@@QAE@XZ$0
__ehfuncinfo$??0?$_Vector_alloc@U?$_Vec_base_types@VNeuron@@V?$allocator@VNeuron@@@std@@@std@@@std@@QAE@XZ DD 019930522H
	DD	01H
	DD	FLAT:__unwindtable$??0?$_Vector_alloc@U?$_Vec_base_types@VNeuron@@V?$allocator@VNeuron@@@std@@@std@@@std@@QAE@XZ
	DD	2 DUP(00H)
	DD	2 DUP(00H)
	DD	00H
	DD	01H
xdata$x	ENDS
;	COMDAT xdata$x
xdata$x	SEGMENT
__unwindtable$?_Orphan_range@?$vector@V?$vector@VNeuron@@V?$allocator@VNeuron@@@std@@@std@@V?$allocator@V?$vector@VNeuron@@V?$allocator@VNeuron@@@std@@@std@@@2@@std@@ABEXPAV?$vector@VNeuron@@V?$allocator@VNeuron@@@std@@@2@0@Z DD 0ffffffffH
	DD	FLAT:__unwindfunclet$?_Orphan_range@?$vector@V?$vector@VNeuron@@V?$allocator@VNeuron@@@std@@@std@@V?$allocator@V?$vector@VNeuron@@V?$allocator@VNeuron@@@std@@@std@@@2@@std@@ABEXPAV?$vector@VNeuron@@V?$allocator@VNeuron@@@std@@@2@0@Z$0
__ehfuncinfo$?_Orphan_range@?$vector@V?$vector@VNeuron@@V?$allocator@VNeuron@@@std@@@std@@V?$allocator@V?$vector@VNeuron@@V?$allocator@VNeuron@@@std@@@std@@@2@@std@@ABEXPAV?$vector@VNeuron@@V?$allocator@VNeuron@@@std@@@2@0@Z DD 019930522H
	DD	01H
	DD	FLAT:__unwindtable$?_Orphan_range@?$vector@V?$vector@VNeuron@@V?$allocator@VNeuron@@@std@@@std@@V?$allocator@V?$vector@VNeuron@@V?$allocator@VNeuron@@@std@@@std@@@2@@std@@ABEXPAV?$vector@VNeuron@@V?$allocator@VNeuron@@@std@@@2@0@Z
	DD	2 DUP(00H)
	DD	2 DUP(00H)
	DD	00H
	DD	01H
xdata$x	ENDS
;	COMDAT xdata$x
xdata$x	SEGMENT
__ehfuncinfo$??1?$vector@V?$vector@VNeuron@@V?$allocator@VNeuron@@@std@@@std@@V?$allocator@V?$vector@VNeuron@@V?$allocator@VNeuron@@@std@@@std@@@2@@std@@QAE@XZ DD 019930522H
	DD	00H
	DD	00H
	DD	2 DUP(00H)
	DD	2 DUP(00H)
	DD	00H
	DD	05H
xdata$x	ENDS
;	COMDAT xdata$x
xdata$x	SEGMENT
__ehfuncinfo$??0?$vector@V?$vector@VNeuron@@V?$allocator@VNeuron@@@std@@@std@@V?$allocator@V?$vector@VNeuron@@V?$allocator@VNeuron@@@std@@@std@@@2@@std@@QAE@XZ DD 019930522H
	DD	00H
	DD	00H
	DD	2 DUP(00H)
	DD	2 DUP(00H)
	DD	00H
	DD	05H
xdata$x	ENDS
;	COMDAT xdata$x
xdata$x	SEGMENT
__ehfuncinfo$??1?$_Vector_alloc@U?$_Vec_base_types@V?$vector@VNeuron@@V?$allocator@VNeuron@@@std@@@std@@V?$allocator@V?$vector@VNeuron@@V?$allocator@VNeuron@@@std@@@std@@@2@@std@@@std@@QAE@XZ DD 019930522H
	DD	00H
	DD	00H
	DD	2 DUP(00H)
	DD	2 DUP(00H)
	DD	00H
	DD	05H
xdata$x	ENDS
;	COMDAT xdata$x
xdata$x	SEGMENT
__unwindtable$??0?$_Vector_alloc@U?$_Vec_base_types@V?$vector@VNeuron@@V?$allocator@VNeuron@@@std@@@std@@V?$allocator@V?$vector@VNeuron@@V?$allocator@VNeuron@@@std@@@std@@@2@@std@@@std@@QAE@XZ DD 0ffffffffH
	DD	FLAT:__unwindfunclet$??0?$_Vector_alloc@U?$_Vec_base_types@V?$vector@VNeuron@@V?$allocator@VNeuron@@@std@@@std@@V?$allocator@V?$vector@VNeuron@@V?$allocator@VNeuron@@@std@@@std@@@2@@std@@@std@@QAE@XZ$0
__ehfuncinfo$??0?$_Vector_alloc@U?$_Vec_base_types@V?$vector@VNeuron@@V?$allocator@VNeuron@@@std@@@std@@V?$allocator@V?$vector@VNeuron@@V?$allocator@VNeuron@@@std@@@std@@@2@@std@@@std@@QAE@XZ DD 019930522H
	DD	01H
	DD	FLAT:__unwindtable$??0?$_Vector_alloc@U?$_Vec_base_types@V?$vector@VNeuron@@V?$allocator@VNeuron@@@std@@@std@@V?$allocator@V?$vector@VNeuron@@V?$allocator@VNeuron@@@std@@@std@@@2@@std@@@std@@QAE@XZ
	DD	2 DUP(00H)
	DD	2 DUP(00H)
	DD	00H
	DD	01H
xdata$x	ENDS
xdata$x	SEGMENT
__unwindtable$??0Net@@QAE@ABV?$vector@IV?$allocator@I@std@@@std@@@Z DD 0ffffffffH
	DD	FLAT:__unwindfunclet$??0Net@@QAE@ABV?$vector@IV?$allocator@I@std@@@std@@@Z$0
	DD	00H
	DD	FLAT:__unwindfunclet$??0Net@@QAE@ABV?$vector@IV?$allocator@I@std@@@std@@@Z$1
	DD	00H
	DD	FLAT:__unwindfunclet$??0Net@@QAE@ABV?$vector@IV?$allocator@I@std@@@std@@@Z$2
__ehfuncinfo$??0Net@@QAE@ABV?$vector@IV?$allocator@I@std@@@std@@@Z DD 019930522H
	DD	03H
	DD	FLAT:__unwindtable$??0Net@@QAE@ABV?$vector@IV?$allocator@I@std@@@std@@@Z
	DD	2 DUP(00H)
	DD	2 DUP(00H)
	DD	00H
	DD	01H
xdata$x	ENDS
;	COMDAT xdata$x
xdata$x	SEGMENT
__catchsym$??0?$vector@UConnection@@V?$allocator@UConnection@@@std@@@std@@QAE@ABV01@@Z$3 DD 040H
	DD	00H
	DD	00H
	DD	FLAT:__catch$??0?$vector@UConnection@@V?$allocator@UConnection@@@std@@@std@@QAE@ABV01@@Z$0
__tryblocktable$??0?$vector@UConnection@@V?$allocator@UConnection@@@std@@@std@@QAE@ABV01@@Z DD 01H
	DD	01H
	DD	02H
	DD	01H
	DD	FLAT:__catchsym$??0?$vector@UConnection@@V?$allocator@UConnection@@@std@@@std@@QAE@ABV01@@Z$3
__unwindtable$??0?$vector@UConnection@@V?$allocator@UConnection@@@std@@@std@@QAE@ABV01@@Z DD 0ffffffffH
	DD	FLAT:__unwindfunclet$??0?$vector@UConnection@@V?$allocator@UConnection@@@std@@@std@@QAE@ABV01@@Z$2
	DD	00H
	DD	00H
	DD	00H
	DD	00H
__ehfuncinfo$??0?$vector@UConnection@@V?$allocator@UConnection@@@std@@@std@@QAE@ABV01@@Z DD 019930522H
	DD	03H
	DD	FLAT:__unwindtable$??0?$vector@UConnection@@V?$allocator@UConnection@@@std@@@std@@QAE@ABV01@@Z
	DD	01H
	DD	FLAT:__tryblocktable$??0?$vector@UConnection@@V?$allocator@UConnection@@@std@@@std@@QAE@ABV01@@Z
	DD	2 DUP(00H)
	DD	00H
	DD	01H
xdata$x	ENDS
;	COMDAT xdata$x
xdata$x	SEGMENT
__ehfuncinfo$??1?$_Vector_alloc@U?$_Vec_base_types@UConnection@@V?$allocator@UConnection@@@std@@@std@@@std@@QAE@XZ DD 019930522H
	DD	00H
	DD	00H
	DD	2 DUP(00H)
	DD	2 DUP(00H)
	DD	00H
	DD	05H
xdata$x	ENDS
;	COMDAT xdata$x
xdata$x	SEGMENT
__ehfuncinfo$?_Swap_all@_Container_base12@std@@QAEXAAU12@@Z DD 019930522H
	DD	00H
	DD	00H
	DD	2 DUP(00H)
	DD	2 DUP(00H)
	DD	00H
	DD	05H
xdata$x	ENDS
;	COMDAT xdata$x
xdata$x	SEGMENT
__ehfuncinfo$?_Orphan_all@_Container_base12@std@@QAEXXZ DD 019930522H
	DD	00H
	DD	00H
	DD	2 DUP(00H)
	DD	2 DUP(00H)
	DD	00H
	DD	05H
xdata$x	ENDS
; Function compile flags: /Odtp /RTCsu
; File c:\program files (x86)\microsoft visual studio\2017\community\vc\tools\msvc\14.11.25503\include\xutility
;	COMDAT ??$_Copy_memmove@PAUConnection@@PAU1@@std@@YAPAUConnection@@PAU1@00@Z
_TEXT	SEGMENT
__Count$ = -16						; size = 4
__Dest_ch$ = -12					; size = 4
__Last_ch$ = -8						; size = 4
__First_ch$ = -4					; size = 4
__First$ = 8						; size = 4
__Last$ = 12						; size = 4
__Dest$ = 16						; size = 4
??$_Copy_memmove@PAUConnection@@PAU1@@std@@YAPAUConnection@@PAU1@00@Z PROC ; std::_Copy_memmove<Connection *,Connection *>, COMDAT

; 2239 : 	{	// implement copy-like function as memmove

	push	ebp
	mov	ebp, esp
	sub	esp, 16					; 00000010H
	mov	eax, -858993460				; ccccccccH
	mov	DWORD PTR [ebp-16], eax
	mov	DWORD PTR [ebp-12], eax
	mov	DWORD PTR [ebp-8], eax
	mov	DWORD PTR [ebp-4], eax

; 2240 : 	const char * const _First_ch = const_cast<const char *>(reinterpret_cast<const volatile char *>(_First));

	mov	eax, DWORD PTR __First$[ebp]
	mov	DWORD PTR __First_ch$[ebp], eax

; 2241 : 	const char * const _Last_ch = const_cast<const char *>(reinterpret_cast<const volatile char *>(_Last));

	mov	ecx, DWORD PTR __Last$[ebp]
	mov	DWORD PTR __Last_ch$[ebp], ecx

; 2242 : 	char * const _Dest_ch = const_cast<char *>(reinterpret_cast<volatile char *>(_Dest));

	mov	edx, DWORD PTR __Dest$[ebp]
	mov	DWORD PTR __Dest_ch$[ebp], edx

; 2243 : 	const size_t _Count = _Last_ch - _First_ch;

	mov	eax, DWORD PTR __Last_ch$[ebp]
	sub	eax, DWORD PTR __First_ch$[ebp]
	mov	DWORD PTR __Count$[ebp], eax

; 2244 : 	_CSTD memmove(_Dest_ch, _First_ch, _Count);

	mov	ecx, DWORD PTR __Count$[ebp]
	push	ecx
	mov	edx, DWORD PTR __First_ch$[ebp]
	push	edx
	mov	eax, DWORD PTR __Dest_ch$[ebp]
	push	eax
	call	_memmove
	add	esp, 12					; 0000000cH

; 2245 : 	return (reinterpret_cast<_OutIt>(_Dest_ch + _Count));

	mov	eax, DWORD PTR __Dest_ch$[ebp]
	add	eax, DWORD PTR __Count$[ebp]

; 2246 : 	}

	add	esp, 16					; 00000010H
	cmp	ebp, esp
	call	__RTC_CheckEsp
	mov	esp, ebp
	pop	ebp
	ret	0
??$_Copy_memmove@PAUConnection@@PAU1@@std@@YAPAUConnection@@PAU1@00@Z ENDP ; std::_Copy_memmove<Connection *,Connection *>
_TEXT	ENDS
; Function compile flags: /Odtp /RTCsu
; File c:\program files (x86)\microsoft visual studio\2017\community\vc\tools\msvc\14.11.25503\include\xutility
;	COMDAT ??$_Rechecked@PAUConnection@@PAU1@@std@@YAAAPAUConnection@@AAPAU1@PAU1@@Z
_TEXT	SEGMENT
__Dest$ = 8						; size = 4
__Src$ = 12						; size = 4
??$_Rechecked@PAUConnection@@PAU1@@std@@YAAAPAUConnection@@AAPAU1@PAU1@@Z PROC ; std::_Rechecked<Connection *,Connection *>, COMDAT

; 480  : 	{	// reset checked from unchecked, generic

	push	ebp
	mov	ebp, esp

; 481  : 	_Dest = _Src;

	mov	eax, DWORD PTR __Dest$[ebp]
	mov	ecx, DWORD PTR __Src$[ebp]
	mov	DWORD PTR [eax], ecx

; 482  : 	return (_Dest);

	mov	eax, DWORD PTR __Dest$[ebp]

; 483  : 	}

	pop	ebp
	ret	0
??$_Rechecked@PAUConnection@@PAU1@@std@@YAAAPAUConnection@@AAPAU1@PAU1@@Z ENDP ; std::_Rechecked<Connection *,Connection *>
_TEXT	ENDS
; Function compile flags: /Odtp /RTCsu
; File c:\program files (x86)\microsoft visual studio\2017\community\vc\tools\msvc\14.11.25503\include\xmemory
;	COMDAT ??$_Uninitialized_copy_al_unchecked@UConnection@@U1@V?$allocator@UConnection@@@std@@@std@@YAPAUConnection@@PAU1@00AAV?$allocator@UConnection@@@0@U_Really_trivial_ptr_iterator_tag@0@U?$integral_constant@_N$00@0@@Z
_TEXT	SEGMENT
__First$ = 8						; size = 4
__Last$ = 12						; size = 4
__Dest$ = 16						; size = 4
___formal$ = 20						; size = 4
___formal$ = 24						; size = 1
___formal$ = 28						; size = 1
??$_Uninitialized_copy_al_unchecked@UConnection@@U1@V?$allocator@UConnection@@@std@@@std@@YAPAUConnection@@PAU1@00AAV?$allocator@UConnection@@@0@U_Really_trivial_ptr_iterator_tag@0@U?$integral_constant@_N$00@0@@Z PROC ; std::_Uninitialized_copy_al_unchecked<Connection,Connection,std::allocator<Connection> >, COMDAT

; 108  : 	{	// copy [_First, _Last) to raw _Dest, using default _Alloc construct, memmove optimization

	push	ebp
	mov	ebp, esp

; 109  : 	return (_Copy_memmove(_First, _Last, _Dest));

	mov	eax, DWORD PTR __Dest$[ebp]
	push	eax
	mov	ecx, DWORD PTR __Last$[ebp]
	push	ecx
	mov	edx, DWORD PTR __First$[ebp]
	push	edx
	call	??$_Copy_memmove@PAUConnection@@PAU1@@std@@YAPAUConnection@@PAU1@00@Z ; std::_Copy_memmove<Connection *,Connection *>
	add	esp, 12					; 0000000cH

; 110  : 	}

	cmp	ebp, esp
	call	__RTC_CheckEsp
	pop	ebp
	ret	0
??$_Uninitialized_copy_al_unchecked@UConnection@@U1@V?$allocator@UConnection@@@std@@@std@@YAPAUConnection@@PAU1@00AAV?$allocator@UConnection@@@0@U_Really_trivial_ptr_iterator_tag@0@U?$integral_constant@_N$00@0@@Z ENDP ; std::_Uninitialized_copy_al_unchecked<Connection,Connection,std::allocator<Connection> >
_TEXT	ENDS
; Function compile flags: /Odtp /RTCsu
; File c:\program files (x86)\microsoft visual studio\2017\community\vc\tools\msvc\14.11.25503\include\xutility
;	COMDAT ??$_Ptr_copy_cat@UConnection@@U1@@std@@YA?AU_Really_trivial_ptr_iterator_tag@0@ABQAUConnection@@0@Z
_TEXT	SEGMENT
___$ReturnUdt$ = 8					; size = 4
___formal$ = 12						; size = 4
___formal$ = 16						; size = 4
??$_Ptr_copy_cat@UConnection@@U1@@std@@YA?AU_Really_trivial_ptr_iterator_tag@0@ABQAUConnection@@0@Z PROC ; std::_Ptr_copy_cat<Connection,Connection>, COMDAT

; 871  : 	{	// return pointer copy optimization category for pointers

	push	ebp
	mov	ebp, esp

; 872  : 	return {};

	mov	eax, DWORD PTR ___$ReturnUdt$[ebp]

; 873  : 	}

	pop	ebp
	ret	0
??$_Ptr_copy_cat@UConnection@@U1@@std@@YA?AU_Really_trivial_ptr_iterator_tag@0@ABQAUConnection@@0@Z ENDP ; std::_Ptr_copy_cat<Connection,Connection>
_TEXT	ENDS
; Function compile flags: /Odtp /RTCsu
; File c:\program files (x86)\microsoft visual studio\2017\community\vc\tools\msvc\14.11.25503\include\xutility
;	COMDAT ??$_Unchecked@PAUConnection@@@std@@YAPAUConnection@@PAU1@@Z
_TEXT	SEGMENT
__Src$ = 8						; size = 4
??$_Unchecked@PAUConnection@@@std@@YAPAUConnection@@PAU1@@Z PROC ; std::_Unchecked<Connection *>, COMDAT

; 449  : 	{	// construct unchecked from checked, generic

	push	ebp
	mov	ebp, esp

; 450  : 	return (_Src);

	mov	eax, DWORD PTR __Src$[ebp]

; 451  : 	}

	pop	ebp
	ret	0
??$_Unchecked@PAUConnection@@@std@@YAPAUConnection@@PAU1@@Z ENDP ; std::_Unchecked<Connection *>
_TEXT	ENDS
; Function compile flags: /Odtp /RTCsu
; File c:\program files (x86)\microsoft visual studio\2017\community\vc\tools\msvc\14.11.25503\include\type_traits
;	COMDAT ??$forward@AAVNeuron@@@std@@YAAAVNeuron@@AAV1@@Z
_TEXT	SEGMENT
__Arg$ = 8						; size = 4
??$forward@AAVNeuron@@@std@@YAAAVNeuron@@AAV1@@Z PROC	; std::forward<Neuron &>, COMDAT

; 1591 : 	{	// forward an lvalue as either an lvalue or an rvalue

	push	ebp
	mov	ebp, esp

; 1592 : 	return (static_cast<_Ty&&>(_Arg));

	mov	eax, DWORD PTR __Arg$[ebp]

; 1593 : 	}

	pop	ebp
	ret	0
??$forward@AAVNeuron@@@std@@YAAAVNeuron@@AAV1@@Z ENDP	; std::forward<Neuron &>
_TEXT	ENDS
; Function compile flags: /Odtp /RTCsu
; File c:\program files (x86)\microsoft visual studio\2017\community\vc\tools\msvc\14.11.25503\include\xstddef
;	COMDAT ??$addressof@V?$_Vector_val@U?$_Simple_types@UConnection@@@std@@@std@@@std@@YAPAV?$_Vector_val@U?$_Simple_types@UConnection@@@std@@@0@AAV10@@Z
_TEXT	SEGMENT
__Val$ = 8						; size = 4
??$addressof@V?$_Vector_val@U?$_Simple_types@UConnection@@@std@@@std@@@std@@YAPAV?$_Vector_val@U?$_Simple_types@UConnection@@@std@@@0@AAV10@@Z PROC ; std::addressof<std::_Vector_val<std::_Simple_types<Connection> > >, COMDAT

; 248  : 	{	// return address of _Val

	push	ebp
	mov	ebp, esp

; 249  : 	return (__builtin_addressof(_Val));

	mov	eax, DWORD PTR __Val$[ebp]

; 250  : 	}

	pop	ebp
	ret	0
??$addressof@V?$_Vector_val@U?$_Simple_types@UConnection@@@std@@@std@@@std@@YAPAV?$_Vector_val@U?$_Simple_types@UConnection@@@std@@@0@AAV10@@Z ENDP ; std::addressof<std::_Vector_val<std::_Simple_types<Connection> > >
_TEXT	ENDS
; Function compile flags: /Odtp /RTCsu
; File c:\program files (x86)\microsoft visual studio\2017\community\vc\tools\msvc\14.11.25503\include\xmemory0
;	COMDAT ??$_Destroy_range1@V?$allocator@UConnection@@@std@@@std@@YAXPAUConnection@@0AAV?$allocator@UConnection@@@0@U?$integral_constant@_N$00@0@@Z
_TEXT	SEGMENT
___formal$ = 8						; size = 4
___formal$ = 12						; size = 4
___formal$ = 16						; size = 4
___formal$ = 20						; size = 1
??$_Destroy_range1@V?$allocator@UConnection@@@std@@@std@@YAXPAUConnection@@0AAV?$allocator@UConnection@@@0@U?$integral_constant@_N$00@0@@Z PROC ; std::_Destroy_range1<std::allocator<Connection> >, COMDAT

; 1103 : 	{	// destroy [_First, _Last), trivially destructible and default destroy

	push	ebp
	mov	ebp, esp

; 1104 : 		// nothing to do
; 1105 : 	}

	pop	ebp
	ret	0
??$_Destroy_range1@V?$allocator@UConnection@@@std@@@std@@YAXPAUConnection@@0AAV?$allocator@UConnection@@@0@U?$integral_constant@_N$00@0@@Z ENDP ; std::_Destroy_range1<std::allocator<Connection> >
_TEXT	ENDS
; Function compile flags: /Odtp /RTCsu
; File c:\program files (x86)\microsoft visual studio\2017\community\vc\tools\msvc\14.11.25503\include\xutility
;	COMDAT ??$?0V?$allocator@VNeuron@@@std@@$$V@?$_Compressed_pair@V?$allocator@VNeuron@@@std@@V?$_Vector_val@U?$_Simple_types@VNeuron@@@std@@@2@$00@std@@QAE@U_One_then_variadic_args_t@1@$$QAV?$allocator@VNeuron@@@1@@Z
_TEXT	SEGMENT
_this$ = -4						; size = 4
___formal$ = 8						; size = 1
__Val1$ = 12						; size = 4
??$?0V?$allocator@VNeuron@@@std@@$$V@?$_Compressed_pair@V?$allocator@VNeuron@@@std@@V?$_Vector_val@U?$_Simple_types@VNeuron@@@std@@@2@$00@std@@QAE@U_One_then_variadic_args_t@1@$$QAV?$allocator@VNeuron@@@1@@Z PROC ; std::_Compressed_pair<std::allocator<Neuron>,std::_Vector_val<std::_Simple_types<Neuron> >,1>::_Compressed_pair<std::allocator<Neuron>,std::_Vector_val<std::_Simple_types<Neuron> >,1><std::allocator<Neuron> >, COMDAT
; _this$ = ecx

; 312  : 		{	// construct from forwarded values

	push	ebp
	mov	ebp, esp
	push	ecx
	mov	DWORD PTR [ebp-4], -858993460		; ccccccccH
	mov	DWORD PTR _this$[ebp], ecx

; 310  : 		: _Ty1(_STD forward<_Other1>(_Val1)),

	mov	eax, DWORD PTR __Val1$[ebp]
	push	eax
	call	??$forward@V?$allocator@VNeuron@@@std@@@std@@YA$$QAV?$allocator@VNeuron@@@0@AAV10@@Z ; std::forward<std::allocator<Neuron> >
	add	esp, 4

; 311  : 			_Myval2(_STD forward<_Other2>(_Val2)...)

	mov	ecx, DWORD PTR _this$[ebp]
	call	??0?$_Vector_val@U?$_Simple_types@VNeuron@@@std@@@std@@QAE@XZ ; std::_Vector_val<std::_Simple_types<Neuron> >::_Vector_val<std::_Simple_types<Neuron> >

; 313  : 		}

	mov	eax, DWORD PTR _this$[ebp]
	add	esp, 4
	cmp	ebp, esp
	call	__RTC_CheckEsp
	mov	esp, ebp
	pop	ebp
	ret	8
??$?0V?$allocator@VNeuron@@@std@@$$V@?$_Compressed_pair@V?$allocator@VNeuron@@@std@@V?$_Vector_val@U?$_Simple_types@VNeuron@@@std@@@2@$00@std@@QAE@U_One_then_variadic_args_t@1@$$QAV?$allocator@VNeuron@@@1@@Z ENDP ; std::_Compressed_pair<std::allocator<Neuron>,std::_Vector_val<std::_Simple_types<Neuron> >,1>::_Compressed_pair<std::allocator<Neuron>,std::_Vector_val<std::_Simple_types<Neuron> >,1><std::allocator<Neuron> >
_TEXT	ENDS
; Function compile flags: /Odtp /RTCsu
; File c:\program files (x86)\microsoft visual studio\2017\community\vc\tools\msvc\14.11.25503\include\type_traits
;	COMDAT ??$forward@V?$allocator@VNeuron@@@std@@@std@@YA$$QAV?$allocator@VNeuron@@@0@AAV10@@Z
_TEXT	SEGMENT
__Arg$ = 8						; size = 4
??$forward@V?$allocator@VNeuron@@@std@@@std@@YA$$QAV?$allocator@VNeuron@@@0@AAV10@@Z PROC ; std::forward<std::allocator<Neuron> >, COMDAT

; 1591 : 	{	// forward an lvalue as either an lvalue or an rvalue

	push	ebp
	mov	ebp, esp

; 1592 : 	return (static_cast<_Ty&&>(_Arg));

	mov	eax, DWORD PTR __Arg$[ebp]

; 1593 : 	}

	pop	ebp
	ret	0
??$forward@V?$allocator@VNeuron@@@std@@@std@@YA$$QAV?$allocator@VNeuron@@@0@AAV10@@Z ENDP ; std::forward<std::allocator<Neuron> >
_TEXT	ENDS
; Function compile flags: /Odtp /RTCsu
; File c:\program files (x86)\microsoft visual studio\2017\community\vc\tools\msvc\14.11.25503\include\xmemory
;	COMDAT ??$_Uninitialized_copy@PAUConnection@@PAU1@V?$allocator@UConnection@@@std@@@std@@YAPAUConnection@@PAU1@00AAV?$allocator@UConnection@@@0@@Z
_TEXT	SEGMENT
$T1 = -30						; size = 1
$T2 = -29						; size = 1
__UDest$ = -24						; size = 4
__ULast$ = -16						; size = 4
__UFirst$ = -8						; size = 4
__First$ = 8						; size = 4
__Last$ = 12						; size = 4
__Dest$ = 16						; size = 4
__Al$ = 20						; size = 4
??$_Uninitialized_copy@PAUConnection@@PAU1@V?$allocator@UConnection@@@std@@@std@@YAPAUConnection@@PAU1@00AAV?$allocator@UConnection@@@0@@Z PROC ; std::_Uninitialized_copy<Connection *,Connection *,std::allocator<Connection> >, COMDAT

; 116  : 	{	// copy [_First, _Last) to raw _Dest, using _Al

	push	ebp
	mov	ebp, esp
	sub	esp, 32					; 00000020H
	mov	eax, -858993460				; ccccccccH
	mov	DWORD PTR [ebp-32], eax
	mov	DWORD PTR [ebp-28], eax
	mov	DWORD PTR [ebp-24], eax
	mov	DWORD PTR [ebp-20], eax
	mov	DWORD PTR [ebp-16], eax
	mov	DWORD PTR [ebp-12], eax
	mov	DWORD PTR [ebp-8], eax
	mov	DWORD PTR [ebp-4], eax

; 117  : 		// note: only called internally from elsewhere in the STL, debug checks
; 118  : 		// and deprecation warnings omitted
; 119  : 	const auto _UFirst = _Unchecked(_First);

	mov	eax, DWORD PTR __First$[ebp]
	push	eax
	call	??$_Unchecked@PAUConnection@@@std@@YAPAUConnection@@PAU1@@Z ; std::_Unchecked<Connection *>
	add	esp, 4
	mov	DWORD PTR __UFirst$[ebp], eax

; 120  : 	const auto _ULast = _Unchecked(_Last);

	mov	ecx, DWORD PTR __Last$[ebp]
	push	ecx
	call	??$_Unchecked@PAUConnection@@@std@@YAPAUConnection@@PAU1@@Z ; std::_Unchecked<Connection *>
	add	esp, 4
	mov	DWORD PTR __ULast$[ebp], eax

; 121  : 	const auto _UDest = _Unchecked(_Dest);

	mov	edx, DWORD PTR __Dest$[ebp]
	push	edx
	call	??$_Unchecked@PAUConnection@@@std@@YAPAUConnection@@PAU1@@Z ; std::_Unchecked<Connection *>
	add	esp, 4
	mov	DWORD PTR __UDest$[ebp], eax

; 122  : 	return (_Rechecked(_Dest,

	movzx	eax, BYTE PTR $T2[ebp]
	push	eax
	lea	ecx, DWORD PTR __UDest$[ebp]
	push	ecx
	lea	edx, DWORD PTR __UFirst$[ebp]
	push	edx
	lea	eax, DWORD PTR $T1[ebp]
	push	eax
	call	??$_Ptr_copy_cat@UConnection@@U1@@std@@YA?AU_Really_trivial_ptr_iterator_tag@0@ABQAUConnection@@0@Z ; std::_Ptr_copy_cat<Connection,Connection>
	add	esp, 12					; 0000000cH
	mov	cl, BYTE PTR [eax]
	movzx	edx, cl
	push	edx
	mov	eax, DWORD PTR __Al$[ebp]
	push	eax
	mov	ecx, DWORD PTR __UDest$[ebp]
	push	ecx
	mov	edx, DWORD PTR __ULast$[ebp]
	push	edx
	mov	eax, DWORD PTR __UFirst$[ebp]
	push	eax
	call	??$_Uninitialized_copy_al_unchecked@UConnection@@U1@V?$allocator@UConnection@@@std@@@std@@YAPAUConnection@@PAU1@00AAV?$allocator@UConnection@@@0@U_Really_trivial_ptr_iterator_tag@0@U?$integral_constant@_N$00@0@@Z ; std::_Uninitialized_copy_al_unchecked<Connection,Connection,std::allocator<Connection> >
	add	esp, 24					; 00000018H
	push	eax
	lea	ecx, DWORD PTR __Dest$[ebp]
	push	ecx
	call	??$_Rechecked@PAUConnection@@PAU1@@std@@YAAAPAUConnection@@AAPAU1@PAU1@@Z ; std::_Rechecked<Connection *,Connection *>
	add	esp, 8
	mov	eax, DWORD PTR [eax]

; 123  : 		_Uninitialized_copy_al_unchecked(_UFirst, _ULast, _UDest, _Al,
; 124  : 			_Ptr_copy_cat(_UFirst, _UDest),
; 125  : 			_Uses_default_construct_t<_Alloc, decltype(_Unfancy(_UDest)), decltype(*_UFirst)>())));
; 126  : 	}

	push	edx
	mov	ecx, ebp
	push	eax
	lea	edx, DWORD PTR $LN6@Uninitiali
	call	@_RTC_CheckStackVars@8
	pop	eax
	pop	edx
	add	esp, 32					; 00000020H
	cmp	ebp, esp
	call	__RTC_CheckEsp
	mov	esp, ebp
	pop	ebp
	ret	0
	npad	3
$LN6@Uninitiali:
	DD	2
	DD	$LN5@Uninitiali
$LN5@Uninitiali:
	DD	-8					; fffffff8H
	DD	4
	DD	$LN3@Uninitiali
	DD	-24					; ffffffe8H
	DD	4
	DD	$LN4@Uninitiali
$LN4@Uninitiali:
	DB	95					; 0000005fH
	DB	85					; 00000055H
	DB	68					; 00000044H
	DB	101					; 00000065H
	DB	115					; 00000073H
	DB	116					; 00000074H
	DB	0
$LN3@Uninitiali:
	DB	95					; 0000005fH
	DB	85					; 00000055H
	DB	70					; 00000046H
	DB	105					; 00000069H
	DB	114					; 00000072H
	DB	115					; 00000073H
	DB	116					; 00000074H
	DB	0
??$_Uninitialized_copy@PAUConnection@@PAU1@V?$allocator@UConnection@@@std@@@std@@YAPAUConnection@@PAU1@00AAV?$allocator@UConnection@@@0@@Z ENDP ; std::_Uninitialized_copy<Connection *,Connection *,std::allocator<Connection> >
_TEXT	ENDS
; Function compile flags: /Odtp /RTCsu
; File c:\program files (x86)\microsoft visual studio\2017\community\vc\tools\msvc\14.11.25503\include\xutility
;	COMDAT ??$?0V?$allocator@UConnection@@@std@@$$V@?$_Compressed_pair@V?$allocator@UConnection@@@std@@V?$_Vector_val@U?$_Simple_types@UConnection@@@std@@@2@$00@std@@QAE@U_One_then_variadic_args_t@1@$$QAV?$allocator@UConnection@@@1@@Z
_TEXT	SEGMENT
_this$ = -4						; size = 4
___formal$ = 8						; size = 1
__Val1$ = 12						; size = 4
??$?0V?$allocator@UConnection@@@std@@$$V@?$_Compressed_pair@V?$allocator@UConnection@@@std@@V?$_Vector_val@U?$_Simple_types@UConnection@@@std@@@2@$00@std@@QAE@U_One_then_variadic_args_t@1@$$QAV?$allocator@UConnection@@@1@@Z PROC ; std::_Compressed_pair<std::allocator<Connection>,std::_Vector_val<std::_Simple_types<Connection> >,1>::_Compressed_pair<std::allocator<Connection>,std::_Vector_val<std::_Simple_types<Connection> >,1><std::allocator<Connection> >, COMDAT
; _this$ = ecx

; 312  : 		{	// construct from forwarded values

	push	ebp
	mov	ebp, esp
	push	ecx
	mov	DWORD PTR [ebp-4], -858993460		; ccccccccH
	mov	DWORD PTR _this$[ebp], ecx

; 310  : 		: _Ty1(_STD forward<_Other1>(_Val1)),

	mov	eax, DWORD PTR __Val1$[ebp]
	push	eax
	call	??$forward@V?$allocator@UConnection@@@std@@@std@@YA$$QAV?$allocator@UConnection@@@0@AAV10@@Z ; std::forward<std::allocator<Connection> >
	add	esp, 4

; 311  : 			_Myval2(_STD forward<_Other2>(_Val2)...)

	mov	ecx, DWORD PTR _this$[ebp]
	call	??0?$_Vector_val@U?$_Simple_types@UConnection@@@std@@@std@@QAE@XZ ; std::_Vector_val<std::_Simple_types<Connection> >::_Vector_val<std::_Simple_types<Connection> >

; 313  : 		}

	mov	eax, DWORD PTR _this$[ebp]
	add	esp, 4
	cmp	ebp, esp
	call	__RTC_CheckEsp
	mov	esp, ebp
	pop	ebp
	ret	8
??$?0V?$allocator@UConnection@@@std@@$$V@?$_Compressed_pair@V?$allocator@UConnection@@@std@@V?$_Vector_val@U?$_Simple_types@UConnection@@@std@@@2@$00@std@@QAE@U_One_then_variadic_args_t@1@$$QAV?$allocator@UConnection@@@1@@Z ENDP ; std::_Compressed_pair<std::allocator<Connection>,std::_Vector_val<std::_Simple_types<Connection> >,1>::_Compressed_pair<std::allocator<Connection>,std::_Vector_val<std::_Simple_types<Connection> >,1><std::allocator<Connection> >
_TEXT	ENDS
; Function compile flags: /Odtp /RTCsu
; File c:\program files (x86)\microsoft visual studio\2017\community\vc\tools\msvc\14.11.25503\include\type_traits
;	COMDAT ??$forward@V?$allocator@UConnection@@@std@@@std@@YA$$QAV?$allocator@UConnection@@@0@AAV10@@Z
_TEXT	SEGMENT
__Arg$ = 8						; size = 4
??$forward@V?$allocator@UConnection@@@std@@@std@@YA$$QAV?$allocator@UConnection@@@0@AAV10@@Z PROC ; std::forward<std::allocator<Connection> >, COMDAT

; 1591 : 	{	// forward an lvalue as either an lvalue or an rvalue

	push	ebp
	mov	ebp, esp

; 1592 : 	return (static_cast<_Ty&&>(_Arg));

	mov	eax, DWORD PTR __Arg$[ebp]

; 1593 : 	}

	pop	ebp
	ret	0
??$forward@V?$allocator@UConnection@@@std@@@std@@YA$$QAV?$allocator@UConnection@@@0@AAV10@@Z ENDP ; std::forward<std::allocator<Connection> >
_TEXT	ENDS
; Function compile flags: /Odtp /RTCsu
; File c:\program files (x86)\microsoft visual studio\2017\community\vc\tools\msvc\14.11.25503\include\xmemory0
;	COMDAT ??$construct@VNeuron@@AAV1@@?$_Default_allocator_traits@V?$allocator@VNeuron@@@std@@@std@@SAXAAV?$allocator@VNeuron@@@1@QAVNeuron@@AAV3@@Z
_TEXT	SEGMENT
$T2 = -20						; size = 4
$T3 = -16						; size = 4
__$EHRec$ = -12						; size = 12
___formal$ = 8						; size = 4
__Ptr$ = 12						; size = 4
_<_Args_0>$ = 16					; size = 4
??$construct@VNeuron@@AAV1@@?$_Default_allocator_traits@V?$allocator@VNeuron@@@std@@@std@@SAXAAV?$allocator@VNeuron@@@1@QAVNeuron@@AAV3@@Z PROC ; std::_Default_allocator_traits<std::allocator<Neuron> >::construct<Neuron,Neuron &>, COMDAT

; 854  : 		{	// construct _Objty(_Types...) at _Ptr

	push	ebp
	mov	ebp, esp
	push	-1
	push	__ehhandler$??$construct@VNeuron@@AAV1@@?$_Default_allocator_traits@V?$allocator@VNeuron@@@std@@@std@@SAXAAV?$allocator@VNeuron@@@1@QAVNeuron@@AAV3@@Z
	mov	eax, DWORD PTR fs:0
	push	eax
	sub	esp, 8
	mov	DWORD PTR [ebp-20], -858993460		; ccccccccH
	mov	DWORD PTR [ebp-16], -858993460		; ccccccccH
	mov	eax, DWORD PTR ___security_cookie
	xor	eax, ebp
	push	eax
	lea	eax, DWORD PTR __$EHRec$[ebp]
	mov	DWORD PTR fs:0, eax

; 855  : 		::new (const_cast<void *>(static_cast<const volatile void *>(_Ptr)))

	mov	eax, DWORD PTR __Ptr$[ebp]
	push	eax
	push	40					; 00000028H
	call	??2@YAPAXIPAX@Z				; operator new
	add	esp, 8
	mov	DWORD PTR $T2[ebp], eax
	mov	DWORD PTR __$EHRec$[ebp+8], 0
	mov	ecx, DWORD PTR _<_Args_0>$[ebp]
	push	ecx
	call	??$forward@AAVNeuron@@@std@@YAAAVNeuron@@AAV1@@Z ; std::forward<Neuron &>
	add	esp, 4
	push	eax
	mov	ecx, DWORD PTR $T2[ebp]
	call	??0Neuron@@QAE@ABV0@@Z
	mov	DWORD PTR $T3[ebp], eax
	mov	DWORD PTR __$EHRec$[ebp+8], -1

; 856  : 			_Objty(_STD forward<_Types>(_Args)...);
; 857  : 		}

	mov	ecx, DWORD PTR __$EHRec$[ebp]
	mov	DWORD PTR fs:0, ecx
	pop	ecx
	add	esp, 20					; 00000014H
	cmp	ebp, esp
	call	__RTC_CheckEsp
	mov	esp, ebp
	pop	ebp
	ret	0
_TEXT	ENDS
;	COMDAT text$x
text$x	SEGMENT
__unwindfunclet$??$construct@VNeuron@@AAV1@@?$_Default_allocator_traits@V?$allocator@VNeuron@@@std@@@std@@SAXAAV?$allocator@VNeuron@@@1@QAVNeuron@@AAV3@@Z$0:
	mov	eax, DWORD PTR __Ptr$[ebp]
	push	eax
	mov	eax, DWORD PTR $T2[ebp]
	push	eax
	call	??3@YAXPAX0@Z				; operator delete
	add	esp, 8
	ret	0
__ehhandler$??$construct@VNeuron@@AAV1@@?$_Default_allocator_traits@V?$allocator@VNeuron@@@std@@@std@@SAXAAV?$allocator@VNeuron@@@1@QAVNeuron@@AAV3@@Z:
	mov	edx, DWORD PTR [esp+8]
	lea	eax, DWORD PTR [edx+12]
	mov	ecx, DWORD PTR [edx-12]
	xor	ecx, eax
	call	@__security_check_cookie@4
	mov	eax, OFFSET __ehfuncinfo$??$construct@VNeuron@@AAV1@@?$_Default_allocator_traits@V?$allocator@VNeuron@@@std@@@std@@SAXAAV?$allocator@VNeuron@@@1@QAVNeuron@@AAV3@@Z
	jmp	___CxxFrameHandler3
text$x	ENDS
??$construct@VNeuron@@AAV1@@?$_Default_allocator_traits@V?$allocator@VNeuron@@@std@@@std@@SAXAAV?$allocator@VNeuron@@@1@QAVNeuron@@AAV3@@Z ENDP ; std::_Default_allocator_traits<std::allocator<Neuron> >::construct<Neuron,Neuron &>
; Function compile flags: /Odtp /RTCsu
; File c:\program files (x86)\microsoft visual studio\2017\community\vc\tools\msvc\14.11.25503\include\xutility
;	COMDAT ??$_Copy_memmove@PANPAN@std@@YAPANPAN00@Z
_TEXT	SEGMENT
__Count$ = -16						; size = 4
__Dest_ch$ = -12					; size = 4
__Last_ch$ = -8						; size = 4
__First_ch$ = -4					; size = 4
__First$ = 8						; size = 4
__Last$ = 12						; size = 4
__Dest$ = 16						; size = 4
??$_Copy_memmove@PANPAN@std@@YAPANPAN00@Z PROC		; std::_Copy_memmove<double *,double *>, COMDAT

; 2239 : 	{	// implement copy-like function as memmove

	push	ebp
	mov	ebp, esp
	sub	esp, 16					; 00000010H
	mov	eax, -858993460				; ccccccccH
	mov	DWORD PTR [ebp-16], eax
	mov	DWORD PTR [ebp-12], eax
	mov	DWORD PTR [ebp-8], eax
	mov	DWORD PTR [ebp-4], eax

; 2240 : 	const char * const _First_ch = const_cast<const char *>(reinterpret_cast<const volatile char *>(_First));

	mov	eax, DWORD PTR __First$[ebp]
	mov	DWORD PTR __First_ch$[ebp], eax

; 2241 : 	const char * const _Last_ch = const_cast<const char *>(reinterpret_cast<const volatile char *>(_Last));

	mov	ecx, DWORD PTR __Last$[ebp]
	mov	DWORD PTR __Last_ch$[ebp], ecx

; 2242 : 	char * const _Dest_ch = const_cast<char *>(reinterpret_cast<volatile char *>(_Dest));

	mov	edx, DWORD PTR __Dest$[ebp]
	mov	DWORD PTR __Dest_ch$[ebp], edx

; 2243 : 	const size_t _Count = _Last_ch - _First_ch;

	mov	eax, DWORD PTR __Last_ch$[ebp]
	sub	eax, DWORD PTR __First_ch$[ebp]
	mov	DWORD PTR __Count$[ebp], eax

; 2244 : 	_CSTD memmove(_Dest_ch, _First_ch, _Count);

	mov	ecx, DWORD PTR __Count$[ebp]
	push	ecx
	mov	edx, DWORD PTR __First_ch$[ebp]
	push	edx
	mov	eax, DWORD PTR __Dest_ch$[ebp]
	push	eax
	call	_memmove
	add	esp, 12					; 0000000cH

; 2245 : 	return (reinterpret_cast<_OutIt>(_Dest_ch + _Count));

	mov	eax, DWORD PTR __Dest_ch$[ebp]
	add	eax, DWORD PTR __Count$[ebp]

; 2246 : 	}

	add	esp, 16					; 00000010H
	cmp	ebp, esp
	call	__RTC_CheckEsp
	mov	esp, ebp
	pop	ebp
	ret	0
??$_Copy_memmove@PANPAN@std@@YAPANPAN00@Z ENDP		; std::_Copy_memmove<double *,double *>
_TEXT	ENDS
; Function compile flags: /Odtp /RTCsu
; File c:\program files (x86)\microsoft visual studio\2017\community\vc\tools\msvc\14.11.25503\include\xmemory0
;	COMDAT ??$_Destroy_range@V?$allocator@UConnection@@@std@@@std@@YAXPAUConnection@@0AAV?$allocator@UConnection@@@0@@Z
_TEXT	SEGMENT
$T1 = -1						; size = 1
__First$ = 8						; size = 4
__Last$ = 12						; size = 4
__Al$ = 16						; size = 4
??$_Destroy_range@V?$allocator@UConnection@@@std@@@std@@YAXPAUConnection@@0AAV?$allocator@UConnection@@@0@@Z PROC ; std::_Destroy_range<std::allocator<Connection> >, COMDAT

; 1112 : 	{	// destroy [_First, _Last), choose optimization

	push	ebp
	mov	ebp, esp
	push	ecx
	mov	DWORD PTR [ebp-4], -858993460		; ccccccccH

; 1113 : 		// note that this is an optimization for debug mode codegen;
; 1114 : 		// in release mode the BE removes all of this
; 1115 : 	using _Val = typename _Alloc::value_type;
; 1116 : 	_Destroy_range1(_First, _Last, _Al, _Conjunction_t<

	movzx	eax, BYTE PTR $T1[ebp]
	push	eax
	mov	ecx, DWORD PTR __Al$[ebp]
	push	ecx
	mov	edx, DWORD PTR __Last$[ebp]
	push	edx
	mov	eax, DWORD PTR __First$[ebp]
	push	eax
	call	??$_Destroy_range1@V?$allocator@UConnection@@@std@@@std@@YAXPAUConnection@@0AAV?$allocator@UConnection@@@0@U?$integral_constant@_N$00@0@@Z ; std::_Destroy_range1<std::allocator<Connection> >
	add	esp, 16					; 00000010H

; 1117 : 		is_trivially_destructible<_Val>,
; 1118 : 		_Uses_default_destroy<_Alloc, _Val *>>());
; 1119 : 	}

	add	esp, 4
	cmp	ebp, esp
	call	__RTC_CheckEsp
	mov	esp, ebp
	pop	ebp
	ret	0
??$_Destroy_range@V?$allocator@UConnection@@@std@@@std@@YAXPAUConnection@@0AAV?$allocator@UConnection@@@0@@Z ENDP ; std::_Destroy_range<std::allocator<Connection> >
_TEXT	ENDS
; Function compile flags: /Odtp /RTCsu
; File c:\program files (x86)\microsoft visual studio\2017\community\vc\tools\msvc\14.11.25503\include\xmemory0
;	COMDAT ??$?0UConnection@@@?$allocator@U_Container_proxy@std@@@std@@QAE@ABV?$allocator@UConnection@@@1@@Z
_TEXT	SEGMENT
_this$ = -4						; size = 4
___formal$ = 8						; size = 4
??$?0UConnection@@@?$allocator@U_Container_proxy@std@@@std@@QAE@ABV?$allocator@UConnection@@@1@@Z PROC ; std::allocator<std::_Container_proxy>::allocator<std::_Container_proxy><Connection>, COMDAT
; _this$ = ecx

; 936  : 		{	// construct from a related allocator (do nothing)

	push	ebp
	mov	ebp, esp
	push	ecx
	mov	DWORD PTR [ebp-4], -858993460		; ccccccccH
	mov	DWORD PTR _this$[ebp], ecx

; 937  : 		}

	mov	eax, DWORD PTR _this$[ebp]
	mov	esp, ebp
	pop	ebp
	ret	4
??$?0UConnection@@@?$allocator@U_Container_proxy@std@@@std@@QAE@ABV?$allocator@UConnection@@@1@@Z ENDP ; std::allocator<std::_Container_proxy>::allocator<std::_Container_proxy><Connection>
_TEXT	ENDS
; Function compile flags: /Odtp /RTCsu
; File c:\program files (x86)\microsoft visual studio\2017\community\vc\tools\msvc\14.11.25503\include\vector
;	COMDAT ??$?0V?$allocator@VNeuron@@@std@@X@?$_Vector_alloc@U?$_Vec_base_types@VNeuron@@V?$allocator@VNeuron@@@std@@@std@@@std@@QAE@$$QAV?$allocator@VNeuron@@@1@@Z
_TEXT	SEGMENT
$T2 = -17						; size = 1
_this$ = -16						; size = 4
__$EHRec$ = -12						; size = 12
__Al$ = 8						; size = 4
??$?0V?$allocator@VNeuron@@@std@@X@?$_Vector_alloc@U?$_Vec_base_types@VNeuron@@V?$allocator@VNeuron@@@std@@@std@@@std@@QAE@$$QAV?$allocator@VNeuron@@@1@@Z PROC ; std::_Vector_alloc<std::_Vec_base_types<Neuron,std::allocator<Neuron> > >::_Vector_alloc<std::_Vec_base_types<Neuron,std::allocator<Neuron> > ><std::allocator<Neuron>,void>, COMDAT
; _this$ = ecx

; 500  : 		{	// construct allocator from _Al

	push	ebp
	mov	ebp, esp
	push	-1
	push	__ehhandler$??$?0V?$allocator@VNeuron@@@std@@X@?$_Vector_alloc@U?$_Vec_base_types@VNeuron@@V?$allocator@VNeuron@@@std@@@std@@@std@@QAE@$$QAV?$allocator@VNeuron@@@1@@Z
	mov	eax, DWORD PTR fs:0
	push	eax
	sub	esp, 8
	mov	DWORD PTR [ebp-20], -858993460		; ccccccccH
	mov	DWORD PTR [ebp-16], -858993460		; ccccccccH
	mov	eax, DWORD PTR ___security_cookie
	xor	eax, ebp
	push	eax
	lea	eax, DWORD PTR __$EHRec$[ebp]
	mov	DWORD PTR fs:0, eax
	mov	DWORD PTR _this$[ebp], ecx

; 498  : 		: _Mypair(_One_then_variadic_args_t(),

	mov	eax, DWORD PTR __Al$[ebp]
	push	eax
	call	??$forward@V?$allocator@VNeuron@@@std@@@std@@YA$$QAV?$allocator@VNeuron@@@0@AAV10@@Z ; std::forward<std::allocator<Neuron> >
	add	esp, 4
	push	eax
	movzx	ecx, BYTE PTR $T2[ebp]
	push	ecx
	mov	ecx, DWORD PTR _this$[ebp]
	call	??$?0V?$allocator@VNeuron@@@std@@$$V@?$_Compressed_pair@V?$allocator@VNeuron@@@std@@V?$_Vector_val@U?$_Simple_types@VNeuron@@@std@@@2@$00@std@@QAE@U_One_then_variadic_args_t@1@$$QAV?$allocator@VNeuron@@@1@@Z ; std::_Compressed_pair<std::allocator<Neuron>,std::_Vector_val<std::_Simple_types<Neuron> >,1>::_Compressed_pair<std::allocator<Neuron>,std::_Vector_val<std::_Simple_types<Neuron> >,1><std::allocator<Neuron> >
	mov	DWORD PTR __$EHRec$[ebp+8], 0

; 501  : 		_Alloc_proxy();

	mov	ecx, DWORD PTR _this$[ebp]
	call	?_Alloc_proxy@?$_Vector_alloc@U?$_Vec_base_types@VNeuron@@V?$allocator@VNeuron@@@std@@@std@@@std@@QAEXXZ ; std::_Vector_alloc<std::_Vec_base_types<Neuron,std::allocator<Neuron> > >::_Alloc_proxy

; 502  : 		}

	mov	DWORD PTR __$EHRec$[ebp+8], -1
	mov	eax, DWORD PTR _this$[ebp]
	mov	ecx, DWORD PTR __$EHRec$[ebp]
	mov	DWORD PTR fs:0, ecx
	pop	ecx
	add	esp, 20					; 00000014H
	cmp	ebp, esp
	call	__RTC_CheckEsp
	mov	esp, ebp
	pop	ebp
	ret	4
_TEXT	ENDS
;	COMDAT text$x
text$x	SEGMENT
__unwindfunclet$??$?0V?$allocator@VNeuron@@@std@@X@?$_Vector_alloc@U?$_Vec_base_types@VNeuron@@V?$allocator@VNeuron@@@std@@@std@@@std@@QAE@$$QAV?$allocator@VNeuron@@@1@@Z$0:
	mov	ecx, DWORD PTR _this$[ebp]
	jmp	??1?$_Compressed_pair@V?$allocator@VNeuron@@@std@@V?$_Vector_val@U?$_Simple_types@VNeuron@@@std@@@2@$00@std@@QAE@XZ
__ehhandler$??$?0V?$allocator@VNeuron@@@std@@X@?$_Vector_alloc@U?$_Vec_base_types@VNeuron@@V?$allocator@VNeuron@@@std@@@std@@@std@@QAE@$$QAV?$allocator@VNeuron@@@1@@Z:
	mov	edx, DWORD PTR [esp+8]
	lea	eax, DWORD PTR [edx+12]
	mov	ecx, DWORD PTR [edx-12]
	xor	ecx, eax
	call	@__security_check_cookie@4
	mov	eax, OFFSET __ehfuncinfo$??$?0V?$allocator@VNeuron@@@std@@X@?$_Vector_alloc@U?$_Vec_base_types@VNeuron@@V?$allocator@VNeuron@@@std@@@std@@@std@@QAE@$$QAV?$allocator@VNeuron@@@1@@Z
	jmp	___CxxFrameHandler3
text$x	ENDS
??$?0V?$allocator@VNeuron@@@std@@X@?$_Vector_alloc@U?$_Vec_base_types@VNeuron@@V?$allocator@VNeuron@@@std@@@std@@@std@@QAE@$$QAV?$allocator@VNeuron@@@1@@Z ENDP ; std::_Vector_alloc<std::_Vec_base_types<Neuron,std::allocator<Neuron> > >::_Vector_alloc<std::_Vec_base_types<Neuron,std::allocator<Neuron> > ><std::allocator<Neuron>,void>
; Function compile flags: /Odtp /RTCsu
; File c:\program files (x86)\microsoft visual studio\2017\community\vc\tools\msvc\14.11.25503\include\type_traits
;	COMDAT ??$move@AAV?$allocator@VNeuron@@@std@@@std@@YA$$QAV?$allocator@VNeuron@@@0@AAV10@@Z
_TEXT	SEGMENT
__Arg$ = 8						; size = 4
??$move@AAV?$allocator@VNeuron@@@std@@@std@@YA$$QAV?$allocator@VNeuron@@@0@AAV10@@Z PROC ; std::move<std::allocator<Neuron> &>, COMDAT

; 1606 : 	{	// forward _Arg as movable

	push	ebp
	mov	ebp, esp

; 1607 : 	return (static_cast<remove_reference_t<_Ty>&&>(_Arg));

	mov	eax, DWORD PTR __Arg$[ebp]

; 1608 : 	}

	pop	ebp
	ret	0
??$move@AAV?$allocator@VNeuron@@@std@@@std@@YA$$QAV?$allocator@VNeuron@@@0@AAV10@@Z ENDP ; std::move<std::allocator<Neuron> &>
_TEXT	ENDS
; Function compile flags: /Odtp /RTCsu
; File c:\program files (x86)\microsoft visual studio\2017\community\vc\tools\msvc\14.11.25503\include\vector
;	COMDAT ??$_Ucopy@PAUConnection@@@?$vector@UConnection@@V?$allocator@UConnection@@@std@@@std@@AAEPAUConnection@@PAU2@00@Z
_TEXT	SEGMENT
_this$ = -4						; size = 4
__First$ = 8						; size = 4
__Last$ = 12						; size = 4
__Dest$ = 16						; size = 4
??$_Ucopy@PAUConnection@@@?$vector@UConnection@@V?$allocator@UConnection@@@std@@@std@@AAEPAUConnection@@PAU2@00@Z PROC ; std::vector<Connection,std::allocator<Connection> >::_Ucopy<Connection *>, COMDAT
; _this$ = ecx

; 1913 : 		{	// copy [_First, _Last) to raw _Dest, using allocator

	push	ebp
	mov	ebp, esp
	push	ecx
	mov	DWORD PTR [ebp-4], -858993460		; ccccccccH
	mov	DWORD PTR _this$[ebp], ecx

; 1914 : 		return (_Uninitialized_copy(_First, _Last, _Dest, this->_Getal()));

	mov	ecx, DWORD PTR _this$[ebp]
	call	?_Getal@?$_Vector_alloc@U?$_Vec_base_types@UConnection@@V?$allocator@UConnection@@@std@@@std@@@std@@QAEAAV?$allocator@UConnection@@@2@XZ ; std::_Vector_alloc<std::_Vec_base_types<Connection,std::allocator<Connection> > >::_Getal
	push	eax
	mov	eax, DWORD PTR __Dest$[ebp]
	push	eax
	mov	ecx, DWORD PTR __Last$[ebp]
	push	ecx
	mov	edx, DWORD PTR __First$[ebp]
	push	edx
	call	??$_Uninitialized_copy@PAUConnection@@PAU1@V?$allocator@UConnection@@@std@@@std@@YAPAUConnection@@PAU1@00AAV?$allocator@UConnection@@@0@@Z ; std::_Uninitialized_copy<Connection *,Connection *,std::allocator<Connection> >
	add	esp, 16					; 00000010H

; 1915 : 		}

	add	esp, 4
	cmp	ebp, esp
	call	__RTC_CheckEsp
	mov	esp, ebp
	pop	ebp
	ret	12					; 0000000cH
??$_Ucopy@PAUConnection@@@?$vector@UConnection@@V?$allocator@UConnection@@@std@@@std@@AAEPAUConnection@@PAU2@00@Z ENDP ; std::vector<Connection,std::allocator<Connection> >::_Ucopy<Connection *>
_TEXT	ENDS
; Function compile flags: /Odtp /RTCsu
; File c:\program files (x86)\microsoft visual studio\2017\community\vc\tools\msvc\14.11.25503\include\vector
;	COMDAT ??$?0V?$allocator@UConnection@@@std@@X@?$_Vector_alloc@U?$_Vec_base_types@UConnection@@V?$allocator@UConnection@@@std@@@std@@@std@@QAE@$$QAV?$allocator@UConnection@@@1@@Z
_TEXT	SEGMENT
$T2 = -17						; size = 1
_this$ = -16						; size = 4
__$EHRec$ = -12						; size = 12
__Al$ = 8						; size = 4
??$?0V?$allocator@UConnection@@@std@@X@?$_Vector_alloc@U?$_Vec_base_types@UConnection@@V?$allocator@UConnection@@@std@@@std@@@std@@QAE@$$QAV?$allocator@UConnection@@@1@@Z PROC ; std::_Vector_alloc<std::_Vec_base_types<Connection,std::allocator<Connection> > >::_Vector_alloc<std::_Vec_base_types<Connection,std::allocator<Connection> > ><std::allocator<Connection>,void>, COMDAT
; _this$ = ecx

; 500  : 		{	// construct allocator from _Al

	push	ebp
	mov	ebp, esp
	push	-1
	push	__ehhandler$??$?0V?$allocator@UConnection@@@std@@X@?$_Vector_alloc@U?$_Vec_base_types@UConnection@@V?$allocator@UConnection@@@std@@@std@@@std@@QAE@$$QAV?$allocator@UConnection@@@1@@Z
	mov	eax, DWORD PTR fs:0
	push	eax
	sub	esp, 8
	mov	DWORD PTR [ebp-20], -858993460		; ccccccccH
	mov	DWORD PTR [ebp-16], -858993460		; ccccccccH
	mov	eax, DWORD PTR ___security_cookie
	xor	eax, ebp
	push	eax
	lea	eax, DWORD PTR __$EHRec$[ebp]
	mov	DWORD PTR fs:0, eax
	mov	DWORD PTR _this$[ebp], ecx

; 498  : 		: _Mypair(_One_then_variadic_args_t(),

	mov	eax, DWORD PTR __Al$[ebp]
	push	eax
	call	??$forward@V?$allocator@UConnection@@@std@@@std@@YA$$QAV?$allocator@UConnection@@@0@AAV10@@Z ; std::forward<std::allocator<Connection> >
	add	esp, 4
	push	eax
	movzx	ecx, BYTE PTR $T2[ebp]
	push	ecx
	mov	ecx, DWORD PTR _this$[ebp]
	call	??$?0V?$allocator@UConnection@@@std@@$$V@?$_Compressed_pair@V?$allocator@UConnection@@@std@@V?$_Vector_val@U?$_Simple_types@UConnection@@@std@@@2@$00@std@@QAE@U_One_then_variadic_args_t@1@$$QAV?$allocator@UConnection@@@1@@Z ; std::_Compressed_pair<std::allocator<Connection>,std::_Vector_val<std::_Simple_types<Connection> >,1>::_Compressed_pair<std::allocator<Connection>,std::_Vector_val<std::_Simple_types<Connection> >,1><std::allocator<Connection> >
	mov	DWORD PTR __$EHRec$[ebp+8], 0

; 501  : 		_Alloc_proxy();

	mov	ecx, DWORD PTR _this$[ebp]
	call	?_Alloc_proxy@?$_Vector_alloc@U?$_Vec_base_types@UConnection@@V?$allocator@UConnection@@@std@@@std@@@std@@QAEXXZ ; std::_Vector_alloc<std::_Vec_base_types<Connection,std::allocator<Connection> > >::_Alloc_proxy

; 502  : 		}

	mov	DWORD PTR __$EHRec$[ebp+8], -1
	mov	eax, DWORD PTR _this$[ebp]
	mov	ecx, DWORD PTR __$EHRec$[ebp]
	mov	DWORD PTR fs:0, ecx
	pop	ecx
	add	esp, 20					; 00000014H
	cmp	ebp, esp
	call	__RTC_CheckEsp
	mov	esp, ebp
	pop	ebp
	ret	4
_TEXT	ENDS
;	COMDAT text$x
text$x	SEGMENT
__unwindfunclet$??$?0V?$allocator@UConnection@@@std@@X@?$_Vector_alloc@U?$_Vec_base_types@UConnection@@V?$allocator@UConnection@@@std@@@std@@@std@@QAE@$$QAV?$allocator@UConnection@@@1@@Z$0:
	mov	ecx, DWORD PTR _this$[ebp]
	jmp	??1?$_Compressed_pair@V?$allocator@UConnection@@@std@@V?$_Vector_val@U?$_Simple_types@UConnection@@@std@@@2@$00@std@@QAE@XZ
__ehhandler$??$?0V?$allocator@UConnection@@@std@@X@?$_Vector_alloc@U?$_Vec_base_types@UConnection@@V?$allocator@UConnection@@@std@@@std@@@std@@QAE@$$QAV?$allocator@UConnection@@@1@@Z:
	mov	edx, DWORD PTR [esp+8]
	lea	eax, DWORD PTR [edx+12]
	mov	ecx, DWORD PTR [edx-12]
	xor	ecx, eax
	call	@__security_check_cookie@4
	mov	eax, OFFSET __ehfuncinfo$??$?0V?$allocator@UConnection@@@std@@X@?$_Vector_alloc@U?$_Vec_base_types@UConnection@@V?$allocator@UConnection@@@std@@@std@@@std@@QAE@$$QAV?$allocator@UConnection@@@1@@Z
	jmp	___CxxFrameHandler3
text$x	ENDS
??$?0V?$allocator@UConnection@@@std@@X@?$_Vector_alloc@U?$_Vec_base_types@UConnection@@V?$allocator@UConnection@@@std@@@std@@@std@@QAE@$$QAV?$allocator@UConnection@@@1@@Z ENDP ; std::_Vector_alloc<std::_Vec_base_types<Connection,std::allocator<Connection> > >::_Vector_alloc<std::_Vec_base_types<Connection,std::allocator<Connection> > ><std::allocator<Connection>,void>
; Function compile flags: /Odtp /RTCsu
; File c:\program files (x86)\microsoft visual studio\2017\community\vc\tools\msvc\14.11.25503\include\xutility
;	COMDAT ??$_Rechecked@PAVNeuron@@PAV1@@std@@YAAAPAVNeuron@@AAPAV1@PAV1@@Z
_TEXT	SEGMENT
__Dest$ = 8						; size = 4
__Src$ = 12						; size = 4
??$_Rechecked@PAVNeuron@@PAV1@@std@@YAAAPAVNeuron@@AAPAV1@PAV1@@Z PROC ; std::_Rechecked<Neuron *,Neuron *>, COMDAT

; 480  : 	{	// reset checked from unchecked, generic

	push	ebp
	mov	ebp, esp

; 481  : 	_Dest = _Src;

	mov	eax, DWORD PTR __Dest$[ebp]
	mov	ecx, DWORD PTR __Src$[ebp]
	mov	DWORD PTR [eax], ecx

; 482  : 	return (_Dest);

	mov	eax, DWORD PTR __Dest$[ebp]

; 483  : 	}

	pop	ebp
	ret	0
??$_Rechecked@PAVNeuron@@PAV1@@std@@YAAAPAVNeuron@@AAPAV1@PAV1@@Z ENDP ; std::_Rechecked<Neuron *,Neuron *>
_TEXT	ENDS
; Function compile flags: /Odtp /RTCsu
; File c:\program files (x86)\microsoft visual studio\2017\community\vc\tools\msvc\14.11.25503\include\xmemory
;	COMDAT ??$_Uninitialized_copy_al_unchecked@PAVNeuron@@PAV1@V?$allocator@VNeuron@@@std@@@std@@YAPAVNeuron@@PAV1@00AAV?$allocator@VNeuron@@@0@U_General_ptr_iterator_tag@0@U_Unused_parameter@0@@Z
_TEXT	SEGMENT
tv78 = -24						; size = 4
__Next$ = -20						; size = 4
__$EHRec$ = -16						; size = 16
__First$ = 8						; size = 4
__Last$ = 12						; size = 4
__Dest$ = 16						; size = 4
__Al$ = 20						; size = 4
___formal$ = 24						; size = 1
___formal$ = 28						; size = 1
??$_Uninitialized_copy_al_unchecked@PAVNeuron@@PAV1@V?$allocator@VNeuron@@@std@@@std@@YAPAVNeuron@@PAV1@00AAV?$allocator@VNeuron@@@0@U_General_ptr_iterator_tag@0@U_Unused_parameter@0@@Z PROC ; std::_Uninitialized_copy_al_unchecked<Neuron *,Neuron *,std::allocator<Neuron> >, COMDAT

; 86   : 	{	// copy [_First, _Last) to raw _Dest, using _Al, no special optimization

	push	ebp
	mov	ebp, esp
	push	-1
	push	__ehhandler$??$_Uninitialized_copy_al_unchecked@PAVNeuron@@PAV1@V?$allocator@VNeuron@@@std@@@std@@YAPAVNeuron@@PAV1@00AAV?$allocator@VNeuron@@@0@U_General_ptr_iterator_tag@0@U_Unused_parameter@0@@Z
	mov	eax, DWORD PTR fs:0
	push	eax
	push	ecx
	sub	esp, 8
	push	ebx
	push	esi
	push	edi
	mov	DWORD PTR [ebp-24], -858993460		; ccccccccH
	mov	DWORD PTR [ebp-20], -858993460		; ccccccccH
	mov	eax, DWORD PTR ___security_cookie
	xor	eax, ebp
	push	eax
	lea	eax, DWORD PTR __$EHRec$[ebp+4]
	mov	DWORD PTR fs:0, eax
	mov	DWORD PTR __$EHRec$[ebp], esp

; 87   : 	_FwdIt _Next = _Dest;

	mov	eax, DWORD PTR __Dest$[ebp]
	mov	DWORD PTR __Next$[ebp], eax

; 88   : 
; 89   : 	_TRY_BEGIN

	mov	DWORD PTR __$EHRec$[ebp+12], 0

; 90   : 	for (; _First != _Last; ++_Dest, (void)++_First)

	jmp	SHORT $LN4@Uninitiali
$LN2@Uninitiali:
	mov	ecx, DWORD PTR __Dest$[ebp]
	add	ecx, 40					; 00000028H
	mov	DWORD PTR __Dest$[ebp], ecx
	mov	edx, DWORD PTR __First$[ebp]
	add	edx, 40					; 00000028H
	mov	DWORD PTR __First$[ebp], edx
$LN4@Uninitiali:
	mov	eax, DWORD PTR __First$[ebp]
	cmp	eax, DWORD PTR __Last$[ebp]
	je	SHORT $LN3@Uninitiali

; 91   : 		{
; 92   : 		allocator_traits<_Alloc>::construct(_Al, _Unfancy(_Dest), *_First);

	mov	ecx, DWORD PTR __Dest$[ebp]
	push	ecx
	call	??$_Unfancy@VNeuron@@@std@@YAPAVNeuron@@PAV1@@Z ; std::_Unfancy<Neuron>
	add	esp, 4
	mov	DWORD PTR tv78[ebp], eax
	mov	edx, DWORD PTR __First$[ebp]
	push	edx
	mov	eax, DWORD PTR tv78[ebp]
	push	eax
	mov	ecx, DWORD PTR __Al$[ebp]
	push	ecx
	call	??$construct@VNeuron@@AAV1@@?$_Default_allocator_traits@V?$allocator@VNeuron@@@std@@@std@@SAXAAV?$allocator@VNeuron@@@1@QAVNeuron@@AAV3@@Z ; std::_Default_allocator_traits<std::allocator<Neuron> >::construct<Neuron,Neuron &>
	add	esp, 12					; 0000000cH

; 93   : 		}

	jmp	SHORT $LN2@Uninitiali
$LN3@Uninitiali:
	jmp	SHORT $LN7@Uninitiali
__catch$??$_Uninitialized_copy_al_unchecked@PAVNeuron@@PAV1@V?$allocator@VNeuron@@@std@@@std@@YAPAVNeuron@@PAV1@00AAV?$allocator@VNeuron@@@0@U_General_ptr_iterator_tag@0@U_Unused_parameter@0@@Z$0:

; 94   : 
; 95   : 	_CATCH_ALL
; 96   : 	_Destroy_range(_Next, _Dest, _Al);

	mov	edx, DWORD PTR __Al$[ebp]
	push	edx
	mov	eax, DWORD PTR __Dest$[ebp]
	push	eax
	mov	ecx, DWORD PTR __Next$[ebp]
	push	ecx
	call	??$_Destroy_range@V?$allocator@VNeuron@@@std@@@std@@YAXPAVNeuron@@0AAV?$allocator@VNeuron@@@0@@Z ; std::_Destroy_range<std::allocator<Neuron> >
	add	esp, 12					; 0000000cH

; 97   : 	_RERAISE;

	push	0
	push	0
	call	__CxxThrowException@8

; 98   : 	_CATCH_END

	mov	eax, $LN10@Uninitiali
	ret	0
$LN7@Uninitiali:
	mov	DWORD PTR __$EHRec$[ebp+12], -1
	jmp	SHORT __tryend$??$_Uninitialized_copy_al_unchecked@PAVNeuron@@PAV1@V?$allocator@VNeuron@@@std@@@std@@YAPAVNeuron@@PAV1@00AAV?$allocator@VNeuron@@@0@U_General_ptr_iterator_tag@0@U_Unused_parameter@0@@Z$1
$LN10@Uninitiali:
	mov	DWORD PTR __$EHRec$[ebp+12], -1
__tryend$??$_Uninitialized_copy_al_unchecked@PAVNeuron@@PAV1@V?$allocator@VNeuron@@@std@@@std@@YAPAVNeuron@@PAV1@00AAV?$allocator@VNeuron@@@0@U_General_ptr_iterator_tag@0@U_Unused_parameter@0@@Z$1:

; 99   : 
; 100  : 	return (_Dest);

	mov	eax, DWORD PTR __Dest$[ebp]
$LN6@Uninitiali:

; 101  : 	}

	mov	ecx, DWORD PTR __$EHRec$[ebp+4]
	mov	DWORD PTR fs:0, ecx
	pop	ecx
	pop	edi
	pop	esi
	pop	ebx
	add	esp, 24					; 00000018H
	cmp	ebp, esp
	call	__RTC_CheckEsp
	mov	esp, ebp
	pop	ebp
	ret	0
_TEXT	ENDS
;	COMDAT text$x
text$x	SEGMENT
__ehhandler$??$_Uninitialized_copy_al_unchecked@PAVNeuron@@PAV1@V?$allocator@VNeuron@@@std@@@std@@YAPAVNeuron@@PAV1@00AAV?$allocator@VNeuron@@@0@U_General_ptr_iterator_tag@0@U_Unused_parameter@0@@Z:
	mov	edx, DWORD PTR [esp+8]
	lea	eax, DWORD PTR [edx+12]
	mov	ecx, DWORD PTR [edx-28]
	xor	ecx, eax
	call	@__security_check_cookie@4
	mov	eax, OFFSET __ehfuncinfo$??$_Uninitialized_copy_al_unchecked@PAVNeuron@@PAV1@V?$allocator@VNeuron@@@std@@@std@@YAPAVNeuron@@PAV1@00AAV?$allocator@VNeuron@@@0@U_General_ptr_iterator_tag@0@U_Unused_parameter@0@@Z
	jmp	___CxxFrameHandler3
text$x	ENDS
??$_Uninitialized_copy_al_unchecked@PAVNeuron@@PAV1@V?$allocator@VNeuron@@@std@@@std@@YAPAVNeuron@@PAV1@00AAV?$allocator@VNeuron@@@0@U_General_ptr_iterator_tag@0@U_Unused_parameter@0@@Z ENDP ; std::_Uninitialized_copy_al_unchecked<Neuron *,Neuron *,std::allocator<Neuron> >
; Function compile flags: /Odtp /RTCsu
; File c:\program files (x86)\microsoft visual studio\2017\community\vc\tools\msvc\14.11.25503\include\xutility
;	COMDAT ??$_Ptr_copy_cat@VNeuron@@V1@@std@@YA?AU_General_ptr_iterator_tag@0@ABQAVNeuron@@0@Z
_TEXT	SEGMENT
$T1 = -1						; size = 1
___formal$ = 8						; size = 4
___formal$ = 12						; size = 4
??$_Ptr_copy_cat@VNeuron@@V1@@std@@YA?AU_General_ptr_iterator_tag@0@ABQAVNeuron@@0@Z PROC ; std::_Ptr_copy_cat<Neuron,Neuron>, COMDAT

; 871  : 	{	// return pointer copy optimization category for pointers

	push	ebp
	mov	ebp, esp
	push	ecx
	mov	DWORD PTR [ebp-4], -858993460		; ccccccccH

; 872  : 	return {};

	xor	eax, eax
	mov	BYTE PTR $T1[ebp], al
	mov	al, BYTE PTR $T1[ebp]

; 873  : 	}

	mov	esp, ebp
	pop	ebp
	ret	0
??$_Ptr_copy_cat@VNeuron@@V1@@std@@YA?AU_General_ptr_iterator_tag@0@ABQAVNeuron@@0@Z ENDP ; std::_Ptr_copy_cat<Neuron,Neuron>
_TEXT	ENDS
; Function compile flags: /Odtp /RTCsu
; File c:\program files (x86)\microsoft visual studio\2017\community\vc\tools\msvc\14.11.25503\include\xutility
;	COMDAT ??$_Unchecked@PAVNeuron@@@std@@YAPAVNeuron@@PAV1@@Z
_TEXT	SEGMENT
__Src$ = 8						; size = 4
??$_Unchecked@PAVNeuron@@@std@@YAPAVNeuron@@PAV1@@Z PROC ; std::_Unchecked<Neuron *>, COMDAT

; 449  : 	{	// construct unchecked from checked, generic

	push	ebp
	mov	ebp, esp

; 450  : 	return (_Src);

	mov	eax, DWORD PTR __Src$[ebp]

; 451  : 	}

	pop	ebp
	ret	0
??$_Unchecked@PAVNeuron@@@std@@YAPAVNeuron@@PAV1@@Z ENDP ; std::_Unchecked<Neuron *>
_TEXT	ENDS
; Function compile flags: /Odtp /RTCsu
; File c:\program files (x86)\microsoft visual studio\2017\community\vc\tools\msvc\14.11.25503\include\xmemory0
;	COMDAT ??$_Destroy_range1@V?$allocator@VNeuron@@@std@@@std@@YAXPAVNeuron@@0AAV?$allocator@VNeuron@@@0@U?$integral_constant@_N$0A@@0@@Z
_TEXT	SEGMENT
__First$ = 8						; size = 4
__Last$ = 12						; size = 4
__Al$ = 16						; size = 4
___formal$ = 20						; size = 1
??$_Destroy_range1@V?$allocator@VNeuron@@@std@@@std@@YAXPAVNeuron@@0AAV?$allocator@VNeuron@@@0@U?$integral_constant@_N$0A@@0@@Z PROC ; std::_Destroy_range1<std::allocator<Neuron> >, COMDAT

; 1091 : 	{	// destroy [_First, _Last), no special optimization

	push	ebp
	mov	ebp, esp

; 1092 : 	for (; _First != _Last; ++_First)

	jmp	SHORT $LN4@Destroy_ra
$LN2@Destroy_ra:
	mov	eax, DWORD PTR __First$[ebp]
	add	eax, 40					; 00000028H
	mov	DWORD PTR __First$[ebp], eax
$LN4@Destroy_ra:
	mov	ecx, DWORD PTR __First$[ebp]
	cmp	ecx, DWORD PTR __Last$[ebp]
	je	SHORT $LN1@Destroy_ra

; 1093 : 		{
; 1094 : 		allocator_traits<_Alloc>::destroy(_Al, _Unfancy(_First));

	mov	edx, DWORD PTR __First$[ebp]
	push	edx
	call	??$_Unfancy@VNeuron@@@std@@YAPAVNeuron@@PAV1@@Z ; std::_Unfancy<Neuron>
	add	esp, 4
	push	eax
	mov	eax, DWORD PTR __Al$[ebp]
	push	eax
	call	??$destroy@VNeuron@@@?$_Default_allocator_traits@V?$allocator@VNeuron@@@std@@@std@@SAXAAV?$allocator@VNeuron@@@1@QAVNeuron@@@Z ; std::_Default_allocator_traits<std::allocator<Neuron> >::destroy<Neuron>
	add	esp, 8

; 1095 : 		}

	jmp	SHORT $LN2@Destroy_ra
$LN1@Destroy_ra:

; 1096 : 	}

	cmp	ebp, esp
	call	__RTC_CheckEsp
	pop	ebp
	ret	0
??$_Destroy_range1@V?$allocator@VNeuron@@@std@@@std@@YAXPAVNeuron@@0AAV?$allocator@VNeuron@@@0@U?$integral_constant@_N$0A@@0@@Z ENDP ; std::_Destroy_range1<std::allocator<Neuron> >
_TEXT	ENDS
; Function compile flags: /Odtp /RTCsu
; File c:\program files (x86)\microsoft visual studio\2017\community\vc\tools\msvc\14.11.25503\include\xutility
;	COMDAT ??$_Rechecked@PANPAN@std@@YAAAPANAAPANPAN@Z
_TEXT	SEGMENT
__Dest$ = 8						; size = 4
__Src$ = 12						; size = 4
??$_Rechecked@PANPAN@std@@YAAAPANAAPANPAN@Z PROC	; std::_Rechecked<double *,double *>, COMDAT

; 480  : 	{	// reset checked from unchecked, generic

	push	ebp
	mov	ebp, esp

; 481  : 	_Dest = _Src;

	mov	eax, DWORD PTR __Dest$[ebp]
	mov	ecx, DWORD PTR __Src$[ebp]
	mov	DWORD PTR [eax], ecx

; 482  : 	return (_Dest);

	mov	eax, DWORD PTR __Dest$[ebp]

; 483  : 	}

	pop	ebp
	ret	0
??$_Rechecked@PANPAN@std@@YAAAPANAAPANPAN@Z ENDP	; std::_Rechecked<double *,double *>
_TEXT	ENDS
; Function compile flags: /Odtp /RTCsu
; File c:\program files (x86)\microsoft visual studio\2017\community\vc\tools\msvc\14.11.25503\include\xmemory
;	COMDAT ??$_Uninitialized_move_al_unchecked@NNV?$allocator@N@std@@@std@@YAPANPAN00AAV?$allocator@N@0@U_Really_trivial_ptr_iterator_tag@0@U?$integral_constant@_N$00@0@@Z
_TEXT	SEGMENT
__First$ = 8						; size = 4
__Last$ = 12						; size = 4
__Dest$ = 16						; size = 4
___formal$ = 20						; size = 4
___formal$ = 24						; size = 1
___formal$ = 28						; size = 1
??$_Uninitialized_move_al_unchecked@NNV?$allocator@N@std@@@std@@YAPANPAN00AAV?$allocator@N@0@U_Really_trivial_ptr_iterator_tag@0@U?$integral_constant@_N$00@0@@Z PROC ; std::_Uninitialized_move_al_unchecked<double,double,std::allocator<double> >, COMDAT

; 156  : 	{	// move [_First, _Last) to raw _Dest, using default _Alloc construct, memmove optimization

	push	ebp
	mov	ebp, esp

; 157  : 	return (_Copy_memmove(_First, _Last, _Dest));

	mov	eax, DWORD PTR __Dest$[ebp]
	push	eax
	mov	ecx, DWORD PTR __Last$[ebp]
	push	ecx
	mov	edx, DWORD PTR __First$[ebp]
	push	edx
	call	??$_Copy_memmove@PANPAN@std@@YAPANPAN00@Z ; std::_Copy_memmove<double *,double *>
	add	esp, 12					; 0000000cH

; 158  : 	}

	cmp	ebp, esp
	call	__RTC_CheckEsp
	pop	ebp
	ret	0
??$_Uninitialized_move_al_unchecked@NNV?$allocator@N@std@@@std@@YAPANPAN00AAV?$allocator@N@0@U_Really_trivial_ptr_iterator_tag@0@U?$integral_constant@_N$00@0@@Z ENDP ; std::_Uninitialized_move_al_unchecked<double,double,std::allocator<double> >
_TEXT	ENDS
; Function compile flags: /Odtp /RTCsu
; File c:\program files (x86)\microsoft visual studio\2017\community\vc\tools\msvc\14.11.25503\include\xutility
;	COMDAT ??$_Ptr_move_cat@NN@std@@YA?AU_Really_trivial_ptr_iterator_tag@0@ABQAN0@Z
_TEXT	SEGMENT
___$ReturnUdt$ = 8					; size = 4
___formal$ = 12						; size = 4
___formal$ = 16						; size = 4
??$_Ptr_move_cat@NN@std@@YA?AU_Really_trivial_ptr_iterator_tag@0@ABQAN0@Z PROC ; std::_Ptr_move_cat<double,double>, COMDAT

; 888  : 	{	// return pointer move optimization category for pointers

	push	ebp
	mov	ebp, esp

; 889  : 	return {};

	mov	eax, DWORD PTR ___$ReturnUdt$[ebp]

; 890  : 	}

	pop	ebp
	ret	0
??$_Ptr_move_cat@NN@std@@YA?AU_Really_trivial_ptr_iterator_tag@0@ABQAN0@Z ENDP ; std::_Ptr_move_cat<double,double>
_TEXT	ENDS
; Function compile flags: /Odtp /RTCsu
; File c:\program files (x86)\microsoft visual studio\2017\community\vc\tools\msvc\14.11.25503\include\xutility
;	COMDAT ??$_Unchecked@PAN@std@@YAPANPAN@Z
_TEXT	SEGMENT
__Src$ = 8						; size = 4
??$_Unchecked@PAN@std@@YAPANPAN@Z PROC			; std::_Unchecked<double *>, COMDAT

; 449  : 	{	// construct unchecked from checked, generic

	push	ebp
	mov	ebp, esp

; 450  : 	return (_Src);

	mov	eax, DWORD PTR __Src$[ebp]

; 451  : 	}

	pop	ebp
	ret	0
??$_Unchecked@PAN@std@@YAPANPAN@Z ENDP			; std::_Unchecked<double *>
_TEXT	ENDS
; Function compile flags: /Odtp /RTCsu
; File c:\program files (x86)\microsoft visual studio\2017\community\vc\tools\msvc\14.11.25503\include\xutility
;	COMDAT ??$_Rechecked@PAV?$vector@VNeuron@@V?$allocator@VNeuron@@@std@@@std@@PAV12@@std@@YAAAPAV?$vector@VNeuron@@V?$allocator@VNeuron@@@std@@@0@AAPAV10@PAV10@@Z
_TEXT	SEGMENT
__Dest$ = 8						; size = 4
__Src$ = 12						; size = 4
??$_Rechecked@PAV?$vector@VNeuron@@V?$allocator@VNeuron@@@std@@@std@@PAV12@@std@@YAAAPAV?$vector@VNeuron@@V?$allocator@VNeuron@@@std@@@0@AAPAV10@PAV10@@Z PROC ; std::_Rechecked<std::vector<Neuron,std::allocator<Neuron> > *,std::vector<Neuron,std::allocator<Neuron> > *>, COMDAT

; 480  : 	{	// reset checked from unchecked, generic

	push	ebp
	mov	ebp, esp

; 481  : 	_Dest = _Src;

	mov	eax, DWORD PTR __Dest$[ebp]
	mov	ecx, DWORD PTR __Src$[ebp]
	mov	DWORD PTR [eax], ecx

; 482  : 	return (_Dest);

	mov	eax, DWORD PTR __Dest$[ebp]

; 483  : 	}

	pop	ebp
	ret	0
??$_Rechecked@PAV?$vector@VNeuron@@V?$allocator@VNeuron@@@std@@@std@@PAV12@@std@@YAAAPAV?$vector@VNeuron@@V?$allocator@VNeuron@@@std@@@0@AAPAV10@PAV10@@Z ENDP ; std::_Rechecked<std::vector<Neuron,std::allocator<Neuron> > *,std::vector<Neuron,std::allocator<Neuron> > *>
_TEXT	ENDS
; Function compile flags: /Odtp /RTCsu
; File c:\program files (x86)\microsoft visual studio\2017\community\vc\tools\msvc\14.11.25503\include\xutility
;	COMDAT ??$?0U?$integral_constant@_N$00@std@@@_Unused_parameter@std@@QAE@$$QAU?$integral_constant@_N$00@1@@Z
_TEXT	SEGMENT
_this$ = -4						; size = 4
___formal$ = 8						; size = 4
??$?0U?$integral_constant@_N$00@std@@@_Unused_parameter@std@@QAE@$$QAU?$integral_constant@_N$00@1@@Z PROC ; std::_Unused_parameter::_Unused_parameter<std::integral_constant<bool,1> >, COMDAT
; _this$ = ecx

; 551  : 		constexpr _Unused_parameter(_Ty&&) _NOEXCEPT {}

	push	ebp
	mov	ebp, esp
	push	ecx
	mov	DWORD PTR [ebp-4], -858993460		; ccccccccH
	mov	DWORD PTR _this$[ebp], ecx
	mov	eax, DWORD PTR _this$[ebp]
	mov	esp, ebp
	pop	ebp
	ret	4
??$?0U?$integral_constant@_N$00@std@@@_Unused_parameter@std@@QAE@$$QAU?$integral_constant@_N$00@1@@Z ENDP ; std::_Unused_parameter::_Unused_parameter<std::integral_constant<bool,1> >
_TEXT	ENDS
; Function compile flags: /Odtp /RTCsu
; File c:\program files (x86)\microsoft visual studio\2017\community\vc\tools\msvc\14.11.25503\include\xmemory
;	COMDAT ??$_Uninitialized_move_al_unchecked@PAV?$vector@VNeuron@@V?$allocator@VNeuron@@@std@@@std@@PAV12@V?$allocator@V?$vector@VNeuron@@V?$allocator@VNeuron@@@std@@@std@@@2@@std@@YAPAV?$vector@VNeuron@@V?$allocator@VNeuron@@@std@@@0@PAV10@00AAV?$allocator@V?$vector@VNeuron@@V?$allocator@VNeuron@@@std@@@std@@@0@U_General_ptr_iterator_tag@0@U_Unused_parameter@0@@Z
_TEXT	SEGMENT
tv80 = -24						; size = 4
__Next$ = -20						; size = 4
__$EHRec$ = -16						; size = 16
__First$ = 8						; size = 4
__Last$ = 12						; size = 4
__Dest$ = 16						; size = 4
__Al$ = 20						; size = 4
___formal$ = 24						; size = 1
___formal$ = 28						; size = 1
??$_Uninitialized_move_al_unchecked@PAV?$vector@VNeuron@@V?$allocator@VNeuron@@@std@@@std@@PAV12@V?$allocator@V?$vector@VNeuron@@V?$allocator@VNeuron@@@std@@@std@@@2@@std@@YAPAV?$vector@VNeuron@@V?$allocator@VNeuron@@@std@@@0@PAV10@00AAV?$allocator@V?$vector@VNeuron@@V?$allocator@VNeuron@@@std@@@std@@@0@U_General_ptr_iterator_tag@0@U_Unused_parameter@0@@Z PROC ; std::_Uninitialized_move_al_unchecked<std::vector<Neuron,std::allocator<Neuron> > *,std::vector<Neuron,std::allocator<Neuron> > *,std::allocator<std::vector<Neuron,std::allocator<Neuron> > > >, COMDAT

; 134  : 	{	// move [_First, _Last) to raw _Dest, using _Al, no special optimization

	push	ebp
	mov	ebp, esp
	push	-1
	push	__ehhandler$??$_Uninitialized_move_al_unchecked@PAV?$vector@VNeuron@@V?$allocator@VNeuron@@@std@@@std@@PAV12@V?$allocator@V?$vector@VNeuron@@V?$allocator@VNeuron@@@std@@@std@@@2@@std@@YAPAV?$vector@VNeuron@@V?$allocator@VNeuron@@@std@@@0@PAV10@00AAV?$allocator@V?$vector@VNeuron@@V?$allocator@VNeuron@@@std@@@std@@@0@U_General_ptr_iterator_tag@0@U_Unused_parameter@0@@Z
	mov	eax, DWORD PTR fs:0
	push	eax
	push	ecx
	sub	esp, 8
	push	ebx
	push	esi
	push	edi
	mov	DWORD PTR [ebp-24], -858993460		; ccccccccH
	mov	DWORD PTR [ebp-20], -858993460		; ccccccccH
	mov	eax, DWORD PTR ___security_cookie
	xor	eax, ebp
	push	eax
	lea	eax, DWORD PTR __$EHRec$[ebp+4]
	mov	DWORD PTR fs:0, eax
	mov	DWORD PTR __$EHRec$[ebp], esp

; 135  : 	_FwdIt _Next = _Dest;

	mov	eax, DWORD PTR __Dest$[ebp]
	mov	DWORD PTR __Next$[ebp], eax

; 136  : 
; 137  : 	_TRY_BEGIN

	mov	DWORD PTR __$EHRec$[ebp+12], 0

; 138  : 	for (; _First != _Last; ++_Dest, (void)++_First)

	jmp	SHORT $LN4@Uninitiali
$LN2@Uninitiali:
	mov	ecx, DWORD PTR __Dest$[ebp]
	add	ecx, 16					; 00000010H
	mov	DWORD PTR __Dest$[ebp], ecx
	mov	edx, DWORD PTR __First$[ebp]
	add	edx, 16					; 00000010H
	mov	DWORD PTR __First$[ebp], edx
$LN4@Uninitiali:
	mov	eax, DWORD PTR __First$[ebp]
	cmp	eax, DWORD PTR __Last$[ebp]
	je	SHORT $LN3@Uninitiali

; 139  : 		{
; 140  : 		allocator_traits<_Alloc>::construct(_Al, _Unfancy(_Dest), _STD move(*_First));

	mov	ecx, DWORD PTR __Dest$[ebp]
	push	ecx
	call	??$_Unfancy@V?$vector@VNeuron@@V?$allocator@VNeuron@@@std@@@std@@@std@@YAPAV?$vector@VNeuron@@V?$allocator@VNeuron@@@std@@@0@PAV10@@Z ; std::_Unfancy<std::vector<Neuron,std::allocator<Neuron> > >
	add	esp, 4
	mov	DWORD PTR tv80[ebp], eax
	mov	edx, DWORD PTR __First$[ebp]
	push	edx
	call	??$move@AAV?$vector@VNeuron@@V?$allocator@VNeuron@@@std@@@std@@@std@@YA$$QAV?$vector@VNeuron@@V?$allocator@VNeuron@@@std@@@0@AAV10@@Z ; std::move<std::vector<Neuron,std::allocator<Neuron> > &>
	add	esp, 4
	push	eax
	mov	eax, DWORD PTR tv80[ebp]
	push	eax
	mov	ecx, DWORD PTR __Al$[ebp]
	push	ecx
	call	??$construct@V?$vector@VNeuron@@V?$allocator@VNeuron@@@std@@@std@@V12@@?$_Default_allocator_traits@V?$allocator@V?$vector@VNeuron@@V?$allocator@VNeuron@@@std@@@std@@@std@@@std@@SAXAAV?$allocator@V?$vector@VNeuron@@V?$allocator@VNeuron@@@std@@@std@@@1@QAV?$vector@VNeuron@@V?$allocator@VNeuron@@@std@@@1@$$QAV31@@Z ; std::_Default_allocator_traits<std::allocator<std::vector<Neuron,std::allocator<Neuron> > > >::construct<std::vector<Neuron,std::allocator<Neuron> >,std::vector<Neuron,std::allocator<Neuron> > >
	add	esp, 12					; 0000000cH

; 141  : 		}

	jmp	SHORT $LN2@Uninitiali
$LN3@Uninitiali:
	jmp	SHORT $LN7@Uninitiali
__catch$??$_Uninitialized_move_al_unchecked@PAV?$vector@VNeuron@@V?$allocator@VNeuron@@@std@@@std@@PAV12@V?$allocator@V?$vector@VNeuron@@V?$allocator@VNeuron@@@std@@@std@@@2@@std@@YAPAV?$vector@VNeuron@@V?$allocator@VNeuron@@@std@@@0@PAV10@00AAV?$allocator@V?$vector@VNeuron@@V?$allocator@VNeuron@@@std@@@std@@@0@U_General_ptr_iterator_tag@0@U_Unused_parameter@0@@Z$0:

; 142  : 
; 143  : 	_CATCH_ALL
; 144  : 	_Destroy_range(_Next, _Dest, _Al);

	mov	edx, DWORD PTR __Al$[ebp]
	push	edx
	mov	eax, DWORD PTR __Dest$[ebp]
	push	eax
	mov	ecx, DWORD PTR __Next$[ebp]
	push	ecx
	call	??$_Destroy_range@V?$allocator@V?$vector@VNeuron@@V?$allocator@VNeuron@@@std@@@std@@@std@@@std@@YAXPAV?$vector@VNeuron@@V?$allocator@VNeuron@@@std@@@0@0AAV?$allocator@V?$vector@VNeuron@@V?$allocator@VNeuron@@@std@@@std@@@0@@Z ; std::_Destroy_range<std::allocator<std::vector<Neuron,std::allocator<Neuron> > > >
	add	esp, 12					; 0000000cH

; 145  : 	_RERAISE;

	push	0
	push	0
	call	__CxxThrowException@8

; 146  : 	_CATCH_END

	mov	eax, $LN10@Uninitiali
	ret	0
$LN7@Uninitiali:
	mov	DWORD PTR __$EHRec$[ebp+12], -1
	jmp	SHORT __tryend$??$_Uninitialized_move_al_unchecked@PAV?$vector@VNeuron@@V?$allocator@VNeuron@@@std@@@std@@PAV12@V?$allocator@V?$vector@VNeuron@@V?$allocator@VNeuron@@@std@@@std@@@2@@std@@YAPAV?$vector@VNeuron@@V?$allocator@VNeuron@@@std@@@0@PAV10@00AAV?$allocator@V?$vector@VNeuron@@V?$allocator@VNeuron@@@std@@@std@@@0@U_General_ptr_iterator_tag@0@U_Unused_parameter@0@@Z$1
$LN10@Uninitiali:
	mov	DWORD PTR __$EHRec$[ebp+12], -1
__tryend$??$_Uninitialized_move_al_unchecked@PAV?$vector@VNeuron@@V?$allocator@VNeuron@@@std@@@std@@PAV12@V?$allocator@V?$vector@VNeuron@@V?$allocator@VNeuron@@@std@@@std@@@2@@std@@YAPAV?$vector@VNeuron@@V?$allocator@VNeuron@@@std@@@0@PAV10@00AAV?$allocator@V?$vector@VNeuron@@V?$allocator@VNeuron@@@std@@@std@@@0@U_General_ptr_iterator_tag@0@U_Unused_parameter@0@@Z$1:

; 147  : 
; 148  : 	return (_Dest);

	mov	eax, DWORD PTR __Dest$[ebp]
$LN6@Uninitiali:

; 149  : 	}

	mov	ecx, DWORD PTR __$EHRec$[ebp+4]
	mov	DWORD PTR fs:0, ecx
	pop	ecx
	pop	edi
	pop	esi
	pop	ebx
	add	esp, 24					; 00000018H
	cmp	ebp, esp
	call	__RTC_CheckEsp
	mov	esp, ebp
	pop	ebp
	ret	0
_TEXT	ENDS
;	COMDAT text$x
text$x	SEGMENT
__ehhandler$??$_Uninitialized_move_al_unchecked@PAV?$vector@VNeuron@@V?$allocator@VNeuron@@@std@@@std@@PAV12@V?$allocator@V?$vector@VNeuron@@V?$allocator@VNeuron@@@std@@@std@@@2@@std@@YAPAV?$vector@VNeuron@@V?$allocator@VNeuron@@@std@@@0@PAV10@00AAV?$allocator@V?$vector@VNeuron@@V?$allocator@VNeuron@@@std@@@std@@@0@U_General_ptr_iterator_tag@0@U_Unused_parameter@0@@Z:
	mov	edx, DWORD PTR [esp+8]
	lea	eax, DWORD PTR [edx+12]
	mov	ecx, DWORD PTR [edx-28]
	xor	ecx, eax
	call	@__security_check_cookie@4
	mov	eax, OFFSET __ehfuncinfo$??$_Uninitialized_move_al_unchecked@PAV?$vector@VNeuron@@V?$allocator@VNeuron@@@std@@@std@@PAV12@V?$allocator@V?$vector@VNeuron@@V?$allocator@VNeuron@@@std@@@std@@@2@@std@@YAPAV?$vector@VNeuron@@V?$allocator@VNeuron@@@std@@@0@PAV10@00AAV?$allocator@V?$vector@VNeuron@@V?$allocator@VNeuron@@@std@@@std@@@0@U_General_ptr_iterator_tag@0@U_Unused_parameter@0@@Z
	jmp	___CxxFrameHandler3
text$x	ENDS
??$_Uninitialized_move_al_unchecked@PAV?$vector@VNeuron@@V?$allocator@VNeuron@@@std@@@std@@PAV12@V?$allocator@V?$vector@VNeuron@@V?$allocator@VNeuron@@@std@@@std@@@2@@std@@YAPAV?$vector@VNeuron@@V?$allocator@VNeuron@@@std@@@0@PAV10@00AAV?$allocator@V?$vector@VNeuron@@V?$allocator@VNeuron@@@std@@@std@@@0@U_General_ptr_iterator_tag@0@U_Unused_parameter@0@@Z ENDP ; std::_Uninitialized_move_al_unchecked<std::vector<Neuron,std::allocator<Neuron> > *,std::vector<Neuron,std::allocator<Neuron> > *,std::allocator<std::vector<Neuron,std::allocator<Neuron> > > >
; Function compile flags: /Odtp /RTCsu
; File c:\program files (x86)\microsoft visual studio\2017\community\vc\tools\msvc\14.11.25503\include\xutility
;	COMDAT ??$_Ptr_move_cat@V?$vector@VNeuron@@V?$allocator@VNeuron@@@std@@@std@@V12@@std@@YA?AU_General_ptr_iterator_tag@0@ABQAV?$vector@VNeuron@@V?$allocator@VNeuron@@@std@@@0@0@Z
_TEXT	SEGMENT
$T1 = -1						; size = 1
___formal$ = 8						; size = 4
___formal$ = 12						; size = 4
??$_Ptr_move_cat@V?$vector@VNeuron@@V?$allocator@VNeuron@@@std@@@std@@V12@@std@@YA?AU_General_ptr_iterator_tag@0@ABQAV?$vector@VNeuron@@V?$allocator@VNeuron@@@std@@@0@0@Z PROC ; std::_Ptr_move_cat<std::vector<Neuron,std::allocator<Neuron> >,std::vector<Neuron,std::allocator<Neuron> > >, COMDAT

; 888  : 	{	// return pointer move optimization category for pointers

	push	ebp
	mov	ebp, esp
	push	ecx
	mov	DWORD PTR [ebp-4], -858993460		; ccccccccH

; 889  : 	return {};

	xor	eax, eax
	mov	BYTE PTR $T1[ebp], al
	mov	al, BYTE PTR $T1[ebp]

; 890  : 	}

	mov	esp, ebp
	pop	ebp
	ret	0
??$_Ptr_move_cat@V?$vector@VNeuron@@V?$allocator@VNeuron@@@std@@@std@@V12@@std@@YA?AU_General_ptr_iterator_tag@0@ABQAV?$vector@VNeuron@@V?$allocator@VNeuron@@@std@@@0@0@Z ENDP ; std::_Ptr_move_cat<std::vector<Neuron,std::allocator<Neuron> >,std::vector<Neuron,std::allocator<Neuron> > >
_TEXT	ENDS
; Function compile flags: /Odtp /RTCsu
; File c:\program files (x86)\microsoft visual studio\2017\community\vc\tools\msvc\14.11.25503\include\xutility
;	COMDAT ??$_Unchecked@PAV?$vector@VNeuron@@V?$allocator@VNeuron@@@std@@@std@@@std@@YAPAV?$vector@VNeuron@@V?$allocator@VNeuron@@@std@@@0@PAV10@@Z
_TEXT	SEGMENT
__Src$ = 8						; size = 4
??$_Unchecked@PAV?$vector@VNeuron@@V?$allocator@VNeuron@@@std@@@std@@@std@@YAPAV?$vector@VNeuron@@V?$allocator@VNeuron@@@std@@@0@PAV10@@Z PROC ; std::_Unchecked<std::vector<Neuron,std::allocator<Neuron> > *>, COMDAT

; 449  : 	{	// construct unchecked from checked, generic

	push	ebp
	mov	ebp, esp

; 450  : 	return (_Src);

	mov	eax, DWORD PTR __Src$[ebp]

; 451  : 	}

	pop	ebp
	ret	0
??$_Unchecked@PAV?$vector@VNeuron@@V?$allocator@VNeuron@@@std@@@std@@@std@@YAPAV?$vector@VNeuron@@V?$allocator@VNeuron@@@std@@@0@PAV10@@Z ENDP ; std::_Unchecked<std::vector<Neuron,std::allocator<Neuron> > *>
_TEXT	ENDS
; Function compile flags: /Odtp /RTCsu
; File c:\program files (x86)\microsoft visual studio\2017\community\vc\tools\msvc\14.11.25503\include\xmemory0
;	COMDAT ??$_Destroy_range1@V?$allocator@V?$vector@VNeuron@@V?$allocator@VNeuron@@@std@@@std@@@std@@@std@@YAXPAV?$vector@VNeuron@@V?$allocator@VNeuron@@@std@@@0@0AAV?$allocator@V?$vector@VNeuron@@V?$allocator@VNeuron@@@std@@@std@@@0@U?$integral_constant@_N$0A@@0@@Z
_TEXT	SEGMENT
__First$ = 8						; size = 4
__Last$ = 12						; size = 4
__Al$ = 16						; size = 4
___formal$ = 20						; size = 1
??$_Destroy_range1@V?$allocator@V?$vector@VNeuron@@V?$allocator@VNeuron@@@std@@@std@@@std@@@std@@YAXPAV?$vector@VNeuron@@V?$allocator@VNeuron@@@std@@@0@0AAV?$allocator@V?$vector@VNeuron@@V?$allocator@VNeuron@@@std@@@std@@@0@U?$integral_constant@_N$0A@@0@@Z PROC ; std::_Destroy_range1<std::allocator<std::vector<Neuron,std::allocator<Neuron> > > >, COMDAT

; 1091 : 	{	// destroy [_First, _Last), no special optimization

	push	ebp
	mov	ebp, esp

; 1092 : 	for (; _First != _Last; ++_First)

	jmp	SHORT $LN4@Destroy_ra
$LN2@Destroy_ra:
	mov	eax, DWORD PTR __First$[ebp]
	add	eax, 16					; 00000010H
	mov	DWORD PTR __First$[ebp], eax
$LN4@Destroy_ra:
	mov	ecx, DWORD PTR __First$[ebp]
	cmp	ecx, DWORD PTR __Last$[ebp]
	je	SHORT $LN1@Destroy_ra

; 1093 : 		{
; 1094 : 		allocator_traits<_Alloc>::destroy(_Al, _Unfancy(_First));

	mov	edx, DWORD PTR __First$[ebp]
	push	edx
	call	??$_Unfancy@V?$vector@VNeuron@@V?$allocator@VNeuron@@@std@@@std@@@std@@YAPAV?$vector@VNeuron@@V?$allocator@VNeuron@@@std@@@0@PAV10@@Z ; std::_Unfancy<std::vector<Neuron,std::allocator<Neuron> > >
	add	esp, 4
	push	eax
	mov	eax, DWORD PTR __Al$[ebp]
	push	eax
	call	??$destroy@V?$vector@VNeuron@@V?$allocator@VNeuron@@@std@@@std@@@?$_Default_allocator_traits@V?$allocator@V?$vector@VNeuron@@V?$allocator@VNeuron@@@std@@@std@@@std@@@std@@SAXAAV?$allocator@V?$vector@VNeuron@@V?$allocator@VNeuron@@@std@@@std@@@1@QAV?$vector@VNeuron@@V?$allocator@VNeuron@@@std@@@1@@Z ; std::_Default_allocator_traits<std::allocator<std::vector<Neuron,std::allocator<Neuron> > > >::destroy<std::vector<Neuron,std::allocator<Neuron> > >
	add	esp, 8

; 1095 : 		}

	jmp	SHORT $LN2@Destroy_ra
$LN1@Destroy_ra:

; 1096 : 	}

	cmp	ebp, esp
	call	__RTC_CheckEsp
	pop	ebp
	ret	0
??$_Destroy_range1@V?$allocator@V?$vector@VNeuron@@V?$allocator@VNeuron@@@std@@@std@@@std@@@std@@YAXPAV?$vector@VNeuron@@V?$allocator@VNeuron@@@std@@@0@0AAV?$allocator@V?$vector@VNeuron@@V?$allocator@VNeuron@@@std@@@std@@@0@U?$integral_constant@_N$0A@@0@@Z ENDP ; std::_Destroy_range1<std::allocator<std::vector<Neuron,std::allocator<Neuron> > > >
_TEXT	ENDS
; Function compile flags: /Odtp /RTCsu
; File c:\program files (x86)\microsoft visual studio\2017\community\vc\tools\msvc\14.11.25503\include\type_traits
;	COMDAT ??$forward@U_Container_proxy@std@@@std@@YA$$QAU_Container_proxy@0@AAU10@@Z
_TEXT	SEGMENT
__Arg$ = 8						; size = 4
??$forward@U_Container_proxy@std@@@std@@YA$$QAU_Container_proxy@0@AAU10@@Z PROC ; std::forward<std::_Container_proxy>, COMDAT

; 1591 : 	{	// forward an lvalue as either an lvalue or an rvalue

	push	ebp
	mov	ebp, esp

; 1592 : 	return (static_cast<_Ty&&>(_Arg));

	mov	eax, DWORD PTR __Arg$[ebp]

; 1593 : 	}

	pop	ebp
	ret	0
??$forward@U_Container_proxy@std@@@std@@YA$$QAU_Container_proxy@0@AAU10@@Z ENDP ; std::forward<std::_Container_proxy>
_TEXT	ENDS
; Function compile flags: /Odtp /RTCsu
; File c:\program files (x86)\microsoft visual studio\2017\community\vc\tools\msvc\14.11.25503\include\xmemory0
;	COMDAT ??$_Destroy_range1@V?$allocator@N@std@@@std@@YAXPAN0AAV?$allocator@N@0@U?$integral_constant@_N$00@0@@Z
_TEXT	SEGMENT
___formal$ = 8						; size = 4
___formal$ = 12						; size = 4
___formal$ = 16						; size = 4
___formal$ = 20						; size = 1
??$_Destroy_range1@V?$allocator@N@std@@@std@@YAXPAN0AAV?$allocator@N@0@U?$integral_constant@_N$00@0@@Z PROC ; std::_Destroy_range1<std::allocator<double> >, COMDAT

; 1103 : 	{	// destroy [_First, _Last), trivially destructible and default destroy

	push	ebp
	mov	ebp, esp

; 1104 : 		// nothing to do
; 1105 : 	}

	pop	ebp
	ret	0
??$_Destroy_range1@V?$allocator@N@std@@@std@@YAXPAN0AAV?$allocator@N@0@U?$integral_constant@_N$00@0@@Z ENDP ; std::_Destroy_range1<std::allocator<double> >
_TEXT	ENDS
; Function compile flags: /Odtp /RTCsu
; File c:\program files (x86)\microsoft visual studio\2017\community\vc\tools\msvc\14.11.25503\include\xmemory
;	COMDAT ??$_Uninitialized_copy@PAVNeuron@@PAV1@V?$allocator@VNeuron@@@std@@@std@@YAPAVNeuron@@PAV1@00AAV?$allocator@VNeuron@@@0@@Z
_TEXT	SEGMENT
$T1 = -34						; size = 1
$T2 = -33						; size = 1
__UDest$ = -24						; size = 4
__ULast$ = -16						; size = 4
__UFirst$ = -8						; size = 4
__First$ = 8						; size = 4
__Last$ = 12						; size = 4
__Dest$ = 16						; size = 4
__Al$ = 20						; size = 4
??$_Uninitialized_copy@PAVNeuron@@PAV1@V?$allocator@VNeuron@@@std@@@std@@YAPAVNeuron@@PAV1@00AAV?$allocator@VNeuron@@@0@@Z PROC ; std::_Uninitialized_copy<Neuron *,Neuron *,std::allocator<Neuron> >, COMDAT

; 116  : 	{	// copy [_First, _Last) to raw _Dest, using _Al

	push	ebp
	mov	ebp, esp
	sub	esp, 36					; 00000024H
	mov	eax, -858993460				; ccccccccH
	mov	DWORD PTR [ebp-36], eax
	mov	DWORD PTR [ebp-32], eax
	mov	DWORD PTR [ebp-28], eax
	mov	DWORD PTR [ebp-24], eax
	mov	DWORD PTR [ebp-20], eax
	mov	DWORD PTR [ebp-16], eax
	mov	DWORD PTR [ebp-12], eax
	mov	DWORD PTR [ebp-8], eax
	mov	DWORD PTR [ebp-4], eax

; 117  : 		// note: only called internally from elsewhere in the STL, debug checks
; 118  : 		// and deprecation warnings omitted
; 119  : 	const auto _UFirst = _Unchecked(_First);

	mov	eax, DWORD PTR __First$[ebp]
	push	eax
	call	??$_Unchecked@PAVNeuron@@@std@@YAPAVNeuron@@PAV1@@Z ; std::_Unchecked<Neuron *>
	add	esp, 4
	mov	DWORD PTR __UFirst$[ebp], eax

; 120  : 	const auto _ULast = _Unchecked(_Last);

	mov	ecx, DWORD PTR __Last$[ebp]
	push	ecx
	call	??$_Unchecked@PAVNeuron@@@std@@YAPAVNeuron@@PAV1@@Z ; std::_Unchecked<Neuron *>
	add	esp, 4
	mov	DWORD PTR __ULast$[ebp], eax

; 121  : 	const auto _UDest = _Unchecked(_Dest);

	mov	edx, DWORD PTR __Dest$[ebp]
	push	edx
	call	??$_Unchecked@PAVNeuron@@@std@@YAPAVNeuron@@PAV1@@Z ; std::_Unchecked<Neuron *>
	add	esp, 4
	mov	DWORD PTR __UDest$[ebp], eax

; 122  : 	return (_Rechecked(_Dest,

	lea	eax, DWORD PTR __UDest$[ebp]
	push	eax
	lea	ecx, DWORD PTR __UFirst$[ebp]
	push	ecx
	call	??$_Ptr_copy_cat@VNeuron@@V1@@std@@YA?AU_General_ptr_iterator_tag@0@ABQAVNeuron@@0@Z ; std::_Ptr_copy_cat<Neuron,Neuron>
	add	esp, 8
	mov	BYTE PTR $T1[ebp], al
	push	ecx
	mov	ecx, esp
	lea	edx, DWORD PTR $T2[ebp]
	push	edx
	call	??$?0U?$integral_constant@_N$00@std@@@_Unused_parameter@std@@QAE@$$QAU?$integral_constant@_N$00@1@@Z ; std::_Unused_parameter::_Unused_parameter<std::integral_constant<bool,1> >
	movzx	eax, BYTE PTR $T1[ebp]
	push	eax
	mov	ecx, DWORD PTR __Al$[ebp]
	push	ecx
	mov	edx, DWORD PTR __UDest$[ebp]
	push	edx
	mov	eax, DWORD PTR __ULast$[ebp]
	push	eax
	mov	ecx, DWORD PTR __UFirst$[ebp]
	push	ecx
	call	??$_Uninitialized_copy_al_unchecked@PAVNeuron@@PAV1@V?$allocator@VNeuron@@@std@@@std@@YAPAVNeuron@@PAV1@00AAV?$allocator@VNeuron@@@0@U_General_ptr_iterator_tag@0@U_Unused_parameter@0@@Z ; std::_Uninitialized_copy_al_unchecked<Neuron *,Neuron *,std::allocator<Neuron> >
	add	esp, 24					; 00000018H
	push	eax
	lea	edx, DWORD PTR __Dest$[ebp]
	push	edx
	call	??$_Rechecked@PAVNeuron@@PAV1@@std@@YAAAPAVNeuron@@AAPAV1@PAV1@@Z ; std::_Rechecked<Neuron *,Neuron *>
	add	esp, 8
	mov	eax, DWORD PTR [eax]

; 123  : 		_Uninitialized_copy_al_unchecked(_UFirst, _ULast, _UDest, _Al,
; 124  : 			_Ptr_copy_cat(_UFirst, _UDest),
; 125  : 			_Uses_default_construct_t<_Alloc, decltype(_Unfancy(_UDest)), decltype(*_UFirst)>())));
; 126  : 	}

	push	edx
	mov	ecx, ebp
	push	eax
	lea	edx, DWORD PTR $LN6@Uninitiali
	call	@_RTC_CheckStackVars@8
	pop	eax
	pop	edx
	add	esp, 36					; 00000024H
	cmp	ebp, esp
	call	__RTC_CheckEsp
	mov	esp, ebp
	pop	ebp
	ret	0
	npad	3
$LN6@Uninitiali:
	DD	2
	DD	$LN5@Uninitiali
$LN5@Uninitiali:
	DD	-8					; fffffff8H
	DD	4
	DD	$LN3@Uninitiali
	DD	-24					; ffffffe8H
	DD	4
	DD	$LN4@Uninitiali
$LN4@Uninitiali:
	DB	95					; 0000005fH
	DB	85					; 00000055H
	DB	68					; 00000044H
	DB	101					; 00000065H
	DB	115					; 00000073H
	DB	116					; 00000074H
	DB	0
$LN3@Uninitiali:
	DB	95					; 0000005fH
	DB	85					; 00000055H
	DB	70					; 00000046H
	DB	105					; 00000069H
	DB	114					; 00000072H
	DB	115					; 00000073H
	DB	116					; 00000074H
	DB	0
??$_Uninitialized_copy@PAVNeuron@@PAV1@V?$allocator@VNeuron@@@std@@@std@@YAPAVNeuron@@PAV1@00AAV?$allocator@VNeuron@@@0@@Z ENDP ; std::_Uninitialized_copy<Neuron *,Neuron *,std::allocator<Neuron> >
_TEXT	ENDS
; Function compile flags: /Odtp /RTCsu
; File c:\program files (x86)\microsoft visual studio\2017\community\vc\tools\msvc\14.11.25503\include\xmemory0
;	COMDAT ??$_Destroy_range@V?$allocator@VNeuron@@@std@@@std@@YAXPAVNeuron@@0AAV?$allocator@VNeuron@@@0@@Z
_TEXT	SEGMENT
$T1 = -1						; size = 1
__First$ = 8						; size = 4
__Last$ = 12						; size = 4
__Al$ = 16						; size = 4
??$_Destroy_range@V?$allocator@VNeuron@@@std@@@std@@YAXPAVNeuron@@0AAV?$allocator@VNeuron@@@0@@Z PROC ; std::_Destroy_range<std::allocator<Neuron> >, COMDAT

; 1112 : 	{	// destroy [_First, _Last), choose optimization

	push	ebp
	mov	ebp, esp
	push	ecx
	mov	DWORD PTR [ebp-4], -858993460		; ccccccccH

; 1113 : 		// note that this is an optimization for debug mode codegen;
; 1114 : 		// in release mode the BE removes all of this
; 1115 : 	using _Val = typename _Alloc::value_type;
; 1116 : 	_Destroy_range1(_First, _Last, _Al, _Conjunction_t<

	movzx	eax, BYTE PTR $T1[ebp]
	push	eax
	mov	ecx, DWORD PTR __Al$[ebp]
	push	ecx
	mov	edx, DWORD PTR __Last$[ebp]
	push	edx
	mov	eax, DWORD PTR __First$[ebp]
	push	eax
	call	??$_Destroy_range1@V?$allocator@VNeuron@@@std@@@std@@YAXPAVNeuron@@0AAV?$allocator@VNeuron@@@0@U?$integral_constant@_N$0A@@0@@Z ; std::_Destroy_range1<std::allocator<Neuron> >
	add	esp, 16					; 00000010H

; 1117 : 		is_trivially_destructible<_Val>,
; 1118 : 		_Uses_default_destroy<_Alloc, _Val *>>());
; 1119 : 	}

	add	esp, 4
	cmp	ebp, esp
	call	__RTC_CheckEsp
	mov	esp, ebp
	pop	ebp
	ret	0
??$_Destroy_range@V?$allocator@VNeuron@@@std@@@std@@YAXPAVNeuron@@0AAV?$allocator@VNeuron@@@0@@Z ENDP ; std::_Destroy_range<std::allocator<Neuron> >
_TEXT	ENDS
; Function compile flags: /Odtp /RTCsu
; File c:\program files (x86)\microsoft visual studio\2017\community\vc\tools\msvc\14.11.25503\include\xmemory
;	COMDAT ??$_Uninitialized_move@PANPANV?$allocator@N@std@@@std@@YAPANPAN00AAV?$allocator@N@0@@Z
_TEXT	SEGMENT
$T1 = -30						; size = 1
$T2 = -29						; size = 1
__UDest$ = -24						; size = 4
__ULast$ = -16						; size = 4
__UFirst$ = -8						; size = 4
__First$ = 8						; size = 4
__Last$ = 12						; size = 4
__Dest$ = 16						; size = 4
__Al$ = 20						; size = 4
??$_Uninitialized_move@PANPANV?$allocator@N@std@@@std@@YAPANPAN00AAV?$allocator@N@0@@Z PROC ; std::_Uninitialized_move<double *,double *,std::allocator<double> >, COMDAT

; 164  : 	{	// move [_First, _Last) to raw _Dest, using _Al

	push	ebp
	mov	ebp, esp
	sub	esp, 32					; 00000020H
	mov	eax, -858993460				; ccccccccH
	mov	DWORD PTR [ebp-32], eax
	mov	DWORD PTR [ebp-28], eax
	mov	DWORD PTR [ebp-24], eax
	mov	DWORD PTR [ebp-20], eax
	mov	DWORD PTR [ebp-16], eax
	mov	DWORD PTR [ebp-12], eax
	mov	DWORD PTR [ebp-8], eax
	mov	DWORD PTR [ebp-4], eax

; 165  : 		// note: only called internally from elsewhere in the STL, debug checks
; 166  : 		// and deprecation warnings omitted
; 167  : 	const auto _UFirst = _Unchecked(_First);

	mov	eax, DWORD PTR __First$[ebp]
	push	eax
	call	??$_Unchecked@PAN@std@@YAPANPAN@Z	; std::_Unchecked<double *>
	add	esp, 4
	mov	DWORD PTR __UFirst$[ebp], eax

; 168  : 	const auto _ULast = _Unchecked(_Last);

	mov	ecx, DWORD PTR __Last$[ebp]
	push	ecx
	call	??$_Unchecked@PAN@std@@YAPANPAN@Z	; std::_Unchecked<double *>
	add	esp, 4
	mov	DWORD PTR __ULast$[ebp], eax

; 169  : 	const auto _UDest = _Unchecked(_Dest);

	mov	edx, DWORD PTR __Dest$[ebp]
	push	edx
	call	??$_Unchecked@PAN@std@@YAPANPAN@Z	; std::_Unchecked<double *>
	add	esp, 4
	mov	DWORD PTR __UDest$[ebp], eax

; 170  : 	return (_Rechecked(_Dest,

	movzx	eax, BYTE PTR $T2[ebp]
	push	eax
	lea	ecx, DWORD PTR __UDest$[ebp]
	push	ecx
	lea	edx, DWORD PTR __UFirst$[ebp]
	push	edx
	lea	eax, DWORD PTR $T1[ebp]
	push	eax
	call	??$_Ptr_move_cat@NN@std@@YA?AU_Really_trivial_ptr_iterator_tag@0@ABQAN0@Z ; std::_Ptr_move_cat<double,double>
	add	esp, 12					; 0000000cH
	mov	cl, BYTE PTR [eax]
	movzx	edx, cl
	push	edx
	mov	eax, DWORD PTR __Al$[ebp]
	push	eax
	mov	ecx, DWORD PTR __UDest$[ebp]
	push	ecx
	mov	edx, DWORD PTR __ULast$[ebp]
	push	edx
	mov	eax, DWORD PTR __UFirst$[ebp]
	push	eax
	call	??$_Uninitialized_move_al_unchecked@NNV?$allocator@N@std@@@std@@YAPANPAN00AAV?$allocator@N@0@U_Really_trivial_ptr_iterator_tag@0@U?$integral_constant@_N$00@0@@Z ; std::_Uninitialized_move_al_unchecked<double,double,std::allocator<double> >
	add	esp, 24					; 00000018H
	push	eax
	lea	ecx, DWORD PTR __Dest$[ebp]
	push	ecx
	call	??$_Rechecked@PANPAN@std@@YAAAPANAAPANPAN@Z ; std::_Rechecked<double *,double *>
	add	esp, 8
	mov	eax, DWORD PTR [eax]

; 171  : 		_Uninitialized_move_al_unchecked(_UFirst, _ULast, _UDest, _Al,
; 172  : 			_Ptr_move_cat(_UFirst, _UDest),
; 173  : 			_Uses_default_construct_t<_Alloc, decltype(_Unfancy(_UDest)), decltype(_STD move(*_UFirst))>())));
; 174  : 	}

	push	edx
	mov	ecx, ebp
	push	eax
	lea	edx, DWORD PTR $LN6@Uninitiali
	call	@_RTC_CheckStackVars@8
	pop	eax
	pop	edx
	add	esp, 32					; 00000020H
	cmp	ebp, esp
	call	__RTC_CheckEsp
	mov	esp, ebp
	pop	ebp
	ret	0
	npad	3
$LN6@Uninitiali:
	DD	2
	DD	$LN5@Uninitiali
$LN5@Uninitiali:
	DD	-8					; fffffff8H
	DD	4
	DD	$LN3@Uninitiali
	DD	-24					; ffffffe8H
	DD	4
	DD	$LN4@Uninitiali
$LN4@Uninitiali:
	DB	95					; 0000005fH
	DB	85					; 00000055H
	DB	68					; 00000044H
	DB	101					; 00000065H
	DB	115					; 00000073H
	DB	116					; 00000074H
	DB	0
$LN3@Uninitiali:
	DB	95					; 0000005fH
	DB	85					; 00000055H
	DB	70					; 00000046H
	DB	105					; 00000069H
	DB	114					; 00000072H
	DB	115					; 00000073H
	DB	116					; 00000074H
	DB	0
??$_Uninitialized_move@PANPANV?$allocator@N@std@@@std@@YAPANPAN00AAV?$allocator@N@0@@Z ENDP ; std::_Uninitialized_move<double *,double *,std::allocator<double> >
_TEXT	ENDS
; Function compile flags: /Odtp /RTCsu
; File c:\program files (x86)\microsoft visual studio\2017\community\vc\tools\msvc\14.11.25503\include\xmemory
;	COMDAT ??$_Uninitialized_move@PAV?$vector@VNeuron@@V?$allocator@VNeuron@@@std@@@std@@PAV12@V?$allocator@V?$vector@VNeuron@@V?$allocator@VNeuron@@@std@@@std@@@2@@std@@YAPAV?$vector@VNeuron@@V?$allocator@VNeuron@@@std@@@0@PAV10@00AAV?$allocator@V?$vector@VNeuron@@V?$allocator@VNeuron@@@std@@@std@@@0@@Z
_TEXT	SEGMENT
$T1 = -34						; size = 1
$T2 = -33						; size = 1
__UDest$ = -24						; size = 4
__ULast$ = -16						; size = 4
__UFirst$ = -8						; size = 4
__First$ = 8						; size = 4
__Last$ = 12						; size = 4
__Dest$ = 16						; size = 4
__Al$ = 20						; size = 4
??$_Uninitialized_move@PAV?$vector@VNeuron@@V?$allocator@VNeuron@@@std@@@std@@PAV12@V?$allocator@V?$vector@VNeuron@@V?$allocator@VNeuron@@@std@@@std@@@2@@std@@YAPAV?$vector@VNeuron@@V?$allocator@VNeuron@@@std@@@0@PAV10@00AAV?$allocator@V?$vector@VNeuron@@V?$allocator@VNeuron@@@std@@@std@@@0@@Z PROC ; std::_Uninitialized_move<std::vector<Neuron,std::allocator<Neuron> > *,std::vector<Neuron,std::allocator<Neuron> > *,std::allocator<std::vector<Neuron,std::allocator<Neuron> > > >, COMDAT

; 164  : 	{	// move [_First, _Last) to raw _Dest, using _Al

	push	ebp
	mov	ebp, esp
	sub	esp, 36					; 00000024H
	mov	eax, -858993460				; ccccccccH
	mov	DWORD PTR [ebp-36], eax
	mov	DWORD PTR [ebp-32], eax
	mov	DWORD PTR [ebp-28], eax
	mov	DWORD PTR [ebp-24], eax
	mov	DWORD PTR [ebp-20], eax
	mov	DWORD PTR [ebp-16], eax
	mov	DWORD PTR [ebp-12], eax
	mov	DWORD PTR [ebp-8], eax
	mov	DWORD PTR [ebp-4], eax

; 165  : 		// note: only called internally from elsewhere in the STL, debug checks
; 166  : 		// and deprecation warnings omitted
; 167  : 	const auto _UFirst = _Unchecked(_First);

	mov	eax, DWORD PTR __First$[ebp]
	push	eax
	call	??$_Unchecked@PAV?$vector@VNeuron@@V?$allocator@VNeuron@@@std@@@std@@@std@@YAPAV?$vector@VNeuron@@V?$allocator@VNeuron@@@std@@@0@PAV10@@Z ; std::_Unchecked<std::vector<Neuron,std::allocator<Neuron> > *>
	add	esp, 4
	mov	DWORD PTR __UFirst$[ebp], eax

; 168  : 	const auto _ULast = _Unchecked(_Last);

	mov	ecx, DWORD PTR __Last$[ebp]
	push	ecx
	call	??$_Unchecked@PAV?$vector@VNeuron@@V?$allocator@VNeuron@@@std@@@std@@@std@@YAPAV?$vector@VNeuron@@V?$allocator@VNeuron@@@std@@@0@PAV10@@Z ; std::_Unchecked<std::vector<Neuron,std::allocator<Neuron> > *>
	add	esp, 4
	mov	DWORD PTR __ULast$[ebp], eax

; 169  : 	const auto _UDest = _Unchecked(_Dest);

	mov	edx, DWORD PTR __Dest$[ebp]
	push	edx
	call	??$_Unchecked@PAV?$vector@VNeuron@@V?$allocator@VNeuron@@@std@@@std@@@std@@YAPAV?$vector@VNeuron@@V?$allocator@VNeuron@@@std@@@0@PAV10@@Z ; std::_Unchecked<std::vector<Neuron,std::allocator<Neuron> > *>
	add	esp, 4
	mov	DWORD PTR __UDest$[ebp], eax

; 170  : 	return (_Rechecked(_Dest,

	lea	eax, DWORD PTR __UDest$[ebp]
	push	eax
	lea	ecx, DWORD PTR __UFirst$[ebp]
	push	ecx
	call	??$_Ptr_move_cat@V?$vector@VNeuron@@V?$allocator@VNeuron@@@std@@@std@@V12@@std@@YA?AU_General_ptr_iterator_tag@0@ABQAV?$vector@VNeuron@@V?$allocator@VNeuron@@@std@@@0@0@Z ; std::_Ptr_move_cat<std::vector<Neuron,std::allocator<Neuron> >,std::vector<Neuron,std::allocator<Neuron> > >
	add	esp, 8
	mov	BYTE PTR $T1[ebp], al
	push	ecx
	mov	ecx, esp
	lea	edx, DWORD PTR $T2[ebp]
	push	edx
	call	??$?0U?$integral_constant@_N$00@std@@@_Unused_parameter@std@@QAE@$$QAU?$integral_constant@_N$00@1@@Z ; std::_Unused_parameter::_Unused_parameter<std::integral_constant<bool,1> >
	movzx	eax, BYTE PTR $T1[ebp]
	push	eax
	mov	ecx, DWORD PTR __Al$[ebp]
	push	ecx
	mov	edx, DWORD PTR __UDest$[ebp]
	push	edx
	mov	eax, DWORD PTR __ULast$[ebp]
	push	eax
	mov	ecx, DWORD PTR __UFirst$[ebp]
	push	ecx
	call	??$_Uninitialized_move_al_unchecked@PAV?$vector@VNeuron@@V?$allocator@VNeuron@@@std@@@std@@PAV12@V?$allocator@V?$vector@VNeuron@@V?$allocator@VNeuron@@@std@@@std@@@2@@std@@YAPAV?$vector@VNeuron@@V?$allocator@VNeuron@@@std@@@0@PAV10@00AAV?$allocator@V?$vector@VNeuron@@V?$allocator@VNeuron@@@std@@@std@@@0@U_General_ptr_iterator_tag@0@U_Unused_parameter@0@@Z ; std::_Uninitialized_move_al_unchecked<std::vector<Neuron,std::allocator<Neuron> > *,std::vector<Neuron,std::allocator<Neuron> > *,std::allocator<std::vector<Neuron,std::allocator<Neuron> > > >
	add	esp, 24					; 00000018H
	push	eax
	lea	edx, DWORD PTR __Dest$[ebp]
	push	edx
	call	??$_Rechecked@PAV?$vector@VNeuron@@V?$allocator@VNeuron@@@std@@@std@@PAV12@@std@@YAAAPAV?$vector@VNeuron@@V?$allocator@VNeuron@@@std@@@0@AAPAV10@PAV10@@Z ; std::_Rechecked<std::vector<Neuron,std::allocator<Neuron> > *,std::vector<Neuron,std::allocator<Neuron> > *>
	add	esp, 8
	mov	eax, DWORD PTR [eax]

; 171  : 		_Uninitialized_move_al_unchecked(_UFirst, _ULast, _UDest, _Al,
; 172  : 			_Ptr_move_cat(_UFirst, _UDest),
; 173  : 			_Uses_default_construct_t<_Alloc, decltype(_Unfancy(_UDest)), decltype(_STD move(*_UFirst))>())));
; 174  : 	}

	push	edx
	mov	ecx, ebp
	push	eax
	lea	edx, DWORD PTR $LN6@Uninitiali
	call	@_RTC_CheckStackVars@8
	pop	eax
	pop	edx
	add	esp, 36					; 00000024H
	cmp	ebp, esp
	call	__RTC_CheckEsp
	mov	esp, ebp
	pop	ebp
	ret	0
	npad	3
$LN6@Uninitiali:
	DD	2
	DD	$LN5@Uninitiali
$LN5@Uninitiali:
	DD	-8					; fffffff8H
	DD	4
	DD	$LN3@Uninitiali
	DD	-24					; ffffffe8H
	DD	4
	DD	$LN4@Uninitiali
$LN4@Uninitiali:
	DB	95					; 0000005fH
	DB	85					; 00000055H
	DB	68					; 00000044H
	DB	101					; 00000065H
	DB	115					; 00000073H
	DB	116					; 00000074H
	DB	0
$LN3@Uninitiali:
	DB	95					; 0000005fH
	DB	85					; 00000055H
	DB	70					; 00000046H
	DB	105					; 00000069H
	DB	114					; 00000072H
	DB	115					; 00000073H
	DB	116					; 00000074H
	DB	0
??$_Uninitialized_move@PAV?$vector@VNeuron@@V?$allocator@VNeuron@@@std@@@std@@PAV12@V?$allocator@V?$vector@VNeuron@@V?$allocator@VNeuron@@@std@@@std@@@2@@std@@YAPAV?$vector@VNeuron@@V?$allocator@VNeuron@@@std@@@0@PAV10@00AAV?$allocator@V?$vector@VNeuron@@V?$allocator@VNeuron@@@std@@@std@@@0@@Z ENDP ; std::_Uninitialized_move<std::vector<Neuron,std::allocator<Neuron> > *,std::vector<Neuron,std::allocator<Neuron> > *,std::allocator<std::vector<Neuron,std::allocator<Neuron> > > >
_TEXT	ENDS
; Function compile flags: /Odtp /RTCsu
; File c:\program files (x86)\microsoft visual studio\2017\community\vc\tools\msvc\14.11.25503\include\xmemory0
;	COMDAT ??$_Destroy_range@V?$allocator@V?$vector@VNeuron@@V?$allocator@VNeuron@@@std@@@std@@@std@@@std@@YAXPAV?$vector@VNeuron@@V?$allocator@VNeuron@@@std@@@0@0AAV?$allocator@V?$vector@VNeuron@@V?$allocator@VNeuron@@@std@@@std@@@0@@Z
_TEXT	SEGMENT
$T1 = -1						; size = 1
__First$ = 8						; size = 4
__Last$ = 12						; size = 4
__Al$ = 16						; size = 4
??$_Destroy_range@V?$allocator@V?$vector@VNeuron@@V?$allocator@VNeuron@@@std@@@std@@@std@@@std@@YAXPAV?$vector@VNeuron@@V?$allocator@VNeuron@@@std@@@0@0AAV?$allocator@V?$vector@VNeuron@@V?$allocator@VNeuron@@@std@@@std@@@0@@Z PROC ; std::_Destroy_range<std::allocator<std::vector<Neuron,std::allocator<Neuron> > > >, COMDAT

; 1112 : 	{	// destroy [_First, _Last), choose optimization

	push	ebp
	mov	ebp, esp
	push	ecx
	mov	DWORD PTR [ebp-4], -858993460		; ccccccccH

; 1113 : 		// note that this is an optimization for debug mode codegen;
; 1114 : 		// in release mode the BE removes all of this
; 1115 : 	using _Val = typename _Alloc::value_type;
; 1116 : 	_Destroy_range1(_First, _Last, _Al, _Conjunction_t<

	movzx	eax, BYTE PTR $T1[ebp]
	push	eax
	mov	ecx, DWORD PTR __Al$[ebp]
	push	ecx
	mov	edx, DWORD PTR __Last$[ebp]
	push	edx
	mov	eax, DWORD PTR __First$[ebp]
	push	eax
	call	??$_Destroy_range1@V?$allocator@V?$vector@VNeuron@@V?$allocator@VNeuron@@@std@@@std@@@std@@@std@@YAXPAV?$vector@VNeuron@@V?$allocator@VNeuron@@@std@@@0@0AAV?$allocator@V?$vector@VNeuron@@V?$allocator@VNeuron@@@std@@@std@@@0@U?$integral_constant@_N$0A@@0@@Z ; std::_Destroy_range1<std::allocator<std::vector<Neuron,std::allocator<Neuron> > > >
	add	esp, 16					; 00000010H

; 1117 : 		is_trivially_destructible<_Val>,
; 1118 : 		_Uses_default_destroy<_Alloc, _Val *>>());
; 1119 : 	}

	add	esp, 4
	cmp	ebp, esp
	call	__RTC_CheckEsp
	mov	esp, ebp
	pop	ebp
	ret	0
??$_Destroy_range@V?$allocator@V?$vector@VNeuron@@V?$allocator@VNeuron@@@std@@@std@@@std@@@std@@YAXPAV?$vector@VNeuron@@V?$allocator@VNeuron@@@std@@@0@0AAV?$allocator@V?$vector@VNeuron@@V?$allocator@VNeuron@@@std@@@std@@@0@@Z ENDP ; std::_Destroy_range<std::allocator<std::vector<Neuron,std::allocator<Neuron> > > >
_TEXT	ENDS
; Function compile flags: /Odtp /RTCsu
; File c:\program files (x86)\microsoft visual studio\2017\community\vc\tools\msvc\14.11.25503\include\xstddef
;	COMDAT ??$addressof@V?$_Vector_val@U?$_Simple_types@V?$vector@VNeuron@@V?$allocator@VNeuron@@@std@@@std@@@std@@@std@@@std@@YAPAV?$_Vector_val@U?$_Simple_types@V?$vector@VNeuron@@V?$allocator@VNeuron@@@std@@@std@@@std@@@0@AAV10@@Z
_TEXT	SEGMENT
__Val$ = 8						; size = 4
??$addressof@V?$_Vector_val@U?$_Simple_types@V?$vector@VNeuron@@V?$allocator@VNeuron@@@std@@@std@@@std@@@std@@@std@@YAPAV?$_Vector_val@U?$_Simple_types@V?$vector@VNeuron@@V?$allocator@VNeuron@@@std@@@std@@@std@@@0@AAV10@@Z PROC ; std::addressof<std::_Vector_val<std::_Simple_types<std::vector<Neuron,std::allocator<Neuron> > > > >, COMDAT

; 248  : 	{	// return address of _Val

	push	ebp
	mov	ebp, esp

; 249  : 	return (__builtin_addressof(_Val));

	mov	eax, DWORD PTR __Val$[ebp]

; 250  : 	}

	pop	ebp
	ret	0
??$addressof@V?$_Vector_val@U?$_Simple_types@V?$vector@VNeuron@@V?$allocator@VNeuron@@@std@@@std@@@std@@@std@@@std@@YAPAV?$_Vector_val@U?$_Simple_types@V?$vector@VNeuron@@V?$allocator@VNeuron@@@std@@@std@@@std@@@0@AAV10@@Z ENDP ; std::addressof<std::_Vector_val<std::_Simple_types<std::vector<Neuron,std::allocator<Neuron> > > > >
_TEXT	ENDS
; Function compile flags: /Odtp /RTCsu
; File c:\program files (x86)\microsoft visual studio\2017\community\vc\tools\msvc\14.11.25503\include\xmemory0
;	COMDAT ??$?0V?$vector@VNeuron@@V?$allocator@VNeuron@@@std@@@std@@@?$allocator@U_Container_proxy@std@@@std@@QAE@ABV?$allocator@V?$vector@VNeuron@@V?$allocator@VNeuron@@@std@@@std@@@1@@Z
_TEXT	SEGMENT
_this$ = -4						; size = 4
___formal$ = 8						; size = 4
??$?0V?$vector@VNeuron@@V?$allocator@VNeuron@@@std@@@std@@@?$allocator@U_Container_proxy@std@@@std@@QAE@ABV?$allocator@V?$vector@VNeuron@@V?$allocator@VNeuron@@@std@@@std@@@1@@Z PROC ; std::allocator<std::_Container_proxy>::allocator<std::_Container_proxy><std::vector<Neuron,std::allocator<Neuron> > >, COMDAT
; _this$ = ecx

; 936  : 		{	// construct from a related allocator (do nothing)

	push	ebp
	mov	ebp, esp
	push	ecx
	mov	DWORD PTR [ebp-4], -858993460		; ccccccccH
	mov	DWORD PTR _this$[ebp], ecx

; 937  : 		}

	mov	eax, DWORD PTR _this$[ebp]
	mov	esp, ebp
	pop	ebp
	ret	4
??$?0V?$vector@VNeuron@@V?$allocator@VNeuron@@@std@@@std@@@?$allocator@U_Container_proxy@std@@@std@@QAE@ABV?$allocator@V?$vector@VNeuron@@V?$allocator@VNeuron@@@std@@@std@@@1@@Z ENDP ; std::allocator<std::_Container_proxy>::allocator<std::_Container_proxy><std::vector<Neuron,std::allocator<Neuron> > >
_TEXT	ENDS
; Function compile flags: /Odtp /RTCsu
; File c:\program files (x86)\microsoft visual studio\2017\community\vc\tools\msvc\14.11.25503\include\xstddef
;	COMDAT ??$addressof@V?$_Vector_val@U?$_Simple_types@VNeuron@@@std@@@std@@@std@@YAPAV?$_Vector_val@U?$_Simple_types@VNeuron@@@std@@@0@AAV10@@Z
_TEXT	SEGMENT
__Val$ = 8						; size = 4
??$addressof@V?$_Vector_val@U?$_Simple_types@VNeuron@@@std@@@std@@@std@@YAPAV?$_Vector_val@U?$_Simple_types@VNeuron@@@std@@@0@AAV10@@Z PROC ; std::addressof<std::_Vector_val<std::_Simple_types<Neuron> > >, COMDAT

; 248  : 	{	// return address of _Val

	push	ebp
	mov	ebp, esp

; 249  : 	return (__builtin_addressof(_Val));

	mov	eax, DWORD PTR __Val$[ebp]

; 250  : 	}

	pop	ebp
	ret	0
??$addressof@V?$_Vector_val@U?$_Simple_types@VNeuron@@@std@@@std@@@std@@YAPAV?$_Vector_val@U?$_Simple_types@VNeuron@@@std@@@0@AAV10@@Z ENDP ; std::addressof<std::_Vector_val<std::_Simple_types<Neuron> > >
_TEXT	ENDS
; Function compile flags: /Odtp /RTCsu
; File c:\program files (x86)\microsoft visual studio\2017\community\vc\tools\msvc\14.11.25503\include\xmemory0
;	COMDAT ??$construct@U_Container_proxy@std@@U12@@?$_Default_allocator_traits@V?$allocator@U_Container_proxy@std@@@std@@@std@@SAXAAV?$allocator@U_Container_proxy@std@@@1@QAU_Container_proxy@1@$$QAU31@@Z
_TEXT	SEGMENT
$T1 = -4						; size = 4
___formal$ = 8						; size = 4
__Ptr$ = 12						; size = 4
_<_Args_0>$ = 16					; size = 4
??$construct@U_Container_proxy@std@@U12@@?$_Default_allocator_traits@V?$allocator@U_Container_proxy@std@@@std@@@std@@SAXAAV?$allocator@U_Container_proxy@std@@@1@QAU_Container_proxy@1@$$QAU31@@Z PROC ; std::_Default_allocator_traits<std::allocator<std::_Container_proxy> >::construct<std::_Container_proxy,std::_Container_proxy>, COMDAT

; 854  : 		{	// construct _Objty(_Types...) at _Ptr

	push	ebp
	mov	ebp, esp
	push	ecx
	mov	DWORD PTR [ebp-4], -858993460		; ccccccccH

; 855  : 		::new (const_cast<void *>(static_cast<const volatile void *>(_Ptr)))

	mov	eax, DWORD PTR __Ptr$[ebp]
	push	eax
	push	8
	call	??2@YAPAXIPAX@Z				; operator new
	add	esp, 8
	mov	DWORD PTR $T1[ebp], eax
	mov	ecx, DWORD PTR _<_Args_0>$[ebp]
	push	ecx
	call	??$forward@U_Container_proxy@std@@@std@@YA$$QAU_Container_proxy@0@AAU10@@Z ; std::forward<std::_Container_proxy>
	add	esp, 4
	mov	edx, DWORD PTR [eax]
	mov	eax, DWORD PTR [eax+4]
	mov	ecx, DWORD PTR $T1[ebp]
	mov	DWORD PTR [ecx], edx
	mov	DWORD PTR [ecx+4], eax

; 856  : 			_Objty(_STD forward<_Types>(_Args)...);
; 857  : 		}

	add	esp, 4
	cmp	ebp, esp
	call	__RTC_CheckEsp
	mov	esp, ebp
	pop	ebp
	ret	0
??$construct@U_Container_proxy@std@@U12@@?$_Default_allocator_traits@V?$allocator@U_Container_proxy@std@@@std@@@std@@SAXAAV?$allocator@U_Container_proxy@std@@@1@QAU_Container_proxy@1@$$QAU31@@Z ENDP ; std::_Default_allocator_traits<std::allocator<std::_Container_proxy> >::construct<std::_Container_proxy,std::_Container_proxy>
_TEXT	ENDS
; Function compile flags: /Odtp /RTCsu
; File c:\program files (x86)\microsoft visual studio\2017\community\vc\tools\msvc\14.11.25503\include\xstddef
;	COMDAT ??$_Unfancy@U_Container_proxy@std@@@std@@YAPAU_Container_proxy@0@PAU10@@Z
_TEXT	SEGMENT
__Ptr$ = 8						; size = 4
??$_Unfancy@U_Container_proxy@std@@@std@@YAPAU_Container_proxy@0@PAU10@@Z PROC ; std::_Unfancy<std::_Container_proxy>, COMDAT

; 264  : 	{	// do nothing for plain pointers

	push	ebp
	mov	ebp, esp

; 265  : 	return (_Ptr);

	mov	eax, DWORD PTR __Ptr$[ebp]

; 266  : 	}

	pop	ebp
	ret	0
??$_Unfancy@U_Container_proxy@std@@@std@@YAPAU_Container_proxy@0@PAU10@@Z ENDP ; std::_Unfancy<std::_Container_proxy>
_TEXT	ENDS
; Function compile flags: /Odtp /RTCsu
; File c:\program files (x86)\microsoft visual studio\2017\community\vc\tools\msvc\14.11.25503\include\xmemory0
;	COMDAT ??$_Deallocate_plain@V?$allocator@U_Container_proxy@std@@@std@@$0A@@std@@YAXAAV?$allocator@U_Container_proxy@std@@@0@QAU_Container_proxy@0@@Z
_TEXT	SEGMENT
__Al$ = 8						; size = 4
__Ptr$ = 12						; size = 4
??$_Deallocate_plain@V?$allocator@U_Container_proxy@std@@@std@@$0A@@std@@YAXAAV?$allocator@U_Container_proxy@std@@@0@QAU_Container_proxy@0@@Z PROC ; std::_Deallocate_plain<std::allocator<std::_Container_proxy>,0>, COMDAT

; 1220 : 	{	// deallocate a plain pointer using an allocator, non-fancy pointers special case

	push	ebp
	mov	ebp, esp

; 1221 : 	allocator_traits<_Alloc>::deallocate(_Al, _Ptr, 1);

	push	1
	mov	eax, DWORD PTR __Ptr$[ebp]
	push	eax
	mov	ecx, DWORD PTR __Al$[ebp]
	push	ecx
	call	?deallocate@?$_Default_allocator_traits@V?$allocator@U_Container_proxy@std@@@std@@@std@@SAXAAV?$allocator@U_Container_proxy@std@@@2@QAU_Container_proxy@2@I@Z ; std::_Default_allocator_traits<std::allocator<std::_Container_proxy> >::deallocate
	add	esp, 12					; 0000000cH

; 1222 : 	}

	cmp	ebp, esp
	call	__RTC_CheckEsp
	pop	ebp
	ret	0
??$_Deallocate_plain@V?$allocator@U_Container_proxy@std@@@std@@$0A@@std@@YAXAAV?$allocator@U_Container_proxy@std@@@0@QAU_Container_proxy@0@@Z ENDP ; std::_Deallocate_plain<std::allocator<std::_Container_proxy>,0>
_TEXT	ENDS
; Function compile flags: /Odtp /RTCsu
; File c:\program files (x86)\microsoft visual studio\2017\community\vc\tools\msvc\14.11.25503\include\xmemory0
;	COMDAT ??$destroy@U_Container_proxy@std@@@?$_Default_allocator_traits@V?$allocator@U_Container_proxy@std@@@std@@@std@@SAXAAV?$allocator@U_Container_proxy@std@@@1@QAU_Container_proxy@1@@Z
_TEXT	SEGMENT
___formal$ = 8						; size = 4
__Ptr$ = 12						; size = 4
??$destroy@U_Container_proxy@std@@@?$_Default_allocator_traits@V?$allocator@U_Container_proxy@std@@@std@@@std@@SAXAAV?$allocator@U_Container_proxy@std@@@1@QAU_Container_proxy@1@@Z PROC ; std::_Default_allocator_traits<std::allocator<std::_Container_proxy> >::destroy<std::_Container_proxy>, COMDAT

; 861  : 		{	// destroy object at _Ptr

	push	ebp
	mov	ebp, esp

; 862  : 		_Ptr->~_Uty();
; 863  : 		}

	pop	ebp
	ret	0
??$destroy@U_Container_proxy@std@@@?$_Default_allocator_traits@V?$allocator@U_Container_proxy@std@@@std@@@std@@SAXAAV?$allocator@U_Container_proxy@std@@@1@QAU_Container_proxy@1@@Z ENDP ; std::_Default_allocator_traits<std::allocator<std::_Container_proxy> >::destroy<std::_Container_proxy>
_TEXT	ENDS
; Function compile flags: /Odtp /RTCsu
; File c:\program files (x86)\microsoft visual studio\2017\community\vc\tools\msvc\14.11.25503\include\xmemory0
;	COMDAT ?deallocate@?$_Default_allocator_traits@V?$allocator@U_Container_proxy@std@@@std@@@std@@SAXAAV?$allocator@U_Container_proxy@std@@@2@QAU_Container_proxy@2@I@Z
_TEXT	SEGMENT
___formal$ = 8						; size = 4
__Ptr$ = 12						; size = 4
__Count$ = 16						; size = 4
?deallocate@?$_Default_allocator_traits@V?$allocator@U_Container_proxy@std@@@std@@@std@@SAXAAV?$allocator@U_Container_proxy@std@@@2@QAU_Container_proxy@2@I@Z PROC ; std::_Default_allocator_traits<std::allocator<std::_Container_proxy> >::deallocate, COMDAT

; 847  : 		{	// deallocate _Count elements at _Ptr

	push	ebp
	mov	ebp, esp

; 848  : 		_Deallocate(_Ptr, _Count, sizeof(value_type));

	push	8
	mov	eax, DWORD PTR __Count$[ebp]
	push	eax
	mov	ecx, DWORD PTR __Ptr$[ebp]
	push	ecx
	call	?_Deallocate@std@@YAXPAXII@Z		; std::_Deallocate
	add	esp, 12					; 0000000cH

; 849  : 		}

	cmp	ebp, esp
	call	__RTC_CheckEsp
	pop	ebp
	ret	0
?deallocate@?$_Default_allocator_traits@V?$allocator@U_Container_proxy@std@@@std@@@std@@SAXAAV?$allocator@U_Container_proxy@std@@@2@QAU_Container_proxy@2@I@Z ENDP ; std::_Default_allocator_traits<std::allocator<std::_Container_proxy> >::deallocate
_TEXT	ENDS
; Function compile flags: /Odtp /RTCsu
; File c:\program files (x86)\microsoft visual studio\2017\community\vc\tools\msvc\14.11.25503\include\xmemory0
;	COMDAT ??$?0VNeuron@@@?$allocator@U_Container_proxy@std@@@std@@QAE@ABV?$allocator@VNeuron@@@1@@Z
_TEXT	SEGMENT
_this$ = -4						; size = 4
___formal$ = 8						; size = 4
??$?0VNeuron@@@?$allocator@U_Container_proxy@std@@@std@@QAE@ABV?$allocator@VNeuron@@@1@@Z PROC ; std::allocator<std::_Container_proxy>::allocator<std::_Container_proxy><Neuron>, COMDAT
; _this$ = ecx

; 936  : 		{	// construct from a related allocator (do nothing)

	push	ebp
	mov	ebp, esp
	push	ecx
	mov	DWORD PTR [ebp-4], -858993460		; ccccccccH
	mov	DWORD PTR _this$[ebp], ecx

; 937  : 		}

	mov	eax, DWORD PTR _this$[ebp]
	mov	esp, ebp
	pop	ebp
	ret	4
??$?0VNeuron@@@?$allocator@U_Container_proxy@std@@@std@@QAE@ABV?$allocator@VNeuron@@@1@@Z ENDP ; std::allocator<std::_Container_proxy>::allocator<std::_Container_proxy><Neuron>
_TEXT	ENDS
; Function compile flags: /Odtp /RTCsu
; File c:\program files (x86)\microsoft visual studio\2017\community\vc\tools\msvc\14.11.25503\include\xmemory0
;	COMDAT ?allocate@?$allocator@U_Container_proxy@std@@@std@@QAEPAU_Container_proxy@2@I@Z
_TEXT	SEGMENT
_this$ = -4						; size = 4
__Count$ = 8						; size = 4
?allocate@?$allocator@U_Container_proxy@std@@@std@@QAEPAU_Container_proxy@2@I@Z PROC ; std::allocator<std::_Container_proxy>::allocate, COMDAT
; _this$ = ecx

; 945  : 		{	// allocate array of _Count elements

	push	ebp
	mov	ebp, esp
	push	ecx
	mov	DWORD PTR [ebp-4], -858993460		; ccccccccH
	mov	DWORD PTR _this$[ebp], ecx

; 946  : 		return (static_cast<pointer>(_Allocate(_Count, sizeof(_Ty))));

	push	1
	push	8
	mov	eax, DWORD PTR __Count$[ebp]
	push	eax
	call	?_Allocate@std@@YAPAXII_N@Z		; std::_Allocate
	add	esp, 12					; 0000000cH

; 947  : 		}

	add	esp, 4
	cmp	ebp, esp
	call	__RTC_CheckEsp
	mov	esp, ebp
	pop	ebp
	ret	4
?allocate@?$allocator@U_Container_proxy@std@@@std@@QAEPAU_Container_proxy@2@I@Z ENDP ; std::allocator<std::_Container_proxy>::allocate
_TEXT	ENDS
; Function compile flags: /Odtp /RTCsu
; File c:\program files (x86)\microsoft visual studio\2017\community\vc\tools\msvc\14.11.25503\include\xmemory0
;	COMDAT ??$_Destroy_range@V?$allocator@N@std@@@std@@YAXPAN0AAV?$allocator@N@0@@Z
_TEXT	SEGMENT
$T1 = -1						; size = 1
__First$ = 8						; size = 4
__Last$ = 12						; size = 4
__Al$ = 16						; size = 4
??$_Destroy_range@V?$allocator@N@std@@@std@@YAXPAN0AAV?$allocator@N@0@@Z PROC ; std::_Destroy_range<std::allocator<double> >, COMDAT

; 1112 : 	{	// destroy [_First, _Last), choose optimization

	push	ebp
	mov	ebp, esp
	push	ecx
	mov	DWORD PTR [ebp-4], -858993460		; ccccccccH

; 1113 : 		// note that this is an optimization for debug mode codegen;
; 1114 : 		// in release mode the BE removes all of this
; 1115 : 	using _Val = typename _Alloc::value_type;
; 1116 : 	_Destroy_range1(_First, _Last, _Al, _Conjunction_t<

	movzx	eax, BYTE PTR $T1[ebp]
	push	eax
	mov	ecx, DWORD PTR __Al$[ebp]
	push	ecx
	mov	edx, DWORD PTR __Last$[ebp]
	push	edx
	mov	eax, DWORD PTR __First$[ebp]
	push	eax
	call	??$_Destroy_range1@V?$allocator@N@std@@@std@@YAXPAN0AAV?$allocator@N@0@U?$integral_constant@_N$00@0@@Z ; std::_Destroy_range1<std::allocator<double> >
	add	esp, 16					; 00000010H

; 1117 : 		is_trivially_destructible<_Val>,
; 1118 : 		_Uses_default_destroy<_Alloc, _Val *>>());
; 1119 : 	}

	add	esp, 4
	cmp	ebp, esp
	call	__RTC_CheckEsp
	mov	esp, ebp
	pop	ebp
	ret	0
??$_Destroy_range@V?$allocator@N@std@@@std@@YAXPAN0AAV?$allocator@N@0@@Z ENDP ; std::_Destroy_range<std::allocator<double> >
_TEXT	ENDS
; Function compile flags: /Odtp /RTCsu
; File c:\program files (x86)\microsoft visual studio\2017\community\vc\tools\msvc\14.11.25503\include\utility
;	COMDAT ??$_Min_value@I@std@@YAABIABI0@Z
_TEXT	SEGMENT
tv65 = -8						; size = 4
$T1 = -4						; size = 4
__Left$ = 8						; size = 4
__Right$ = 12						; size = 4
??$_Min_value@I@std@@YAABIABI0@Z PROC			; std::_Min_value<unsigned int>, COMDAT

; 22   : 	{	// return smaller of _Left and _Right

	push	ebp
	mov	ebp, esp
	sub	esp, 8
	mov	DWORD PTR [ebp-8], -858993460		; ccccccccH
	mov	DWORD PTR [ebp-4], -858993460		; ccccccccH

; 23   : 	return (_Right < _Left ? _Right : _Left);

	mov	eax, DWORD PTR __Right$[ebp]
	mov	ecx, DWORD PTR __Left$[ebp]
	mov	edx, DWORD PTR [eax]
	cmp	edx, DWORD PTR [ecx]
	jae	SHORT $LN3@Min_value
	mov	eax, DWORD PTR __Right$[ebp]
	mov	DWORD PTR tv65[ebp], eax
	jmp	SHORT $LN4@Min_value
$LN3@Min_value:
	mov	ecx, DWORD PTR __Left$[ebp]
	mov	DWORD PTR tv65[ebp], ecx
$LN4@Min_value:
	mov	edx, DWORD PTR tv65[ebp]
	mov	DWORD PTR $T1[ebp], edx
	mov	eax, DWORD PTR $T1[ebp]

; 24   : 	}

	mov	esp, ebp
	pop	ebp
	ret	0
??$_Min_value@I@std@@YAABIABI0@Z ENDP			; std::_Min_value<unsigned int>
_TEXT	ENDS
; Function compile flags: /Odtp /RTCsu
; File c:\program files (x86)\microsoft visual studio\2017\community\vc\tools\msvc\14.11.25503\include\xutility
;	COMDAT ??$?0$$V@?$_Compressed_pair@V?$allocator@V?$vector@VNeuron@@V?$allocator@VNeuron@@@std@@@std@@@std@@V?$_Vector_val@U?$_Simple_types@V?$vector@VNeuron@@V?$allocator@VNeuron@@@std@@@std@@@std@@@2@$00@std@@QAE@U_Zero_then_variadic_args_t@1@@Z
_TEXT	SEGMENT
_this$ = -4						; size = 4
___formal$ = 8						; size = 1
??$?0$$V@?$_Compressed_pair@V?$allocator@V?$vector@VNeuron@@V?$allocator@VNeuron@@@std@@@std@@@std@@V?$_Vector_val@U?$_Simple_types@V?$vector@VNeuron@@V?$allocator@VNeuron@@@std@@@std@@@std@@@2@$00@std@@QAE@U_Zero_then_variadic_args_t@1@@Z PROC ; std::_Compressed_pair<std::allocator<std::vector<Neuron,std::allocator<Neuron> > >,std::_Vector_val<std::_Simple_types<std::vector<Neuron,std::allocator<Neuron> > > >,1>::_Compressed_pair<std::allocator<std::vector<Neuron,std::allocator<Neuron> > >,std::_Vector_val<std::_Simple_types<std::vector<Neuron,std::allocator<Neuron> > > >,1><>, COMDAT
; _this$ = ecx

; 303  : 		{	// construct from forwarded values

	push	ebp
	mov	ebp, esp
	push	ecx
	mov	DWORD PTR [ebp-4], -858993460		; ccccccccH
	mov	DWORD PTR _this$[ebp], ecx

; 302  : 		: _Ty1(), _Myval2(_STD forward<_Other2>(_Val2)...)

	mov	ecx, DWORD PTR _this$[ebp]
	call	??0?$allocator@V?$vector@VNeuron@@V?$allocator@VNeuron@@@std@@@std@@@std@@QAE@XZ ; std::allocator<std::vector<Neuron,std::allocator<Neuron> > >::allocator<std::vector<Neuron,std::allocator<Neuron> > >
	mov	ecx, DWORD PTR _this$[ebp]
	call	??0?$_Vector_val@U?$_Simple_types@V?$vector@VNeuron@@V?$allocator@VNeuron@@@std@@@std@@@std@@@std@@QAE@XZ ; std::_Vector_val<std::_Simple_types<std::vector<Neuron,std::allocator<Neuron> > > >::_Vector_val<std::_Simple_types<std::vector<Neuron,std::allocator<Neuron> > > >

; 304  : 		}

	mov	eax, DWORD PTR _this$[ebp]
	add	esp, 4
	cmp	ebp, esp
	call	__RTC_CheckEsp
	mov	esp, ebp
	pop	ebp
	ret	4
??$?0$$V@?$_Compressed_pair@V?$allocator@V?$vector@VNeuron@@V?$allocator@VNeuron@@@std@@@std@@@std@@V?$_Vector_val@U?$_Simple_types@V?$vector@VNeuron@@V?$allocator@VNeuron@@@std@@@std@@@std@@@2@$00@std@@QAE@U_Zero_then_variadic_args_t@1@@Z ENDP ; std::_Compressed_pair<std::allocator<std::vector<Neuron,std::allocator<Neuron> > >,std::_Vector_val<std::_Simple_types<std::vector<Neuron,std::allocator<Neuron> > > >,1>::_Compressed_pair<std::allocator<std::vector<Neuron,std::allocator<Neuron> > >,std::_Vector_val<std::_Simple_types<std::vector<Neuron,std::allocator<Neuron> > > >,1><>
_TEXT	ENDS
; Function compile flags: /Odtp /RTCsu
; File c:\program files (x86)\microsoft visual studio\2017\community\vc\tools\msvc\14.11.25503\include\xutility
;	COMDAT ??$?0$$V@?$_Compressed_pair@V?$allocator@VNeuron@@@std@@V?$_Vector_val@U?$_Simple_types@VNeuron@@@std@@@2@$00@std@@QAE@U_Zero_then_variadic_args_t@1@@Z
_TEXT	SEGMENT
_this$ = -4						; size = 4
___formal$ = 8						; size = 1
??$?0$$V@?$_Compressed_pair@V?$allocator@VNeuron@@@std@@V?$_Vector_val@U?$_Simple_types@VNeuron@@@std@@@2@$00@std@@QAE@U_Zero_then_variadic_args_t@1@@Z PROC ; std::_Compressed_pair<std::allocator<Neuron>,std::_Vector_val<std::_Simple_types<Neuron> >,1>::_Compressed_pair<std::allocator<Neuron>,std::_Vector_val<std::_Simple_types<Neuron> >,1><>, COMDAT
; _this$ = ecx

; 303  : 		{	// construct from forwarded values

	push	ebp
	mov	ebp, esp
	push	ecx
	mov	DWORD PTR [ebp-4], -858993460		; ccccccccH
	mov	DWORD PTR _this$[ebp], ecx

; 302  : 		: _Ty1(), _Myval2(_STD forward<_Other2>(_Val2)...)

	mov	ecx, DWORD PTR _this$[ebp]
	call	??0?$allocator@VNeuron@@@std@@QAE@XZ	; std::allocator<Neuron>::allocator<Neuron>
	mov	ecx, DWORD PTR _this$[ebp]
	call	??0?$_Vector_val@U?$_Simple_types@VNeuron@@@std@@@std@@QAE@XZ ; std::_Vector_val<std::_Simple_types<Neuron> >::_Vector_val<std::_Simple_types<Neuron> >

; 304  : 		}

	mov	eax, DWORD PTR _this$[ebp]
	add	esp, 4
	cmp	ebp, esp
	call	__RTC_CheckEsp
	mov	esp, ebp
	pop	ebp
	ret	4
??$?0$$V@?$_Compressed_pair@V?$allocator@VNeuron@@@std@@V?$_Vector_val@U?$_Simple_types@VNeuron@@@std@@@2@$00@std@@QAE@U_Zero_then_variadic_args_t@1@@Z ENDP ; std::_Compressed_pair<std::allocator<Neuron>,std::_Vector_val<std::_Simple_types<Neuron> >,1>::_Compressed_pair<std::allocator<Neuron>,std::_Vector_val<std::_Simple_types<Neuron> >,1><>
_TEXT	ENDS
; Function compile flags: /Odtp /RTCsu
; File c:\program files (x86)\microsoft visual studio\2017\community\vc\tools\msvc\14.11.25503\include\xmemory0
;	COMDAT ??$destroy@VNeuron@@@?$_Default_allocator_traits@V?$allocator@VNeuron@@@std@@@std@@SAXAAV?$allocator@VNeuron@@@1@QAVNeuron@@@Z
_TEXT	SEGMENT
___formal$ = 8						; size = 4
__Ptr$ = 12						; size = 4
??$destroy@VNeuron@@@?$_Default_allocator_traits@V?$allocator@VNeuron@@@std@@@std@@SAXAAV?$allocator@VNeuron@@@1@QAVNeuron@@@Z PROC ; std::_Default_allocator_traits<std::allocator<Neuron> >::destroy<Neuron>, COMDAT

; 861  : 		{	// destroy object at _Ptr

	push	ebp
	mov	ebp, esp

; 862  : 		_Ptr->~_Uty();

	push	0
	mov	ecx, DWORD PTR __Ptr$[ebp]
	call	??_GNeuron@@QAEPAXI@Z

; 863  : 		}

	cmp	ebp, esp
	call	__RTC_CheckEsp
	pop	ebp
	ret	0
??$destroy@VNeuron@@@?$_Default_allocator_traits@V?$allocator@VNeuron@@@std@@@std@@SAXAAV?$allocator@VNeuron@@@1@QAVNeuron@@@Z ENDP ; std::_Default_allocator_traits<std::allocator<Neuron> >::destroy<Neuron>
_TEXT	ENDS
; Function compile flags: /Odtp /RTCsu
; File c:\program files (x86)\microsoft visual studio\2017\community\vc\tools\msvc\14.11.25503\include\xmemory0
;	COMDAT ??$construct@VNeuron@@V1@@?$_Default_allocator_traits@V?$allocator@VNeuron@@@std@@@std@@SAXAAV?$allocator@VNeuron@@@1@QAVNeuron@@$$QAV3@@Z
_TEXT	SEGMENT
$T2 = -20						; size = 4
$T3 = -16						; size = 4
__$EHRec$ = -12						; size = 12
___formal$ = 8						; size = 4
__Ptr$ = 12						; size = 4
_<_Args_0>$ = 16					; size = 4
??$construct@VNeuron@@V1@@?$_Default_allocator_traits@V?$allocator@VNeuron@@@std@@@std@@SAXAAV?$allocator@VNeuron@@@1@QAVNeuron@@$$QAV3@@Z PROC ; std::_Default_allocator_traits<std::allocator<Neuron> >::construct<Neuron,Neuron>, COMDAT

; 854  : 		{	// construct _Objty(_Types...) at _Ptr

	push	ebp
	mov	ebp, esp
	push	-1
	push	__ehhandler$??$construct@VNeuron@@V1@@?$_Default_allocator_traits@V?$allocator@VNeuron@@@std@@@std@@SAXAAV?$allocator@VNeuron@@@1@QAVNeuron@@$$QAV3@@Z
	mov	eax, DWORD PTR fs:0
	push	eax
	sub	esp, 8
	mov	DWORD PTR [ebp-20], -858993460		; ccccccccH
	mov	DWORD PTR [ebp-16], -858993460		; ccccccccH
	mov	eax, DWORD PTR ___security_cookie
	xor	eax, ebp
	push	eax
	lea	eax, DWORD PTR __$EHRec$[ebp]
	mov	DWORD PTR fs:0, eax

; 855  : 		::new (const_cast<void *>(static_cast<const volatile void *>(_Ptr)))

	mov	eax, DWORD PTR __Ptr$[ebp]
	push	eax
	push	40					; 00000028H
	call	??2@YAPAXIPAX@Z				; operator new
	add	esp, 8
	mov	DWORD PTR $T2[ebp], eax
	mov	DWORD PTR __$EHRec$[ebp+8], 0
	mov	ecx, DWORD PTR _<_Args_0>$[ebp]
	push	ecx
	call	??$forward@VNeuron@@@std@@YA$$QAVNeuron@@AAV1@@Z ; std::forward<Neuron>
	add	esp, 4
	push	eax
	mov	ecx, DWORD PTR $T2[ebp]
	call	??0Neuron@@QAE@ABV0@@Z
	mov	DWORD PTR $T3[ebp], eax
	mov	DWORD PTR __$EHRec$[ebp+8], -1

; 856  : 			_Objty(_STD forward<_Types>(_Args)...);
; 857  : 		}

	mov	ecx, DWORD PTR __$EHRec$[ebp]
	mov	DWORD PTR fs:0, ecx
	pop	ecx
	add	esp, 20					; 00000014H
	cmp	ebp, esp
	call	__RTC_CheckEsp
	mov	esp, ebp
	pop	ebp
	ret	0
_TEXT	ENDS
;	COMDAT text$x
text$x	SEGMENT
__unwindfunclet$??$construct@VNeuron@@V1@@?$_Default_allocator_traits@V?$allocator@VNeuron@@@std@@@std@@SAXAAV?$allocator@VNeuron@@@1@QAVNeuron@@$$QAV3@@Z$0:
	mov	eax, DWORD PTR __Ptr$[ebp]
	push	eax
	mov	eax, DWORD PTR $T2[ebp]
	push	eax
	call	??3@YAXPAX0@Z				; operator delete
	add	esp, 8
	ret	0
__ehhandler$??$construct@VNeuron@@V1@@?$_Default_allocator_traits@V?$allocator@VNeuron@@@std@@@std@@SAXAAV?$allocator@VNeuron@@@1@QAVNeuron@@$$QAV3@@Z:
	mov	edx, DWORD PTR [esp+8]
	lea	eax, DWORD PTR [edx+12]
	mov	ecx, DWORD PTR [edx-12]
	xor	ecx, eax
	call	@__security_check_cookie@4
	mov	eax, OFFSET __ehfuncinfo$??$construct@VNeuron@@V1@@?$_Default_allocator_traits@V?$allocator@VNeuron@@@std@@@std@@SAXAAV?$allocator@VNeuron@@@1@QAVNeuron@@$$QAV3@@Z
	jmp	___CxxFrameHandler3
text$x	ENDS
??$construct@VNeuron@@V1@@?$_Default_allocator_traits@V?$allocator@VNeuron@@@std@@@std@@SAXAAV?$allocator@VNeuron@@@1@QAVNeuron@@$$QAV3@@Z ENDP ; std::_Default_allocator_traits<std::allocator<Neuron> >::construct<Neuron,Neuron>
; Function compile flags: /Odtp /RTCsu
; File c:\program files (x86)\microsoft visual studio\2017\community\vc\tools\msvc\14.11.25503\include\xstddef
;	COMDAT ??$_Unfancy@VNeuron@@@std@@YAPAVNeuron@@PAV1@@Z
_TEXT	SEGMENT
__Ptr$ = 8						; size = 4
??$_Unfancy@VNeuron@@@std@@YAPAVNeuron@@PAV1@@Z PROC	; std::_Unfancy<Neuron>, COMDAT

; 264  : 	{	// do nothing for plain pointers

	push	ebp
	mov	ebp, esp

; 265  : 	return (_Ptr);

	mov	eax, DWORD PTR __Ptr$[ebp]

; 266  : 	}

	pop	ebp
	ret	0
??$_Unfancy@VNeuron@@@std@@YAPAVNeuron@@PAV1@@Z ENDP	; std::_Unfancy<Neuron>
_TEXT	ENDS
; Function compile flags: /Odtp /RTCsu
; File c:\program files (x86)\microsoft visual studio\2017\community\vc\tools\msvc\14.11.25503\include\vector
;	COMDAT ??$_Emplace_back_with_unused_capacity@VNeuron@@@?$vector@VNeuron@@V?$allocator@VNeuron@@@std@@@std@@AAEX$$QAVNeuron@@@Z
_TEXT	SEGMENT
tv136 = -8						; size = 4
_this$ = -4						; size = 4
_<_Val_0>$ = 8						; size = 4
??$_Emplace_back_with_unused_capacity@VNeuron@@@?$vector@VNeuron@@V?$allocator@VNeuron@@@std@@@std@@AAEX$$QAVNeuron@@@Z PROC ; std::vector<Neuron,std::allocator<Neuron> >::_Emplace_back_with_unused_capacity<Neuron>, COMDAT
; _this$ = ecx

; 927  : 		{	// insert by perfectly forwarding into element at end, provide strong guarantee

	push	ebp
	mov	ebp, esp
	sub	esp, 8
	mov	DWORD PTR [ebp-8], -858993460		; ccccccccH
	mov	DWORD PTR [ebp-4], -858993460		; ccccccccH
	mov	DWORD PTR _this$[ebp], ecx

; 928  : 			// Pre: _Has_unused_capacity()
; 929  : 		_Alty_traits::construct(this->_Getal(), _Unfancy(this->_Mylast()), _STD forward<_Valty>(_Val)...);

	mov	eax, DWORD PTR _<_Val_0>$[ebp]
	push	eax
	call	??$forward@VNeuron@@@std@@YA$$QAVNeuron@@AAV1@@Z ; std::forward<Neuron>
	add	esp, 4
	push	eax
	mov	ecx, DWORD PTR _this$[ebp]
	call	?_Mylast@?$_Vector_alloc@U?$_Vec_base_types@VNeuron@@V?$allocator@VNeuron@@@std@@@std@@@std@@QAEAAPAVNeuron@@XZ ; std::_Vector_alloc<std::_Vec_base_types<Neuron,std::allocator<Neuron> > >::_Mylast
	mov	ecx, DWORD PTR [eax]
	push	ecx
	call	??$_Unfancy@VNeuron@@@std@@YAPAVNeuron@@PAV1@@Z ; std::_Unfancy<Neuron>
	add	esp, 4
	push	eax
	mov	ecx, DWORD PTR _this$[ebp]
	call	?_Getal@?$_Vector_alloc@U?$_Vec_base_types@VNeuron@@V?$allocator@VNeuron@@@std@@@std@@@std@@QAEAAV?$allocator@VNeuron@@@2@XZ ; std::_Vector_alloc<std::_Vec_base_types<Neuron,std::allocator<Neuron> > >::_Getal
	push	eax
	call	??$construct@VNeuron@@V1@@?$_Default_allocator_traits@V?$allocator@VNeuron@@@std@@@std@@SAXAAV?$allocator@VNeuron@@@1@QAVNeuron@@$$QAV3@@Z ; std::_Default_allocator_traits<std::allocator<Neuron> >::construct<Neuron,Neuron>
	add	esp, 12					; 0000000cH

; 930  : 		_Orphan_range(this->_Mylast(), this->_Mylast());

	mov	ecx, DWORD PTR _this$[ebp]
	call	?_Mylast@?$_Vector_alloc@U?$_Vec_base_types@VNeuron@@V?$allocator@VNeuron@@@std@@@std@@@std@@QAEAAPAVNeuron@@XZ ; std::_Vector_alloc<std::_Vec_base_types<Neuron,std::allocator<Neuron> > >::_Mylast
	mov	edx, DWORD PTR [eax]
	push	edx
	mov	ecx, DWORD PTR _this$[ebp]
	call	?_Mylast@?$_Vector_alloc@U?$_Vec_base_types@VNeuron@@V?$allocator@VNeuron@@@std@@@std@@@std@@QAEAAPAVNeuron@@XZ ; std::_Vector_alloc<std::_Vec_base_types<Neuron,std::allocator<Neuron> > >::_Mylast
	mov	eax, DWORD PTR [eax]
	push	eax
	mov	ecx, DWORD PTR _this$[ebp]
	call	?_Orphan_range@?$vector@VNeuron@@V?$allocator@VNeuron@@@std@@@std@@ABEXPAVNeuron@@0@Z ; std::vector<Neuron,std::allocator<Neuron> >::_Orphan_range

; 931  : 		++this->_Mylast();

	mov	ecx, DWORD PTR _this$[ebp]
	call	?_Mylast@?$_Vector_alloc@U?$_Vec_base_types@VNeuron@@V?$allocator@VNeuron@@@std@@@std@@@std@@QAEAAPAVNeuron@@XZ ; std::_Vector_alloc<std::_Vec_base_types<Neuron,std::allocator<Neuron> > >::_Mylast
	mov	DWORD PTR tv136[ebp], eax
	mov	ecx, DWORD PTR tv136[ebp]
	mov	edx, DWORD PTR [ecx]
	add	edx, 40					; 00000028H
	mov	eax, DWORD PTR tv136[ebp]
	mov	DWORD PTR [eax], edx

; 932  : 		}

	add	esp, 8
	cmp	ebp, esp
	call	__RTC_CheckEsp
	mov	esp, ebp
	pop	ebp
	ret	4
??$_Emplace_back_with_unused_capacity@VNeuron@@@?$vector@VNeuron@@V?$allocator@VNeuron@@@std@@@std@@AAEX$$QAVNeuron@@@Z ENDP ; std::vector<Neuron,std::allocator<Neuron> >::_Emplace_back_with_unused_capacity<Neuron>
_TEXT	ENDS
; Function compile flags: /Odtp /RTCsu
; File c:\program files (x86)\microsoft visual studio\2017\community\vc\tools\msvc\14.11.25503\include\type_traits
;	COMDAT ??$forward@VNeuron@@@std@@YA$$QAVNeuron@@AAV1@@Z
_TEXT	SEGMENT
__Arg$ = 8						; size = 4
??$forward@VNeuron@@@std@@YA$$QAVNeuron@@AAV1@@Z PROC	; std::forward<Neuron>, COMDAT

; 1591 : 	{	// forward an lvalue as either an lvalue or an rvalue

	push	ebp
	mov	ebp, esp

; 1592 : 	return (static_cast<_Ty&&>(_Arg));

	mov	eax, DWORD PTR __Arg$[ebp]

; 1593 : 	}

	pop	ebp
	ret	0
??$forward@VNeuron@@@std@@YA$$QAVNeuron@@AAV1@@Z ENDP	; std::forward<Neuron>
_TEXT	ENDS
; Function compile flags: /Odtp /RTCsu
; File c:\program files (x86)\microsoft visual studio\2017\community\vc\tools\msvc\14.11.25503\include\vector
;	COMDAT ??$emplace_back@VNeuron@@@?$vector@VNeuron@@V?$allocator@VNeuron@@@std@@@std@@QAE@$$QAVNeuron@@@Z
_TEXT	SEGMENT
tv174 = -48						; size = 4
__Al$2 = -44						; size = 4
__Newvec$3 = -40					; size = 4
__Emplaced$4 = -33					; size = 1
__Newcapacity$5 = -32					; size = 4
__Newsize$6 = -28					; size = 4
__Oldsize$7 = -24					; size = 4
_this$ = -20						; size = 4
__$EHRec$ = -16						; size = 16
_<_Val_0>$ = 8						; size = 4
??$emplace_back@VNeuron@@@?$vector@VNeuron@@V?$allocator@VNeuron@@@std@@@std@@QAE@$$QAVNeuron@@@Z PROC ; std::vector<Neuron,std::allocator<Neuron> >::emplace_back<Neuron>, COMDAT
; _this$ = ecx

; 937  : 		{	// insert by perfectly forwarding into element at end, provide strong guarantee

	push	ebp
	mov	ebp, esp
	push	-1
	push	__ehhandler$??$emplace_back@VNeuron@@@?$vector@VNeuron@@V?$allocator@VNeuron@@@std@@@std@@QAE@$$QAVNeuron@@@Z
	mov	eax, DWORD PTR fs:0
	push	eax
	push	ecx
	sub	esp, 32					; 00000020H
	push	ebx
	push	esi
	push	edi
	mov	eax, -858993460				; ccccccccH
	mov	DWORD PTR [ebp-48], eax
	mov	DWORD PTR [ebp-44], eax
	mov	DWORD PTR [ebp-40], eax
	mov	DWORD PTR [ebp-36], eax
	mov	DWORD PTR [ebp-32], eax
	mov	DWORD PTR [ebp-28], eax
	mov	DWORD PTR [ebp-24], eax
	mov	DWORD PTR [ebp-20], eax
	mov	eax, DWORD PTR ___security_cookie
	xor	eax, ebp
	push	eax
	lea	eax, DWORD PTR __$EHRec$[ebp+4]
	mov	DWORD PTR fs:0, eax
	mov	DWORD PTR __$EHRec$[ebp], esp
	mov	DWORD PTR _this$[ebp], ecx

; 938  : 		if (_Has_unused_capacity())

	mov	ecx, DWORD PTR _this$[ebp]
	call	?_Has_unused_capacity@?$vector@VNeuron@@V?$allocator@VNeuron@@@std@@@std@@ABE_NXZ ; std::vector<Neuron,std::allocator<Neuron> >::_Has_unused_capacity
	movzx	eax, al
	test	eax, eax
	je	SHORT $LN2@emplace_ba

; 939  : 			{
; 940  : 			_Emplace_back_with_unused_capacity(_STD forward<_Valty>(_Val)...);

	mov	ecx, DWORD PTR _<_Val_0>$[ebp]
	push	ecx
	call	??$forward@VNeuron@@@std@@YA$$QAVNeuron@@AAV1@@Z ; std::forward<Neuron>
	add	esp, 4
	push	eax
	mov	ecx, DWORD PTR _this$[ebp]
	call	??$_Emplace_back_with_unused_capacity@VNeuron@@@?$vector@VNeuron@@V?$allocator@VNeuron@@@std@@@std@@AAEX$$QAVNeuron@@@Z ; std::vector<Neuron,std::allocator<Neuron> >::_Emplace_back_with_unused_capacity<Neuron>

; 941  : 			}
; 942  : 		else

	jmp	$LN7@emplace_ba
$LN2@emplace_ba:

; 943  : 			{	// reallocate
; 944  : 			const size_type _Oldsize = size();

	mov	ecx, DWORD PTR _this$[ebp]
	call	?size@?$vector@VNeuron@@V?$allocator@VNeuron@@@std@@@std@@QBEIXZ ; std::vector<Neuron,std::allocator<Neuron> >::size
	mov	DWORD PTR __Oldsize$7[ebp], eax

; 945  : 
; 946  : 			if (_Oldsize == max_size())

	mov	ecx, DWORD PTR _this$[ebp]
	call	?max_size@?$vector@VNeuron@@V?$allocator@VNeuron@@@std@@@std@@QBEIXZ ; std::vector<Neuron,std::allocator<Neuron> >::max_size
	cmp	DWORD PTR __Oldsize$7[ebp], eax
	jne	SHORT $LN4@emplace_ba

; 947  : 				{
; 948  : 				_Xlength();

	call	?_Xlength@?$vector@VNeuron@@V?$allocator@VNeuron@@@std@@@std@@CAXXZ ; std::vector<Neuron,std::allocator<Neuron> >::_Xlength
$LN4@emplace_ba:

; 949  : 				}
; 950  : 
; 951  : 			const size_type _Newsize = _Oldsize + 1;

	mov	edx, DWORD PTR __Oldsize$7[ebp]
	add	edx, 1
	mov	DWORD PTR __Newsize$6[ebp], edx

; 952  : 			const size_type _Newcapacity = _Calculate_growth(_Newsize);

	mov	eax, DWORD PTR __Newsize$6[ebp]
	push	eax
	mov	ecx, DWORD PTR _this$[ebp]
	call	?_Calculate_growth@?$vector@VNeuron@@V?$allocator@VNeuron@@@std@@@std@@ABEII@Z ; std::vector<Neuron,std::allocator<Neuron> >::_Calculate_growth
	mov	DWORD PTR __Newcapacity$5[ebp], eax

; 953  : 			bool _Emplaced = false;

	mov	BYTE PTR __Emplaced$4[ebp], 0

; 954  : 			const pointer _Newvec = this->_Getal().allocate(_Newcapacity);

	mov	ecx, DWORD PTR __Newcapacity$5[ebp]
	push	ecx
	mov	ecx, DWORD PTR _this$[ebp]
	call	?_Getal@?$_Vector_alloc@U?$_Vec_base_types@VNeuron@@V?$allocator@VNeuron@@@std@@@std@@@std@@QAEAAV?$allocator@VNeuron@@@2@XZ ; std::_Vector_alloc<std::_Vec_base_types<Neuron,std::allocator<Neuron> > >::_Getal
	mov	ecx, eax
	call	?allocate@?$allocator@VNeuron@@@std@@QAEPAVNeuron@@I@Z ; std::allocator<Neuron>::allocate
	mov	DWORD PTR __Newvec$3[ebp], eax

; 955  : 			_Alty& _Al = this->_Getal();

	mov	ecx, DWORD PTR _this$[ebp]
	call	?_Getal@?$_Vector_alloc@U?$_Vec_base_types@VNeuron@@V?$allocator@VNeuron@@@std@@@std@@@std@@QAEAAV?$allocator@VNeuron@@@2@XZ ; std::_Vector_alloc<std::_Vec_base_types<Neuron,std::allocator<Neuron> > >::_Getal
	mov	DWORD PTR __Al$2[ebp], eax

; 956  : 
; 957  : 			_TRY_BEGIN

	mov	DWORD PTR __$EHRec$[ebp+12], 0

; 958  : 			_Alty_traits::construct(_Al, _Unfancy(_Newvec + _Oldsize), _STD forward<_Valty>(_Val)...);

	imul	edx, DWORD PTR __Oldsize$7[ebp], 40
	add	edx, DWORD PTR __Newvec$3[ebp]
	push	edx
	call	??$_Unfancy@VNeuron@@@std@@YAPAVNeuron@@PAV1@@Z ; std::_Unfancy<Neuron>
	add	esp, 4
	mov	DWORD PTR tv174[ebp], eax
	mov	eax, DWORD PTR _<_Val_0>$[ebp]
	push	eax
	call	??$forward@VNeuron@@@std@@YA$$QAVNeuron@@AAV1@@Z ; std::forward<Neuron>
	add	esp, 4
	push	eax
	mov	ecx, DWORD PTR tv174[ebp]
	push	ecx
	mov	edx, DWORD PTR __Al$2[ebp]
	push	edx
	call	??$construct@VNeuron@@V1@@?$_Default_allocator_traits@V?$allocator@VNeuron@@@std@@@std@@SAXAAV?$allocator@VNeuron@@@1@QAVNeuron@@$$QAV3@@Z ; std::_Default_allocator_traits<std::allocator<Neuron> >::construct<Neuron,Neuron>
	add	esp, 12					; 0000000cH

; 959  : 			_Emplaced = true;

	mov	BYTE PTR __Emplaced$4[ebp], 1

; 960  : 			_Umove_if_noexcept(this->_Myfirst(), this->_Mylast(), _Newvec);

	mov	eax, DWORD PTR __Newvec$3[ebp]
	push	eax
	mov	ecx, DWORD PTR _this$[ebp]
	call	?_Mylast@?$_Vector_alloc@U?$_Vec_base_types@VNeuron@@V?$allocator@VNeuron@@@std@@@std@@@std@@QAEAAPAVNeuron@@XZ ; std::_Vector_alloc<std::_Vec_base_types<Neuron,std::allocator<Neuron> > >::_Mylast
	mov	ecx, DWORD PTR [eax]
	push	ecx
	mov	ecx, DWORD PTR _this$[ebp]
	call	?_Myfirst@?$_Vector_alloc@U?$_Vec_base_types@VNeuron@@V?$allocator@VNeuron@@@std@@@std@@@std@@QAEAAPAVNeuron@@XZ ; std::_Vector_alloc<std::_Vec_base_types<Neuron,std::allocator<Neuron> > >::_Myfirst
	mov	edx, DWORD PTR [eax]
	push	edx
	mov	ecx, DWORD PTR _this$[ebp]
	call	?_Umove_if_noexcept@?$vector@VNeuron@@V?$allocator@VNeuron@@@std@@@std@@AAEXPAVNeuron@@00@Z ; std::vector<Neuron,std::allocator<Neuron> >::_Umove_if_noexcept
	jmp	SHORT $LN8@emplace_ba
__catch$??$emplace_back@VNeuron@@@?$vector@VNeuron@@V?$allocator@VNeuron@@@std@@@std@@QAE@$$QAVNeuron@@@Z$0:

; 961  : 			_CATCH_ALL
; 962  : 			if (_Emplaced)

	movzx	eax, BYTE PTR __Emplaced$4[ebp]
	test	eax, eax
	je	SHORT $LN6@emplace_ba

; 963  : 				{
; 964  : 				_Alty_traits::destroy(_Al, _Unfancy(_Newvec + _Oldsize));

	imul	ecx, DWORD PTR __Oldsize$7[ebp], 40
	add	ecx, DWORD PTR __Newvec$3[ebp]
	push	ecx
	call	??$_Unfancy@VNeuron@@@std@@YAPAVNeuron@@PAV1@@Z ; std::_Unfancy<Neuron>
	add	esp, 4
	push	eax
	mov	edx, DWORD PTR __Al$2[ebp]
	push	edx
	call	??$destroy@VNeuron@@@?$_Default_allocator_traits@V?$allocator@VNeuron@@@std@@@std@@SAXAAV?$allocator@VNeuron@@@1@QAVNeuron@@@Z ; std::_Default_allocator_traits<std::allocator<Neuron> >::destroy<Neuron>
	add	esp, 8
$LN6@emplace_ba:

; 965  : 				}
; 966  : 
; 967  : 			_Al.deallocate(_Newvec, _Newcapacity);

	mov	eax, DWORD PTR __Newcapacity$5[ebp]
	push	eax
	mov	ecx, DWORD PTR __Newvec$3[ebp]
	push	ecx
	mov	ecx, DWORD PTR __Al$2[ebp]
	call	?deallocate@?$allocator@VNeuron@@@std@@QAEXQAVNeuron@@I@Z ; std::allocator<Neuron>::deallocate

; 968  : 			_RERAISE;

	push	0
	push	0
	call	__CxxThrowException@8

; 969  : 			_CATCH_END

	mov	eax, $LN11@emplace_ba
	ret	0
$LN8@emplace_ba:
	mov	DWORD PTR __$EHRec$[ebp+12], -1
	jmp	SHORT __tryend$??$emplace_back@VNeuron@@@?$vector@VNeuron@@V?$allocator@VNeuron@@@std@@@std@@QAE@$$QAVNeuron@@@Z$1
$LN11@emplace_ba:
	mov	DWORD PTR __$EHRec$[ebp+12], -1
__tryend$??$emplace_back@VNeuron@@@?$vector@VNeuron@@V?$allocator@VNeuron@@@std@@@std@@QAE@$$QAVNeuron@@@Z$1:

; 970  : 
; 971  : 			_Change_array(_Newvec, _Newsize, _Newcapacity);

	mov	edx, DWORD PTR __Newcapacity$5[ebp]
	push	edx
	mov	eax, DWORD PTR __Newsize$6[ebp]
	push	eax
	mov	ecx, DWORD PTR __Newvec$3[ebp]
	push	ecx
	mov	ecx, DWORD PTR _this$[ebp]
	call	?_Change_array@?$vector@VNeuron@@V?$allocator@VNeuron@@@std@@@std@@AAEXQAVNeuron@@II@Z ; std::vector<Neuron,std::allocator<Neuron> >::_Change_array
$LN7@emplace_ba:

; 972  : 			}
; 973  : 
; 974  : #if _HAS_CXX17
; 975  : 		return (this->_Mylast()[-1]);
; 976  : #endif /* _HAS_CXX17 */
; 977  : 		}

	mov	ecx, DWORD PTR __$EHRec$[ebp+4]
	mov	DWORD PTR fs:0, ecx
	pop	ecx
	pop	edi
	pop	esi
	pop	ebx
	add	esp, 48					; 00000030H
	cmp	ebp, esp
	call	__RTC_CheckEsp
	mov	esp, ebp
	pop	ebp
	ret	4
_TEXT	ENDS
;	COMDAT text$x
text$x	SEGMENT
__ehhandler$??$emplace_back@VNeuron@@@?$vector@VNeuron@@V?$allocator@VNeuron@@@std@@@std@@QAE@$$QAVNeuron@@@Z:
	mov	edx, DWORD PTR [esp+8]
	lea	eax, DWORD PTR [edx+12]
	mov	ecx, DWORD PTR [edx-52]
	xor	ecx, eax
	call	@__security_check_cookie@4
	mov	eax, OFFSET __ehfuncinfo$??$emplace_back@VNeuron@@@?$vector@VNeuron@@V?$allocator@VNeuron@@@std@@@std@@QAE@$$QAVNeuron@@@Z
	jmp	___CxxFrameHandler3
text$x	ENDS
??$emplace_back@VNeuron@@@?$vector@VNeuron@@V?$allocator@VNeuron@@@std@@@std@@QAE@$$QAVNeuron@@@Z ENDP ; std::vector<Neuron,std::allocator<Neuron> >::emplace_back<Neuron>
; Function compile flags: /Odtp /RTCsu
; File c:\program files (x86)\microsoft visual studio\2017\community\vc\tools\msvc\14.11.25503\include\type_traits
;	COMDAT ??$move@AAVNeuron@@@std@@YA$$QAVNeuron@@AAV1@@Z
_TEXT	SEGMENT
__Arg$ = 8						; size = 4
??$move@AAVNeuron@@@std@@YA$$QAVNeuron@@AAV1@@Z PROC	; std::move<Neuron &>, COMDAT

; 1606 : 	{	// forward _Arg as movable

	push	ebp
	mov	ebp, esp

; 1607 : 	return (static_cast<remove_reference_t<_Ty>&&>(_Arg));

	mov	eax, DWORD PTR __Arg$[ebp]

; 1608 : 	}

	pop	ebp
	ret	0
??$move@AAVNeuron@@@std@@YA$$QAVNeuron@@AAV1@@Z ENDP	; std::move<Neuron &>
_TEXT	ENDS
; Function compile flags: /Odtp /RTCsu
; File c:\program files (x86)\microsoft visual studio\2017\community\vc\tools\msvc\14.11.25503\include\xmemory0
;	COMDAT ??$destroy@N@?$_Default_allocator_traits@V?$allocator@N@std@@@std@@SAXAAV?$allocator@N@1@QAN@Z
_TEXT	SEGMENT
___formal$ = 8						; size = 4
__Ptr$ = 12						; size = 4
??$destroy@N@?$_Default_allocator_traits@V?$allocator@N@std@@@std@@SAXAAV?$allocator@N@1@QAN@Z PROC ; std::_Default_allocator_traits<std::allocator<double> >::destroy<double>, COMDAT

; 861  : 		{	// destroy object at _Ptr

	push	ebp
	mov	ebp, esp

; 862  : 		_Ptr->~_Uty();
; 863  : 		}

	pop	ebp
	ret	0
??$destroy@N@?$_Default_allocator_traits@V?$allocator@N@std@@@std@@SAXAAV?$allocator@N@1@QAN@Z ENDP ; std::_Default_allocator_traits<std::allocator<double> >::destroy<double>
_TEXT	ENDS
; Function compile flags: /Odtp /RTCsu
; File c:\program files (x86)\microsoft visual studio\2017\community\vc\tools\msvc\14.11.25503\include\xmemory0
;	COMDAT ??$construct@NN@?$_Default_allocator_traits@V?$allocator@N@std@@@std@@SAXAAV?$allocator@N@1@QAN$$QAN@Z
_TEXT	SEGMENT
$T1 = -4						; size = 4
___formal$ = 8						; size = 4
__Ptr$ = 12						; size = 4
_<_Args_0>$ = 16					; size = 4
??$construct@NN@?$_Default_allocator_traits@V?$allocator@N@std@@@std@@SAXAAV?$allocator@N@1@QAN$$QAN@Z PROC ; std::_Default_allocator_traits<std::allocator<double> >::construct<double,double>, COMDAT

; 854  : 		{	// construct _Objty(_Types...) at _Ptr

	push	ebp
	mov	ebp, esp
	push	ecx
	mov	DWORD PTR [ebp-4], -858993460		; ccccccccH

; 855  : 		::new (const_cast<void *>(static_cast<const volatile void *>(_Ptr)))

	mov	eax, DWORD PTR __Ptr$[ebp]
	push	eax
	push	8
	call	??2@YAPAXIPAX@Z				; operator new
	add	esp, 8
	mov	DWORD PTR $T1[ebp], eax
	mov	ecx, DWORD PTR _<_Args_0>$[ebp]
	push	ecx
	call	??$forward@N@std@@YA$$QANAAN@Z		; std::forward<double>
	add	esp, 4
	mov	edx, DWORD PTR $T1[ebp]
	movsd	xmm0, QWORD PTR [eax]
	movsd	QWORD PTR [edx], xmm0

; 856  : 			_Objty(_STD forward<_Types>(_Args)...);
; 857  : 		}

	add	esp, 4
	cmp	ebp, esp
	call	__RTC_CheckEsp
	mov	esp, ebp
	pop	ebp
	ret	0
??$construct@NN@?$_Default_allocator_traits@V?$allocator@N@std@@@std@@SAXAAV?$allocator@N@1@QAN$$QAN@Z ENDP ; std::_Default_allocator_traits<std::allocator<double> >::construct<double,double>
_TEXT	ENDS
; Function compile flags: /Odtp /RTCsu
; File c:\program files (x86)\microsoft visual studio\2017\community\vc\tools\msvc\14.11.25503\include\xstddef
;	COMDAT ??$_Unfancy@N@std@@YAPANPAN@Z
_TEXT	SEGMENT
__Ptr$ = 8						; size = 4
??$_Unfancy@N@std@@YAPANPAN@Z PROC			; std::_Unfancy<double>, COMDAT

; 264  : 	{	// do nothing for plain pointers

	push	ebp
	mov	ebp, esp

; 265  : 	return (_Ptr);

	mov	eax, DWORD PTR __Ptr$[ebp]

; 266  : 	}

	pop	ebp
	ret	0
??$_Unfancy@N@std@@YAPANPAN@Z ENDP			; std::_Unfancy<double>
_TEXT	ENDS
; Function compile flags: /Odtp /RTCsu
; File c:\program files (x86)\microsoft visual studio\2017\community\vc\tools\msvc\14.11.25503\include\vector
;	COMDAT ??$_Emplace_back_with_unused_capacity@N@?$vector@NV?$allocator@N@std@@@std@@AAEX$$QAN@Z
_TEXT	SEGMENT
tv136 = -8						; size = 4
_this$ = -4						; size = 4
_<_Val_0>$ = 8						; size = 4
??$_Emplace_back_with_unused_capacity@N@?$vector@NV?$allocator@N@std@@@std@@AAEX$$QAN@Z PROC ; std::vector<double,std::allocator<double> >::_Emplace_back_with_unused_capacity<double>, COMDAT
; _this$ = ecx

; 927  : 		{	// insert by perfectly forwarding into element at end, provide strong guarantee

	push	ebp
	mov	ebp, esp
	sub	esp, 8
	mov	DWORD PTR [ebp-8], -858993460		; ccccccccH
	mov	DWORD PTR [ebp-4], -858993460		; ccccccccH
	mov	DWORD PTR _this$[ebp], ecx

; 928  : 			// Pre: _Has_unused_capacity()
; 929  : 		_Alty_traits::construct(this->_Getal(), _Unfancy(this->_Mylast()), _STD forward<_Valty>(_Val)...);

	mov	eax, DWORD PTR _<_Val_0>$[ebp]
	push	eax
	call	??$forward@N@std@@YA$$QANAAN@Z		; std::forward<double>
	add	esp, 4
	push	eax
	mov	ecx, DWORD PTR _this$[ebp]
	call	?_Mylast@?$_Vector_alloc@U?$_Vec_base_types@NV?$allocator@N@std@@@std@@@std@@QAEAAPANXZ ; std::_Vector_alloc<std::_Vec_base_types<double,std::allocator<double> > >::_Mylast
	mov	ecx, DWORD PTR [eax]
	push	ecx
	call	??$_Unfancy@N@std@@YAPANPAN@Z		; std::_Unfancy<double>
	add	esp, 4
	push	eax
	mov	ecx, DWORD PTR _this$[ebp]
	call	?_Getal@?$_Vector_alloc@U?$_Vec_base_types@NV?$allocator@N@std@@@std@@@std@@QAEAAV?$allocator@N@2@XZ ; std::_Vector_alloc<std::_Vec_base_types<double,std::allocator<double> > >::_Getal
	push	eax
	call	??$construct@NN@?$_Default_allocator_traits@V?$allocator@N@std@@@std@@SAXAAV?$allocator@N@1@QAN$$QAN@Z ; std::_Default_allocator_traits<std::allocator<double> >::construct<double,double>
	add	esp, 12					; 0000000cH

; 930  : 		_Orphan_range(this->_Mylast(), this->_Mylast());

	mov	ecx, DWORD PTR _this$[ebp]
	call	?_Mylast@?$_Vector_alloc@U?$_Vec_base_types@NV?$allocator@N@std@@@std@@@std@@QAEAAPANXZ ; std::_Vector_alloc<std::_Vec_base_types<double,std::allocator<double> > >::_Mylast
	mov	edx, DWORD PTR [eax]
	push	edx
	mov	ecx, DWORD PTR _this$[ebp]
	call	?_Mylast@?$_Vector_alloc@U?$_Vec_base_types@NV?$allocator@N@std@@@std@@@std@@QAEAAPANXZ ; std::_Vector_alloc<std::_Vec_base_types<double,std::allocator<double> > >::_Mylast
	mov	eax, DWORD PTR [eax]
	push	eax
	mov	ecx, DWORD PTR _this$[ebp]
	call	?_Orphan_range@?$vector@NV?$allocator@N@std@@@std@@ABEXPAN0@Z ; std::vector<double,std::allocator<double> >::_Orphan_range

; 931  : 		++this->_Mylast();

	mov	ecx, DWORD PTR _this$[ebp]
	call	?_Mylast@?$_Vector_alloc@U?$_Vec_base_types@NV?$allocator@N@std@@@std@@@std@@QAEAAPANXZ ; std::_Vector_alloc<std::_Vec_base_types<double,std::allocator<double> > >::_Mylast
	mov	DWORD PTR tv136[ebp], eax
	mov	ecx, DWORD PTR tv136[ebp]
	mov	edx, DWORD PTR [ecx]
	add	edx, 8
	mov	eax, DWORD PTR tv136[ebp]
	mov	DWORD PTR [eax], edx

; 932  : 		}

	add	esp, 8
	cmp	ebp, esp
	call	__RTC_CheckEsp
	mov	esp, ebp
	pop	ebp
	ret	4
??$_Emplace_back_with_unused_capacity@N@?$vector@NV?$allocator@N@std@@@std@@AAEX$$QAN@Z ENDP ; std::vector<double,std::allocator<double> >::_Emplace_back_with_unused_capacity<double>
_TEXT	ENDS
; Function compile flags: /Odtp /RTCsu
; File c:\program files (x86)\microsoft visual studio\2017\community\vc\tools\msvc\14.11.25503\include\type_traits
;	COMDAT ??$forward@N@std@@YA$$QANAAN@Z
_TEXT	SEGMENT
__Arg$ = 8						; size = 4
??$forward@N@std@@YA$$QANAAN@Z PROC			; std::forward<double>, COMDAT

; 1591 : 	{	// forward an lvalue as either an lvalue or an rvalue

	push	ebp
	mov	ebp, esp

; 1592 : 	return (static_cast<_Ty&&>(_Arg));

	mov	eax, DWORD PTR __Arg$[ebp]

; 1593 : 	}

	pop	ebp
	ret	0
??$forward@N@std@@YA$$QANAAN@Z ENDP			; std::forward<double>
_TEXT	ENDS
; Function compile flags: /Odtp /RTCsu
; File c:\program files (x86)\microsoft visual studio\2017\community\vc\tools\msvc\14.11.25503\include\vector
;	COMDAT ??$emplace_back@N@?$vector@NV?$allocator@N@std@@@std@@QAE@$$QAN@Z
_TEXT	SEGMENT
tv174 = -48						; size = 4
__Al$2 = -44						; size = 4
__Newvec$3 = -40					; size = 4
__Emplaced$4 = -33					; size = 1
__Newcapacity$5 = -32					; size = 4
__Newsize$6 = -28					; size = 4
__Oldsize$7 = -24					; size = 4
_this$ = -20						; size = 4
__$EHRec$ = -16						; size = 16
_<_Val_0>$ = 8						; size = 4
??$emplace_back@N@?$vector@NV?$allocator@N@std@@@std@@QAE@$$QAN@Z PROC ; std::vector<double,std::allocator<double> >::emplace_back<double>, COMDAT
; _this$ = ecx

; 937  : 		{	// insert by perfectly forwarding into element at end, provide strong guarantee

	push	ebp
	mov	ebp, esp
	push	-1
	push	__ehhandler$??$emplace_back@N@?$vector@NV?$allocator@N@std@@@std@@QAE@$$QAN@Z
	mov	eax, DWORD PTR fs:0
	push	eax
	push	ecx
	sub	esp, 32					; 00000020H
	push	ebx
	push	esi
	push	edi
	mov	eax, -858993460				; ccccccccH
	mov	DWORD PTR [ebp-48], eax
	mov	DWORD PTR [ebp-44], eax
	mov	DWORD PTR [ebp-40], eax
	mov	DWORD PTR [ebp-36], eax
	mov	DWORD PTR [ebp-32], eax
	mov	DWORD PTR [ebp-28], eax
	mov	DWORD PTR [ebp-24], eax
	mov	DWORD PTR [ebp-20], eax
	mov	eax, DWORD PTR ___security_cookie
	xor	eax, ebp
	push	eax
	lea	eax, DWORD PTR __$EHRec$[ebp+4]
	mov	DWORD PTR fs:0, eax
	mov	DWORD PTR __$EHRec$[ebp], esp
	mov	DWORD PTR _this$[ebp], ecx

; 938  : 		if (_Has_unused_capacity())

	mov	ecx, DWORD PTR _this$[ebp]
	call	?_Has_unused_capacity@?$vector@NV?$allocator@N@std@@@std@@ABE_NXZ ; std::vector<double,std::allocator<double> >::_Has_unused_capacity
	movzx	eax, al
	test	eax, eax
	je	SHORT $LN2@emplace_ba

; 939  : 			{
; 940  : 			_Emplace_back_with_unused_capacity(_STD forward<_Valty>(_Val)...);

	mov	ecx, DWORD PTR _<_Val_0>$[ebp]
	push	ecx
	call	??$forward@N@std@@YA$$QANAAN@Z		; std::forward<double>
	add	esp, 4
	push	eax
	mov	ecx, DWORD PTR _this$[ebp]
	call	??$_Emplace_back_with_unused_capacity@N@?$vector@NV?$allocator@N@std@@@std@@AAEX$$QAN@Z ; std::vector<double,std::allocator<double> >::_Emplace_back_with_unused_capacity<double>

; 941  : 			}
; 942  : 		else

	jmp	$LN7@emplace_ba
$LN2@emplace_ba:

; 943  : 			{	// reallocate
; 944  : 			const size_type _Oldsize = size();

	mov	ecx, DWORD PTR _this$[ebp]
	call	?size@?$vector@NV?$allocator@N@std@@@std@@QBEIXZ ; std::vector<double,std::allocator<double> >::size
	mov	DWORD PTR __Oldsize$7[ebp], eax

; 945  : 
; 946  : 			if (_Oldsize == max_size())

	mov	ecx, DWORD PTR _this$[ebp]
	call	?max_size@?$vector@NV?$allocator@N@std@@@std@@QBEIXZ ; std::vector<double,std::allocator<double> >::max_size
	cmp	DWORD PTR __Oldsize$7[ebp], eax
	jne	SHORT $LN4@emplace_ba

; 947  : 				{
; 948  : 				_Xlength();

	call	?_Xlength@?$vector@NV?$allocator@N@std@@@std@@CAXXZ ; std::vector<double,std::allocator<double> >::_Xlength
$LN4@emplace_ba:

; 949  : 				}
; 950  : 
; 951  : 			const size_type _Newsize = _Oldsize + 1;

	mov	edx, DWORD PTR __Oldsize$7[ebp]
	add	edx, 1
	mov	DWORD PTR __Newsize$6[ebp], edx

; 952  : 			const size_type _Newcapacity = _Calculate_growth(_Newsize);

	mov	eax, DWORD PTR __Newsize$6[ebp]
	push	eax
	mov	ecx, DWORD PTR _this$[ebp]
	call	?_Calculate_growth@?$vector@NV?$allocator@N@std@@@std@@ABEII@Z ; std::vector<double,std::allocator<double> >::_Calculate_growth
	mov	DWORD PTR __Newcapacity$5[ebp], eax

; 953  : 			bool _Emplaced = false;

	mov	BYTE PTR __Emplaced$4[ebp], 0

; 954  : 			const pointer _Newvec = this->_Getal().allocate(_Newcapacity);

	mov	ecx, DWORD PTR __Newcapacity$5[ebp]
	push	ecx
	mov	ecx, DWORD PTR _this$[ebp]
	call	?_Getal@?$_Vector_alloc@U?$_Vec_base_types@NV?$allocator@N@std@@@std@@@std@@QAEAAV?$allocator@N@2@XZ ; std::_Vector_alloc<std::_Vec_base_types<double,std::allocator<double> > >::_Getal
	mov	ecx, eax
	call	?allocate@?$allocator@N@std@@QAEPANI@Z	; std::allocator<double>::allocate
	mov	DWORD PTR __Newvec$3[ebp], eax

; 955  : 			_Alty& _Al = this->_Getal();

	mov	ecx, DWORD PTR _this$[ebp]
	call	?_Getal@?$_Vector_alloc@U?$_Vec_base_types@NV?$allocator@N@std@@@std@@@std@@QAEAAV?$allocator@N@2@XZ ; std::_Vector_alloc<std::_Vec_base_types<double,std::allocator<double> > >::_Getal
	mov	DWORD PTR __Al$2[ebp], eax

; 956  : 
; 957  : 			_TRY_BEGIN

	mov	DWORD PTR __$EHRec$[ebp+12], 0

; 958  : 			_Alty_traits::construct(_Al, _Unfancy(_Newvec + _Oldsize), _STD forward<_Valty>(_Val)...);

	mov	edx, DWORD PTR __Oldsize$7[ebp]
	mov	eax, DWORD PTR __Newvec$3[ebp]
	lea	ecx, DWORD PTR [eax+edx*8]
	push	ecx
	call	??$_Unfancy@N@std@@YAPANPAN@Z		; std::_Unfancy<double>
	add	esp, 4
	mov	DWORD PTR tv174[ebp], eax
	mov	edx, DWORD PTR _<_Val_0>$[ebp]
	push	edx
	call	??$forward@N@std@@YA$$QANAAN@Z		; std::forward<double>
	add	esp, 4
	push	eax
	mov	eax, DWORD PTR tv174[ebp]
	push	eax
	mov	ecx, DWORD PTR __Al$2[ebp]
	push	ecx
	call	??$construct@NN@?$_Default_allocator_traits@V?$allocator@N@std@@@std@@SAXAAV?$allocator@N@1@QAN$$QAN@Z ; std::_Default_allocator_traits<std::allocator<double> >::construct<double,double>
	add	esp, 12					; 0000000cH

; 959  : 			_Emplaced = true;

	mov	BYTE PTR __Emplaced$4[ebp], 1

; 960  : 			_Umove_if_noexcept(this->_Myfirst(), this->_Mylast(), _Newvec);

	mov	edx, DWORD PTR __Newvec$3[ebp]
	push	edx
	mov	ecx, DWORD PTR _this$[ebp]
	call	?_Mylast@?$_Vector_alloc@U?$_Vec_base_types@NV?$allocator@N@std@@@std@@@std@@QAEAAPANXZ ; std::_Vector_alloc<std::_Vec_base_types<double,std::allocator<double> > >::_Mylast
	mov	eax, DWORD PTR [eax]
	push	eax
	mov	ecx, DWORD PTR _this$[ebp]
	call	?_Myfirst@?$_Vector_alloc@U?$_Vec_base_types@NV?$allocator@N@std@@@std@@@std@@QAEAAPANXZ ; std::_Vector_alloc<std::_Vec_base_types<double,std::allocator<double> > >::_Myfirst
	mov	ecx, DWORD PTR [eax]
	push	ecx
	mov	ecx, DWORD PTR _this$[ebp]
	call	?_Umove_if_noexcept@?$vector@NV?$allocator@N@std@@@std@@AAEXPAN00@Z ; std::vector<double,std::allocator<double> >::_Umove_if_noexcept
	jmp	SHORT $LN8@emplace_ba
__catch$??$emplace_back@N@?$vector@NV?$allocator@N@std@@@std@@QAE@$$QAN@Z$0:

; 961  : 			_CATCH_ALL
; 962  : 			if (_Emplaced)

	movzx	edx, BYTE PTR __Emplaced$4[ebp]
	test	edx, edx
	je	SHORT $LN6@emplace_ba

; 963  : 				{
; 964  : 				_Alty_traits::destroy(_Al, _Unfancy(_Newvec + _Oldsize));

	mov	eax, DWORD PTR __Oldsize$7[ebp]
	mov	ecx, DWORD PTR __Newvec$3[ebp]
	lea	edx, DWORD PTR [ecx+eax*8]
	push	edx
	call	??$_Unfancy@N@std@@YAPANPAN@Z		; std::_Unfancy<double>
	add	esp, 4
	push	eax
	mov	eax, DWORD PTR __Al$2[ebp]
	push	eax
	call	??$destroy@N@?$_Default_allocator_traits@V?$allocator@N@std@@@std@@SAXAAV?$allocator@N@1@QAN@Z ; std::_Default_allocator_traits<std::allocator<double> >::destroy<double>
	add	esp, 8
$LN6@emplace_ba:

; 965  : 				}
; 966  : 
; 967  : 			_Al.deallocate(_Newvec, _Newcapacity);

	mov	ecx, DWORD PTR __Newcapacity$5[ebp]
	push	ecx
	mov	edx, DWORD PTR __Newvec$3[ebp]
	push	edx
	mov	ecx, DWORD PTR __Al$2[ebp]
	call	?deallocate@?$allocator@N@std@@QAEXQANI@Z ; std::allocator<double>::deallocate

; 968  : 			_RERAISE;

	push	0
	push	0
	call	__CxxThrowException@8

; 969  : 			_CATCH_END

	mov	eax, $LN11@emplace_ba
	ret	0
$LN8@emplace_ba:
	mov	DWORD PTR __$EHRec$[ebp+12], -1
	jmp	SHORT __tryend$??$emplace_back@N@?$vector@NV?$allocator@N@std@@@std@@QAE@$$QAN@Z$1
$LN11@emplace_ba:
	mov	DWORD PTR __$EHRec$[ebp+12], -1
__tryend$??$emplace_back@N@?$vector@NV?$allocator@N@std@@@std@@QAE@$$QAN@Z$1:

; 970  : 
; 971  : 			_Change_array(_Newvec, _Newsize, _Newcapacity);

	mov	eax, DWORD PTR __Newcapacity$5[ebp]
	push	eax
	mov	ecx, DWORD PTR __Newsize$6[ebp]
	push	ecx
	mov	edx, DWORD PTR __Newvec$3[ebp]
	push	edx
	mov	ecx, DWORD PTR _this$[ebp]
	call	?_Change_array@?$vector@NV?$allocator@N@std@@@std@@AAEXQANII@Z ; std::vector<double,std::allocator<double> >::_Change_array
$LN7@emplace_ba:

; 972  : 			}
; 973  : 
; 974  : #if _HAS_CXX17
; 975  : 		return (this->_Mylast()[-1]);
; 976  : #endif /* _HAS_CXX17 */
; 977  : 		}

	mov	ecx, DWORD PTR __$EHRec$[ebp+4]
	mov	DWORD PTR fs:0, ecx
	pop	ecx
	pop	edi
	pop	esi
	pop	ebx
	add	esp, 48					; 00000030H
	cmp	ebp, esp
	call	__RTC_CheckEsp
	mov	esp, ebp
	pop	ebp
	ret	4
_TEXT	ENDS
;	COMDAT text$x
text$x	SEGMENT
__ehhandler$??$emplace_back@N@?$vector@NV?$allocator@N@std@@@std@@QAE@$$QAN@Z:
	mov	edx, DWORD PTR [esp+8]
	lea	eax, DWORD PTR [edx+12]
	mov	ecx, DWORD PTR [edx-52]
	xor	ecx, eax
	call	@__security_check_cookie@4
	mov	eax, OFFSET __ehfuncinfo$??$emplace_back@N@?$vector@NV?$allocator@N@std@@@std@@QAE@$$QAN@Z
	jmp	___CxxFrameHandler3
text$x	ENDS
??$emplace_back@N@?$vector@NV?$allocator@N@std@@@std@@QAE@$$QAN@Z ENDP ; std::vector<double,std::allocator<double> >::emplace_back<double>
; Function compile flags: /Odtp /RTCsu
; File c:\program files (x86)\microsoft visual studio\2017\community\vc\tools\msvc\14.11.25503\include\type_traits
;	COMDAT ??$move@AAN@std@@YA$$QANAAN@Z
_TEXT	SEGMENT
__Arg$ = 8						; size = 4
??$move@AAN@std@@YA$$QANAAN@Z PROC			; std::move<double &>, COMDAT

; 1606 : 	{	// forward _Arg as movable

	push	ebp
	mov	ebp, esp

; 1607 : 	return (static_cast<remove_reference_t<_Ty>&&>(_Arg));

	mov	eax, DWORD PTR __Arg$[ebp]

; 1608 : 	}

	pop	ebp
	ret	0
??$move@AAN@std@@YA$$QANAAN@Z ENDP			; std::move<double &>
_TEXT	ENDS
; Function compile flags: /Odtp /RTCsu
; File c:\program files (x86)\microsoft visual studio\2017\community\vc\tools\msvc\14.11.25503\include\xmemory0
;	COMDAT ??$destroy@V?$vector@VNeuron@@V?$allocator@VNeuron@@@std@@@std@@@?$_Default_allocator_traits@V?$allocator@V?$vector@VNeuron@@V?$allocator@VNeuron@@@std@@@std@@@std@@@std@@SAXAAV?$allocator@V?$vector@VNeuron@@V?$allocator@VNeuron@@@std@@@std@@@1@QAV?$vector@VNeuron@@V?$allocator@VNeuron@@@std@@@1@@Z
_TEXT	SEGMENT
___formal$ = 8						; size = 4
__Ptr$ = 12						; size = 4
??$destroy@V?$vector@VNeuron@@V?$allocator@VNeuron@@@std@@@std@@@?$_Default_allocator_traits@V?$allocator@V?$vector@VNeuron@@V?$allocator@VNeuron@@@std@@@std@@@std@@@std@@SAXAAV?$allocator@V?$vector@VNeuron@@V?$allocator@VNeuron@@@std@@@std@@@1@QAV?$vector@VNeuron@@V?$allocator@VNeuron@@@std@@@1@@Z PROC ; std::_Default_allocator_traits<std::allocator<std::vector<Neuron,std::allocator<Neuron> > > >::destroy<std::vector<Neuron,std::allocator<Neuron> > >, COMDAT

; 861  : 		{	// destroy object at _Ptr

	push	ebp
	mov	ebp, esp

; 862  : 		_Ptr->~_Uty();

	push	0
	mov	ecx, DWORD PTR __Ptr$[ebp]
	call	??_G?$vector@VNeuron@@V?$allocator@VNeuron@@@std@@@std@@QAEPAXI@Z

; 863  : 		}

	cmp	ebp, esp
	call	__RTC_CheckEsp
	pop	ebp
	ret	0
??$destroy@V?$vector@VNeuron@@V?$allocator@VNeuron@@@std@@@std@@@?$_Default_allocator_traits@V?$allocator@V?$vector@VNeuron@@V?$allocator@VNeuron@@@std@@@std@@@std@@@std@@SAXAAV?$allocator@V?$vector@VNeuron@@V?$allocator@VNeuron@@@std@@@std@@@1@QAV?$vector@VNeuron@@V?$allocator@VNeuron@@@std@@@1@@Z ENDP ; std::_Default_allocator_traits<std::allocator<std::vector<Neuron,std::allocator<Neuron> > > >::destroy<std::vector<Neuron,std::allocator<Neuron> > >
_TEXT	ENDS
; Function compile flags: /Odtp /RTCsu
; File c:\program files (x86)\microsoft visual studio\2017\community\vc\tools\msvc\14.11.25503\include\xmemory0
;	COMDAT ??$construct@V?$vector@VNeuron@@V?$allocator@VNeuron@@@std@@@std@@V12@@?$_Default_allocator_traits@V?$allocator@V?$vector@VNeuron@@V?$allocator@VNeuron@@@std@@@std@@@std@@@std@@SAXAAV?$allocator@V?$vector@VNeuron@@V?$allocator@VNeuron@@@std@@@std@@@1@QAV?$vector@VNeuron@@V?$allocator@VNeuron@@@std@@@1@$$QAV31@@Z
_TEXT	SEGMENT
$T1 = -4						; size = 4
___formal$ = 8						; size = 4
__Ptr$ = 12						; size = 4
_<_Args_0>$ = 16					; size = 4
??$construct@V?$vector@VNeuron@@V?$allocator@VNeuron@@@std@@@std@@V12@@?$_Default_allocator_traits@V?$allocator@V?$vector@VNeuron@@V?$allocator@VNeuron@@@std@@@std@@@std@@@std@@SAXAAV?$allocator@V?$vector@VNeuron@@V?$allocator@VNeuron@@@std@@@std@@@1@QAV?$vector@VNeuron@@V?$allocator@VNeuron@@@std@@@1@$$QAV31@@Z PROC ; std::_Default_allocator_traits<std::allocator<std::vector<Neuron,std::allocator<Neuron> > > >::construct<std::vector<Neuron,std::allocator<Neuron> >,std::vector<Neuron,std::allocator<Neuron> > >, COMDAT

; 854  : 		{	// construct _Objty(_Types...) at _Ptr

	push	ebp
	mov	ebp, esp
	push	ecx
	mov	DWORD PTR [ebp-4], -858993460		; ccccccccH

; 855  : 		::new (const_cast<void *>(static_cast<const volatile void *>(_Ptr)))

	mov	eax, DWORD PTR __Ptr$[ebp]
	push	eax
	push	16					; 00000010H
	call	??2@YAPAXIPAX@Z				; operator new
	add	esp, 8
	mov	DWORD PTR $T1[ebp], eax
	mov	ecx, DWORD PTR _<_Args_0>$[ebp]
	push	ecx
	call	??$forward@V?$vector@VNeuron@@V?$allocator@VNeuron@@@std@@@std@@@std@@YA$$QAV?$vector@VNeuron@@V?$allocator@VNeuron@@@std@@@0@AAV10@@Z ; std::forward<std::vector<Neuron,std::allocator<Neuron> > >
	add	esp, 4
	push	eax
	mov	ecx, DWORD PTR $T1[ebp]
	call	??0?$vector@VNeuron@@V?$allocator@VNeuron@@@std@@@std@@QAE@$$QAV01@@Z ; std::vector<Neuron,std::allocator<Neuron> >::vector<Neuron,std::allocator<Neuron> >

; 856  : 			_Objty(_STD forward<_Types>(_Args)...);
; 857  : 		}

	add	esp, 4
	cmp	ebp, esp
	call	__RTC_CheckEsp
	mov	esp, ebp
	pop	ebp
	ret	0
??$construct@V?$vector@VNeuron@@V?$allocator@VNeuron@@@std@@@std@@V12@@?$_Default_allocator_traits@V?$allocator@V?$vector@VNeuron@@V?$allocator@VNeuron@@@std@@@std@@@std@@@std@@SAXAAV?$allocator@V?$vector@VNeuron@@V?$allocator@VNeuron@@@std@@@std@@@1@QAV?$vector@VNeuron@@V?$allocator@VNeuron@@@std@@@1@$$QAV31@@Z ENDP ; std::_Default_allocator_traits<std::allocator<std::vector<Neuron,std::allocator<Neuron> > > >::construct<std::vector<Neuron,std::allocator<Neuron> >,std::vector<Neuron,std::allocator<Neuron> > >
_TEXT	ENDS
; Function compile flags: /Odtp /RTCsu
; File c:\program files (x86)\microsoft visual studio\2017\community\vc\tools\msvc\14.11.25503\include\xstddef
;	COMDAT ??$_Unfancy@V?$vector@VNeuron@@V?$allocator@VNeuron@@@std@@@std@@@std@@YAPAV?$vector@VNeuron@@V?$allocator@VNeuron@@@std@@@0@PAV10@@Z
_TEXT	SEGMENT
__Ptr$ = 8						; size = 4
??$_Unfancy@V?$vector@VNeuron@@V?$allocator@VNeuron@@@std@@@std@@@std@@YAPAV?$vector@VNeuron@@V?$allocator@VNeuron@@@std@@@0@PAV10@@Z PROC ; std::_Unfancy<std::vector<Neuron,std::allocator<Neuron> > >, COMDAT

; 264  : 	{	// do nothing for plain pointers

	push	ebp
	mov	ebp, esp

; 265  : 	return (_Ptr);

	mov	eax, DWORD PTR __Ptr$[ebp]

; 266  : 	}

	pop	ebp
	ret	0
??$_Unfancy@V?$vector@VNeuron@@V?$allocator@VNeuron@@@std@@@std@@@std@@YAPAV?$vector@VNeuron@@V?$allocator@VNeuron@@@std@@@0@PAV10@@Z ENDP ; std::_Unfancy<std::vector<Neuron,std::allocator<Neuron> > >
_TEXT	ENDS
; Function compile flags: /Odtp /RTCsu
; File c:\program files (x86)\microsoft visual studio\2017\community\vc\tools\msvc\14.11.25503\include\vector
