; Listing generated by Microsoft (R) Optimizing Compiler Version 19.11.25547.0 

	TITLE	D:\8IAR125 - Intelligence artificielle pour le jeu vidéo\ProjetFinal\Common\Messaging\MessageDispatcher.cpp
	.686P
	.XMM
	include listing.inc
	.model	flat

INCLUDELIB LIBCMTD
INCLUDELIB OLDNAMES

PUBLIC	?__empty_global_delete@@YAXPAX@Z		; __empty_global_delete
PUBLIC	?__empty_global_delete@@YAXPAXI@Z		; __empty_global_delete
PUBLIC	?max@?$numeric_limits@H@std@@SAHXZ		; std::numeric_limits<int>::max
PUBLIC	?min@?$numeric_limits@M@std@@SAMXZ		; std::numeric_limits<float>::min
PUBLIC	?max@?$numeric_limits@M@std@@SAMXZ		; std::numeric_limits<float>::max
PUBLIC	?min@?$numeric_limits@N@std@@SANXZ		; std::numeric_limits<double>::min
PUBLIC	?max@?$numeric_limits@N@std@@SANXZ		; std::numeric_limits<double>::max
PUBLIC	??2@YAPAXIPAX@Z					; operator new
PUBLIC	??0_Container_proxy@std@@QAE@XZ			; std::_Container_proxy::_Container_proxy
PUBLIC	??0_Container_base12@std@@QAE@XZ		; std::_Container_base12::_Container_base12
PUBLIC	??1_Container_base12@std@@QAE@XZ		; std::_Container_base12::~_Container_base12
PUBLIC	?_Getpfirst@_Container_base12@std@@QBEPAPAU_Iterator_base12@2@XZ ; std::_Container_base12::_Getpfirst
PUBLIC	?_Orphan_all@_Container_base12@std@@QAEXXZ	; std::_Container_base12::_Orphan_all
PUBLIC	??0_Iterator_base12@std@@QAE@XZ			; std::_Iterator_base12::_Iterator_base12
PUBLIC	??0_Iterator_base12@std@@QAE@ABU01@@Z		; std::_Iterator_base12::_Iterator_base12
PUBLIC	??4_Iterator_base12@std@@QAEAAU01@ABU01@@Z	; std::_Iterator_base12::operator=
PUBLIC	??1_Iterator_base12@std@@QAE@XZ			; std::_Iterator_base12::~_Iterator_base12
PUBLIC	?_Adopt@_Iterator_base12@std@@QAEXPBU_Container_base12@2@@Z ; std::_Iterator_base12::_Adopt
PUBLIC	?_Clrcont@_Iterator_base12@std@@QAEXXZ		; std::_Iterator_base12::_Clrcont
PUBLIC	?_Getcont@_Iterator_base12@std@@QBEPBU_Container_base12@2@XZ ; std::_Iterator_base12::_Getcont
PUBLIC	?_Getpnext@_Iterator_base12@std@@QAEPAPAU12@XZ	; std::_Iterator_base12::_Getpnext
PUBLIC	?_Orphan_me@_Iterator_base12@std@@QAEXXZ	; std::_Iterator_base12::_Orphan_me
PUBLIC	?_Allocate@std@@YAPAXII_N@Z			; std::_Allocate
PUBLIC	?_Deallocate@std@@YAXPAXII@Z			; std::_Deallocate
PUBLIC	??0id@locale@std@@QAE@I@Z			; std::locale::id::id
PUBLIC	??0Telegram@@QAE@NHHHPAX@Z			; Telegram::Telegram
PUBLIC	??8@YA_NABUTelegram@@0@Z			; operator==
PUBLIC	??M@YA_NABUTelegram@@0@Z			; operator<
PUBLIC	?_Kfn@?$_Tset_traits@UTelegram@@U?$less@UTelegram@@@std@@V?$allocator@UTelegram@@@3@$0A@@std@@SAABUTelegram@@ABU3@@Z ; std::_Tset_traits<Telegram,std::less<Telegram>,std::allocator<Telegram>,0>::_Kfn
PUBLIC	??0?$allocator@U?$_Tree_node@UTelegram@@PAX@std@@@std@@QAE@XZ ; std::allocator<std::_Tree_node<Telegram,void *> >::allocator<std::_Tree_node<Telegram,void *> >
PUBLIC	?deallocate@?$allocator@U?$_Tree_node@UTelegram@@PAX@std@@@std@@QAEXQAU?$_Tree_node@UTelegram@@PAX@2@I@Z ; std::allocator<std::_Tree_node<Telegram,void *> >::deallocate
PUBLIC	?allocate@?$allocator@U?$_Tree_node@UTelegram@@PAX@std@@@std@@QAEPAU?$_Tree_node@UTelegram@@PAX@2@I@Z ; std::allocator<std::_Tree_node<Telegram,void *> >::allocate
PUBLIC	?max_size@?$_Default_allocator_traits@V?$allocator@U?$_Tree_node@UTelegram@@PAX@std@@@std@@@std@@SAIABV?$allocator@U?$_Tree_node@UTelegram@@PAX@std@@@2@@Z ; std::_Default_allocator_traits<std::allocator<std::_Tree_node<Telegram,void *> > >::max_size
PUBLIC	?_Max@?$_Tree_comp_alloc@V?$_Tset_traits@UTelegram@@U?$less@UTelegram@@@std@@V?$allocator@UTelegram@@@3@$0A@@std@@@std@@SAPAU?$_Tree_node@UTelegram@@PAX@2@PAU32@@Z ; std::_Tree_comp_alloc<std::_Tset_traits<Telegram,std::less<Telegram>,std::allocator<Telegram>,0> >::_Max
PUBLIC	?_Min@?$_Tree_comp_alloc@V?$_Tset_traits@UTelegram@@U?$less@UTelegram@@@std@@V?$allocator@UTelegram@@@3@$0A@@std@@@std@@SAPAU?$_Tree_node@UTelegram@@PAX@2@PAU32@@Z ; std::_Tree_comp_alloc<std::_Tset_traits<Telegram,std::less<Telegram>,std::allocator<Telegram>,0> >::_Min
PUBLIC	??0?$_Tree_comp_alloc@V?$_Tset_traits@UTelegram@@U?$less@UTelegram@@@std@@V?$allocator@UTelegram@@@3@$0A@@std@@@std@@QAE@ABU?$less@UTelegram@@@1@@Z ; std::_Tree_comp_alloc<std::_Tset_traits<Telegram,std::less<Telegram>,std::allocator<Telegram>,0> >::_Tree_comp_alloc<std::_Tset_traits<Telegram,std::less<Telegram>,std::allocator<Telegram>,0> >
PUBLIC	?_Construct@?$_Tree_comp_alloc@V?$_Tset_traits@UTelegram@@U?$less@UTelegram@@@std@@V?$allocator@UTelegram@@@3@$0A@@std@@@std@@QAEXXZ ; std::_Tree_comp_alloc<std::_Tset_traits<Telegram,std::less<Telegram>,std::allocator<Telegram>,0> >::_Construct
PUBLIC	??1?$_Tree_comp_alloc@V?$_Tset_traits@UTelegram@@U?$less@UTelegram@@@std@@V?$allocator@UTelegram@@@3@$0A@@std@@@std@@QAE@XZ ; std::_Tree_comp_alloc<std::_Tset_traits<Telegram,std::less<Telegram>,std::allocator<Telegram>,0> >::~_Tree_comp_alloc<std::_Tset_traits<Telegram,std::less<Telegram>,std::allocator<Telegram>,0> >
PUBLIC	?_Alloc_proxy@?$_Tree_comp_alloc@V?$_Tset_traits@UTelegram@@U?$less@UTelegram@@@std@@V?$allocator@UTelegram@@@3@$0A@@std@@@std@@QAEXXZ ; std::_Tree_comp_alloc<std::_Tset_traits<Telegram,std::less<Telegram>,std::allocator<Telegram>,0> >::_Alloc_proxy
PUBLIC	?_Free_proxy@?$_Tree_comp_alloc@V?$_Tset_traits@UTelegram@@U?$less@UTelegram@@@std@@V?$allocator@UTelegram@@@3@$0A@@std@@@std@@QAEXXZ ; std::_Tree_comp_alloc<std::_Tset_traits<Telegram,std::less<Telegram>,std::allocator<Telegram>,0> >::_Free_proxy
PUBLIC	?_Getpfirst@?$_Tree_comp_alloc@V?$_Tset_traits@UTelegram@@U?$less@UTelegram@@@std@@V?$allocator@UTelegram@@@3@$0A@@std@@@std@@QBEPAPAU_Iterator_base12@2@XZ ; std::_Tree_comp_alloc<std::_Tset_traits<Telegram,std::less<Telegram>,std::allocator<Telegram>,0> >::_Getpfirst
PUBLIC	?_Myproxy@?$_Tree_comp_alloc@V?$_Tset_traits@UTelegram@@U?$less@UTelegram@@@std@@V?$allocator@UTelegram@@@3@$0A@@std@@@std@@QAEAAPAU_Container_proxy@2@XZ ; std::_Tree_comp_alloc<std::_Tset_traits<Telegram,std::less<Telegram>,std::allocator<Telegram>,0> >::_Myproxy
PUBLIC	?_Orphan_all@?$_Tree_comp_alloc@V?$_Tset_traits@UTelegram@@U?$less@UTelegram@@@std@@V?$allocator@UTelegram@@@3@$0A@@std@@@std@@QAEXXZ ; std::_Tree_comp_alloc<std::_Tset_traits<Telegram,std::less<Telegram>,std::allocator<Telegram>,0> >::_Orphan_all
PUBLIC	?_Buyheadnode@?$_Tree_comp_alloc@V?$_Tset_traits@UTelegram@@U?$less@UTelegram@@@std@@V?$allocator@UTelegram@@@3@$0A@@std@@@std@@QAEPAU?$_Tree_node@UTelegram@@PAX@2@XZ ; std::_Tree_comp_alloc<std::_Tset_traits<Telegram,std::less<Telegram>,std::allocator<Telegram>,0> >::_Buyheadnode
PUBLIC	?_Freeheadnode@?$_Tree_comp_alloc@V?$_Tset_traits@UTelegram@@U?$less@UTelegram@@@std@@V?$allocator@UTelegram@@@3@$0A@@std@@@std@@QAEXPAU?$_Tree_node@UTelegram@@PAX@2@@Z ; std::_Tree_comp_alloc<std::_Tset_traits<Telegram,std::less<Telegram>,std::allocator<Telegram>,0> >::_Freeheadnode
PUBLIC	?_Buynode0@?$_Tree_comp_alloc@V?$_Tset_traits@UTelegram@@U?$less@UTelegram@@@std@@V?$allocator@UTelegram@@@3@$0A@@std@@@std@@QAEPAU?$_Tree_node@UTelegram@@PAX@2@XZ ; std::_Tree_comp_alloc<std::_Tset_traits<Telegram,std::less<Telegram>,std::allocator<Telegram>,0> >::_Buynode0
PUBLIC	?_Freenode0@?$_Tree_comp_alloc@V?$_Tset_traits@UTelegram@@U?$less@UTelegram@@@std@@V?$allocator@UTelegram@@@3@$0A@@std@@@std@@QAEXPAU?$_Tree_node@UTelegram@@PAX@2@@Z ; std::_Tree_comp_alloc<std::_Tset_traits<Telegram,std::less<Telegram>,std::allocator<Telegram>,0> >::_Freenode0
PUBLIC	?_Getcomp@?$_Tree_comp_alloc@V?$_Tset_traits@UTelegram@@U?$less@UTelegram@@@std@@V?$allocator@UTelegram@@@3@$0A@@std@@@std@@QAEAAU?$less@UTelegram@@@2@XZ ; std::_Tree_comp_alloc<std::_Tset_traits<Telegram,std::less<Telegram>,std::allocator<Telegram>,0> >::_Getcomp
PUBLIC	?_Getal@?$_Tree_comp_alloc@V?$_Tset_traits@UTelegram@@U?$less@UTelegram@@@std@@V?$allocator@UTelegram@@@3@$0A@@std@@@std@@QAEAAV?$allocator@U?$_Tree_node@UTelegram@@PAX@std@@@2@XZ ; std::_Tree_comp_alloc<std::_Tset_traits<Telegram,std::less<Telegram>,std::allocator<Telegram>,0> >::_Getal
PUBLIC	?_Getal@?$_Tree_comp_alloc@V?$_Tset_traits@UTelegram@@U?$less@UTelegram@@@std@@V?$allocator@UTelegram@@@3@$0A@@std@@@std@@QBEABV?$allocator@U?$_Tree_node@UTelegram@@PAX@std@@@2@XZ ; std::_Tree_comp_alloc<std::_Tset_traits<Telegram,std::less<Telegram>,std::allocator<Telegram>,0> >::_Getal
PUBLIC	?_Get_data@?$_Tree_comp_alloc@V?$_Tset_traits@UTelegram@@U?$less@UTelegram@@@std@@V?$allocator@UTelegram@@@3@$0A@@std@@@std@@QAEAAV?$_Tree_val@U?$_Tree_simple_types@UTelegram@@@std@@@2@XZ ; std::_Tree_comp_alloc<std::_Tset_traits<Telegram,std::less<Telegram>,std::allocator<Telegram>,0> >::_Get_data
PUBLIC	?_Get_data@?$_Tree_comp_alloc@V?$_Tset_traits@UTelegram@@U?$less@UTelegram@@@std@@V?$allocator@UTelegram@@@3@$0A@@std@@@std@@QBEABV?$_Tree_val@U?$_Tree_simple_types@UTelegram@@@std@@@2@XZ ; std::_Tree_comp_alloc<std::_Tset_traits<Telegram,std::less<Telegram>,std::allocator<Telegram>,0> >::_Get_data
PUBLIC	?_Myhead@?$_Tree_comp_alloc@V?$_Tset_traits@UTelegram@@U?$less@UTelegram@@@std@@V?$allocator@UTelegram@@@3@$0A@@std@@@std@@QAEAAPAU?$_Tree_node@UTelegram@@PAX@2@XZ ; std::_Tree_comp_alloc<std::_Tset_traits<Telegram,std::less<Telegram>,std::allocator<Telegram>,0> >::_Myhead
PUBLIC	?_Myhead@?$_Tree_comp_alloc@V?$_Tset_traits@UTelegram@@U?$less@UTelegram@@@std@@V?$allocator@UTelegram@@@3@$0A@@std@@@std@@QBEABQAU?$_Tree_node@UTelegram@@PAX@2@XZ ; std::_Tree_comp_alloc<std::_Tset_traits<Telegram,std::less<Telegram>,std::allocator<Telegram>,0> >::_Myhead
PUBLIC	?_Mysize@?$_Tree_comp_alloc@V?$_Tset_traits@UTelegram@@U?$less@UTelegram@@@std@@V?$allocator@UTelegram@@@3@$0A@@std@@@std@@QAEAAIXZ ; std::_Tree_comp_alloc<std::_Tset_traits<Telegram,std::less<Telegram>,std::allocator<Telegram>,0> >::_Mysize
PUBLIC	?_Mysize@?$_Tree_comp_alloc@V?$_Tset_traits@UTelegram@@U?$less@UTelegram@@@std@@V?$allocator@UTelegram@@@3@$0A@@std@@@std@@QBEABIXZ ; std::_Tree_comp_alloc<std::_Tset_traits<Telegram,std::less<Telegram>,std::allocator<Telegram>,0> >::_Mysize
PUBLIC	??R?$less@UTelegram@@@std@@QBE_NABUTelegram@@0@Z ; std::less<Telegram>::operator()
PUBLIC	??0?$_Tree_val@U?$_Tree_simple_types@UTelegram@@@std@@@std@@QAE@XZ ; std::_Tree_val<std::_Tree_simple_types<Telegram> >::_Tree_val<std::_Tree_simple_types<Telegram> >
PUBLIC	?_Max@?$_Tree_val@U?$_Tree_simple_types@UTelegram@@@std@@@std@@SAPAU?$_Tree_node@UTelegram@@PAX@2@PAU32@@Z ; std::_Tree_val<std::_Tree_simple_types<Telegram> >::_Max
PUBLIC	?_Min@?$_Tree_val@U?$_Tree_simple_types@UTelegram@@@std@@@std@@SAPAU?$_Tree_node@UTelegram@@PAX@2@PAU32@@Z ; std::_Tree_val<std::_Tree_simple_types<Telegram> >::_Min
PUBLIC	??1?$_Tree_val@U?$_Tree_simple_types@UTelegram@@@std@@@std@@QAE@XZ ; std::_Tree_val<std::_Tree_simple_types<Telegram> >::~_Tree_val<std::_Tree_simple_types<Telegram> >
PUBLIC	?_Get_first@?$_Compressed_pair@V?$allocator@U?$_Tree_node@UTelegram@@PAX@std@@@std@@V?$_Tree_val@U?$_Tree_simple_types@UTelegram@@@std@@@2@$00@std@@QAEAAV?$allocator@U?$_Tree_node@UTelegram@@PAX@std@@@2@XZ ; std::_Compressed_pair<std::allocator<std::_Tree_node<Telegram,void *> >,std::_Tree_val<std::_Tree_simple_types<Telegram> >,1>::_Get_first
PUBLIC	?_Get_first@?$_Compressed_pair@V?$allocator@U?$_Tree_node@UTelegram@@PAX@std@@@std@@V?$_Tree_val@U?$_Tree_simple_types@UTelegram@@@std@@@2@$00@std@@QBEABV?$allocator@U?$_Tree_node@UTelegram@@PAX@std@@@2@XZ ; std::_Compressed_pair<std::allocator<std::_Tree_node<Telegram,void *> >,std::_Tree_val<std::_Tree_simple_types<Telegram> >,1>::_Get_first
PUBLIC	?_Get_second@?$_Compressed_pair@V?$allocator@U?$_Tree_node@UTelegram@@PAX@std@@@std@@V?$_Tree_val@U?$_Tree_simple_types@UTelegram@@@std@@@2@$00@std@@QAEAAV?$_Tree_val@U?$_Tree_simple_types@UTelegram@@@std@@@2@XZ ; std::_Compressed_pair<std::allocator<std::_Tree_node<Telegram,void *> >,std::_Tree_val<std::_Tree_simple_types<Telegram> >,1>::_Get_second
PUBLIC	?_Get_second@?$_Compressed_pair@V?$allocator@U?$_Tree_node@UTelegram@@PAX@std@@@std@@V?$_Tree_val@U?$_Tree_simple_types@UTelegram@@@std@@@2@$00@std@@QBEABV?$_Tree_val@U?$_Tree_simple_types@UTelegram@@@std@@@2@XZ ; std::_Compressed_pair<std::allocator<std::_Tree_node<Telegram,void *> >,std::_Tree_val<std::_Tree_simple_types<Telegram> >,1>::_Get_second
PUBLIC	??1?$_Compressed_pair@V?$allocator@U?$_Tree_node@UTelegram@@PAX@std@@@std@@V?$_Tree_val@U?$_Tree_simple_types@UTelegram@@@std@@@2@$00@std@@QAE@XZ ; std::_Compressed_pair<std::allocator<std::_Tree_node<Telegram,void *> >,std::_Tree_val<std::_Tree_simple_types<Telegram> >,1>::~_Compressed_pair<std::allocator<std::_Tree_node<Telegram,void *> >,std::_Tree_val<std::_Tree_simple_types<Telegram> >,1>
PUBLIC	?_Get_first@?$_Compressed_pair@U?$less@UTelegram@@@std@@V?$_Compressed_pair@V?$allocator@U?$_Tree_node@UTelegram@@PAX@std@@@std@@V?$_Tree_val@U?$_Tree_simple_types@UTelegram@@@std@@@2@$00@2@$00@std@@QAEAAU?$less@UTelegram@@@2@XZ ; std::_Compressed_pair<std::less<Telegram>,std::_Compressed_pair<std::allocator<std::_Tree_node<Telegram,void *> >,std::_Tree_val<std::_Tree_simple_types<Telegram> >,1>,1>::_Get_first
PUBLIC	?_Get_second@?$_Compressed_pair@U?$less@UTelegram@@@std@@V?$_Compressed_pair@V?$allocator@U?$_Tree_node@UTelegram@@PAX@std@@@std@@V?$_Tree_val@U?$_Tree_simple_types@UTelegram@@@std@@@2@$00@2@$00@std@@QAEAAV?$_Compressed_pair@V?$allocator@U?$_Tree_node@UTelegram@@PAX@std@@@std@@V?$_Tree_val@U?$_Tree_simple_types@UTelegram@@@std@@@2@$00@2@XZ ; std::_Compressed_pair<std::less<Telegram>,std::_Compressed_pair<std::allocator<std::_Tree_node<Telegram,void *> >,std::_Tree_val<std::_Tree_simple_types<Telegram> >,1>,1>::_Get_second
PUBLIC	?_Get_second@?$_Compressed_pair@U?$less@UTelegram@@@std@@V?$_Compressed_pair@V?$allocator@U?$_Tree_node@UTelegram@@PAX@std@@@std@@V?$_Tree_val@U?$_Tree_simple_types@UTelegram@@@std@@@2@$00@2@$00@std@@QBEABV?$_Compressed_pair@V?$allocator@U?$_Tree_node@UTelegram@@PAX@std@@@std@@V?$_Tree_val@U?$_Tree_simple_types@UTelegram@@@std@@@2@$00@2@XZ ; std::_Compressed_pair<std::less<Telegram>,std::_Compressed_pair<std::allocator<std::_Tree_node<Telegram,void *> >,std::_Tree_val<std::_Tree_simple_types<Telegram> >,1>,1>::_Get_second
PUBLIC	??1?$_Compressed_pair@U?$less@UTelegram@@@std@@V?$_Compressed_pair@V?$allocator@U?$_Tree_node@UTelegram@@PAX@std@@@std@@V?$_Tree_val@U?$_Tree_simple_types@UTelegram@@@std@@@2@$00@2@$00@std@@QAE@XZ ; std::_Compressed_pair<std::less<Telegram>,std::_Compressed_pair<std::allocator<std::_Tree_node<Telegram,void *> >,std::_Tree_val<std::_Tree_simple_types<Telegram> >,1>,1>::~_Compressed_pair<std::less<Telegram>,std::_Compressed_pair<std::allocator<std::_Tree_node<Telegram,void *> >,std::_Tree_val<std::_Tree_simple_types<Telegram> >,1>,1>
PUBLIC	??0?$_Tree@V?$_Tset_traits@UTelegram@@U?$less@UTelegram@@@std@@V?$allocator@UTelegram@@@3@$0A@@std@@@std@@QAE@ABU?$less@UTelegram@@@1@@Z ; std::_Tree<std::_Tset_traits<Telegram,std::less<Telegram>,std::allocator<Telegram>,0> >::_Tree<std::_Tset_traits<Telegram,std::less<Telegram>,std::allocator<Telegram>,0> >
PUBLIC	??1?$_Tree@V?$_Tset_traits@UTelegram@@U?$less@UTelegram@@@std@@V?$allocator@UTelegram@@@3@$0A@@std@@@std@@QAE@XZ ; std::_Tree<std::_Tset_traits<Telegram,std::less<Telegram>,std::allocator<Telegram>,0> >::~_Tree<std::_Tset_traits<Telegram,std::less<Telegram>,std::allocator<Telegram>,0> >
PUBLIC	?begin@?$_Tree@V?$_Tset_traits@UTelegram@@U?$less@UTelegram@@@std@@V?$allocator@UTelegram@@@3@$0A@@std@@@std@@QAE?AV?$_Tree_const_iterator@V?$_Tree_val@U?$_Tree_simple_types@UTelegram@@@std@@@std@@@2@XZ ; std::_Tree<std::_Tset_traits<Telegram,std::less<Telegram>,std::allocator<Telegram>,0> >::begin
PUBLIC	?end@?$_Tree@V?$_Tset_traits@UTelegram@@U?$less@UTelegram@@@std@@V?$allocator@UTelegram@@@3@$0A@@std@@@std@@QAE?AV?$_Tree_const_iterator@V?$_Tree_val@U?$_Tree_simple_types@UTelegram@@@std@@@std@@@2@XZ ; std::_Tree<std::_Tset_traits<Telegram,std::less<Telegram>,std::allocator<Telegram>,0> >::end
PUBLIC	?size@?$_Tree@V?$_Tset_traits@UTelegram@@U?$less@UTelegram@@@std@@V?$allocator@UTelegram@@@3@$0A@@std@@@std@@QBEIXZ ; std::_Tree<std::_Tset_traits<Telegram,std::less<Telegram>,std::allocator<Telegram>,0> >::size
PUBLIC	?max_size@?$_Tree@V?$_Tset_traits@UTelegram@@U?$less@UTelegram@@@std@@V?$allocator@UTelegram@@@3@$0A@@std@@@std@@QBEIXZ ; std::_Tree<std::_Tset_traits<Telegram,std::less<Telegram>,std::allocator<Telegram>,0> >::max_size
PUBLIC	?empty@?$_Tree@V?$_Tset_traits@UTelegram@@U?$less@UTelegram@@@std@@V?$allocator@UTelegram@@@3@$0A@@std@@@std@@QBE_NXZ ; std::_Tree<std::_Tset_traits<Telegram,std::less<Telegram>,std::allocator<Telegram>,0> >::empty
PUBLIC	?erase@?$_Tree@V?$_Tset_traits@UTelegram@@U?$less@UTelegram@@@std@@V?$allocator@UTelegram@@@3@$0A@@std@@@std@@QAE?AV?$_Tree_const_iterator@V?$_Tree_val@U?$_Tree_simple_types@UTelegram@@@std@@@std@@@2@V32@@Z ; std::_Tree<std::_Tset_traits<Telegram,std::less<Telegram>,std::allocator<Telegram>,0> >::erase
PUBLIC	?erase@?$_Tree@V?$_Tset_traits@UTelegram@@U?$less@UTelegram@@@std@@V?$allocator@UTelegram@@@3@$0A@@std@@@std@@QAE?AV?$_Tree_const_iterator@V?$_Tree_val@U?$_Tree_simple_types@UTelegram@@@std@@@std@@@2@V32@0@Z ; std::_Tree<std::_Tset_traits<Telegram,std::less<Telegram>,std::allocator<Telegram>,0> >::erase
PUBLIC	?clear@?$_Tree@V?$_Tset_traits@UTelegram@@U?$less@UTelegram@@@std@@V?$allocator@UTelegram@@@3@$0A@@std@@@std@@QAEXXZ ; std::_Tree<std::_Tset_traits<Telegram,std::less<Telegram>,std::allocator<Telegram>,0> >::clear
PUBLIC	?_Destroy_if_not_nil@?$_Tree@V?$_Tset_traits@UTelegram@@U?$less@UTelegram@@@std@@V?$allocator@UTelegram@@@3@$0A@@std@@@std@@IAEXU_Nil@2@@Z ; std::_Tree<std::_Tset_traits<Telegram,std::less<Telegram>,std::allocator<Telegram>,0> >::_Destroy_if_not_nil
PUBLIC	?_Erase@?$_Tree@V?$_Tset_traits@UTelegram@@U?$less@UTelegram@@@std@@V?$allocator@UTelegram@@@3@$0A@@std@@@std@@IAEXPAU?$_Tree_node@UTelegram@@PAX@2@@Z ; std::_Tree<std::_Tset_traits<Telegram,std::less<Telegram>,std::allocator<Telegram>,0> >::_Erase
PUBLIC	?_Lmost@?$_Tree@V?$_Tset_traits@UTelegram@@U?$less@UTelegram@@@std@@V?$allocator@UTelegram@@@3@$0A@@std@@@std@@IBEAAPAU?$_Tree_node@UTelegram@@PAX@2@XZ ; std::_Tree<std::_Tset_traits<Telegram,std::less<Telegram>,std::allocator<Telegram>,0> >::_Lmost
PUBLIC	?_Lrotate@?$_Tree@V?$_Tset_traits@UTelegram@@U?$less@UTelegram@@@std@@V?$allocator@UTelegram@@@3@$0A@@std@@@std@@IAEXPAU?$_Tree_node@UTelegram@@PAX@2@@Z ; std::_Tree<std::_Tset_traits<Telegram,std::less<Telegram>,std::allocator<Telegram>,0> >::_Lrotate
PUBLIC	?_Rmost@?$_Tree@V?$_Tset_traits@UTelegram@@U?$less@UTelegram@@@std@@V?$allocator@UTelegram@@@3@$0A@@std@@@std@@IBEAAPAU?$_Tree_node@UTelegram@@PAX@2@XZ ; std::_Tree<std::_Tset_traits<Telegram,std::less<Telegram>,std::allocator<Telegram>,0> >::_Rmost
PUBLIC	?_Root@?$_Tree@V?$_Tset_traits@UTelegram@@U?$less@UTelegram@@@std@@V?$allocator@UTelegram@@@3@$0A@@std@@@std@@IBEAAPAU?$_Tree_node@UTelegram@@PAX@2@XZ ; std::_Tree<std::_Tset_traits<Telegram,std::less<Telegram>,std::allocator<Telegram>,0> >::_Root
PUBLIC	?_Rrotate@?$_Tree@V?$_Tset_traits@UTelegram@@U?$less@UTelegram@@@std@@V?$allocator@UTelegram@@@3@$0A@@std@@@std@@IAEXPAU?$_Tree_node@UTelegram@@PAX@2@@Z ; std::_Tree<std::_Tset_traits<Telegram,std::less<Telegram>,std::allocator<Telegram>,0> >::_Rrotate
PUBLIC	?_Orphan_ptr@?$_Tree@V?$_Tset_traits@UTelegram@@U?$less@UTelegram@@@std@@V?$allocator@UTelegram@@@3@$0A@@std@@@std@@IAEXPAU?$_Tree_node@UTelegram@@PAX@2@@Z ; std::_Tree<std::_Tset_traits<Telegram,std::less<Telegram>,std::allocator<Telegram>,0> >::_Orphan_ptr
PUBLIC	?_Tidy@?$_Tree@V?$_Tset_traits@UTelegram@@U?$less@UTelegram@@@std@@V?$allocator@UTelegram@@@3@$0A@@std@@@std@@IAEXXZ ; std::_Tree<std::_Tset_traits<Telegram,std::less<Telegram>,std::allocator<Telegram>,0> >::_Tidy
PUBLIC	?_Kfn@?$_Tree@V?$_Tset_traits@UTelegram@@U?$less@UTelegram@@@std@@V?$allocator@UTelegram@@@3@$0A@@std@@@std@@IBEABUTelegram@@ABU3@@Z ; std::_Tree<std::_Tset_traits<Telegram,std::less<Telegram>,std::allocator<Telegram>,0> >::_Kfn
PUBLIC	?_Key@?$_Tree@V?$_Tset_traits@UTelegram@@U?$less@UTelegram@@@std@@V?$allocator@UTelegram@@@3@$0A@@std@@@std@@IBEABUTelegram@@PAU?$_Tree_node@UTelegram@@PAX@2@@Z ; std::_Tree<std::_Tset_traits<Telegram,std::less<Telegram>,std::allocator<Telegram>,0> >::_Key
PUBLIC	??0?$set@UTelegram@@U?$less@UTelegram@@@std@@V?$allocator@UTelegram@@@3@@std@@QAE@XZ ; std::set<Telegram,std::less<Telegram>,std::allocator<Telegram> >::set<Telegram,std::less<Telegram>,std::allocator<Telegram> >
PUBLIC	??1?$set@UTelegram@@U?$less@UTelegram@@@std@@V?$allocator@UTelegram@@@3@@std@@QAE@XZ ; std::set<Telegram,std::less<Telegram>,std::allocator<Telegram> >::~set<Telegram,std::less<Telegram>,std::allocator<Telegram> >
PUBLIC	?Discharge@MessageDispatcher@@AAEXPAVBaseGameEntity@@ABUTelegram@@@Z ; MessageDispatcher::Discharge
PUBLIC	??0MessageDispatcher@@AAE@XZ			; MessageDispatcher::MessageDispatcher
PUBLIC	?Instance@MessageDispatcher@@SAPAV1@XZ		; MessageDispatcher::Instance
PUBLIC	?DispatchMsg@MessageDispatcher@@QAEXNHHHPAX@Z	; MessageDispatcher::DispatchMsg
PUBLIC	?DispatchDelayedMessages@MessageDispatcher@@QAEXXZ ; MessageDispatcher::DispatchDelayedMessages
PUBLIC	??1MessageDispatcher@@QAE@XZ			; MessageDispatcher::~MessageDispatcher
PUBLIC	?GetCurrentFrame@FrameCounter@@QAEJXZ		; FrameCounter::GetCurrentFrame
PUBLIC	??$insert@$0A@$0A@@?$_Tree@V?$_Tset_traits@UTelegram@@U?$less@UTelegram@@@std@@V?$allocator@UTelegram@@@3@$0A@@std@@@std@@QAE?AU?$pair@V?$_Tree_const_iterator@V?$_Tree_val@U?$_Tree_simple_types@UTelegram@@@std@@@std@@@std@@_N@1@ABUTelegram@@@Z ; std::_Tree<std::_Tset_traits<Telegram,std::less<Telegram>,std::allocator<Telegram>,0> >::insert<0,0>
PUBLIC	??0?$_Tree_unchecked_const_iterator@V?$_Tree_val@U?$_Tree_simple_types@UTelegram@@@std@@@std@@U_Iterator_base12@2@@std@@QAE@PAU?$_Tree_node@UTelegram@@PAX@1@PBV?$_Tree_val@U?$_Tree_simple_types@UTelegram@@@std@@@1@@Z ; std::_Tree_unchecked_const_iterator<std::_Tree_val<std::_Tree_simple_types<Telegram> >,std::_Iterator_base12>::_Tree_unchecked_const_iterator<std::_Tree_val<std::_Tree_simple_types<Telegram> >,std::_Iterator_base12>
PUBLIC	??E?$_Tree_unchecked_const_iterator@V?$_Tree_val@U?$_Tree_simple_types@UTelegram@@@std@@@std@@U_Iterator_base12@2@@std@@QAEAAV01@XZ ; std::_Tree_unchecked_const_iterator<std::_Tree_val<std::_Tree_simple_types<Telegram> >,std::_Iterator_base12>::operator++
PUBLIC	??F?$_Tree_unchecked_const_iterator@V?$_Tree_val@U?$_Tree_simple_types@UTelegram@@@std@@@std@@U_Iterator_base12@2@@std@@QAEAAV01@XZ ; std::_Tree_unchecked_const_iterator<std::_Tree_val<std::_Tree_simple_types<Telegram> >,std::_Iterator_base12>::operator--
PUBLIC	?_Mynode@?$_Tree_unchecked_const_iterator@V?$_Tree_val@U?$_Tree_simple_types@UTelegram@@@std@@@std@@U_Iterator_base12@2@@std@@QBEPAU?$_Tree_node@UTelegram@@PAX@2@XZ ; std::_Tree_unchecked_const_iterator<std::_Tree_val<std::_Tree_simple_types<Telegram> >,std::_Iterator_base12>::_Mynode
PUBLIC	??1?$_Tree_unchecked_const_iterator@V?$_Tree_val@U?$_Tree_simple_types@UTelegram@@@std@@@std@@U_Iterator_base12@2@@std@@QAE@XZ ; std::_Tree_unchecked_const_iterator<std::_Tree_val<std::_Tree_simple_types<Telegram> >,std::_Iterator_base12>::~_Tree_unchecked_const_iterator<std::_Tree_val<std::_Tree_simple_types<Telegram> >,std::_Iterator_base12>
PUBLIC	??0?$_Tree_unchecked_const_iterator@V?$_Tree_val@U?$_Tree_simple_types@UTelegram@@@std@@@std@@U_Iterator_base12@2@@std@@QAE@ABV01@@Z ; std::_Tree_unchecked_const_iterator<std::_Tree_val<std::_Tree_simple_types<Telegram> >,std::_Iterator_base12>::_Tree_unchecked_const_iterator<std::_Tree_val<std::_Tree_simple_types<Telegram> >,std::_Iterator_base12>
PUBLIC	??0?$_Tree_unchecked_const_iterator@V?$_Tree_val@U?$_Tree_simple_types@UTelegram@@@std@@@std@@U_Iterator_base12@2@@std@@QAE@$$QAV01@@Z ; std::_Tree_unchecked_const_iterator<std::_Tree_val<std::_Tree_simple_types<Telegram> >,std::_Iterator_base12>::_Tree_unchecked_const_iterator<std::_Tree_val<std::_Tree_simple_types<Telegram> >,std::_Iterator_base12>
PUBLIC	??0?$_Tree_const_iterator@V?$_Tree_val@U?$_Tree_simple_types@UTelegram@@@std@@@std@@@std@@QAE@PAU?$_Tree_node@UTelegram@@PAX@1@PBV?$_Tree_val@U?$_Tree_simple_types@UTelegram@@@std@@@1@@Z ; std::_Tree_const_iterator<std::_Tree_val<std::_Tree_simple_types<Telegram> > >::_Tree_const_iterator<std::_Tree_val<std::_Tree_simple_types<Telegram> > >
PUBLIC	??D?$_Tree_const_iterator@V?$_Tree_val@U?$_Tree_simple_types@UTelegram@@@std@@@std@@@std@@QBEABUTelegram@@XZ ; std::_Tree_const_iterator<std::_Tree_val<std::_Tree_simple_types<Telegram> > >::operator*
PUBLIC	??C?$_Tree_const_iterator@V?$_Tree_val@U?$_Tree_simple_types@UTelegram@@@std@@@std@@@std@@QBEPBUTelegram@@XZ ; std::_Tree_const_iterator<std::_Tree_val<std::_Tree_simple_types<Telegram> > >::operator->
PUBLIC	??E?$_Tree_const_iterator@V?$_Tree_val@U?$_Tree_simple_types@UTelegram@@@std@@@std@@@std@@QAEAAV01@XZ ; std::_Tree_const_iterator<std::_Tree_val<std::_Tree_simple_types<Telegram> > >::operator++
PUBLIC	??E?$_Tree_const_iterator@V?$_Tree_val@U?$_Tree_simple_types@UTelegram@@@std@@@std@@@std@@QAE?AV01@H@Z ; std::_Tree_const_iterator<std::_Tree_val<std::_Tree_simple_types<Telegram> > >::operator++
PUBLIC	??F?$_Tree_const_iterator@V?$_Tree_val@U?$_Tree_simple_types@UTelegram@@@std@@@std@@@std@@QAEAAV01@XZ ; std::_Tree_const_iterator<std::_Tree_val<std::_Tree_simple_types<Telegram> > >::operator--
PUBLIC	??8?$_Tree_const_iterator@V?$_Tree_val@U?$_Tree_simple_types@UTelegram@@@std@@@std@@@std@@QBE_NABV01@@Z ; std::_Tree_const_iterator<std::_Tree_val<std::_Tree_simple_types<Telegram> > >::operator==
PUBLIC	??9?$_Tree_const_iterator@V?$_Tree_val@U?$_Tree_simple_types@UTelegram@@@std@@@std@@@std@@QBE_NABV01@@Z ; std::_Tree_const_iterator<std::_Tree_val<std::_Tree_simple_types<Telegram> > >::operator!=
PUBLIC	??1?$_Tree_const_iterator@V?$_Tree_val@U?$_Tree_simple_types@UTelegram@@@std@@@std@@@std@@QAE@XZ ; std::_Tree_const_iterator<std::_Tree_val<std::_Tree_simple_types<Telegram> > >::~_Tree_const_iterator<std::_Tree_val<std::_Tree_simple_types<Telegram> > >
PUBLIC	??0?$_Tree_const_iterator@V?$_Tree_val@U?$_Tree_simple_types@UTelegram@@@std@@@std@@@std@@QAE@ABV01@@Z ; std::_Tree_const_iterator<std::_Tree_val<std::_Tree_simple_types<Telegram> > >::_Tree_const_iterator<std::_Tree_val<std::_Tree_simple_types<Telegram> > >
PUBLIC	??0?$_Tree_const_iterator@V?$_Tree_val@U?$_Tree_simple_types@UTelegram@@@std@@@std@@@std@@QAE@$$QAV01@@Z ; std::_Tree_const_iterator<std::_Tree_val<std::_Tree_simple_types<Telegram> > >::_Tree_const_iterator<std::_Tree_val<std::_Tree_simple_types<Telegram> > >
PUBLIC	??1?$pair@V?$_Tree_const_iterator@V?$_Tree_val@U?$_Tree_simple_types@UTelegram@@@std@@@std@@@std@@_N@std@@QAE@XZ ; std::pair<std::_Tree_const_iterator<std::_Tree_val<std::_Tree_simple_types<Telegram> > >,bool>::~pair<std::_Tree_const_iterator<std::_Tree_val<std::_Tree_simple_types<Telegram> > >,bool>
PUBLIC	?pointer_to@?$pointer_traits@PBUTelegram@@@std@@SAPBUTelegram@@ABU3@@Z ; std::pointer_traits<Telegram const *>::pointer_to
PUBLIC	??$addressof@V?$_Tree_val@U?$_Tree_simple_types@UTelegram@@@std@@@std@@@std@@YAPAV?$_Tree_val@U?$_Tree_simple_types@UTelegram@@@std@@@0@AAV10@@Z ; std::addressof<std::_Tree_val<std::_Tree_simple_types<Telegram> > >
PUBLIC	??$swap@DX@std@@YAXAAD0@Z			; std::swap<char,void>
PUBLIC	??$addressof@UTelegram@@@std@@YAPAUTelegram@@AAU1@@Z ; std::addressof<Telegram>
PUBLIC	??$destroy@UTelegram@@@?$_Default_allocator_traits@V?$allocator@U?$_Tree_node@UTelegram@@PAX@std@@@std@@@std@@SAXAAV?$allocator@U?$_Tree_node@UTelegram@@PAX@std@@@1@QAUTelegram@@@Z ; std::_Default_allocator_traits<std::allocator<std::_Tree_node<Telegram,void *> > >::destroy<Telegram>
PUBLIC	??$addressof@$$CBUTelegram@@@std@@YAPBUTelegram@@ABU1@@Z ; std::addressof<Telegram const >
PUBLIC	?allocate@?$allocator@U_Container_proxy@std@@@std@@QAEPAU_Container_proxy@2@I@Z ; std::allocator<std::_Container_proxy>::allocate
PUBLIC	?deallocate@?$_Default_allocator_traits@V?$allocator@U_Container_proxy@std@@@std@@@std@@SAXAAV?$allocator@U_Container_proxy@std@@@2@QAU_Container_proxy@2@I@Z ; std::_Default_allocator_traits<std::allocator<std::_Container_proxy> >::deallocate
PUBLIC	??$destroy@U_Container_proxy@std@@@?$_Default_allocator_traits@V?$allocator@U_Container_proxy@std@@@std@@@std@@SAXAAV?$allocator@U_Container_proxy@std@@@1@QAU_Container_proxy@1@@Z ; std::_Default_allocator_traits<std::allocator<std::_Container_proxy> >::destroy<std::_Container_proxy>
PUBLIC	??$_Deallocate_plain@V?$allocator@U_Container_proxy@std@@@std@@$0A@@std@@YAXAAV?$allocator@U_Container_proxy@std@@@0@QAU_Container_proxy@0@@Z ; std::_Deallocate_plain<std::allocator<std::_Container_proxy>,0>
PUBLIC	??$_Unfancy@U_Container_proxy@std@@@std@@YAPAU_Container_proxy@0@PAU10@@Z ; std::_Unfancy<std::_Container_proxy>
PUBLIC	??$construct@U_Container_proxy@std@@U12@@?$_Default_allocator_traits@V?$allocator@U_Container_proxy@std@@@std@@@std@@SAXAAV?$allocator@U_Container_proxy@std@@@1@QAU_Container_proxy@1@$$QAU31@@Z ; std::_Default_allocator_traits<std::allocator<std::_Container_proxy> >::construct<std::_Container_proxy,std::_Container_proxy>
PUBLIC	??$addressof@PAU?$_Tree_node@UTelegram@@PAX@std@@@std@@YAPAPAU?$_Tree_node@UTelegram@@PAX@0@AAPAU10@@Z ; std::addressof<std::_Tree_node<Telegram,void *> *>
PUBLIC	??$destroy@PAU?$_Tree_node@UTelegram@@PAX@std@@@?$_Default_allocator_traits@V?$allocator@U?$_Tree_node@UTelegram@@PAX@std@@@std@@@std@@SAXAAV?$allocator@U?$_Tree_node@UTelegram@@PAX@std@@@1@QAPAU?$_Tree_node@UTelegram@@PAX@1@@Z ; std::_Default_allocator_traits<std::allocator<std::_Tree_node<Telegram,void *> > >::destroy<std::_Tree_node<Telegram,void *> *>
PUBLIC	??$?0U?$_Tree_node@UTelegram@@PAX@std@@@?$allocator@U_Container_proxy@std@@@std@@QAE@ABV?$allocator@U?$_Tree_node@UTelegram@@PAX@std@@@1@@Z ; std::allocator<std::_Container_proxy>::allocator<std::_Container_proxy><std::_Tree_node<Telegram,void *> >
PUBLIC	??$?0ABU?$less@UTelegram@@@std@@U_Zero_then_variadic_args_t@1@@?$_Compressed_pair@U?$less@UTelegram@@@std@@V?$_Compressed_pair@V?$allocator@U?$_Tree_node@UTelegram@@PAX@std@@@std@@V?$_Tree_val@U?$_Tree_simple_types@UTelegram@@@std@@@2@$00@2@$00@std@@QAE@U_One_then_variadic_args_t@1@ABU?$less@UTelegram@@@1@$$QAU_Zero_then_variadic_args_t@1@@Z ; std::_Compressed_pair<std::less<Telegram>,std::_Compressed_pair<std::allocator<std::_Tree_node<Telegram,void *> >,std::_Tree_val<std::_Tree_simple_types<Telegram> >,1>,1>::_Compressed_pair<std::less<Telegram>,std::_Compressed_pair<std::allocator<std::_Tree_node<Telegram,void *> >,std::_Tree_val<std::_Tree_simple_types<Telegram> >,1>,1><std::less<Telegram> const &,std::_Zero_then_variadic_args_t>
PUBLIC	??$construct@PAU?$_Tree_node@UTelegram@@PAX@std@@AAPAU12@@?$_Default_allocator_traits@V?$allocator@U?$_Tree_node@UTelegram@@PAX@std@@@std@@@std@@SAXAAV?$allocator@U?$_Tree_node@UTelegram@@PAX@std@@@1@QAPAU?$_Tree_node@UTelegram@@PAX@1@AAPAU31@@Z ; std::_Default_allocator_traits<std::allocator<std::_Tree_node<Telegram,void *> > >::construct<std::_Tree_node<Telegram,void *> *,std::_Tree_node<Telegram,void *> * &>
PUBLIC	??$_Insert_nohint@ABUTelegram@@U_Nil@std@@@?$_Tree@V?$_Tset_traits@UTelegram@@U?$less@UTelegram@@@std@@V?$allocator@UTelegram@@@3@$0A@@std@@@std@@IAE?AU?$pair@V?$_Tree_const_iterator@V?$_Tree_val@U?$_Tree_simple_types@UTelegram@@@std@@@std@@@std@@_N@1@_NABUTelegram@@U_Nil@1@@Z ; std::_Tree<std::_Tset_traits<Telegram,std::less<Telegram>,std::allocator<Telegram>,0> >::_Insert_nohint<Telegram const &,std::_Nil>
PUBLIC	??$move@AAD@std@@YA$$QADAAD@Z			; std::move<char &>
PUBLIC	??$forward@U_Zero_then_variadic_args_t@std@@@std@@YA$$QAU_Zero_then_variadic_args_t@0@AAU10@@Z ; std::forward<std::_Zero_then_variadic_args_t>
PUBLIC	??$forward@U_Container_proxy@std@@@std@@YA$$QAU_Container_proxy@0@AAU10@@Z ; std::forward<std::_Container_proxy>
PUBLIC	??$forward@ABU?$less@UTelegram@@@std@@@std@@YAABU?$less@UTelegram@@@0@ABU10@@Z ; std::forward<std::less<Telegram> const &>
PUBLIC	??$?0$$V@?$_Compressed_pair@V?$allocator@U?$_Tree_node@UTelegram@@PAX@std@@@std@@V?$_Tree_val@U?$_Tree_simple_types@UTelegram@@@std@@@2@$00@std@@QAE@U_Zero_then_variadic_args_t@1@@Z ; std::_Compressed_pair<std::allocator<std::_Tree_node<Telegram,void *> >,std::_Tree_val<std::_Tree_simple_types<Telegram> >,1>::_Compressed_pair<std::allocator<std::_Tree_node<Telegram,void *> >,std::_Tree_val<std::_Tree_simple_types<Telegram> >,1><>
PUBLIC	??$forward@AAPAU?$_Tree_node@UTelegram@@PAX@std@@@std@@YAAAPAU?$_Tree_node@UTelegram@@PAX@0@AAPAU10@@Z ; std::forward<std::_Tree_node<Telegram,void *> * &>
PUBLIC	??$_Debug_lt_pred@AAU?$less@UTelegram@@@std@@ABUTelegram@@ABU3@@std@@YA_NAAU?$less@UTelegram@@@0@ABUTelegram@@1PB_WI@Z ; std::_Debug_lt_pred<std::less<Telegram> &,Telegram const &,Telegram const &>
PUBLIC	??$forward@ABUTelegram@@@std@@YAABUTelegram@@ABU1@@Z ; std::forward<Telegram const &>
PUBLIC	??$_Insert_at@ABUTelegram@@U_Nil@std@@@?$_Tree@V?$_Tset_traits@UTelegram@@U?$less@UTelegram@@@std@@V?$allocator@UTelegram@@@3@$0A@@std@@@std@@IAE?AV?$_Tree_const_iterator@V?$_Tree_val@U?$_Tree_simple_types@UTelegram@@@std@@@std@@@1@_NPAU?$_Tree_node@UTelegram@@PAX@1@ABUTelegram@@U_Nil@1@@Z ; std::_Tree<std::_Tset_traits<Telegram,std::less<Telegram>,std::allocator<Telegram>,0> >::_Insert_at<Telegram const &,std::_Nil>
PUBLIC	??$?0V?$_Tree_const_iterator@V?$_Tree_val@U?$_Tree_simple_types@UTelegram@@@std@@@std@@@std@@_NX$0A@@?$pair@V?$_Tree_const_iterator@V?$_Tree_val@U?$_Tree_simple_types@UTelegram@@@std@@@std@@@std@@_N@std@@QAE@$$QAV?$_Tree_const_iterator@V?$_Tree_val@U?$_Tree_simple_types@UTelegram@@@std@@@std@@@1@$$QA_N@Z ; std::pair<std::_Tree_const_iterator<std::_Tree_val<std::_Tree_simple_types<Telegram> > >,bool>::pair<std::_Tree_const_iterator<std::_Tree_val<std::_Tree_simple_types<Telegram> > >,bool><std::_Tree_const_iterator<std::_Tree_val<std::_Tree_simple_types<Telegram> > >,bool,void,0>
PUBLIC	??$?0AAV?$_Tree_const_iterator@V?$_Tree_val@U?$_Tree_simple_types@UTelegram@@@std@@@std@@@std@@_NX$0A@@?$pair@V?$_Tree_const_iterator@V?$_Tree_val@U?$_Tree_simple_types@UTelegram@@@std@@@std@@@std@@_N@std@@QAE@AAV?$_Tree_const_iterator@V?$_Tree_val@U?$_Tree_simple_types@UTelegram@@@std@@@std@@@1@$$QA_N@Z ; std::pair<std::_Tree_const_iterator<std::_Tree_val<std::_Tree_simple_types<Telegram> > >,bool>::pair<std::_Tree_const_iterator<std::_Tree_val<std::_Tree_simple_types<Telegram> > >,bool><std::_Tree_const_iterator<std::_Tree_val<std::_Tree_simple_types<Telegram> > > &,bool,void,0>
PUBLIC	??$_Buynode_if_nil@ABUTelegram@@@?$_Tree@V?$_Tset_traits@UTelegram@@U?$less@UTelegram@@@std@@V?$allocator@UTelegram@@@3@$0A@@std@@@std@@IAEPAU?$_Tree_node@UTelegram@@PAX@1@U_Nil@1@ABUTelegram@@@Z ; std::_Tree<std::_Tset_traits<Telegram,std::less<Telegram>,std::allocator<Telegram>,0> >::_Buynode_if_nil<Telegram const &>
PUBLIC	??$forward@V?$_Tree_const_iterator@V?$_Tree_val@U?$_Tree_simple_types@UTelegram@@@std@@@std@@@std@@@std@@YA$$QAV?$_Tree_const_iterator@V?$_Tree_val@U?$_Tree_simple_types@UTelegram@@@std@@@std@@@0@AAV10@@Z ; std::forward<std::_Tree_const_iterator<std::_Tree_val<std::_Tree_simple_types<Telegram> > > >
PUBLIC	??$forward@_N@std@@YA$$QA_NAA_N@Z		; std::forward<bool>
PUBLIC	??$forward@AAV?$_Tree_const_iterator@V?$_Tree_val@U?$_Tree_simple_types@UTelegram@@@std@@@std@@@std@@@std@@YAAAV?$_Tree_const_iterator@V?$_Tree_val@U?$_Tree_simple_types@UTelegram@@@std@@@std@@@0@AAV10@@Z ; std::forward<std::_Tree_const_iterator<std::_Tree_val<std::_Tree_simple_types<Telegram> > > &>
PUBLIC	??$_Buynode@ABUTelegram@@@?$_Tree_comp_alloc@V?$_Tset_traits@UTelegram@@U?$less@UTelegram@@@std@@V?$allocator@UTelegram@@@3@$0A@@std@@@std@@QAEPAU?$_Tree_node@UTelegram@@PAX@1@ABUTelegram@@@Z ; std::_Tree_comp_alloc<std::_Tset_traits<Telegram,std::less<Telegram>,std::allocator<Telegram>,0> >::_Buynode<Telegram const &>
PUBLIC	??$construct@UTelegram@@ABU1@@?$_Default_allocator_traits@V?$allocator@U?$_Tree_node@UTelegram@@PAX@std@@@std@@@std@@SAXAAV?$allocator@U?$_Tree_node@UTelegram@@PAX@std@@@1@QAUTelegram@@ABU3@@Z ; std::_Default_allocator_traits<std::allocator<std::_Tree_node<Telegram,void *> > >::construct<Telegram,Telegram const &>
PUBLIC	??_C@_1NC@EFLIIKIK@?$AAC?$AA?3?$AA?2?$AAP?$AAr?$AAo?$AAg?$AAr?$AAa?$AAm?$AA?5?$AAF?$AAi?$AAl?$AAe?$AAs?$AA?5?$AA?$CI?$AAx?$AA8?$AA6?$AA?$CJ?$AA?2?$AAM?$AAi?$AAc?$AAr?$AAo?$AAs?$AAo?$AAf?$AAt@ ; `string'
PUBLIC	??_C@_1DC@POOIKBAO@?$AAI?$AAT?$AAE?$AAR?$AAA?$AAT?$AAO?$AAR?$AA?5?$AAL?$AAI?$AAS?$AAT?$AA?5?$AAC?$AAO?$AAR?$AAR?$AAU?$AAP?$AAT?$AAE?$AAD?$AA?$CB?$AA?$AA@ ; `string'
PUBLIC	??_C@_1EE@KLDMFDFL@?$AAs?$AAt?$AAd?$AA?3?$AA?3?$AA_?$AAI?$AAt?$AAe?$AAr?$AAa?$AAt?$AAo?$AAr?$AA_?$AAb?$AAa?$AAs?$AAe?$AA1?$AA2?$AA?3?$AA?3?$AA_?$AAO?$AAr?$AAp?$AAh?$AAa?$AAn?$AA_?$AAm@ ; `string'
PUBLIC	??_C@_1DG@PLBPCAEM@?$AA?$CC?$AAI?$AAT?$AAE?$AAR?$AAA?$AAT?$AAO?$AAR?$AA?5?$AAL?$AAI?$AAS?$AAT?$AA?5?$AAC?$AAO?$AAR?$AAR?$AAU?$AAP?$AAT?$AAE?$AAD?$AA?$CB?$AA?$CC?$AA?$AA@ ; `string'
PUBLIC	??_C@_0BE@LMNLACIC@_Ptr_container?5?$CB?$DN?50?$AA@ ; `string'
PUBLIC	??_C@_1DG@HGDKEBPG@?$AA?$CC?$AA_?$AAP?$AAt?$AAr?$AA_?$AAc?$AAo?$AAn?$AAt?$AAa?$AAi?$AAn?$AAe?$AAr?$AA?5?$AA?$CB?$AA?$DN?$AA?5?$AA0?$AA?$CC?$AA?5?$AA?$CG?$AA?$CG?$AA?5?$AA0?$AA?$AA@ ; `string'
PUBLIC	??_C@_17CNPHIMPH@?$AA?$CF?$AAl?$AAs?$AA?$AA@	; `string'
PUBLIC	??_C@_1NC@LIFDFPCJ@?$AAC?$AA?3?$AA?2?$AAP?$AAr?$AAo?$AAg?$AAr?$AAa?$AAm?$AA?5?$AAF?$AAi?$AAl?$AAe?$AAs?$AA?5?$AA?$CI?$AAx?$AA8?$AA6?$AA?$CJ?$AA?2?$AAM?$AAi?$AAc?$AAr?$AAo?$AAs?$AAo?$AAf?$AAt@ ; `string'
PUBLIC	??_C@_1BO@NKFMJPA@?$AAs?$AAt?$AAd?$AA?3?$AA?3?$AA_?$AAA?$AAl?$AAl?$AAo?$AAc?$AAa?$AAt?$AAe?$AA?$AA@ ; `string'
PUBLIC	??_C@_1CG@JNLFBNGN@?$AA?$CC?$AAi?$AAn?$AAv?$AAa?$AAl?$AAi?$AAd?$AA?5?$AAa?$AAr?$AAg?$AAu?$AAm?$AAe?$AAn?$AAt?$AA?$CC?$AA?$AA@ ; `string'
PUBLIC	??_C@_09GLJCAGLP@_Ptr?5?$CB?$DN?50?$AA@		; `string'
PUBLIC	??_C@_1CC@GKJLLHIM@?$AA?$CC?$AA_?$AAP?$AAt?$AAr?$AA?5?$AA?$CB?$AA?$DN?$AA?5?$AA0?$AA?$CC?$AA?5?$AA?$CG?$AA?$CG?$AA?5?$AA0?$AA?$AA@ ; `string'
PUBLIC	??_C@_1CC@LOFJFFDB@?$AAs?$AAt?$AAd?$AA?3?$AA?3?$AA_?$AAD?$AAe?$AAa?$AAl?$AAl?$AAo?$AAc?$AAa?$AAt?$AAe?$AA?$AA@ ; `string'
PUBLIC	??_C@_1MM@PPENIDKE@?$AAC?$AA?3?$AA?2?$AAP?$AAr?$AAo?$AAg?$AAr?$AAa?$AAm?$AA?5?$AAF?$AAi?$AAl?$AAe?$AAs?$AA?5?$AA?$CI?$AAx?$AA8?$AA6?$AA?$CJ?$AA?2?$AAM?$AAi?$AAc?$AAr?$AAo?$AAs?$AAo?$AAf?$AAt@ ; `string'
PUBLIC	??_C@_1EI@FHEHNNNM@?$AAm?$AAa?$AAp?$AA?1?$AAs?$AAe?$AAt?$AA?5?$AAi?$AAt?$AAe?$AAr?$AAa?$AAt?$AAo?$AAr?$AA?5?$AAn?$AAo?$AAt?$AA?5?$AAd?$AAe?$AAr?$AAe?$AAf?$AAe?$AAr?$AAe?$AAn?$AAc?$AAa@ ; `string'
PUBLIC	??_C@_1NO@FBLHDHCP@?$AAs?$AAt?$AAd?$AA?3?$AA?3?$AA_?$AAT?$AAr?$AAe?$AAe?$AA_?$AAc?$AAo?$AAn?$AAs?$AAt?$AA_?$AAi?$AAt?$AAe?$AAr?$AAa?$AAt?$AAo?$AAr?$AA?$DM?$AAc?$AAl?$AAa?$AAs?$AAs?$AA?5@ ; `string'
PUBLIC	??_C@_1EM@KEKCOCNI@?$AA?$CC?$AAm?$AAa?$AAp?$AA?1?$AAs?$AAe?$AAt?$AA?5?$AAi?$AAt?$AAe?$AAr?$AAa?$AAt?$AAo?$AAr?$AA?5?$AAn?$AAo?$AAt?$AA?5?$AAd?$AAe?$AAr?$AAe?$AAf?$AAe?$AAr?$AAe?$AAn?$AAc@ ; `string'
PUBLIC	??_C@_1EK@PPDBPCAN@?$AAm?$AAa?$AAp?$AA?1?$AAs?$AAe?$AAt?$AA?5?$AAe?$AAr?$AAa?$AAs?$AAe?$AA?5?$AAi?$AAt?$AAe?$AAr?$AAa?$AAt?$AAo?$AAr?$AA?5?$AAo?$AAu?$AAt?$AAs?$AAi?$AAd?$AAe?$AA?5?$AAr@ ; `string'
PUBLIC	??_C@_1BAO@LAKEHICC@?$AAs?$AAt?$AAd?$AA?3?$AA?3?$AA_?$AAT?$AAr?$AAe?$AAe?$AA?$DM?$AAc?$AAl?$AAa?$AAs?$AAs?$AA?5?$AAs?$AAt?$AAd?$AA?3?$AA?3?$AA_?$AAT?$AAs?$AAe?$AAt?$AA_?$AAt?$AAr?$AAa?$AAi@ ; `string'
PUBLIC	??_C@_1EO@CEDAEPC@?$AA?$CC?$AAm?$AAa?$AAp?$AA?1?$AAs?$AAe?$AAt?$AA?5?$AAe?$AAr?$AAa?$AAs?$AAe?$AA?5?$AAi?$AAt?$AAe?$AAr?$AAa?$AAt?$AAo?$AAr?$AA?5?$AAo?$AAu?$AAt?$AAs?$AAi?$AAd?$AAe?$AA?5@ ; `string'
PUBLIC	?id@?$num_put@DV?$ostreambuf_iterator@DU?$char_traits@D@std@@@std@@@std@@2V0locale@2@A ; std::num_put<char,std::ostreambuf_iterator<char,std::char_traits<char> > >::id
PUBLIC	??_C@_1EG@EHJFMBHJ@?$AAm?$AAa?$AAp?$AA?1?$AAs?$AAe?$AAt?$AA?5?$AAi?$AAt?$AAe?$AAr?$AAa?$AAt?$AAo?$AAr?$AA?5?$AAn?$AAo?$AAt?$AA?5?$AAi?$AAn?$AAc?$AAr?$AAe?$AAm?$AAe?$AAn?$AAt?$AAa?$AAb@ ; `string'
PUBLIC	??_C@_1OA@BGMODHEP@?$AAs?$AAt?$AAd?$AA?3?$AA?3?$AA_?$AAT?$AAr?$AAe?$AAe?$AA_?$AAc?$AAo?$AAn?$AAs?$AAt?$AA_?$AAi?$AAt?$AAe?$AAr?$AAa?$AAt?$AAo?$AAr?$AA?$DM?$AAc?$AAl?$AAa?$AAs?$AAs?$AA?5@ ; `string'
PUBLIC	??_C@_1EK@BCPDGOMC@?$AA?$CC?$AAm?$AAa?$AAp?$AA?1?$AAs?$AAe?$AAt?$AA?5?$AAi?$AAt?$AAe?$AAr?$AAa?$AAt?$AAo?$AAr?$AA?5?$AAn?$AAo?$AAt?$AA?5?$AAi?$AAn?$AAc?$AAr?$AAe?$AAm?$AAe?$AAn?$AAt?$AAa@ ; `string'
PUBLIC	?id@?$numpunct@D@std@@2V0locale@2@A		; std::numpunct<char>::id
PUBLIC	??_C@_1DO@CFEEPGGJ@?$AAm?$AAa?$AAp?$AA?1?$AAs?$AAe?$AAt?$AA?5?$AAi?$AAt?$AAe?$AAr?$AAa?$AAt?$AAo?$AAr?$AAs?$AA?5?$AAi?$AAn?$AAc?$AAo?$AAm?$AAp?$AAa?$AAt?$AAi?$AAb?$AAl?$AAe?$AA?$AA@ ; `string'
PUBLIC	??_C@_1EC@JLIDLCDH@?$AA?$CC?$AAm?$AAa?$AAp?$AA?1?$AAs?$AAe?$AAt?$AA?5?$AAi?$AAt?$AAe?$AAr?$AAa?$AAt?$AAo?$AAr?$AAs?$AA?5?$AAi?$AAn?$AAc?$AAo?$AAm?$AAp?$AAa?$AAt?$AAi?$AAb?$AAl?$AAe?$AA?$CC@ ; `string'
PUBLIC	??_C@_1OA@LGDDNOIK@?$AAs?$AAt?$AAd?$AA?3?$AA?3?$AA_?$AAT?$AAr?$AAe?$AAe?$AA_?$AAc?$AAo?$AAn?$AAs?$AAt?$AA_?$AAi?$AAt?$AAe?$AAr?$AAa?$AAt?$AAo?$AAr?$AA?$DM?$AAc?$AAl?$AAa?$AAs?$AAs?$AA?5@ ; `string'
PUBLIC	??_C@_1EG@OKCGOALM@?$AAm?$AAa?$AAp?$AA?1?$AAs?$AAe?$AAt?$AA?5?$AAi?$AAt?$AAe?$AAr?$AAa?$AAt?$AAo?$AAr?$AA?5?$AAn?$AAo?$AAt?$AA?5?$AAd?$AAe?$AAc?$AAr?$AAe?$AAm?$AAe?$AAn?$AAt?$AAa?$AAb@ ; `string'
PUBLIC	??_C@_1OA@OFPMILIO@?$AAs?$AAt?$AAd?$AA?3?$AA?3?$AA_?$AAT?$AAr?$AAe?$AAe?$AA_?$AAc?$AAo?$AAn?$AAs?$AAt?$AA_?$AAi?$AAt?$AAe?$AAr?$AAa?$AAt?$AAo?$AAr?$AA?$DM?$AAc?$AAl?$AAa?$AAs?$AAs?$AA?5@ ; `string'
PUBLIC	??_C@_1EK@OIBHPACE@?$AA?$CC?$AAm?$AAa?$AAp?$AA?1?$AAs?$AAe?$AAt?$AA?5?$AAi?$AAt?$AAe?$AAr?$AAa?$AAt?$AAo?$AAr?$AA?5?$AAn?$AAo?$AAt?$AA?5?$AAd?$AAe?$AAc?$AAr?$AAe?$AAm?$AAe?$AAn?$AAt?$AAa@ ; `string'
PUBLIC	??_C@_1CG@LEJCKCBB@?$AAi?$AAn?$AAv?$AAa?$AAl?$AAi?$AAd?$AA?5?$AAc?$AAo?$AAm?$AAp?$AAa?$AAr?$AAa?$AAt?$AAo?$AAr?$AA?$AA@ ; `string'
PUBLIC	??_C@_1CI@JONCLBEJ@?$AAs?$AAt?$AAd?$AA?3?$AA?3?$AA_?$AAD?$AAe?$AAb?$AAu?$AAg?$AA_?$AAl?$AAt?$AA_?$AAp?$AAr?$AAe?$AAd?$AA?$AA@ ; `string'
PUBLIC	??_C@_1CK@NDNHPKPI@?$AA?$CC?$AAi?$AAn?$AAv?$AAa?$AAl?$AAi?$AAd?$AA?5?$AAc?$AAo?$AAm?$AAp?$AAa?$AAr?$AAa?$AAt?$AAo?$AAr?$AA?$CC?$AA?$AA@ ; `string'
PUBLIC	??_C@_0BE@JONHPENG@map?1set?$DMT?$DO?5too?5long?$AA@ ; `string'
PUBLIC	__real@0000000000000000
PUBLIC	__real@0010000000000000
PUBLIC	__real@00800000
PUBLIC	__real@3fd0000000000000
PUBLIC	__real@7f7fffff
PUBLIC	__real@7fefffffffffffff
EXTRN	??2@YAPAXI@Z:PROC				; operator new
EXTRN	??3@YAXPAX@Z:PROC				; operator delete
EXTRN	_atexit:PROC
EXTRN	__Init_thread_header:PROC
EXTRN	__Init_thread_abort:PROC
EXTRN	__Init_thread_footer:PROC
EXTRN	__invalid_parameter:PROC
EXTRN	??0_Lockit@std@@QAE@H@Z:PROC			; std::_Lockit::_Lockit
EXTRN	??1_Lockit@std@@QAE@XZ:PROC			; std::_Lockit::~_Lockit
EXTRN	_fabs:PROC
EXTRN	__CrtDbgReportW:PROC
EXTRN	?_Debug_message@std@@YAXPB_W0I@Z:PROC		; std::_Debug_message
EXTRN	?_Xbad_alloc@std@@YAXXZ:PROC			; std::_Xbad_alloc
EXTRN	?_Xlength_error@std@@YAXPBD@Z:PROC		; std::_Xlength_error
EXTRN	?Instance@FrameCounter@@SAPAV1@XZ:PROC		; FrameCounter::Instance
EXTRN	?Instance@EntityManager@@SAPAV1@XZ:PROC		; EntityManager::Instance
EXTRN	?GetEntityFromID@EntityManager@@QBEPAVBaseGameEntity@@H@Z:PROC ; EntityManager::GetEntityFromID
EXTRN	@_RTC_CheckStackVars@8:PROC
EXTRN	@__security_check_cookie@4:PROC
EXTRN	__CxxThrowException@8:PROC
EXTRN	__RTC_CheckEsp:PROC
EXTRN	__RTC_InitBase:PROC
EXTRN	__RTC_Shutdown:PROC
EXTRN	___CxxFrameHandler3:PROC
EXTRN	__Init_thread_epoch:DWORD
EXTRN	___security_cookie:DWORD
EXTRN	__fltused:DWORD
EXTRN	__tls_array:DWORD
EXTRN	__tls_index:DWORD
_BSS	SEGMENT
?MaxInt@@3HB DD	01H DUP (?)				; MaxInt
	ALIGN	8

?MaxDouble@@3NB DQ 01H DUP (?)				; MaxDouble
?MinDouble@@3NB DQ 01H DUP (?)				; MinDouble
?MaxFloat@@3MB DD 01H DUP (?)				; MaxFloat
?MinFloat@@3MB DD 01H DUP (?)				; MinFloat
_BSS	ENDS
;	COMDAT ?instance@?1??Instance@MessageDispatcher@@SAPAV2@XZ@4V2@A
_BSS	SEGMENT
?instance@?1??Instance@MessageDispatcher@@SAPAV2@XZ@4V2@A DB 0cH DUP (?) ; `MessageDispatcher::Instance'::`2'::instance
_BSS	ENDS
;	COMDAT ?$TSS0@?1??Instance@MessageDispatcher@@SAPAV2@XZ@4HA
_BSS	SEGMENT
?$TSS0@?1??Instance@MessageDispatcher@@SAPAV2@XZ@4HA DD 01H DUP (?) ; TSS0<`template-parameter-2',MessageDispatcher::stance,MessageDispatcher * * const volatile,void,int, ?? &>
_BSS	ENDS
;	COMDAT ?id@?$num_put@DV?$ostreambuf_iterator@DU?$char_traits@D@std@@@std@@@std@@2V0locale@2@A
_BSS	SEGMENT
?id@?$num_put@DV?$ostreambuf_iterator@DU?$char_traits@D@std@@@std@@@std@@2V0locale@2@A DD 01H DUP (?) ; std::num_put<char,std::ostreambuf_iterator<char,std::char_traits<char> > >::id
_BSS	ENDS
;	COMDAT ?id@?$numpunct@D@std@@2V0locale@2@A
_BSS	SEGMENT
?id@?$numpunct@D@std@@2V0locale@2@A DD 01H DUP (?)	; std::numpunct<char>::id
_BSS	ENDS
CRT$XCU	SEGMENT
?MaxInt$initializer$@@3P6AXXZA DD FLAT:??__EMaxInt@@YAXXZ ; MaxInt$initializer$
CRT$XCU	ENDS
;	COMDAT __real@7fefffffffffffff
CONST	SEGMENT
__real@7fefffffffffffff DQ 07fefffffffffffffr	; 1.79769e+308
CONST	ENDS
;	COMDAT __real@7f7fffff
CONST	SEGMENT
__real@7f7fffff DD 07f7fffffr			; 3.40282e+38
CONST	ENDS
;	COMDAT __real@3fd0000000000000
CONST	SEGMENT
__real@3fd0000000000000 DQ 03fd0000000000000r	; 0.25
CONST	ENDS
;	COMDAT __real@00800000
CONST	SEGMENT
__real@00800000 DD 000800000r			; 1.17549e-38
CONST	ENDS
;	COMDAT __real@0010000000000000
CONST	SEGMENT
__real@0010000000000000 DQ 00010000000000000r	; 2.22507e-308
CONST	ENDS
;	COMDAT __real@0000000000000000
CONST	SEGMENT
__real@0000000000000000 DQ 00000000000000000r	; 0
CONST	ENDS
;	COMDAT rtc$TMZ
rtc$TMZ	SEGMENT
__RTC_Shutdown.rtc$TMZ DD FLAT:__RTC_Shutdown
rtc$TMZ	ENDS
;	COMDAT rtc$IMZ
rtc$IMZ	SEGMENT
__RTC_InitBase.rtc$IMZ DD FLAT:__RTC_InitBase
rtc$IMZ	ENDS
;	COMDAT ??_C@_0BE@JONHPENG@map?1set?$DMT?$DO?5too?5long?$AA@
CONST	SEGMENT
??_C@_0BE@JONHPENG@map?1set?$DMT?$DO?5too?5long?$AA@ DB 'map/set<T> too l'
	DB	'ong', 00H					; `string'
CONST	ENDS
;	COMDAT ??_C@_1CK@NDNHPKPI@?$AA?$CC?$AAi?$AAn?$AAv?$AAa?$AAl?$AAi?$AAd?$AA?5?$AAc?$AAo?$AAm?$AAp?$AAa?$AAr?$AAa?$AAt?$AAo?$AAr?$AA?$CC?$AA?$AA@
CONST	SEGMENT
??_C@_1CK@NDNHPKPI@?$AA?$CC?$AAi?$AAn?$AAv?$AAa?$AAl?$AAi?$AAd?$AA?5?$AAc?$AAo?$AAm?$AAp?$AAa?$AAr?$AAa?$AAt?$AAo?$AAr?$AA?$CC?$AA?$AA@ DB '"'
	DB	00H, 'i', 00H, 'n', 00H, 'v', 00H, 'a', 00H, 'l', 00H, 'i', 00H
	DB	'd', 00H, ' ', 00H, 'c', 00H, 'o', 00H, 'm', 00H, 'p', 00H, 'a'
	DB	00H, 'r', 00H, 'a', 00H, 't', 00H, 'o', 00H, 'r', 00H, '"', 00H
	DB	00H, 00H					; `string'
CONST	ENDS
;	COMDAT ??_C@_1CI@JONCLBEJ@?$AAs?$AAt?$AAd?$AA?3?$AA?3?$AA_?$AAD?$AAe?$AAb?$AAu?$AAg?$AA_?$AAl?$AAt?$AA_?$AAp?$AAr?$AAe?$AAd?$AA?$AA@
CONST	SEGMENT
??_C@_1CI@JONCLBEJ@?$AAs?$AAt?$AAd?$AA?3?$AA?3?$AA_?$AAD?$AAe?$AAb?$AAu?$AAg?$AA_?$AAl?$AAt?$AA_?$AAp?$AAr?$AAe?$AAd?$AA?$AA@ DB 's'
	DB	00H, 't', 00H, 'd', 00H, ':', 00H, ':', 00H, '_', 00H, 'D', 00H
	DB	'e', 00H, 'b', 00H, 'u', 00H, 'g', 00H, '_', 00H, 'l', 00H, 't'
	DB	00H, '_', 00H, 'p', 00H, 'r', 00H, 'e', 00H, 'd', 00H, 00H, 00H ; `string'
CONST	ENDS
;	COMDAT ??_C@_1CG@LEJCKCBB@?$AAi?$AAn?$AAv?$AAa?$AAl?$AAi?$AAd?$AA?5?$AAc?$AAo?$AAm?$AAp?$AAa?$AAr?$AAa?$AAt?$AAo?$AAr?$AA?$AA@
CONST	SEGMENT
??_C@_1CG@LEJCKCBB@?$AAi?$AAn?$AAv?$AAa?$AAl?$AAi?$AAd?$AA?5?$AAc?$AAo?$AAm?$AAp?$AAa?$AAr?$AAa?$AAt?$AAo?$AAr?$AA?$AA@ DB 'i'
	DB	00H, 'n', 00H, 'v', 00H, 'a', 00H, 'l', 00H, 'i', 00H, 'd', 00H
	DB	' ', 00H, 'c', 00H, 'o', 00H, 'm', 00H, 'p', 00H, 'a', 00H, 'r'
	DB	00H, 'a', 00H, 't', 00H, 'o', 00H, 'r', 00H, 00H, 00H ; `string'
CONST	ENDS
;	COMDAT ??_C@_1EK@OIBHPACE@?$AA?$CC?$AAm?$AAa?$AAp?$AA?1?$AAs?$AAe?$AAt?$AA?5?$AAi?$AAt?$AAe?$AAr?$AAa?$AAt?$AAo?$AAr?$AA?5?$AAn?$AAo?$AAt?$AA?5?$AAd?$AAe?$AAc?$AAr?$AAe?$AAm?$AAe?$AAn?$AAt?$AAa@
CONST	SEGMENT
??_C@_1EK@OIBHPACE@?$AA?$CC?$AAm?$AAa?$AAp?$AA?1?$AAs?$AAe?$AAt?$AA?5?$AAi?$AAt?$AAe?$AAr?$AAa?$AAt?$AAo?$AAr?$AA?5?$AAn?$AAo?$AAt?$AA?5?$AAd?$AAe?$AAc?$AAr?$AAe?$AAm?$AAe?$AAn?$AAt?$AAa@ DB '"'
	DB	00H, 'm', 00H, 'a', 00H, 'p', 00H, '/', 00H, 's', 00H, 'e', 00H
	DB	't', 00H, ' ', 00H, 'i', 00H, 't', 00H, 'e', 00H, 'r', 00H, 'a'
	DB	00H, 't', 00H, 'o', 00H, 'r', 00H, ' ', 00H, 'n', 00H, 'o', 00H
	DB	't', 00H, ' ', 00H, 'd', 00H, 'e', 00H, 'c', 00H, 'r', 00H, 'e'
	DB	00H, 'm', 00H, 'e', 00H, 'n', 00H, 't', 00H, 'a', 00H, 'b', 00H
	DB	'l', 00H, 'e', 00H, '"', 00H, 00H, 00H	; `string'
CONST	ENDS
;	COMDAT ??_C@_1OA@OFPMILIO@?$AAs?$AAt?$AAd?$AA?3?$AA?3?$AA_?$AAT?$AAr?$AAe?$AAe?$AA_?$AAc?$AAo?$AAn?$AAs?$AAt?$AA_?$AAi?$AAt?$AAe?$AAr?$AAa?$AAt?$AAo?$AAr?$AA?$DM?$AAc?$AAl?$AAa?$AAs?$AAs?$AA?5@
CONST	SEGMENT
??_C@_1OA@OFPMILIO@?$AAs?$AAt?$AAd?$AA?3?$AA?3?$AA_?$AAT?$AAr?$AAe?$AAe?$AA_?$AAc?$AAo?$AAn?$AAs?$AAt?$AA_?$AAi?$AAt?$AAe?$AAr?$AAa?$AAt?$AAo?$AAr?$AA?$DM?$AAc?$AAl?$AAa?$AAs?$AAs?$AA?5@ DB 's'
	DB	00H, 't', 00H, 'd', 00H, ':', 00H, ':', 00H, '_', 00H, 'T', 00H
	DB	'r', 00H, 'e', 00H, 'e', 00H, '_', 00H, 'c', 00H, 'o', 00H, 'n'
	DB	00H, 's', 00H, 't', 00H, '_', 00H, 'i', 00H, 't', 00H, 'e', 00H
	DB	'r', 00H, 'a', 00H, 't', 00H, 'o', 00H, 'r', 00H, '<', 00H, 'c'
	DB	00H, 'l', 00H, 'a', 00H, 's', 00H, 's', 00H, ' ', 00H, 's', 00H
	DB	't', 00H, 'd', 00H, ':', 00H, ':', 00H, '_', 00H, 'T', 00H, 'r'
	DB	00H, 'e', 00H, 'e', 00H, '_', 00H, 'v', 00H, 'a', 00H, 'l', 00H
	DB	'<', 00H, 's', 00H, 't', 00H, 'r', 00H, 'u', 00H, 'c', 00H, 't'
	DB	00H, ' ', 00H, 's', 00H, 't', 00H, 'd', 00H, ':', 00H, ':', 00H
	DB	'_', 00H, 'T', 00H, 'r', 00H, 'e', 00H, 'e', 00H, '_', 00H, 's'
	DB	00H, 'i', 00H, 'm', 00H, 'p', 00H, 'l', 00H, 'e', 00H, '_', 00H
	DB	't', 00H, 'y', 00H, 'p', 00H, 'e', 00H, 's', 00H, '<', 00H, 's'
	DB	00H, 't', 00H, 'r', 00H, 'u', 00H, 'c', 00H, 't', 00H, ' ', 00H
	DB	'T', 00H, 'e', 00H, 'l', 00H, 'e', 00H, 'g', 00H, 'r', 00H, 'a'
	DB	00H, 'm', 00H, '>', 00H, ' ', 00H, '>', 00H, ' ', 00H, '>', 00H
	DB	':', 00H, ':', 00H, 'o', 00H, 'p', 00H, 'e', 00H, 'r', 00H, 'a'
	DB	00H, 't', 00H, 'o', 00H, 'r', 00H, ' ', 00H, '-', 00H, '-', 00H
	DB	00H, 00H					; `string'
CONST	ENDS
;	COMDAT ??_C@_1EG@OKCGOALM@?$AAm?$AAa?$AAp?$AA?1?$AAs?$AAe?$AAt?$AA?5?$AAi?$AAt?$AAe?$AAr?$AAa?$AAt?$AAo?$AAr?$AA?5?$AAn?$AAo?$AAt?$AA?5?$AAd?$AAe?$AAc?$AAr?$AAe?$AAm?$AAe?$AAn?$AAt?$AAa?$AAb@
CONST	SEGMENT
??_C@_1EG@OKCGOALM@?$AAm?$AAa?$AAp?$AA?1?$AAs?$AAe?$AAt?$AA?5?$AAi?$AAt?$AAe?$AAr?$AAa?$AAt?$AAo?$AAr?$AA?5?$AAn?$AAo?$AAt?$AA?5?$AAd?$AAe?$AAc?$AAr?$AAe?$AAm?$AAe?$AAn?$AAt?$AAa?$AAb@ DB 'm'
	DB	00H, 'a', 00H, 'p', 00H, '/', 00H, 's', 00H, 'e', 00H, 't', 00H
	DB	' ', 00H, 'i', 00H, 't', 00H, 'e', 00H, 'r', 00H, 'a', 00H, 't'
	DB	00H, 'o', 00H, 'r', 00H, ' ', 00H, 'n', 00H, 'o', 00H, 't', 00H
	DB	' ', 00H, 'd', 00H, 'e', 00H, 'c', 00H, 'r', 00H, 'e', 00H, 'm'
	DB	00H, 'e', 00H, 'n', 00H, 't', 00H, 'a', 00H, 'b', 00H, 'l', 00H
	DB	'e', 00H, 00H, 00H				; `string'
CONST	ENDS
;	COMDAT ??_C@_1OA@LGDDNOIK@?$AAs?$AAt?$AAd?$AA?3?$AA?3?$AA_?$AAT?$AAr?$AAe?$AAe?$AA_?$AAc?$AAo?$AAn?$AAs?$AAt?$AA_?$AAi?$AAt?$AAe?$AAr?$AAa?$AAt?$AAo?$AAr?$AA?$DM?$AAc?$AAl?$AAa?$AAs?$AAs?$AA?5@
CONST	SEGMENT
??_C@_1OA@LGDDNOIK@?$AAs?$AAt?$AAd?$AA?3?$AA?3?$AA_?$AAT?$AAr?$AAe?$AAe?$AA_?$AAc?$AAo?$AAn?$AAs?$AAt?$AA_?$AAi?$AAt?$AAe?$AAr?$AAa?$AAt?$AAo?$AAr?$AA?$DM?$AAc?$AAl?$AAa?$AAs?$AAs?$AA?5@ DB 's'
	DB	00H, 't', 00H, 'd', 00H, ':', 00H, ':', 00H, '_', 00H, 'T', 00H
	DB	'r', 00H, 'e', 00H, 'e', 00H, '_', 00H, 'c', 00H, 'o', 00H, 'n'
	DB	00H, 's', 00H, 't', 00H, '_', 00H, 'i', 00H, 't', 00H, 'e', 00H
	DB	'r', 00H, 'a', 00H, 't', 00H, 'o', 00H, 'r', 00H, '<', 00H, 'c'
	DB	00H, 'l', 00H, 'a', 00H, 's', 00H, 's', 00H, ' ', 00H, 's', 00H
	DB	't', 00H, 'd', 00H, ':', 00H, ':', 00H, '_', 00H, 'T', 00H, 'r'
	DB	00H, 'e', 00H, 'e', 00H, '_', 00H, 'v', 00H, 'a', 00H, 'l', 00H
	DB	'<', 00H, 's', 00H, 't', 00H, 'r', 00H, 'u', 00H, 'c', 00H, 't'
	DB	00H, ' ', 00H, 's', 00H, 't', 00H, 'd', 00H, ':', 00H, ':', 00H
	DB	'_', 00H, 'T', 00H, 'r', 00H, 'e', 00H, 'e', 00H, '_', 00H, 's'
	DB	00H, 'i', 00H, 'm', 00H, 'p', 00H, 'l', 00H, 'e', 00H, '_', 00H
	DB	't', 00H, 'y', 00H, 'p', 00H, 'e', 00H, 's', 00H, '<', 00H, 's'
	DB	00H, 't', 00H, 'r', 00H, 'u', 00H, 'c', 00H, 't', 00H, ' ', 00H
	DB	'T', 00H, 'e', 00H, 'l', 00H, 'e', 00H, 'g', 00H, 'r', 00H, 'a'
	DB	00H, 'm', 00H, '>', 00H, ' ', 00H, '>', 00H, ' ', 00H, '>', 00H
	DB	':', 00H, ':', 00H, 'o', 00H, 'p', 00H, 'e', 00H, 'r', 00H, 'a'
	DB	00H, 't', 00H, 'o', 00H, 'r', 00H, ' ', 00H, '=', 00H, '=', 00H
	DB	00H, 00H					; `string'
CONST	ENDS
;	COMDAT ??_C@_1EC@JLIDLCDH@?$AA?$CC?$AAm?$AAa?$AAp?$AA?1?$AAs?$AAe?$AAt?$AA?5?$AAi?$AAt?$AAe?$AAr?$AAa?$AAt?$AAo?$AAr?$AAs?$AA?5?$AAi?$AAn?$AAc?$AAo?$AAm?$AAp?$AAa?$AAt?$AAi?$AAb?$AAl?$AAe?$AA?$CC@
CONST	SEGMENT
??_C@_1EC@JLIDLCDH@?$AA?$CC?$AAm?$AAa?$AAp?$AA?1?$AAs?$AAe?$AAt?$AA?5?$AAi?$AAt?$AAe?$AAr?$AAa?$AAt?$AAo?$AAr?$AAs?$AA?5?$AAi?$AAn?$AAc?$AAo?$AAm?$AAp?$AAa?$AAt?$AAi?$AAb?$AAl?$AAe?$AA?$CC@ DB '"'
	DB	00H, 'm', 00H, 'a', 00H, 'p', 00H, '/', 00H, 's', 00H, 'e', 00H
	DB	't', 00H, ' ', 00H, 'i', 00H, 't', 00H, 'e', 00H, 'r', 00H, 'a'
	DB	00H, 't', 00H, 'o', 00H, 'r', 00H, 's', 00H, ' ', 00H, 'i', 00H
	DB	'n', 00H, 'c', 00H, 'o', 00H, 'm', 00H, 'p', 00H, 'a', 00H, 't'
	DB	00H, 'i', 00H, 'b', 00H, 'l', 00H, 'e', 00H, '"', 00H, 00H, 00H ; `string'
CONST	ENDS
;	COMDAT ??_C@_1DO@CFEEPGGJ@?$AAm?$AAa?$AAp?$AA?1?$AAs?$AAe?$AAt?$AA?5?$AAi?$AAt?$AAe?$AAr?$AAa?$AAt?$AAo?$AAr?$AAs?$AA?5?$AAi?$AAn?$AAc?$AAo?$AAm?$AAp?$AAa?$AAt?$AAi?$AAb?$AAl?$AAe?$AA?$AA@
CONST	SEGMENT
??_C@_1DO@CFEEPGGJ@?$AAm?$AAa?$AAp?$AA?1?$AAs?$AAe?$AAt?$AA?5?$AAi?$AAt?$AAe?$AAr?$AAa?$AAt?$AAo?$AAr?$AAs?$AA?5?$AAi?$AAn?$AAc?$AAo?$AAm?$AAp?$AAa?$AAt?$AAi?$AAb?$AAl?$AAe?$AA?$AA@ DB 'm'
	DB	00H, 'a', 00H, 'p', 00H, '/', 00H, 's', 00H, 'e', 00H, 't', 00H
	DB	' ', 00H, 'i', 00H, 't', 00H, 'e', 00H, 'r', 00H, 'a', 00H, 't'
	DB	00H, 'o', 00H, 'r', 00H, 's', 00H, ' ', 00H, 'i', 00H, 'n', 00H
	DB	'c', 00H, 'o', 00H, 'm', 00H, 'p', 00H, 'a', 00H, 't', 00H, 'i'
	DB	00H, 'b', 00H, 'l', 00H, 'e', 00H, 00H, 00H	; `string'
CONST	ENDS
;	COMDAT ??_C@_1EK@BCPDGOMC@?$AA?$CC?$AAm?$AAa?$AAp?$AA?1?$AAs?$AAe?$AAt?$AA?5?$AAi?$AAt?$AAe?$AAr?$AAa?$AAt?$AAo?$AAr?$AA?5?$AAn?$AAo?$AAt?$AA?5?$AAi?$AAn?$AAc?$AAr?$AAe?$AAm?$AAe?$AAn?$AAt?$AAa@
CONST	SEGMENT
??_C@_1EK@BCPDGOMC@?$AA?$CC?$AAm?$AAa?$AAp?$AA?1?$AAs?$AAe?$AAt?$AA?5?$AAi?$AAt?$AAe?$AAr?$AAa?$AAt?$AAo?$AAr?$AA?5?$AAn?$AAo?$AAt?$AA?5?$AAi?$AAn?$AAc?$AAr?$AAe?$AAm?$AAe?$AAn?$AAt?$AAa@ DB '"'
	DB	00H, 'm', 00H, 'a', 00H, 'p', 00H, '/', 00H, 's', 00H, 'e', 00H
	DB	't', 00H, ' ', 00H, 'i', 00H, 't', 00H, 'e', 00H, 'r', 00H, 'a'
	DB	00H, 't', 00H, 'o', 00H, 'r', 00H, ' ', 00H, 'n', 00H, 'o', 00H
	DB	't', 00H, ' ', 00H, 'i', 00H, 'n', 00H, 'c', 00H, 'r', 00H, 'e'
	DB	00H, 'm', 00H, 'e', 00H, 'n', 00H, 't', 00H, 'a', 00H, 'b', 00H
	DB	'l', 00H, 'e', 00H, '"', 00H, 00H, 00H	; `string'
CONST	ENDS
;	COMDAT ??_C@_1OA@BGMODHEP@?$AAs?$AAt?$AAd?$AA?3?$AA?3?$AA_?$AAT?$AAr?$AAe?$AAe?$AA_?$AAc?$AAo?$AAn?$AAs?$AAt?$AA_?$AAi?$AAt?$AAe?$AAr?$AAa?$AAt?$AAo?$AAr?$AA?$DM?$AAc?$AAl?$AAa?$AAs?$AAs?$AA?5@
CONST	SEGMENT
??_C@_1OA@BGMODHEP@?$AAs?$AAt?$AAd?$AA?3?$AA?3?$AA_?$AAT?$AAr?$AAe?$AAe?$AA_?$AAc?$AAo?$AAn?$AAs?$AAt?$AA_?$AAi?$AAt?$AAe?$AAr?$AAa?$AAt?$AAo?$AAr?$AA?$DM?$AAc?$AAl?$AAa?$AAs?$AAs?$AA?5@ DB 's'
	DB	00H, 't', 00H, 'd', 00H, ':', 00H, ':', 00H, '_', 00H, 'T', 00H
	DB	'r', 00H, 'e', 00H, 'e', 00H, '_', 00H, 'c', 00H, 'o', 00H, 'n'
	DB	00H, 's', 00H, 't', 00H, '_', 00H, 'i', 00H, 't', 00H, 'e', 00H
	DB	'r', 00H, 'a', 00H, 't', 00H, 'o', 00H, 'r', 00H, '<', 00H, 'c'
	DB	00H, 'l', 00H, 'a', 00H, 's', 00H, 's', 00H, ' ', 00H, 's', 00H
	DB	't', 00H, 'd', 00H, ':', 00H, ':', 00H, '_', 00H, 'T', 00H, 'r'
	DB	00H, 'e', 00H, 'e', 00H, '_', 00H, 'v', 00H, 'a', 00H, 'l', 00H
	DB	'<', 00H, 's', 00H, 't', 00H, 'r', 00H, 'u', 00H, 'c', 00H, 't'
	DB	00H, ' ', 00H, 's', 00H, 't', 00H, 'd', 00H, ':', 00H, ':', 00H
	DB	'_', 00H, 'T', 00H, 'r', 00H, 'e', 00H, 'e', 00H, '_', 00H, 's'
	DB	00H, 'i', 00H, 'm', 00H, 'p', 00H, 'l', 00H, 'e', 00H, '_', 00H
	DB	't', 00H, 'y', 00H, 'p', 00H, 'e', 00H, 's', 00H, '<', 00H, 's'
	DB	00H, 't', 00H, 'r', 00H, 'u', 00H, 'c', 00H, 't', 00H, ' ', 00H
	DB	'T', 00H, 'e', 00H, 'l', 00H, 'e', 00H, 'g', 00H, 'r', 00H, 'a'
	DB	00H, 'm', 00H, '>', 00H, ' ', 00H, '>', 00H, ' ', 00H, '>', 00H
	DB	':', 00H, ':', 00H, 'o', 00H, 'p', 00H, 'e', 00H, 'r', 00H, 'a'
	DB	00H, 't', 00H, 'o', 00H, 'r', 00H, ' ', 00H, '+', 00H, '+', 00H
	DB	00H, 00H					; `string'
CONST	ENDS
;	COMDAT ??_C@_1EG@EHJFMBHJ@?$AAm?$AAa?$AAp?$AA?1?$AAs?$AAe?$AAt?$AA?5?$AAi?$AAt?$AAe?$AAr?$AAa?$AAt?$AAo?$AAr?$AA?5?$AAn?$AAo?$AAt?$AA?5?$AAi?$AAn?$AAc?$AAr?$AAe?$AAm?$AAe?$AAn?$AAt?$AAa?$AAb@
CONST	SEGMENT
??_C@_1EG@EHJFMBHJ@?$AAm?$AAa?$AAp?$AA?1?$AAs?$AAe?$AAt?$AA?5?$AAi?$AAt?$AAe?$AAr?$AAa?$AAt?$AAo?$AAr?$AA?5?$AAn?$AAo?$AAt?$AA?5?$AAi?$AAn?$AAc?$AAr?$AAe?$AAm?$AAe?$AAn?$AAt?$AAa?$AAb@ DB 'm'
	DB	00H, 'a', 00H, 'p', 00H, '/', 00H, 's', 00H, 'e', 00H, 't', 00H
	DB	' ', 00H, 'i', 00H, 't', 00H, 'e', 00H, 'r', 00H, 'a', 00H, 't'
	DB	00H, 'o', 00H, 'r', 00H, ' ', 00H, 'n', 00H, 'o', 00H, 't', 00H
	DB	' ', 00H, 'i', 00H, 'n', 00H, 'c', 00H, 'r', 00H, 'e', 00H, 'm'
	DB	00H, 'e', 00H, 'n', 00H, 't', 00H, 'a', 00H, 'b', 00H, 'l', 00H
	DB	'e', 00H, 00H, 00H				; `string'
CONST	ENDS
;	COMDAT ??_C@_1EO@CEDAEPC@?$AA?$CC?$AAm?$AAa?$AAp?$AA?1?$AAs?$AAe?$AAt?$AA?5?$AAe?$AAr?$AAa?$AAs?$AAe?$AA?5?$AAi?$AAt?$AAe?$AAr?$AAa?$AAt?$AAo?$AAr?$AA?5?$AAo?$AAu?$AAt?$AAs?$AAi?$AAd?$AAe?$AA?5@
CONST	SEGMENT
??_C@_1EO@CEDAEPC@?$AA?$CC?$AAm?$AAa?$AAp?$AA?1?$AAs?$AAe?$AAt?$AA?5?$AAe?$AAr?$AAa?$AAs?$AAe?$AA?5?$AAi?$AAt?$AAe?$AAr?$AAa?$AAt?$AAo?$AAr?$AA?5?$AAo?$AAu?$AAt?$AAs?$AAi?$AAd?$AAe?$AA?5@ DB '"'
	DB	00H, 'm', 00H, 'a', 00H, 'p', 00H, '/', 00H, 's', 00H, 'e', 00H
	DB	't', 00H, ' ', 00H, 'e', 00H, 'r', 00H, 'a', 00H, 's', 00H, 'e'
	DB	00H, ' ', 00H, 'i', 00H, 't', 00H, 'e', 00H, 'r', 00H, 'a', 00H
	DB	't', 00H, 'o', 00H, 'r', 00H, ' ', 00H, 'o', 00H, 'u', 00H, 't'
	DB	00H, 's', 00H, 'i', 00H, 'd', 00H, 'e', 00H, ' ', 00H, 'r', 00H
	DB	'a', 00H, 'n', 00H, 'g', 00H, 'e', 00H, '"', 00H, 00H, 00H ; `string'
CONST	ENDS
;	COMDAT ??_C@_1BAO@LAKEHICC@?$AAs?$AAt?$AAd?$AA?3?$AA?3?$AA_?$AAT?$AAr?$AAe?$AAe?$AA?$DM?$AAc?$AAl?$AAa?$AAs?$AAs?$AA?5?$AAs?$AAt?$AAd?$AA?3?$AA?3?$AA_?$AAT?$AAs?$AAe?$AAt?$AA_?$AAt?$AAr?$AAa?$AAi@
CONST	SEGMENT
??_C@_1BAO@LAKEHICC@?$AAs?$AAt?$AAd?$AA?3?$AA?3?$AA_?$AAT?$AAr?$AAe?$AAe?$AA?$DM?$AAc?$AAl?$AAa?$AAs?$AAs?$AA?5?$AAs?$AAt?$AAd?$AA?3?$AA?3?$AA_?$AAT?$AAs?$AAe?$AAt?$AA_?$AAt?$AAr?$AAa?$AAi@ DB 's'
	DB	00H, 't', 00H, 'd', 00H, ':', 00H, ':', 00H, '_', 00H, 'T', 00H
	DB	'r', 00H, 'e', 00H, 'e', 00H, '<', 00H, 'c', 00H, 'l', 00H, 'a'
	DB	00H, 's', 00H, 's', 00H, ' ', 00H, 's', 00H, 't', 00H, 'd', 00H
	DB	':', 00H, ':', 00H, '_', 00H, 'T', 00H, 's', 00H, 'e', 00H, 't'
	DB	00H, '_', 00H, 't', 00H, 'r', 00H, 'a', 00H, 'i', 00H, 't', 00H
	DB	's', 00H, '<', 00H, 's', 00H, 't', 00H, 'r', 00H, 'u', 00H, 'c'
	DB	00H, 't', 00H, ' ', 00H, 'T', 00H, 'e', 00H, 'l', 00H, 'e', 00H
	DB	'g', 00H, 'r', 00H, 'a', 00H, 'm', 00H, ',', 00H, 's', 00H, 't'
	DB	00H, 'r', 00H, 'u', 00H, 'c', 00H, 't', 00H, ' ', 00H, 's', 00H
	DB	't', 00H, 'd', 00H, ':', 00H, ':', 00H, 'l', 00H, 'e', 00H, 's'
	DB	00H, 's', 00H, '<', 00H, 's', 00H, 't', 00H, 'r', 00H, 'u', 00H
	DB	'c', 00H, 't', 00H, ' ', 00H, 'T', 00H, 'e', 00H, 'l', 00H, 'e'
	DB	00H, 'g', 00H, 'r', 00H, 'a', 00H, 'm', 00H, '>', 00H, ',', 00H
	DB	'c', 00H, 'l', 00H, 'a', 00H, 's', 00H, 's', 00H, ' ', 00H, 's'
	DB	00H, 't', 00H, 'd', 00H, ':', 00H, ':', 00H, 'a', 00H, 'l', 00H
	DB	'l', 00H, 'o', 00H, 'c', 00H, 'a', 00H, 't', 00H, 'o', 00H, 'r'
	DB	00H, '<', 00H, 's', 00H, 't', 00H, 'r', 00H, 'u', 00H, 'c', 00H
	DB	't', 00H, ' ', 00H, 'T', 00H, 'e', 00H, 'l', 00H, 'e', 00H, 'g'
	DB	00H, 'r', 00H, 'a', 00H, 'm', 00H, '>', 00H, ',', 00H, '0', 00H
	DB	'>', 00H, ' ', 00H, '>', 00H, ':', 00H, ':', 00H, 'e', 00H, 'r'
	DB	00H, 'a', 00H, 's', 00H, 'e', 00H, 00H, 00H	; `string'
CONST	ENDS
;	COMDAT ??_C@_1EK@PPDBPCAN@?$AAm?$AAa?$AAp?$AA?1?$AAs?$AAe?$AAt?$AA?5?$AAe?$AAr?$AAa?$AAs?$AAe?$AA?5?$AAi?$AAt?$AAe?$AAr?$AAa?$AAt?$AAo?$AAr?$AA?5?$AAo?$AAu?$AAt?$AAs?$AAi?$AAd?$AAe?$AA?5?$AAr@
CONST	SEGMENT
??_C@_1EK@PPDBPCAN@?$AAm?$AAa?$AAp?$AA?1?$AAs?$AAe?$AAt?$AA?5?$AAe?$AAr?$AAa?$AAs?$AAe?$AA?5?$AAi?$AAt?$AAe?$AAr?$AAa?$AAt?$AAo?$AAr?$AA?5?$AAo?$AAu?$AAt?$AAs?$AAi?$AAd?$AAe?$AA?5?$AAr@ DB 'm'
	DB	00H, 'a', 00H, 'p', 00H, '/', 00H, 's', 00H, 'e', 00H, 't', 00H
	DB	' ', 00H, 'e', 00H, 'r', 00H, 'a', 00H, 's', 00H, 'e', 00H, ' '
	DB	00H, 'i', 00H, 't', 00H, 'e', 00H, 'r', 00H, 'a', 00H, 't', 00H
	DB	'o', 00H, 'r', 00H, ' ', 00H, 'o', 00H, 'u', 00H, 't', 00H, 's'
	DB	00H, 'i', 00H, 'd', 00H, 'e', 00H, ' ', 00H, 'r', 00H, 'a', 00H
	DB	'n', 00H, 'g', 00H, 'e', 00H, 00H, 00H	; `string'
CONST	ENDS
;	COMDAT ??_C@_1EM@KEKCOCNI@?$AA?$CC?$AAm?$AAa?$AAp?$AA?1?$AAs?$AAe?$AAt?$AA?5?$AAi?$AAt?$AAe?$AAr?$AAa?$AAt?$AAo?$AAr?$AA?5?$AAn?$AAo?$AAt?$AA?5?$AAd?$AAe?$AAr?$AAe?$AAf?$AAe?$AAr?$AAe?$AAn?$AAc@
CONST	SEGMENT
??_C@_1EM@KEKCOCNI@?$AA?$CC?$AAm?$AAa?$AAp?$AA?1?$AAs?$AAe?$AAt?$AA?5?$AAi?$AAt?$AAe?$AAr?$AAa?$AAt?$AAo?$AAr?$AA?5?$AAn?$AAo?$AAt?$AA?5?$AAd?$AAe?$AAr?$AAe?$AAf?$AAe?$AAr?$AAe?$AAn?$AAc@ DB '"'
	DB	00H, 'm', 00H, 'a', 00H, 'p', 00H, '/', 00H, 's', 00H, 'e', 00H
	DB	't', 00H, ' ', 00H, 'i', 00H, 't', 00H, 'e', 00H, 'r', 00H, 'a'
	DB	00H, 't', 00H, 'o', 00H, 'r', 00H, ' ', 00H, 'n', 00H, 'o', 00H
	DB	't', 00H, ' ', 00H, 'd', 00H, 'e', 00H, 'r', 00H, 'e', 00H, 'f'
	DB	00H, 'e', 00H, 'r', 00H, 'e', 00H, 'n', 00H, 'c', 00H, 'a', 00H
	DB	'b', 00H, 'l', 00H, 'e', 00H, '"', 00H, 00H, 00H ; `string'
CONST	ENDS
;	COMDAT ??_C@_1NO@FBLHDHCP@?$AAs?$AAt?$AAd?$AA?3?$AA?3?$AA_?$AAT?$AAr?$AAe?$AAe?$AA_?$AAc?$AAo?$AAn?$AAs?$AAt?$AA_?$AAi?$AAt?$AAe?$AAr?$AAa?$AAt?$AAo?$AAr?$AA?$DM?$AAc?$AAl?$AAa?$AAs?$AAs?$AA?5@
CONST	SEGMENT
??_C@_1NO@FBLHDHCP@?$AAs?$AAt?$AAd?$AA?3?$AA?3?$AA_?$AAT?$AAr?$AAe?$AAe?$AA_?$AAc?$AAo?$AAn?$AAs?$AAt?$AA_?$AAi?$AAt?$AAe?$AAr?$AAa?$AAt?$AAo?$AAr?$AA?$DM?$AAc?$AAl?$AAa?$AAs?$AAs?$AA?5@ DB 's'
	DB	00H, 't', 00H, 'd', 00H, ':', 00H, ':', 00H, '_', 00H, 'T', 00H
	DB	'r', 00H, 'e', 00H, 'e', 00H, '_', 00H, 'c', 00H, 'o', 00H, 'n'
	DB	00H, 's', 00H, 't', 00H, '_', 00H, 'i', 00H, 't', 00H, 'e', 00H
	DB	'r', 00H, 'a', 00H, 't', 00H, 'o', 00H, 'r', 00H, '<', 00H, 'c'
	DB	00H, 'l', 00H, 'a', 00H, 's', 00H, 's', 00H, ' ', 00H, 's', 00H
	DB	't', 00H, 'd', 00H, ':', 00H, ':', 00H, '_', 00H, 'T', 00H, 'r'
	DB	00H, 'e', 00H, 'e', 00H, '_', 00H, 'v', 00H, 'a', 00H, 'l', 00H
	DB	'<', 00H, 's', 00H, 't', 00H, 'r', 00H, 'u', 00H, 'c', 00H, 't'
	DB	00H, ' ', 00H, 's', 00H, 't', 00H, 'd', 00H, ':', 00H, ':', 00H
	DB	'_', 00H, 'T', 00H, 'r', 00H, 'e', 00H, 'e', 00H, '_', 00H, 's'
	DB	00H, 'i', 00H, 'm', 00H, 'p', 00H, 'l', 00H, 'e', 00H, '_', 00H
	DB	't', 00H, 'y', 00H, 'p', 00H, 'e', 00H, 's', 00H, '<', 00H, 's'
	DB	00H, 't', 00H, 'r', 00H, 'u', 00H, 'c', 00H, 't', 00H, ' ', 00H
	DB	'T', 00H, 'e', 00H, 'l', 00H, 'e', 00H, 'g', 00H, 'r', 00H, 'a'
	DB	00H, 'm', 00H, '>', 00H, ' ', 00H, '>', 00H, ' ', 00H, '>', 00H
	DB	':', 00H, ':', 00H, 'o', 00H, 'p', 00H, 'e', 00H, 'r', 00H, 'a'
	DB	00H, 't', 00H, 'o', 00H, 'r', 00H, ' ', 00H, '*', 00H, 00H, 00H ; `string'
CONST	ENDS
;	COMDAT ??_C@_1EI@FHEHNNNM@?$AAm?$AAa?$AAp?$AA?1?$AAs?$AAe?$AAt?$AA?5?$AAi?$AAt?$AAe?$AAr?$AAa?$AAt?$AAo?$AAr?$AA?5?$AAn?$AAo?$AAt?$AA?5?$AAd?$AAe?$AAr?$AAe?$AAf?$AAe?$AAr?$AAe?$AAn?$AAc?$AAa@
CONST	SEGMENT
??_C@_1EI@FHEHNNNM@?$AAm?$AAa?$AAp?$AA?1?$AAs?$AAe?$AAt?$AA?5?$AAi?$AAt?$AAe?$AAr?$AAa?$AAt?$AAo?$AAr?$AA?5?$AAn?$AAo?$AAt?$AA?5?$AAd?$AAe?$AAr?$AAe?$AAf?$AAe?$AAr?$AAe?$AAn?$AAc?$AAa@ DB 'm'
	DB	00H, 'a', 00H, 'p', 00H, '/', 00H, 's', 00H, 'e', 00H, 't', 00H
	DB	' ', 00H, 'i', 00H, 't', 00H, 'e', 00H, 'r', 00H, 'a', 00H, 't'
	DB	00H, 'o', 00H, 'r', 00H, ' ', 00H, 'n', 00H, 'o', 00H, 't', 00H
	DB	' ', 00H, 'd', 00H, 'e', 00H, 'r', 00H, 'e', 00H, 'f', 00H, 'e'
	DB	00H, 'r', 00H, 'e', 00H, 'n', 00H, 'c', 00H, 'a', 00H, 'b', 00H
	DB	'l', 00H, 'e', 00H, 00H, 00H			; `string'
CONST	ENDS
;	COMDAT ??_C@_1MM@PPENIDKE@?$AAC?$AA?3?$AA?2?$AAP?$AAr?$AAo?$AAg?$AAr?$AAa?$AAm?$AA?5?$AAF?$AAi?$AAl?$AAe?$AAs?$AA?5?$AA?$CI?$AAx?$AA8?$AA6?$AA?$CJ?$AA?2?$AAM?$AAi?$AAc?$AAr?$AAo?$AAs?$AAo?$AAf?$AAt@
CONST	SEGMENT
??_C@_1MM@PPENIDKE@?$AAC?$AA?3?$AA?2?$AAP?$AAr?$AAo?$AAg?$AAr?$AAa?$AAm?$AA?5?$AAF?$AAi?$AAl?$AAe?$AAs?$AA?5?$AA?$CI?$AAx?$AA8?$AA6?$AA?$CJ?$AA?2?$AAM?$AAi?$AAc?$AAr?$AAo?$AAs?$AAo?$AAf?$AAt@ DB 'C'
	DB	00H, ':', 00H, '\', 00H, 'P', 00H, 'r', 00H, 'o', 00H, 'g', 00H
	DB	'r', 00H, 'a', 00H, 'm', 00H, ' ', 00H, 'F', 00H, 'i', 00H, 'l'
	DB	00H, 'e', 00H, 's', 00H, ' ', 00H, '(', 00H, 'x', 00H, '8', 00H
	DB	'6', 00H, ')', 00H, '\', 00H, 'M', 00H, 'i', 00H, 'c', 00H, 'r'
	DB	00H, 'o', 00H, 's', 00H, 'o', 00H, 'f', 00H, 't', 00H, ' ', 00H
	DB	'V', 00H, 'i', 00H, 's', 00H, 'u', 00H, 'a', 00H, 'l', 00H, ' '
	DB	00H, 'S', 00H, 't', 00H, 'u', 00H, 'd', 00H, 'i', 00H, 'o', 00H
	DB	'\', 00H, '2', 00H, '0', 00H, '1', 00H, '7', 00H, '\', 00H, 'C'
	DB	00H, 'o', 00H, 'm', 00H, 'm', 00H, 'u', 00H, 'n', 00H, 'i', 00H
	DB	't', 00H, 'y', 00H, '\', 00H, 'V', 00H, 'C', 00H, '\', 00H, 'T'
	DB	00H, 'o', 00H, 'o', 00H, 'l', 00H, 's', 00H, '\', 00H, 'M', 00H
	DB	'S', 00H, 'V', 00H, 'C', 00H, '\', 00H, '1', 00H, '4', 00H, '.'
	DB	00H, '1', 00H, '1', 00H, '.', 00H, '2', 00H, '5', 00H, '5', 00H
	DB	'0', 00H, '3', 00H, '\', 00H, 'i', 00H, 'n', 00H, 'c', 00H, 'l'
	DB	00H, 'u', 00H, 'd', 00H, 'e', 00H, '\', 00H, 'x', 00H, 't', 00H
	DB	'r', 00H, 'e', 00H, 'e', 00H, 00H, 00H	; `string'
CONST	ENDS
;	COMDAT ??_C@_1CC@LOFJFFDB@?$AAs?$AAt?$AAd?$AA?3?$AA?3?$AA_?$AAD?$AAe?$AAa?$AAl?$AAl?$AAo?$AAc?$AAa?$AAt?$AAe?$AA?$AA@
CONST	SEGMENT
??_C@_1CC@LOFJFFDB@?$AAs?$AAt?$AAd?$AA?3?$AA?3?$AA_?$AAD?$AAe?$AAa?$AAl?$AAl?$AAo?$AAc?$AAa?$AAt?$AAe?$AA?$AA@ DB 's'
	DB	00H, 't', 00H, 'd', 00H, ':', 00H, ':', 00H, '_', 00H, 'D', 00H
	DB	'e', 00H, 'a', 00H, 'l', 00H, 'l', 00H, 'o', 00H, 'c', 00H, 'a'
	DB	00H, 't', 00H, 'e', 00H, 00H, 00H		; `string'
CONST	ENDS
;	COMDAT ??_C@_1CC@GKJLLHIM@?$AA?$CC?$AA_?$AAP?$AAt?$AAr?$AA?5?$AA?$CB?$AA?$DN?$AA?5?$AA0?$AA?$CC?$AA?5?$AA?$CG?$AA?$CG?$AA?5?$AA0?$AA?$AA@
CONST	SEGMENT
??_C@_1CC@GKJLLHIM@?$AA?$CC?$AA_?$AAP?$AAt?$AAr?$AA?5?$AA?$CB?$AA?$DN?$AA?5?$AA0?$AA?$CC?$AA?5?$AA?$CG?$AA?$CG?$AA?5?$AA0?$AA?$AA@ DB '"'
	DB	00H, '_', 00H, 'P', 00H, 't', 00H, 'r', 00H, ' ', 00H, '!', 00H
	DB	'=', 00H, ' ', 00H, '0', 00H, '"', 00H, ' ', 00H, '&', 00H, '&'
	DB	00H, ' ', 00H, '0', 00H, 00H, 00H		; `string'
CONST	ENDS
;	COMDAT ??_C@_09GLJCAGLP@_Ptr?5?$CB?$DN?50?$AA@
CONST	SEGMENT
??_C@_09GLJCAGLP@_Ptr?5?$CB?$DN?50?$AA@ DB '_Ptr != 0', 00H ; `string'
CONST	ENDS
;	COMDAT ??_C@_1CG@JNLFBNGN@?$AA?$CC?$AAi?$AAn?$AAv?$AAa?$AAl?$AAi?$AAd?$AA?5?$AAa?$AAr?$AAg?$AAu?$AAm?$AAe?$AAn?$AAt?$AA?$CC?$AA?$AA@
CONST	SEGMENT
??_C@_1CG@JNLFBNGN@?$AA?$CC?$AAi?$AAn?$AAv?$AAa?$AAl?$AAi?$AAd?$AA?5?$AAa?$AAr?$AAg?$AAu?$AAm?$AAe?$AAn?$AAt?$AA?$CC?$AA?$AA@ DB '"'
	DB	00H, 'i', 00H, 'n', 00H, 'v', 00H, 'a', 00H, 'l', 00H, 'i', 00H
	DB	'd', 00H, ' ', 00H, 'a', 00H, 'r', 00H, 'g', 00H, 'u', 00H, 'm'
	DB	00H, 'e', 00H, 'n', 00H, 't', 00H, '"', 00H, 00H, 00H ; `string'
CONST	ENDS
;	COMDAT ??_C@_1BO@NKFMJPA@?$AAs?$AAt?$AAd?$AA?3?$AA?3?$AA_?$AAA?$AAl?$AAl?$AAo?$AAc?$AAa?$AAt?$AAe?$AA?$AA@
CONST	SEGMENT
??_C@_1BO@NKFMJPA@?$AAs?$AAt?$AAd?$AA?3?$AA?3?$AA_?$AAA?$AAl?$AAl?$AAo?$AAc?$AAa?$AAt?$AAe?$AA?$AA@ DB 's'
	DB	00H, 't', 00H, 'd', 00H, ':', 00H, ':', 00H, '_', 00H, 'A', 00H
	DB	'l', 00H, 'l', 00H, 'o', 00H, 'c', 00H, 'a', 00H, 't', 00H, 'e'
	DB	00H, 00H, 00H				; `string'
CONST	ENDS
;	COMDAT ??_C@_1NC@LIFDFPCJ@?$AAC?$AA?3?$AA?2?$AAP?$AAr?$AAo?$AAg?$AAr?$AAa?$AAm?$AA?5?$AAF?$AAi?$AAl?$AAe?$AAs?$AA?5?$AA?$CI?$AAx?$AA8?$AA6?$AA?$CJ?$AA?2?$AAM?$AAi?$AAc?$AAr?$AAo?$AAs?$AAo?$AAf?$AAt@
CONST	SEGMENT
??_C@_1NC@LIFDFPCJ@?$AAC?$AA?3?$AA?2?$AAP?$AAr?$AAo?$AAg?$AAr?$AAa?$AAm?$AA?5?$AAF?$AAi?$AAl?$AAe?$AAs?$AA?5?$AA?$CI?$AAx?$AA8?$AA6?$AA?$CJ?$AA?2?$AAM?$AAi?$AAc?$AAr?$AAo?$AAs?$AAo?$AAf?$AAt@ DB 'C'
	DB	00H, ':', 00H, '\', 00H, 'P', 00H, 'r', 00H, 'o', 00H, 'g', 00H
	DB	'r', 00H, 'a', 00H, 'm', 00H, ' ', 00H, 'F', 00H, 'i', 00H, 'l'
	DB	00H, 'e', 00H, 's', 00H, ' ', 00H, '(', 00H, 'x', 00H, '8', 00H
	DB	'6', 00H, ')', 00H, '\', 00H, 'M', 00H, 'i', 00H, 'c', 00H, 'r'
	DB	00H, 'o', 00H, 's', 00H, 'o', 00H, 'f', 00H, 't', 00H, ' ', 00H
	DB	'V', 00H, 'i', 00H, 's', 00H, 'u', 00H, 'a', 00H, 'l', 00H, ' '
	DB	00H, 'S', 00H, 't', 00H, 'u', 00H, 'd', 00H, 'i', 00H, 'o', 00H
	DB	'\', 00H, '2', 00H, '0', 00H, '1', 00H, '7', 00H, '\', 00H, 'C'
	DB	00H, 'o', 00H, 'm', 00H, 'm', 00H, 'u', 00H, 'n', 00H, 'i', 00H
	DB	't', 00H, 'y', 00H, '\', 00H, 'V', 00H, 'C', 00H, '\', 00H, 'T'
	DB	00H, 'o', 00H, 'o', 00H, 'l', 00H, 's', 00H, '\', 00H, 'M', 00H
	DB	'S', 00H, 'V', 00H, 'C', 00H, '\', 00H, '1', 00H, '4', 00H, '.'
	DB	00H, '1', 00H, '1', 00H, '.', 00H, '2', 00H, '5', 00H, '5', 00H
	DB	'0', 00H, '3', 00H, '\', 00H, 'i', 00H, 'n', 00H, 'c', 00H, 'l'
	DB	00H, 'u', 00H, 'd', 00H, 'e', 00H, '\', 00H, 'x', 00H, 'm', 00H
	DB	'e', 00H, 'm', 00H, 'o', 00H, 'r', 00H, 'y', 00H, '0', 00H, 00H
	DB	00H						; `string'
CONST	ENDS
;	COMDAT ??_C@_17CNPHIMPH@?$AA?$CF?$AAl?$AAs?$AA?$AA@
CONST	SEGMENT
??_C@_17CNPHIMPH@?$AA?$CF?$AAl?$AAs?$AA?$AA@ DB '%', 00H, 'l', 00H, 's', 00H
	DB	00H, 00H					; `string'
CONST	ENDS
;	COMDAT ??_C@_1DG@HGDKEBPG@?$AA?$CC?$AA_?$AAP?$AAt?$AAr?$AA_?$AAc?$AAo?$AAn?$AAt?$AAa?$AAi?$AAn?$AAe?$AAr?$AA?5?$AA?$CB?$AA?$DN?$AA?5?$AA0?$AA?$CC?$AA?5?$AA?$CG?$AA?$CG?$AA?5?$AA0?$AA?$AA@
CONST	SEGMENT
??_C@_1DG@HGDKEBPG@?$AA?$CC?$AA_?$AAP?$AAt?$AAr?$AA_?$AAc?$AAo?$AAn?$AAt?$AAa?$AAi?$AAn?$AAe?$AAr?$AA?5?$AA?$CB?$AA?$DN?$AA?5?$AA0?$AA?$CC?$AA?5?$AA?$CG?$AA?$CG?$AA?5?$AA0?$AA?$AA@ DB '"'
	DB	00H, '_', 00H, 'P', 00H, 't', 00H, 'r', 00H, '_', 00H, 'c', 00H
	DB	'o', 00H, 'n', 00H, 't', 00H, 'a', 00H, 'i', 00H, 'n', 00H, 'e'
	DB	00H, 'r', 00H, ' ', 00H, '!', 00H, '=', 00H, ' ', 00H, '0', 00H
	DB	'"', 00H, ' ', 00H, '&', 00H, '&', 00H, ' ', 00H, '0', 00H, 00H
	DB	00H						; `string'
CONST	ENDS
;	COMDAT ??_C@_0BE@LMNLACIC@_Ptr_container?5?$CB?$DN?50?$AA@
CONST	SEGMENT
??_C@_0BE@LMNLACIC@_Ptr_container?5?$CB?$DN?50?$AA@ DB '_Ptr_container !='
	DB	' 0', 00H					; `string'
CONST	ENDS
;	COMDAT ??_C@_1DG@PLBPCAEM@?$AA?$CC?$AAI?$AAT?$AAE?$AAR?$AAA?$AAT?$AAO?$AAR?$AA?5?$AAL?$AAI?$AAS?$AAT?$AA?5?$AAC?$AAO?$AAR?$AAR?$AAU?$AAP?$AAT?$AAE?$AAD?$AA?$CB?$AA?$CC?$AA?$AA@
CONST	SEGMENT
??_C@_1DG@PLBPCAEM@?$AA?$CC?$AAI?$AAT?$AAE?$AAR?$AAA?$AAT?$AAO?$AAR?$AA?5?$AAL?$AAI?$AAS?$AAT?$AA?5?$AAC?$AAO?$AAR?$AAR?$AAU?$AAP?$AAT?$AAE?$AAD?$AA?$CB?$AA?$CC?$AA?$AA@ DB '"'
	DB	00H, 'I', 00H, 'T', 00H, 'E', 00H, 'R', 00H, 'A', 00H, 'T', 00H
	DB	'O', 00H, 'R', 00H, ' ', 00H, 'L', 00H, 'I', 00H, 'S', 00H, 'T'
	DB	00H, ' ', 00H, 'C', 00H, 'O', 00H, 'R', 00H, 'R', 00H, 'U', 00H
	DB	'P', 00H, 'T', 00H, 'E', 00H, 'D', 00H, '!', 00H, '"', 00H, 00H
	DB	00H						; `string'
CONST	ENDS
;	COMDAT ??_C@_1EE@KLDMFDFL@?$AAs?$AAt?$AAd?$AA?3?$AA?3?$AA_?$AAI?$AAt?$AAe?$AAr?$AAa?$AAt?$AAo?$AAr?$AA_?$AAb?$AAa?$AAs?$AAe?$AA1?$AA2?$AA?3?$AA?3?$AA_?$AAO?$AAr?$AAp?$AAh?$AAa?$AAn?$AA_?$AAm@
CONST	SEGMENT
??_C@_1EE@KLDMFDFL@?$AAs?$AAt?$AAd?$AA?3?$AA?3?$AA_?$AAI?$AAt?$AAe?$AAr?$AAa?$AAt?$AAo?$AAr?$AA_?$AAb?$AAa?$AAs?$AAe?$AA1?$AA2?$AA?3?$AA?3?$AA_?$AAO?$AAr?$AAp?$AAh?$AAa?$AAn?$AA_?$AAm@ DB 's'
	DB	00H, 't', 00H, 'd', 00H, ':', 00H, ':', 00H, '_', 00H, 'I', 00H
	DB	't', 00H, 'e', 00H, 'r', 00H, 'a', 00H, 't', 00H, 'o', 00H, 'r'
	DB	00H, '_', 00H, 'b', 00H, 'a', 00H, 's', 00H, 'e', 00H, '1', 00H
	DB	'2', 00H, ':', 00H, ':', 00H, '_', 00H, 'O', 00H, 'r', 00H, 'p'
	DB	00H, 'h', 00H, 'a', 00H, 'n', 00H, '_', 00H, 'm', 00H, 'e', 00H
	DB	00H, 00H					; `string'
CONST	ENDS
;	COMDAT ??_C@_1DC@POOIKBAO@?$AAI?$AAT?$AAE?$AAR?$AAA?$AAT?$AAO?$AAR?$AA?5?$AAL?$AAI?$AAS?$AAT?$AA?5?$AAC?$AAO?$AAR?$AAR?$AAU?$AAP?$AAT?$AAE?$AAD?$AA?$CB?$AA?$AA@
CONST	SEGMENT
??_C@_1DC@POOIKBAO@?$AAI?$AAT?$AAE?$AAR?$AAA?$AAT?$AAO?$AAR?$AA?5?$AAL?$AAI?$AAS?$AAT?$AA?5?$AAC?$AAO?$AAR?$AAR?$AAU?$AAP?$AAT?$AAE?$AAD?$AA?$CB?$AA?$AA@ DB 'I'
	DB	00H, 'T', 00H, 'E', 00H, 'R', 00H, 'A', 00H, 'T', 00H, 'O', 00H
	DB	'R', 00H, ' ', 00H, 'L', 00H, 'I', 00H, 'S', 00H, 'T', 00H, ' '
	DB	00H, 'C', 00H, 'O', 00H, 'R', 00H, 'R', 00H, 'U', 00H, 'P', 00H
	DB	'T', 00H, 'E', 00H, 'D', 00H, '!', 00H, 00H, 00H ; `string'
CONST	ENDS
;	COMDAT ??_C@_1NC@EFLIIKIK@?$AAC?$AA?3?$AA?2?$AAP?$AAr?$AAo?$AAg?$AAr?$AAa?$AAm?$AA?5?$AAF?$AAi?$AAl?$AAe?$AAs?$AA?5?$AA?$CI?$AAx?$AA8?$AA6?$AA?$CJ?$AA?2?$AAM?$AAi?$AAc?$AAr?$AAo?$AAs?$AAo?$AAf?$AAt@
CONST	SEGMENT
??_C@_1NC@EFLIIKIK@?$AAC?$AA?3?$AA?2?$AAP?$AAr?$AAo?$AAg?$AAr?$AAa?$AAm?$AA?5?$AAF?$AAi?$AAl?$AAe?$AAs?$AA?5?$AA?$CI?$AAx?$AA8?$AA6?$AA?$CJ?$AA?2?$AAM?$AAi?$AAc?$AAr?$AAo?$AAs?$AAo?$AAf?$AAt@ DB 'C'
	DB	00H, ':', 00H, '\', 00H, 'P', 00H, 'r', 00H, 'o', 00H, 'g', 00H
	DB	'r', 00H, 'a', 00H, 'm', 00H, ' ', 00H, 'F', 00H, 'i', 00H, 'l'
	DB	00H, 'e', 00H, 's', 00H, ' ', 00H, '(', 00H, 'x', 00H, '8', 00H
	DB	'6', 00H, ')', 00H, '\', 00H, 'M', 00H, 'i', 00H, 'c', 00H, 'r'
	DB	00H, 'o', 00H, 's', 00H, 'o', 00H, 'f', 00H, 't', 00H, ' ', 00H
	DB	'V', 00H, 'i', 00H, 's', 00H, 'u', 00H, 'a', 00H, 'l', 00H, ' '
	DB	00H, 'S', 00H, 't', 00H, 'u', 00H, 'd', 00H, 'i', 00H, 'o', 00H
	DB	'\', 00H, '2', 00H, '0', 00H, '1', 00H, '7', 00H, '\', 00H, 'C'
	DB	00H, 'o', 00H, 'm', 00H, 'm', 00H, 'u', 00H, 'n', 00H, 'i', 00H
	DB	't', 00H, 'y', 00H, '\', 00H, 'V', 00H, 'C', 00H, '\', 00H, 'T'
	DB	00H, 'o', 00H, 'o', 00H, 'l', 00H, 's', 00H, '\', 00H, 'M', 00H
	DB	'S', 00H, 'V', 00H, 'C', 00H, '\', 00H, '1', 00H, '4', 00H, '.'
	DB	00H, '1', 00H, '1', 00H, '.', 00H, '2', 00H, '5', 00H, '5', 00H
	DB	'0', 00H, '3', 00H, '\', 00H, 'i', 00H, 'n', 00H, 'c', 00H, 'l'
	DB	00H, 'u', 00H, 'd', 00H, 'e', 00H, '\', 00H, 'x', 00H, 'u', 00H
	DB	't', 00H, 'i', 00H, 'l', 00H, 'i', 00H, 't', 00H, 'y', 00H, 00H
	DB	00H						; `string'
CONST	ENDS
;	COMDAT xdata$x
xdata$x	SEGMENT
__catchsym$??$_Buynode@ABUTelegram@@@?$_Tree_comp_alloc@V?$_Tset_traits@UTelegram@@U?$less@UTelegram@@@std@@V?$allocator@UTelegram@@@3@$0A@@std@@@std@@QAEPAU?$_Tree_node@UTelegram@@PAX@1@ABUTelegram@@@Z$2 DD 040H
	DD	00H
	DD	00H
	DD	FLAT:__catch$??$_Buynode@ABUTelegram@@@?$_Tree_comp_alloc@V?$_Tset_traits@UTelegram@@U?$less@UTelegram@@@std@@V?$allocator@UTelegram@@@3@$0A@@std@@@std@@QAEPAU?$_Tree_node@UTelegram@@PAX@1@ABUTelegram@@@Z$0
__unwindtable$??$_Buynode@ABUTelegram@@@?$_Tree_comp_alloc@V?$_Tset_traits@UTelegram@@U?$less@UTelegram@@@std@@V?$allocator@UTelegram@@@3@$0A@@std@@@std@@QAEPAU?$_Tree_node@UTelegram@@PAX@1@ABUTelegram@@@Z DD 0ffffffffH
	DD	00H
	DD	0ffffffffH
	DD	00H
__tryblocktable$??$_Buynode@ABUTelegram@@@?$_Tree_comp_alloc@V?$_Tset_traits@UTelegram@@U?$less@UTelegram@@@std@@V?$allocator@UTelegram@@@3@$0A@@std@@@std@@QAEPAU?$_Tree_node@UTelegram@@PAX@1@ABUTelegram@@@Z DD 00H
	DD	00H
	DD	01H
	DD	01H
	DD	FLAT:__catchsym$??$_Buynode@ABUTelegram@@@?$_Tree_comp_alloc@V?$_Tset_traits@UTelegram@@U?$less@UTelegram@@@std@@V?$allocator@UTelegram@@@3@$0A@@std@@@std@@QAEPAU?$_Tree_node@UTelegram@@PAX@1@ABUTelegram@@@Z$2
__ehfuncinfo$??$_Buynode@ABUTelegram@@@?$_Tree_comp_alloc@V?$_Tset_traits@UTelegram@@U?$less@UTelegram@@@std@@V?$allocator@UTelegram@@@3@$0A@@std@@@std@@QAEPAU?$_Tree_node@UTelegram@@PAX@1@ABUTelegram@@@Z DD 019930522H
	DD	02H
	DD	FLAT:__unwindtable$??$_Buynode@ABUTelegram@@@?$_Tree_comp_alloc@V?$_Tset_traits@UTelegram@@U?$less@UTelegram@@@std@@V?$allocator@UTelegram@@@3@$0A@@std@@@std@@QAEPAU?$_Tree_node@UTelegram@@PAX@1@ABUTelegram@@@Z
	DD	01H
	DD	FLAT:__tryblocktable$??$_Buynode@ABUTelegram@@@?$_Tree_comp_alloc@V?$_Tset_traits@UTelegram@@U?$less@UTelegram@@@std@@V?$allocator@UTelegram@@@3@$0A@@std@@@std@@QAEPAU?$_Tree_node@UTelegram@@PAX@1@ABUTelegram@@@Z
	DD	2 DUP(00H)
	DD	00H
	DD	01H
xdata$x	ENDS
;	COMDAT xdata$x
xdata$x	SEGMENT
__catchsym$??$_Insert_nohint@ABUTelegram@@U_Nil@std@@@?$_Tree@V?$_Tset_traits@UTelegram@@U?$less@UTelegram@@@std@@V?$allocator@UTelegram@@@3@$0A@@std@@@std@@IAE?AU?$pair@V?$_Tree_const_iterator@V?$_Tree_val@U?$_Tree_simple_types@UTelegram@@@std@@@std@@@std@@_N@1@_NABUTelegram@@U_Nil@1@@Z$8 DD 040H
	DD	00H
	DD	00H
	DD	FLAT:__catch$??$_Insert_nohint@ABUTelegram@@U_Nil@std@@@?$_Tree@V?$_Tset_traits@UTelegram@@U?$less@UTelegram@@@std@@V?$allocator@UTelegram@@@3@$0A@@std@@@std@@IAE?AU?$pair@V?$_Tree_const_iterator@V?$_Tree_val@U?$_Tree_simple_types@UTelegram@@@std@@@std@@@std@@_N@1@_NABUTelegram@@U_Nil@1@@Z$0
__tryblocktable$??$_Insert_nohint@ABUTelegram@@U_Nil@std@@@?$_Tree@V?$_Tset_traits@UTelegram@@U?$less@UTelegram@@@std@@V?$allocator@UTelegram@@@3@$0A@@std@@@std@@IAE?AU?$pair@V?$_Tree_const_iterator@V?$_Tree_val@U?$_Tree_simple_types@UTelegram@@@std@@@std@@@std@@_N@1@_NABUTelegram@@U_Nil@1@@Z DD 00H
	DD	02H
	DD	03H
	DD	01H
	DD	FLAT:__catchsym$??$_Insert_nohint@ABUTelegram@@U_Nil@std@@@?$_Tree@V?$_Tset_traits@UTelegram@@U?$less@UTelegram@@@std@@V?$allocator@UTelegram@@@3@$0A@@std@@@std@@IAE?AU?$pair@V?$_Tree_const_iterator@V?$_Tree_val@U?$_Tree_simple_types@UTelegram@@@std@@@std@@@std@@_N@1@_NABUTelegram@@U_Nil@1@@Z$8
__unwindtable$??$_Insert_nohint@ABUTelegram@@U_Nil@std@@@?$_Tree@V?$_Tset_traits@UTelegram@@U?$less@UTelegram@@@std@@V?$allocator@UTelegram@@@3@$0A@@std@@@std@@IAE?AU?$pair@V?$_Tree_const_iterator@V?$_Tree_val@U?$_Tree_simple_types@UTelegram@@@std@@@std@@@std@@_N@1@_NABUTelegram@@U_Nil@1@@Z DD 0ffffffffH
	DD	00H
	DD	00H
	DD	FLAT:__unwindfunclet$??$_Insert_nohint@ABUTelegram@@U_Nil@std@@@?$_Tree@V?$_Tset_traits@UTelegram@@U?$less@UTelegram@@@std@@V?$allocator@UTelegram@@@3@$0A@@std@@@std@@IAE?AU?$pair@V?$_Tree_const_iterator@V?$_Tree_val@U?$_Tree_simple_types@UTelegram@@@std@@@std@@@std@@_N@1@_NABUTelegram@@U_Nil@1@@Z$4
	DD	01H
	DD	FLAT:__unwindfunclet$??$_Insert_nohint@ABUTelegram@@U_Nil@std@@@?$_Tree@V?$_Tset_traits@UTelegram@@U?$less@UTelegram@@@std@@V?$allocator@UTelegram@@@3@$0A@@std@@@std@@IAE?AU?$pair@V?$_Tree_const_iterator@V?$_Tree_val@U?$_Tree_simple_types@UTelegram@@@std@@@std@@@std@@_N@1@_NABUTelegram@@U_Nil@1@@Z$5
	DD	0ffffffffH
	DD	00H
__ehfuncinfo$??$_Insert_nohint@ABUTelegram@@U_Nil@std@@@?$_Tree@V?$_Tset_traits@UTelegram@@U?$less@UTelegram@@@std@@V?$allocator@UTelegram@@@3@$0A@@std@@@std@@IAE?AU?$pair@V?$_Tree_const_iterator@V?$_Tree_val@U?$_Tree_simple_types@UTelegram@@@std@@@std@@@std@@_N@1@_NABUTelegram@@U_Nil@1@@Z DD 019930522H
	DD	04H
	DD	FLAT:__unwindtable$??$_Insert_nohint@ABUTelegram@@U_Nil@std@@@?$_Tree@V?$_Tset_traits@UTelegram@@U?$less@UTelegram@@@std@@V?$allocator@UTelegram@@@3@$0A@@std@@@std@@IAE?AU?$pair@V?$_Tree_const_iterator@V?$_Tree_val@U?$_Tree_simple_types@UTelegram@@@std@@@std@@@std@@_N@1@_NABUTelegram@@U_Nil@1@@Z
	DD	01H
	DD	FLAT:__tryblocktable$??$_Insert_nohint@ABUTelegram@@U_Nil@std@@@?$_Tree@V?$_Tset_traits@UTelegram@@U?$less@UTelegram@@@std@@V?$allocator@UTelegram@@@3@$0A@@std@@@std@@IAE?AU?$pair@V?$_Tree_const_iterator@V?$_Tree_val@U?$_Tree_simple_types@UTelegram@@@std@@@std@@@std@@_N@1@_NABUTelegram@@U_Nil@1@@Z
	DD	2 DUP(00H)
	DD	00H
	DD	01H
xdata$x	ENDS
;	COMDAT xdata$x
xdata$x	SEGMENT
__unwindtable$??E?$_Tree_const_iterator@V?$_Tree_val@U?$_Tree_simple_types@UTelegram@@@std@@@std@@@std@@QAE?AV01@H@Z DD 0ffffffffH
	DD	FLAT:__unwindfunclet$??E?$_Tree_const_iterator@V?$_Tree_val@U?$_Tree_simple_types@UTelegram@@@std@@@std@@@std@@QAE?AV01@H@Z$0
__ehfuncinfo$??E?$_Tree_const_iterator@V?$_Tree_val@U?$_Tree_simple_types@UTelegram@@@std@@@std@@@std@@QAE?AV01@H@Z DD 019930522H
	DD	01H
	DD	FLAT:__unwindtable$??E?$_Tree_const_iterator@V?$_Tree_val@U?$_Tree_simple_types@UTelegram@@@std@@@std@@@std@@QAE?AV01@H@Z
	DD	2 DUP(00H)
	DD	2 DUP(00H)
	DD	00H
	DD	01H
xdata$x	ENDS
xdata$x	SEGMENT
__unwindtable$?Instance@MessageDispatcher@@SAPAV1@XZ DD 0ffffffffH
	DD	FLAT:__unwindfunclet$?Instance@MessageDispatcher@@SAPAV1@XZ$0
__unwindtable$?DispatchDelayedMessages@MessageDispatcher@@QAEXXZ DD 0ffffffffH
	DD	FLAT:__unwindfunclet$?DispatchDelayedMessages@MessageDispatcher@@QAEXXZ$0
	DD	00H
	DD	FLAT:__unwindfunclet$?DispatchDelayedMessages@MessageDispatcher@@QAEXXZ$1
	DD	0ffffffffH
	DD	FLAT:__unwindfunclet$?DispatchDelayedMessages@MessageDispatcher@@QAEXXZ$2
__ehfuncinfo$?DispatchDelayedMessages@MessageDispatcher@@QAEXXZ DD 019930522H
	DD	03H
	DD	FLAT:__unwindtable$?DispatchDelayedMessages@MessageDispatcher@@QAEXXZ
	DD	2 DUP(00H)
	DD	2 DUP(00H)
	DD	00H
	DD	01H
__ehfuncinfo$?Instance@MessageDispatcher@@SAPAV1@XZ DD 019930522H
	DD	01H
	DD	FLAT:__unwindtable$?Instance@MessageDispatcher@@SAPAV1@XZ
	DD	2 DUP(00H)
	DD	2 DUP(00H)
	DD	00H
	DD	01H
xdata$x	ENDS
;	COMDAT xdata$x
xdata$x	SEGMENT
__unwindtable$?_Orphan_ptr@?$_Tree@V?$_Tset_traits@UTelegram@@U?$less@UTelegram@@@std@@V?$allocator@UTelegram@@@3@$0A@@std@@@std@@IAEXPAU?$_Tree_node@UTelegram@@PAX@2@@Z DD 0ffffffffH
	DD	FLAT:__unwindfunclet$?_Orphan_ptr@?$_Tree@V?$_Tset_traits@UTelegram@@U?$less@UTelegram@@@std@@V?$allocator@UTelegram@@@3@$0A@@std@@@std@@IAEXPAU?$_Tree_node@UTelegram@@PAX@2@@Z$0
__ehfuncinfo$?_Orphan_ptr@?$_Tree@V?$_Tset_traits@UTelegram@@U?$less@UTelegram@@@std@@V?$allocator@UTelegram@@@3@$0A@@std@@@std@@IAEXPAU?$_Tree_node@UTelegram@@PAX@2@@Z DD 019930522H
	DD	01H
	DD	FLAT:__unwindtable$?_Orphan_ptr@?$_Tree@V?$_Tset_traits@UTelegram@@U?$less@UTelegram@@@std@@V?$allocator@UTelegram@@@3@$0A@@std@@@std@@IAEXPAU?$_Tree_node@UTelegram@@PAX@2@@Z
	DD	2 DUP(00H)
	DD	2 DUP(00H)
	DD	00H
	DD	01H
xdata$x	ENDS
;	COMDAT xdata$x
xdata$x	SEGMENT
__ehfuncinfo$?clear@?$_Tree@V?$_Tset_traits@UTelegram@@U?$less@UTelegram@@@std@@V?$allocator@UTelegram@@@3@$0A@@std@@@std@@QAEXXZ DD 019930522H
	DD	00H
	DD	00H
	DD	2 DUP(00H)
	DD	2 DUP(00H)
	DD	00H
	DD	05H
xdata$x	ENDS
;	COMDAT xdata$x
xdata$x	SEGMENT
__unwindtable$?erase@?$_Tree@V?$_Tset_traits@UTelegram@@U?$less@UTelegram@@@std@@V?$allocator@UTelegram@@@3@$0A@@std@@@std@@QAE?AV?$_Tree_const_iterator@V?$_Tree_val@U?$_Tree_simple_types@UTelegram@@@std@@@std@@@2@V32@0@Z DD 0ffffffffH
	DD	FLAT:__unwindfunclet$?erase@?$_Tree@V?$_Tset_traits@UTelegram@@U?$less@UTelegram@@@std@@V?$allocator@UTelegram@@@3@$0A@@std@@@std@@QAE?AV?$_Tree_const_iterator@V?$_Tree_val@U?$_Tree_simple_types@UTelegram@@@std@@@std@@@2@V32@0@Z$0
	DD	00H
	DD	FLAT:__unwindfunclet$?erase@?$_Tree@V?$_Tset_traits@UTelegram@@U?$less@UTelegram@@@std@@V?$allocator@UTelegram@@@3@$0A@@std@@@std@@QAE?AV?$_Tree_const_iterator@V?$_Tree_val@U?$_Tree_simple_types@UTelegram@@@std@@@std@@@2@V32@0@Z$1
	DD	01H
	DD	FLAT:__unwindfunclet$?erase@?$_Tree@V?$_Tset_traits@UTelegram@@U?$less@UTelegram@@@std@@V?$allocator@UTelegram@@@3@$0A@@std@@@std@@QAE?AV?$_Tree_const_iterator@V?$_Tree_val@U?$_Tree_simple_types@UTelegram@@@std@@@std@@@2@V32@0@Z$2
	DD	02H
	DD	FLAT:__unwindfunclet$?erase@?$_Tree@V?$_Tset_traits@UTelegram@@U?$less@UTelegram@@@std@@V?$allocator@UTelegram@@@3@$0A@@std@@@std@@QAE?AV?$_Tree_const_iterator@V?$_Tree_val@U?$_Tree_simple_types@UTelegram@@@std@@@std@@@2@V32@0@Z$3
__ehfuncinfo$?erase@?$_Tree@V?$_Tset_traits@UTelegram@@U?$less@UTelegram@@@std@@V?$allocator@UTelegram@@@3@$0A@@std@@@std@@QAE?AV?$_Tree_const_iterator@V?$_Tree_val@U?$_Tree_simple_types@UTelegram@@@std@@@std@@@2@V32@0@Z DD 019930522H
	DD	04H
	DD	FLAT:__unwindtable$?erase@?$_Tree@V?$_Tset_traits@UTelegram@@U?$less@UTelegram@@@std@@V?$allocator@UTelegram@@@3@$0A@@std@@@std@@QAE?AV?$_Tree_const_iterator@V?$_Tree_val@U?$_Tree_simple_types@UTelegram@@@std@@@std@@@2@V32@0@Z
	DD	2 DUP(00H)
	DD	2 DUP(00H)
	DD	00H
	DD	01H
xdata$x	ENDS
;	COMDAT xdata$x
xdata$x	SEGMENT
__unwindtable$?erase@?$_Tree@V?$_Tset_traits@UTelegram@@U?$less@UTelegram@@@std@@V?$allocator@UTelegram@@@3@$0A@@std@@@std@@QAE?AV?$_Tree_const_iterator@V?$_Tree_val@U?$_Tree_simple_types@UTelegram@@@std@@@std@@@2@V32@@Z DD 0ffffffffH
	DD	FLAT:__unwindfunclet$?erase@?$_Tree@V?$_Tset_traits@UTelegram@@U?$less@UTelegram@@@std@@V?$allocator@UTelegram@@@3@$0A@@std@@@std@@QAE?AV?$_Tree_const_iterator@V?$_Tree_val@U?$_Tree_simple_types@UTelegram@@@std@@@std@@@2@V32@@Z$0
__ehfuncinfo$?erase@?$_Tree@V?$_Tset_traits@UTelegram@@U?$less@UTelegram@@@std@@V?$allocator@UTelegram@@@3@$0A@@std@@@std@@QAE?AV?$_Tree_const_iterator@V?$_Tree_val@U?$_Tree_simple_types@UTelegram@@@std@@@std@@@2@V32@@Z DD 019930522H
	DD	01H
	DD	FLAT:__unwindtable$?erase@?$_Tree@V?$_Tset_traits@UTelegram@@U?$less@UTelegram@@@std@@V?$allocator@UTelegram@@@3@$0A@@std@@@std@@QAE?AV?$_Tree_const_iterator@V?$_Tree_val@U?$_Tree_simple_types@UTelegram@@@std@@@std@@@2@V32@@Z
	DD	2 DUP(00H)
	DD	2 DUP(00H)
	DD	00H
	DD	01H
xdata$x	ENDS
;	COMDAT xdata$x
xdata$x	SEGMENT
__ehfuncinfo$?end@?$_Tree@V?$_Tset_traits@UTelegram@@U?$less@UTelegram@@@std@@V?$allocator@UTelegram@@@3@$0A@@std@@@std@@QAE?AV?$_Tree_const_iterator@V?$_Tree_val@U?$_Tree_simple_types@UTelegram@@@std@@@std@@@2@XZ DD 019930522H
	DD	00H
	DD	00H
	DD	2 DUP(00H)
	DD	2 DUP(00H)
	DD	00H
	DD	05H
xdata$x	ENDS
;	COMDAT xdata$x
xdata$x	SEGMENT
__ehfuncinfo$?begin@?$_Tree@V?$_Tset_traits@UTelegram@@U?$less@UTelegram@@@std@@V?$allocator@UTelegram@@@3@$0A@@std@@@std@@QAE?AV?$_Tree_const_iterator@V?$_Tree_val@U?$_Tree_simple_types@UTelegram@@@std@@@std@@@2@XZ DD 019930522H
	DD	00H
	DD	00H
	DD	2 DUP(00H)
	DD	2 DUP(00H)
	DD	00H
	DD	05H
xdata$x	ENDS
;	COMDAT xdata$x
xdata$x	SEGMENT
__ehfuncinfo$??1?$_Tree@V?$_Tset_traits@UTelegram@@U?$less@UTelegram@@@std@@V?$allocator@UTelegram@@@3@$0A@@std@@@std@@QAE@XZ DD 019930522H
	DD	00H
	DD	00H
	DD	2 DUP(00H)
	DD	2 DUP(00H)
	DD	00H
	DD	05H
xdata$x	ENDS
;	COMDAT xdata$x
xdata$x	SEGMENT
__catchsym$?_Buynode0@?$_Tree_comp_alloc@V?$_Tset_traits@UTelegram@@U?$less@UTelegram@@@std@@V?$allocator@UTelegram@@@3@$0A@@std@@@std@@QAEPAU?$_Tree_node@UTelegram@@PAX@2@XZ$2 DD 040H
	DD	00H
	DD	00H
	DD	FLAT:__catch$?_Buynode0@?$_Tree_comp_alloc@V?$_Tset_traits@UTelegram@@U?$less@UTelegram@@@std@@V?$allocator@UTelegram@@@3@$0A@@std@@@std@@QAEPAU?$_Tree_node@UTelegram@@PAX@2@XZ$0
__unwindtable$?_Buynode0@?$_Tree_comp_alloc@V?$_Tset_traits@UTelegram@@U?$less@UTelegram@@@std@@V?$allocator@UTelegram@@@3@$0A@@std@@@std@@QAEPAU?$_Tree_node@UTelegram@@PAX@2@XZ DD 0ffffffffH
	DD	00H
	DD	0ffffffffH
	DD	00H
__tryblocktable$?_Buynode0@?$_Tree_comp_alloc@V?$_Tset_traits@UTelegram@@U?$less@UTelegram@@@std@@V?$allocator@UTelegram@@@3@$0A@@std@@@std@@QAEPAU?$_Tree_node@UTelegram@@PAX@2@XZ DD 00H
	DD	00H
	DD	01H
	DD	01H
	DD	FLAT:__catchsym$?_Buynode0@?$_Tree_comp_alloc@V?$_Tset_traits@UTelegram@@U?$less@UTelegram@@@std@@V?$allocator@UTelegram@@@3@$0A@@std@@@std@@QAEPAU?$_Tree_node@UTelegram@@PAX@2@XZ$2
__ehfuncinfo$?_Buynode0@?$_Tree_comp_alloc@V?$_Tset_traits@UTelegram@@U?$less@UTelegram@@@std@@V?$allocator@UTelegram@@@3@$0A@@std@@@std@@QAEPAU?$_Tree_node@UTelegram@@PAX@2@XZ DD 019930522H
	DD	02H
	DD	FLAT:__unwindtable$?_Buynode0@?$_Tree_comp_alloc@V?$_Tset_traits@UTelegram@@U?$less@UTelegram@@@std@@V?$allocator@UTelegram@@@3@$0A@@std@@@std@@QAEPAU?$_Tree_node@UTelegram@@PAX@2@XZ
	DD	01H
	DD	FLAT:__tryblocktable$?_Buynode0@?$_Tree_comp_alloc@V?$_Tset_traits@UTelegram@@U?$less@UTelegram@@@std@@V?$allocator@UTelegram@@@3@$0A@@std@@@std@@QAEPAU?$_Tree_node@UTelegram@@PAX@2@XZ
	DD	2 DUP(00H)
	DD	00H
	DD	01H
xdata$x	ENDS
;	COMDAT xdata$x
xdata$x	SEGMENT
__catchsym$?_Buyheadnode@?$_Tree_comp_alloc@V?$_Tset_traits@UTelegram@@U?$less@UTelegram@@@std@@V?$allocator@UTelegram@@@3@$0A@@std@@@std@@QAEPAU?$_Tree_node@UTelegram@@PAX@2@XZ$2 DD 040H
	DD	00H
	DD	00H
	DD	FLAT:__catch$?_Buyheadnode@?$_Tree_comp_alloc@V?$_Tset_traits@UTelegram@@U?$less@UTelegram@@@std@@V?$allocator@UTelegram@@@3@$0A@@std@@@std@@QAEPAU?$_Tree_node@UTelegram@@PAX@2@XZ$0
__unwindtable$?_Buyheadnode@?$_Tree_comp_alloc@V?$_Tset_traits@UTelegram@@U?$less@UTelegram@@@std@@V?$allocator@UTelegram@@@3@$0A@@std@@@std@@QAEPAU?$_Tree_node@UTelegram@@PAX@2@XZ DD 0ffffffffH
	DD	00H
	DD	0ffffffffH
	DD	00H
__tryblocktable$?_Buyheadnode@?$_Tree_comp_alloc@V?$_Tset_traits@UTelegram@@U?$less@UTelegram@@@std@@V?$allocator@UTelegram@@@3@$0A@@std@@@std@@QAEPAU?$_Tree_node@UTelegram@@PAX@2@XZ DD 00H
	DD	00H
	DD	01H
	DD	01H
	DD	FLAT:__catchsym$?_Buyheadnode@?$_Tree_comp_alloc@V?$_Tset_traits@UTelegram@@U?$less@UTelegram@@@std@@V?$allocator@UTelegram@@@3@$0A@@std@@@std@@QAEPAU?$_Tree_node@UTelegram@@PAX@2@XZ$2
__ehfuncinfo$?_Buyheadnode@?$_Tree_comp_alloc@V?$_Tset_traits@UTelegram@@U?$less@UTelegram@@@std@@V?$allocator@UTelegram@@@3@$0A@@std@@@std@@QAEPAU?$_Tree_node@UTelegram@@PAX@2@XZ DD 019930522H
	DD	02H
	DD	FLAT:__unwindtable$?_Buyheadnode@?$_Tree_comp_alloc@V?$_Tset_traits@UTelegram@@U?$less@UTelegram@@@std@@V?$allocator@UTelegram@@@3@$0A@@std@@@std@@QAEPAU?$_Tree_node@UTelegram@@PAX@2@XZ
	DD	01H
	DD	FLAT:__tryblocktable$?_Buyheadnode@?$_Tree_comp_alloc@V?$_Tset_traits@UTelegram@@U?$less@UTelegram@@@std@@V?$allocator@UTelegram@@@3@$0A@@std@@@std@@QAEPAU?$_Tree_node@UTelegram@@PAX@2@XZ
	DD	2 DUP(00H)
	DD	00H
	DD	01H
xdata$x	ENDS
;	COMDAT xdata$x
xdata$x	SEGMENT
__ehfuncinfo$??1?$_Tree_comp_alloc@V?$_Tset_traits@UTelegram@@U?$less@UTelegram@@@std@@V?$allocator@UTelegram@@@3@$0A@@std@@@std@@QAE@XZ DD 019930522H
	DD	00H
	DD	00H
	DD	2 DUP(00H)
	DD	2 DUP(00H)
	DD	00H
	DD	05H
xdata$x	ENDS
;	COMDAT xdata$x
xdata$x	SEGMENT
__catchsym$?_Construct@?$_Tree_comp_alloc@V?$_Tset_traits@UTelegram@@U?$less@UTelegram@@@std@@V?$allocator@UTelegram@@@3@$0A@@std@@@std@@QAEXXZ$2 DD 040H
	DD	00H
	DD	00H
	DD	FLAT:__catch$?_Construct@?$_Tree_comp_alloc@V?$_Tset_traits@UTelegram@@U?$less@UTelegram@@@std@@V?$allocator@UTelegram@@@3@$0A@@std@@@std@@QAEXXZ$0
__unwindtable$?_Construct@?$_Tree_comp_alloc@V?$_Tset_traits@UTelegram@@U?$less@UTelegram@@@std@@V?$allocator@UTelegram@@@3@$0A@@std@@@std@@QAEXXZ DD 0ffffffffH
	DD	00H
	DD	0ffffffffH
	DD	00H
__tryblocktable$?_Construct@?$_Tree_comp_alloc@V?$_Tset_traits@UTelegram@@U?$less@UTelegram@@@std@@V?$allocator@UTelegram@@@3@$0A@@std@@@std@@QAEXXZ DD 00H
	DD	00H
	DD	01H
	DD	01H
	DD	FLAT:__catchsym$?_Construct@?$_Tree_comp_alloc@V?$_Tset_traits@UTelegram@@U?$less@UTelegram@@@std@@V?$allocator@UTelegram@@@3@$0A@@std@@@std@@QAEXXZ$2
__ehfuncinfo$?_Construct@?$_Tree_comp_alloc@V?$_Tset_traits@UTelegram@@U?$less@UTelegram@@@std@@V?$allocator@UTelegram@@@3@$0A@@std@@@std@@QAEXXZ DD 019930522H
	DD	02H
	DD	FLAT:__unwindtable$?_Construct@?$_Tree_comp_alloc@V?$_Tset_traits@UTelegram@@U?$less@UTelegram@@@std@@V?$allocator@UTelegram@@@3@$0A@@std@@@std@@QAEXXZ
	DD	01H
	DD	FLAT:__tryblocktable$?_Construct@?$_Tree_comp_alloc@V?$_Tset_traits@UTelegram@@U?$less@UTelegram@@@std@@V?$allocator@UTelegram@@@3@$0A@@std@@@std@@QAEXXZ
	DD	2 DUP(00H)
	DD	00H
	DD	01H
xdata$x	ENDS
;	COMDAT xdata$x
xdata$x	SEGMENT
__unwindtable$??0?$_Tree_comp_alloc@V?$_Tset_traits@UTelegram@@U?$less@UTelegram@@@std@@V?$allocator@UTelegram@@@3@$0A@@std@@@std@@QAE@ABU?$less@UTelegram@@@1@@Z DD 0ffffffffH
	DD	FLAT:__unwindfunclet$??0?$_Tree_comp_alloc@V?$_Tset_traits@UTelegram@@U?$less@UTelegram@@@std@@V?$allocator@UTelegram@@@3@$0A@@std@@@std@@QAE@ABU?$less@UTelegram@@@1@@Z$0
__ehfuncinfo$??0?$_Tree_comp_alloc@V?$_Tset_traits@UTelegram@@U?$less@UTelegram@@@std@@V?$allocator@UTelegram@@@3@$0A@@std@@@std@@QAE@ABU?$less@UTelegram@@@1@@Z DD 019930522H
	DD	01H
	DD	FLAT:__unwindtable$??0?$_Tree_comp_alloc@V?$_Tset_traits@UTelegram@@U?$less@UTelegram@@@std@@V?$allocator@UTelegram@@@3@$0A@@std@@@std@@QAE@ABU?$less@UTelegram@@@1@@Z
	DD	2 DUP(00H)
	DD	2 DUP(00H)
	DD	00H
	DD	01H
xdata$x	ENDS
;	COMDAT xdata$x
xdata$x	SEGMENT
__ehfuncinfo$?_Orphan_me@_Iterator_base12@std@@QAEXXZ DD 019930522H
	DD	00H
	DD	00H
	DD	2 DUP(00H)
	DD	2 DUP(00H)
	DD	00H
	DD	05H
xdata$x	ENDS
;	COMDAT xdata$x
xdata$x	SEGMENT
__ehfuncinfo$?_Adopt@_Iterator_base12@std@@QAEXPBU_Container_base12@2@@Z DD 019930522H
	DD	00H
	DD	00H
	DD	2 DUP(00H)
	DD	2 DUP(00H)
	DD	00H
	DD	05H
xdata$x	ENDS
;	COMDAT xdata$x
xdata$x	SEGMENT
__ehfuncinfo$??1_Iterator_base12@std@@QAE@XZ DD 019930522H
	DD	00H
	DD	00H
	DD	2 DUP(00H)
	DD	2 DUP(00H)
	DD	00H
	DD	05H
xdata$x	ENDS
;	COMDAT xdata$x
xdata$x	SEGMENT
__ehfuncinfo$??4_Iterator_base12@std@@QAEAAU01@ABU01@@Z DD 019930522H
	DD	00H
	DD	00H
	DD	2 DUP(00H)
	DD	2 DUP(00H)
	DD	00H
	DD	05H
xdata$x	ENDS
;	COMDAT xdata$x
xdata$x	SEGMENT
__ehfuncinfo$?_Orphan_all@_Container_base12@std@@QAEXXZ DD 019930522H
	DD	00H
	DD	00H
	DD	2 DUP(00H)
	DD	2 DUP(00H)
	DD	00H
	DD	05H
xdata$x	ENDS
CRT$XCU	SEGMENT
?MaxDouble$initializer$@@3P6AXXZA DD FLAT:??__EMaxDouble@@YAXXZ ; MaxDouble$initializer$
CRT$XCU	ENDS
CRT$XCU	SEGMENT
?MinDouble$initializer$@@3P6AXXZA DD FLAT:??__EMinDouble@@YAXXZ ; MinDouble$initializer$
CRT$XCU	ENDS
CRT$XCU	SEGMENT
?MaxFloat$initializer$@@3P6AXXZA DD FLAT:??__EMaxFloat@@YAXXZ ; MaxFloat$initializer$
CRT$XCU	ENDS
CRT$XCU	SEGMENT
?MinFloat$initializer$@@3P6AXXZA DD FLAT:??__EMinFloat@@YAXXZ ; MinFloat$initializer$
CRT$XCU	ENDS
;	COMDAT CRT$XCU
CRT$XCU	SEGMENT
??id$initializer$@?$num_put@DV?$ostreambuf_iterator@DU?$char_traits@D@std@@@std@@@std@@2P6AXXZA@@3P6AXXZA DD FLAT:??__E?id@?$num_put@DV?$ostreambuf_iterator@DU?$char_traits@D@std@@@std@@@std@@2V0locale@2@A@@YAXXZ ; ??id$initializer$@?$num_put@DV?$ostreambuf_iterator@DU?$char_traits@D@std@@@std@@@std@@2P6AXXZA@@3P6AXXZA
CRT$XCU	ENDS
;	COMDAT CRT$XCU
CRT$XCU	SEGMENT
??id$initializer$@?$numpunct@D@std@@2P6AXXZA@@3P6AXXZA DD FLAT:??__E?id@?$numpunct@D@std@@2V0locale@2@A@@YAXXZ ; ??id$initializer$@?$numpunct@D@std@@2P6AXXZA@@3P6AXXZA
CRT$XCU	ENDS
; Function compile flags: /Odtp /RTCsu
; File c:\program files (x86)\microsoft visual studio\2017\community\vc\tools\msvc\14.11.25503\include\xmemory0
;	COMDAT ??$construct@UTelegram@@ABU1@@?$_Default_allocator_traits@V?$allocator@U?$_Tree_node@UTelegram@@PAX@std@@@std@@@std@@SAXAAV?$allocator@U?$_Tree_node@UTelegram@@PAX@std@@@1@QAUTelegram@@ABU3@@Z
_TEXT	SEGMENT
$T1 = -4						; size = 4
___formal$ = 8						; size = 4
__Ptr$ = 12						; size = 4
_<_Args_0>$ = 16					; size = 4
??$construct@UTelegram@@ABU1@@?$_Default_allocator_traits@V?$allocator@U?$_Tree_node@UTelegram@@PAX@std@@@std@@@std@@SAXAAV?$allocator@U?$_Tree_node@UTelegram@@PAX@std@@@1@QAUTelegram@@ABU3@@Z PROC ; std::_Default_allocator_traits<std::allocator<std::_Tree_node<Telegram,void *> > >::construct<Telegram,Telegram const &>, COMDAT

; 854  : 		{	// construct _Objty(_Types...) at _Ptr

	push	ebp
	mov	ebp, esp
	push	ecx
	push	esi
	push	edi
	mov	DWORD PTR [ebp-4], -858993460		; ccccccccH

; 855  : 		::new (const_cast<void *>(static_cast<const volatile void *>(_Ptr)))

	mov	eax, DWORD PTR __Ptr$[ebp]
	push	eax
	push	32					; 00000020H
	call	??2@YAPAXIPAX@Z				; operator new
	add	esp, 8
	mov	DWORD PTR $T1[ebp], eax
	mov	ecx, DWORD PTR _<_Args_0>$[ebp]
	push	ecx
	call	??$forward@ABUTelegram@@@std@@YAABUTelegram@@ABU1@@Z ; std::forward<Telegram const &>
	add	esp, 4
	mov	ecx, 8
	mov	esi, eax
	mov	edi, DWORD PTR $T1[ebp]
	rep movsd

; 856  : 			_Objty(_STD forward<_Types>(_Args)...);
; 857  : 		}

	pop	edi
	pop	esi
	add	esp, 4
	cmp	ebp, esp
	call	__RTC_CheckEsp
	mov	esp, ebp
	pop	ebp
	ret	0
??$construct@UTelegram@@ABU1@@?$_Default_allocator_traits@V?$allocator@U?$_Tree_node@UTelegram@@PAX@std@@@std@@@std@@SAXAAV?$allocator@U?$_Tree_node@UTelegram@@PAX@std@@@1@QAUTelegram@@ABU3@@Z ENDP ; std::_Default_allocator_traits<std::allocator<std::_Tree_node<Telegram,void *> > >::construct<Telegram,Telegram const &>
_TEXT	ENDS
; Function compile flags: /Odtp /RTCsu
; File c:\program files (x86)\microsoft visual studio\2017\community\vc\tools\msvc\14.11.25503\include\xtree
;	COMDAT ??$_Buynode@ABUTelegram@@@?$_Tree_comp_alloc@V?$_Tset_traits@UTelegram@@U?$less@UTelegram@@@std@@V?$allocator@UTelegram@@@3@$0A@@std@@@std@@QAEPAU?$_Tree_node@UTelegram@@PAX@1@ABUTelegram@@@Z
_TEXT	SEGMENT
__Pnode$ = -24						; size = 4
_this$ = -20						; size = 4
__$EHRec$ = -16						; size = 16
_<_Val_0>$ = 8						; size = 4
??$_Buynode@ABUTelegram@@@?$_Tree_comp_alloc@V?$_Tset_traits@UTelegram@@U?$less@UTelegram@@@std@@V?$allocator@UTelegram@@@3@$0A@@std@@@std@@QAEPAU?$_Tree_node@UTelegram@@PAX@1@ABUTelegram@@@Z PROC ; std::_Tree_comp_alloc<std::_Tset_traits<Telegram,std::less<Telegram>,std::allocator<Telegram>,0> >::_Buynode<Telegram const &>, COMDAT
; _this$ = ecx

; 765  : 		{	// allocate a node with defaults and set links and value

	push	ebp
	mov	ebp, esp
	push	-1
	push	__ehhandler$??$_Buynode@ABUTelegram@@@?$_Tree_comp_alloc@V?$_Tset_traits@UTelegram@@U?$less@UTelegram@@@std@@V?$allocator@UTelegram@@@3@$0A@@std@@@std@@QAEPAU?$_Tree_node@UTelegram@@PAX@1@ABUTelegram@@@Z
	mov	eax, DWORD PTR fs:0
	push	eax
	push	ecx
	sub	esp, 8
	push	ebx
	push	esi
	push	edi
	mov	DWORD PTR [ebp-24], -858993460		; ccccccccH
	mov	DWORD PTR [ebp-20], -858993460		; ccccccccH
	mov	eax, DWORD PTR ___security_cookie
	xor	eax, ebp
	push	eax
	lea	eax, DWORD PTR __$EHRec$[ebp+4]
	mov	DWORD PTR fs:0, eax
	mov	DWORD PTR __$EHRec$[ebp], esp
	mov	DWORD PTR _this$[ebp], ecx

; 766  : 		_Nodeptr _Pnode = _Buynode0();

	mov	ecx, DWORD PTR _this$[ebp]
	call	?_Buynode0@?$_Tree_comp_alloc@V?$_Tset_traits@UTelegram@@U?$less@UTelegram@@@std@@V?$allocator@UTelegram@@@3@$0A@@std@@@std@@QAEPAU?$_Tree_node@UTelegram@@PAX@2@XZ ; std::_Tree_comp_alloc<std::_Tset_traits<Telegram,std::less<Telegram>,std::allocator<Telegram>,0> >::_Buynode0
	mov	DWORD PTR __Pnode$[ebp], eax

; 767  : 
; 768  : 		_Pnode->_Color = _Red;

	mov	eax, DWORD PTR __Pnode$[ebp]
	mov	BYTE PTR [eax+12], 0

; 769  : 		_Pnode->_Isnil = false;

	mov	ecx, DWORD PTR __Pnode$[ebp]
	mov	BYTE PTR [ecx+13], 0

; 770  : 
; 771  : 		_TRY_BEGIN

	mov	DWORD PTR __$EHRec$[ebp+12], 0

; 772  : 		_Alnode_traits::construct(_Getal(),

	mov	edx, DWORD PTR _<_Val_0>$[ebp]
	push	edx
	call	??$forward@ABUTelegram@@@std@@YAABUTelegram@@ABU1@@Z ; std::forward<Telegram const &>
	add	esp, 4
	push	eax
	mov	eax, DWORD PTR __Pnode$[ebp]
	add	eax, 16					; 00000010H
	push	eax
	call	??$addressof@UTelegram@@@std@@YAPAUTelegram@@AAU1@@Z ; std::addressof<Telegram>
	add	esp, 4
	push	eax
	mov	ecx, DWORD PTR _this$[ebp]
	call	?_Getal@?$_Tree_comp_alloc@V?$_Tset_traits@UTelegram@@U?$less@UTelegram@@@std@@V?$allocator@UTelegram@@@3@$0A@@std@@@std@@QAEAAV?$allocator@U?$_Tree_node@UTelegram@@PAX@std@@@2@XZ ; std::_Tree_comp_alloc<std::_Tset_traits<Telegram,std::less<Telegram>,std::allocator<Telegram>,0> >::_Getal
	push	eax
	call	??$construct@UTelegram@@ABU1@@?$_Default_allocator_traits@V?$allocator@U?$_Tree_node@UTelegram@@PAX@std@@@std@@@std@@SAXAAV?$allocator@U?$_Tree_node@UTelegram@@PAX@std@@@1@QAUTelegram@@ABU3@@Z ; std::_Default_allocator_traits<std::allocator<std::_Tree_node<Telegram,void *> > >::construct<Telegram,Telegram const &>
	add	esp, 12					; 0000000cH
	jmp	SHORT $LN4@Buynode
__catch$??$_Buynode@ABUTelegram@@@?$_Tree_comp_alloc@V?$_Tset_traits@UTelegram@@U?$less@UTelegram@@@std@@V?$allocator@UTelegram@@@3@$0A@@std@@@std@@QAEPAU?$_Tree_node@UTelegram@@PAX@1@ABUTelegram@@@Z$0:

; 773  : 			_STD addressof(_Pnode->_Myval), _STD forward<_Valty>(_Val)...);
; 774  : 		_CATCH_ALL
; 775  : 		_Freenode0(_Pnode);

	mov	ecx, DWORD PTR __Pnode$[ebp]
	push	ecx
	mov	ecx, DWORD PTR _this$[ebp]
	call	?_Freenode0@?$_Tree_comp_alloc@V?$_Tset_traits@UTelegram@@U?$less@UTelegram@@@std@@V?$allocator@UTelegram@@@3@$0A@@std@@@std@@QAEXPAU?$_Tree_node@UTelegram@@PAX@2@@Z ; std::_Tree_comp_alloc<std::_Tset_traits<Telegram,std::less<Telegram>,std::allocator<Telegram>,0> >::_Freenode0

; 776  : 		_RERAISE;

	push	0
	push	0
	call	__CxxThrowException@8

; 777  : 		_CATCH_END

	mov	eax, $LN7@Buynode
	ret	0
$LN4@Buynode:
	mov	DWORD PTR __$EHRec$[ebp+12], -1
	jmp	SHORT __tryend$??$_Buynode@ABUTelegram@@@?$_Tree_comp_alloc@V?$_Tset_traits@UTelegram@@U?$less@UTelegram@@@std@@V?$allocator@UTelegram@@@3@$0A@@std@@@std@@QAEPAU?$_Tree_node@UTelegram@@PAX@1@ABUTelegram@@@Z$1
$LN7@Buynode:
	mov	DWORD PTR __$EHRec$[ebp+12], -1
__tryend$??$_Buynode@ABUTelegram@@@?$_Tree_comp_alloc@V?$_Tset_traits@UTelegram@@U?$less@UTelegram@@@std@@V?$allocator@UTelegram@@@3@$0A@@std@@@std@@QAEPAU?$_Tree_node@UTelegram@@PAX@1@ABUTelegram@@@Z$1:

; 778  : 
; 779  : 		return (_Pnode);

	mov	eax, DWORD PTR __Pnode$[ebp]
$LN3@Buynode:

; 780  : 		}

	mov	ecx, DWORD PTR __$EHRec$[ebp+4]
	mov	DWORD PTR fs:0, ecx
	pop	ecx
	pop	edi
	pop	esi
	pop	ebx
	add	esp, 24					; 00000018H
	cmp	ebp, esp
	call	__RTC_CheckEsp
	mov	esp, ebp
	pop	ebp
	ret	4
_TEXT	ENDS
;	COMDAT text$x
text$x	SEGMENT
__ehhandler$??$_Buynode@ABUTelegram@@@?$_Tree_comp_alloc@V?$_Tset_traits@UTelegram@@U?$less@UTelegram@@@std@@V?$allocator@UTelegram@@@3@$0A@@std@@@std@@QAEPAU?$_Tree_node@UTelegram@@PAX@1@ABUTelegram@@@Z:
	mov	edx, DWORD PTR [esp+8]
	lea	eax, DWORD PTR [edx+12]
	mov	ecx, DWORD PTR [edx-28]
	xor	ecx, eax
	call	@__security_check_cookie@4
	mov	eax, OFFSET __ehfuncinfo$??$_Buynode@ABUTelegram@@@?$_Tree_comp_alloc@V?$_Tset_traits@UTelegram@@U?$less@UTelegram@@@std@@V?$allocator@UTelegram@@@3@$0A@@std@@@std@@QAEPAU?$_Tree_node@UTelegram@@PAX@1@ABUTelegram@@@Z
	jmp	___CxxFrameHandler3
text$x	ENDS
??$_Buynode@ABUTelegram@@@?$_Tree_comp_alloc@V?$_Tset_traits@UTelegram@@U?$less@UTelegram@@@std@@V?$allocator@UTelegram@@@3@$0A@@std@@@std@@QAEPAU?$_Tree_node@UTelegram@@PAX@1@ABUTelegram@@@Z ENDP ; std::_Tree_comp_alloc<std::_Tset_traits<Telegram,std::less<Telegram>,std::allocator<Telegram>,0> >::_Buynode<Telegram const &>
; Function compile flags: /Odtp /RTCsu
; File c:\program files (x86)\microsoft visual studio\2017\community\vc\tools\msvc\14.11.25503\include\type_traits
;	COMDAT ??$forward@AAV?$_Tree_const_iterator@V?$_Tree_val@U?$_Tree_simple_types@UTelegram@@@std@@@std@@@std@@@std@@YAAAV?$_Tree_const_iterator@V?$_Tree_val@U?$_Tree_simple_types@UTelegram@@@std@@@std@@@0@AAV10@@Z
_TEXT	SEGMENT
__Arg$ = 8						; size = 4
??$forward@AAV?$_Tree_const_iterator@V?$_Tree_val@U?$_Tree_simple_types@UTelegram@@@std@@@std@@@std@@@std@@YAAAV?$_Tree_const_iterator@V?$_Tree_val@U?$_Tree_simple_types@UTelegram@@@std@@@std@@@0@AAV10@@Z PROC ; std::forward<std::_Tree_const_iterator<std::_Tree_val<std::_Tree_simple_types<Telegram> > > &>, COMDAT

; 1591 : 	{	// forward an lvalue as either an lvalue or an rvalue

	push	ebp
	mov	ebp, esp

; 1592 : 	return (static_cast<_Ty&&>(_Arg));

	mov	eax, DWORD PTR __Arg$[ebp]

; 1593 : 	}

	pop	ebp
	ret	0
??$forward@AAV?$_Tree_const_iterator@V?$_Tree_val@U?$_Tree_simple_types@UTelegram@@@std@@@std@@@std@@@std@@YAAAV?$_Tree_const_iterator@V?$_Tree_val@U?$_Tree_simple_types@UTelegram@@@std@@@std@@@0@AAV10@@Z ENDP ; std::forward<std::_Tree_const_iterator<std::_Tree_val<std::_Tree_simple_types<Telegram> > > &>
_TEXT	ENDS
; Function compile flags: /Odtp /RTCsu
; File c:\program files (x86)\microsoft visual studio\2017\community\vc\tools\msvc\14.11.25503\include\type_traits
;	COMDAT ??$forward@_N@std@@YA$$QA_NAA_N@Z
_TEXT	SEGMENT
__Arg$ = 8						; size = 4
??$forward@_N@std@@YA$$QA_NAA_N@Z PROC			; std::forward<bool>, COMDAT

; 1591 : 	{	// forward an lvalue as either an lvalue or an rvalue

	push	ebp
	mov	ebp, esp

; 1592 : 	return (static_cast<_Ty&&>(_Arg));

	mov	eax, DWORD PTR __Arg$[ebp]

; 1593 : 	}

	pop	ebp
	ret	0
??$forward@_N@std@@YA$$QA_NAA_N@Z ENDP			; std::forward<bool>
_TEXT	ENDS
; Function compile flags: /Odtp /RTCsu
; File c:\program files (x86)\microsoft visual studio\2017\community\vc\tools\msvc\14.11.25503\include\type_traits
;	COMDAT ??$forward@V?$_Tree_const_iterator@V?$_Tree_val@U?$_Tree_simple_types@UTelegram@@@std@@@std@@@std@@@std@@YA$$QAV?$_Tree_const_iterator@V?$_Tree_val@U?$_Tree_simple_types@UTelegram@@@std@@@std@@@0@AAV10@@Z
_TEXT	SEGMENT
__Arg$ = 8						; size = 4
??$forward@V?$_Tree_const_iterator@V?$_Tree_val@U?$_Tree_simple_types@UTelegram@@@std@@@std@@@std@@@std@@YA$$QAV?$_Tree_const_iterator@V?$_Tree_val@U?$_Tree_simple_types@UTelegram@@@std@@@std@@@0@AAV10@@Z PROC ; std::forward<std::_Tree_const_iterator<std::_Tree_val<std::_Tree_simple_types<Telegram> > > >, COMDAT

; 1591 : 	{	// forward an lvalue as either an lvalue or an rvalue

	push	ebp
	mov	ebp, esp

; 1592 : 	return (static_cast<_Ty&&>(_Arg));

	mov	eax, DWORD PTR __Arg$[ebp]

; 1593 : 	}

	pop	ebp
	ret	0
??$forward@V?$_Tree_const_iterator@V?$_Tree_val@U?$_Tree_simple_types@UTelegram@@@std@@@std@@@std@@@std@@YA$$QAV?$_Tree_const_iterator@V?$_Tree_val@U?$_Tree_simple_types@UTelegram@@@std@@@std@@@0@AAV10@@Z ENDP ; std::forward<std::_Tree_const_iterator<std::_Tree_val<std::_Tree_simple_types<Telegram> > > >
_TEXT	ENDS
; Function compile flags: /Odtp /RTCsu
; File c:\program files (x86)\microsoft visual studio\2017\community\vc\tools\msvc\14.11.25503\include\xtree
;	COMDAT ??$_Buynode_if_nil@ABUTelegram@@@?$_Tree@V?$_Tset_traits@UTelegram@@U?$less@UTelegram@@@std@@V?$allocator@UTelegram@@@3@$0A@@std@@@std@@IAEPAU?$_Tree_node@UTelegram@@PAX@1@U_Nil@1@ABUTelegram@@@Z
_TEXT	SEGMENT
_this$ = -4						; size = 4
___formal$ = 8						; size = 1
__Val$ = 12						; size = 4
??$_Buynode_if_nil@ABUTelegram@@@?$_Tree@V?$_Tset_traits@UTelegram@@U?$less@UTelegram@@@std@@V?$allocator@UTelegram@@@3@$0A@@std@@@std@@IAEPAU?$_Tree_node@UTelegram@@PAX@1@U_Nil@1@ABUTelegram@@@Z PROC ; std::_Tree<std::_Tset_traits<Telegram,std::less<Telegram>,std::allocator<Telegram>,0> >::_Buynode_if_nil<Telegram const &>, COMDAT
; _this$ = ecx

; 1554 : 		{	// node doesn't exist, make it

	push	ebp
	mov	ebp, esp
	push	ecx
	mov	DWORD PTR [ebp-4], -858993460		; ccccccccH
	mov	DWORD PTR _this$[ebp], ecx

; 1555 : 		return (this->_Buynode(_STD forward<_Valty>(_Val)));

	mov	eax, DWORD PTR __Val$[ebp]
	push	eax
	call	??$forward@ABUTelegram@@@std@@YAABUTelegram@@ABU1@@Z ; std::forward<Telegram const &>
	add	esp, 4
	push	eax
	mov	ecx, DWORD PTR _this$[ebp]
	call	??$_Buynode@ABUTelegram@@@?$_Tree_comp_alloc@V?$_Tset_traits@UTelegram@@U?$less@UTelegram@@@std@@V?$allocator@UTelegram@@@3@$0A@@std@@@std@@QAEPAU?$_Tree_node@UTelegram@@PAX@1@ABUTelegram@@@Z ; std::_Tree_comp_alloc<std::_Tset_traits<Telegram,std::less<Telegram>,std::allocator<Telegram>,0> >::_Buynode<Telegram const &>

; 1556 : 		}

	add	esp, 4
	cmp	ebp, esp
	call	__RTC_CheckEsp
	mov	esp, ebp
	pop	ebp
	ret	8
??$_Buynode_if_nil@ABUTelegram@@@?$_Tree@V?$_Tset_traits@UTelegram@@U?$less@UTelegram@@@std@@V?$allocator@UTelegram@@@3@$0A@@std@@@std@@IAEPAU?$_Tree_node@UTelegram@@PAX@1@U_Nil@1@ABUTelegram@@@Z ENDP ; std::_Tree<std::_Tset_traits<Telegram,std::less<Telegram>,std::allocator<Telegram>,0> >::_Buynode_if_nil<Telegram const &>
_TEXT	ENDS
; Function compile flags: /Odtp /RTCsu
; File c:\program files (x86)\microsoft visual studio\2017\community\vc\tools\msvc\14.11.25503\include\utility
;	COMDAT ??$?0AAV?$_Tree_const_iterator@V?$_Tree_val@U?$_Tree_simple_types@UTelegram@@@std@@@std@@@std@@_NX$0A@@?$pair@V?$_Tree_const_iterator@V?$_Tree_val@U?$_Tree_simple_types@UTelegram@@@std@@@std@@@std@@_N@std@@QAE@AAV?$_Tree_const_iterator@V?$_Tree_val@U?$_Tree_simple_types@UTelegram@@@std@@@std@@@1@$$QA_N@Z
_TEXT	SEGMENT
_this$ = -4						; size = 4
__Val1$ = 8						; size = 4
__Val2$ = 12						; size = 4
??$?0AAV?$_Tree_const_iterator@V?$_Tree_val@U?$_Tree_simple_types@UTelegram@@@std@@@std@@@std@@_NX$0A@@?$pair@V?$_Tree_const_iterator@V?$_Tree_val@U?$_Tree_simple_types@UTelegram@@@std@@@std@@@std@@_N@std@@QAE@AAV?$_Tree_const_iterator@V?$_Tree_val@U?$_Tree_simple_types@UTelegram@@@std@@@std@@@1@$$QA_N@Z PROC ; std::pair<std::_Tree_const_iterator<std::_Tree_val<std::_Tree_simple_types<Telegram> > >,bool>::pair<std::_Tree_const_iterator<std::_Tree_val<std::_Tree_simple_types<Telegram> > >,bool><std::_Tree_const_iterator<std::_Tree_val<std::_Tree_simple_types<Telegram> > > &,bool,void,0>, COMDAT
; _this$ = ecx

; 188  : 		{	// construct from moved values

	push	ebp
	mov	ebp, esp
	push	ecx
	mov	DWORD PTR [ebp-4], -858993460		; ccccccccH
	mov	DWORD PTR _this$[ebp], ecx

; 186  : 		: first(_STD forward<_Other1>(_Val1)),

	mov	eax, DWORD PTR __Val1$[ebp]
	push	eax
	call	??$forward@AAV?$_Tree_const_iterator@V?$_Tree_val@U?$_Tree_simple_types@UTelegram@@@std@@@std@@@std@@@std@@YAAAV?$_Tree_const_iterator@V?$_Tree_val@U?$_Tree_simple_types@UTelegram@@@std@@@std@@@0@AAV10@@Z ; std::forward<std::_Tree_const_iterator<std::_Tree_val<std::_Tree_simple_types<Telegram> > > &>
	add	esp, 4
	push	eax
	mov	ecx, DWORD PTR _this$[ebp]
	call	??0?$_Tree_const_iterator@V?$_Tree_val@U?$_Tree_simple_types@UTelegram@@@std@@@std@@@std@@QAE@ABV01@@Z

; 187  : 				second(_STD forward<_Other2>(_Val2))

	mov	ecx, DWORD PTR __Val2$[ebp]
	push	ecx
	call	??$forward@_N@std@@YA$$QA_NAA_N@Z	; std::forward<bool>
	add	esp, 4
	mov	edx, DWORD PTR _this$[ebp]
	mov	al, BYTE PTR [eax]
	mov	BYTE PTR [edx+12], al

; 189  : 		}

	mov	eax, DWORD PTR _this$[ebp]
	add	esp, 4
	cmp	ebp, esp
	call	__RTC_CheckEsp
	mov	esp, ebp
	pop	ebp
	ret	8
??$?0AAV?$_Tree_const_iterator@V?$_Tree_val@U?$_Tree_simple_types@UTelegram@@@std@@@std@@@std@@_NX$0A@@?$pair@V?$_Tree_const_iterator@V?$_Tree_val@U?$_Tree_simple_types@UTelegram@@@std@@@std@@@std@@_N@std@@QAE@AAV?$_Tree_const_iterator@V?$_Tree_val@U?$_Tree_simple_types@UTelegram@@@std@@@std@@@1@$$QA_N@Z ENDP ; std::pair<std::_Tree_const_iterator<std::_Tree_val<std::_Tree_simple_types<Telegram> > >,bool>::pair<std::_Tree_const_iterator<std::_Tree_val<std::_Tree_simple_types<Telegram> > >,bool><std::_Tree_const_iterator<std::_Tree_val<std::_Tree_simple_types<Telegram> > > &,bool,void,0>
_TEXT	ENDS
; Function compile flags: /Odtp /RTCsu
; File c:\program files (x86)\microsoft visual studio\2017\community\vc\tools\msvc\14.11.25503\include\utility
;	COMDAT ??$?0V?$_Tree_const_iterator@V?$_Tree_val@U?$_Tree_simple_types@UTelegram@@@std@@@std@@@std@@_NX$0A@@?$pair@V?$_Tree_const_iterator@V?$_Tree_val@U?$_Tree_simple_types@UTelegram@@@std@@@std@@@std@@_N@std@@QAE@$$QAV?$_Tree_const_iterator@V?$_Tree_val@U?$_Tree_simple_types@UTelegram@@@std@@@std@@@1@$$QA_N@Z
_TEXT	SEGMENT
_this$ = -4						; size = 4
__Val1$ = 8						; size = 4
__Val2$ = 12						; size = 4
??$?0V?$_Tree_const_iterator@V?$_Tree_val@U?$_Tree_simple_types@UTelegram@@@std@@@std@@@std@@_NX$0A@@?$pair@V?$_Tree_const_iterator@V?$_Tree_val@U?$_Tree_simple_types@UTelegram@@@std@@@std@@@std@@_N@std@@QAE@$$QAV?$_Tree_const_iterator@V?$_Tree_val@U?$_Tree_simple_types@UTelegram@@@std@@@std@@@1@$$QA_N@Z PROC ; std::pair<std::_Tree_const_iterator<std::_Tree_val<std::_Tree_simple_types<Telegram> > >,bool>::pair<std::_Tree_const_iterator<std::_Tree_val<std::_Tree_simple_types<Telegram> > >,bool><std::_Tree_const_iterator<std::_Tree_val<std::_Tree_simple_types<Telegram> > >,bool,void,0>, COMDAT
; _this$ = ecx

; 188  : 		{	// construct from moved values

	push	ebp
	mov	ebp, esp
	push	ecx
	mov	DWORD PTR [ebp-4], -858993460		; ccccccccH
	mov	DWORD PTR _this$[ebp], ecx

; 186  : 		: first(_STD forward<_Other1>(_Val1)),

	mov	eax, DWORD PTR __Val1$[ebp]
	push	eax
	call	??$forward@V?$_Tree_const_iterator@V?$_Tree_val@U?$_Tree_simple_types@UTelegram@@@std@@@std@@@std@@@std@@YA$$QAV?$_Tree_const_iterator@V?$_Tree_val@U?$_Tree_simple_types@UTelegram@@@std@@@std@@@0@AAV10@@Z ; std::forward<std::_Tree_const_iterator<std::_Tree_val<std::_Tree_simple_types<Telegram> > > >
	add	esp, 4
	push	eax
	mov	ecx, DWORD PTR _this$[ebp]
	call	??0?$_Tree_const_iterator@V?$_Tree_val@U?$_Tree_simple_types@UTelegram@@@std@@@std@@@std@@QAE@$$QAV01@@Z

; 187  : 				second(_STD forward<_Other2>(_Val2))

	mov	ecx, DWORD PTR __Val2$[ebp]
	push	ecx
	call	??$forward@_N@std@@YA$$QA_NAA_N@Z	; std::forward<bool>
	add	esp, 4
	mov	edx, DWORD PTR _this$[ebp]
	mov	al, BYTE PTR [eax]
	mov	BYTE PTR [edx+12], al

; 189  : 		}

	mov	eax, DWORD PTR _this$[ebp]
	add	esp, 4
	cmp	ebp, esp
	call	__RTC_CheckEsp
	mov	esp, ebp
	pop	ebp
	ret	8
??$?0V?$_Tree_const_iterator@V?$_Tree_val@U?$_Tree_simple_types@UTelegram@@@std@@@std@@@std@@_NX$0A@@?$pair@V?$_Tree_const_iterator@V?$_Tree_val@U?$_Tree_simple_types@UTelegram@@@std@@@std@@@std@@_N@std@@QAE@$$QAV?$_Tree_const_iterator@V?$_Tree_val@U?$_Tree_simple_types@UTelegram@@@std@@@std@@@1@$$QA_N@Z ENDP ; std::pair<std::_Tree_const_iterator<std::_Tree_val<std::_Tree_simple_types<Telegram> > >,bool>::pair<std::_Tree_const_iterator<std::_Tree_val<std::_Tree_simple_types<Telegram> > >,bool><std::_Tree_const_iterator<std::_Tree_val<std::_Tree_simple_types<Telegram> > >,bool,void,0>
_TEXT	ENDS
; Function compile flags: /Odtp /RTCsu
; File c:\program files (x86)\microsoft visual studio\2017\community\vc\tools\msvc\14.11.25503\include\xtree
;	COMDAT ??$_Insert_at@ABUTelegram@@U_Nil@std@@@?$_Tree@V?$_Tset_traits@UTelegram@@U?$less@UTelegram@@@std@@V?$allocator@UTelegram@@@3@$0A@@std@@@std@@IAE?AV?$_Tree_const_iterator@V?$_Tree_val@U?$_Tree_simple_types@UTelegram@@@std@@@std@@@1@_NPAU?$_Tree_node@UTelegram@@PAX@1@ABUTelegram@@U_Nil@1@@Z
_TEXT	SEGMENT
tv89 = -20						; size = 4
$T1 = -16						; size = 4
__Pnode$2 = -12						; size = 4
__Newnode$ = -8						; size = 4
_this$ = -4						; size = 4
___$ReturnUdt$ = 8					; size = 4
__Addleft$ = 12						; size = 1
__Wherenode$ = 16					; size = 4
__Val$ = 20						; size = 4
__Node$ = 24						; size = 1
??$_Insert_at@ABUTelegram@@U_Nil@std@@@?$_Tree@V?$_Tset_traits@UTelegram@@U?$less@UTelegram@@@std@@V?$allocator@UTelegram@@@3@$0A@@std@@@std@@IAE?AV?$_Tree_const_iterator@V?$_Tree_val@U?$_Tree_simple_types@UTelegram@@@std@@@std@@@1@_NPAU?$_Tree_node@UTelegram@@PAX@1@ABUTelegram@@U_Nil@1@@Z PROC ; std::_Tree<std::_Tset_traits<Telegram,std::less<Telegram>,std::allocator<Telegram>,0> >::_Insert_at<Telegram const &,std::_Nil>, COMDAT
; _this$ = ecx

; 1781 : 		{	// add node with value next to _Wherenode, to left if _Addleft

	push	ebp
	mov	ebp, esp
	sub	esp, 20					; 00000014H
	push	esi
	mov	eax, -858993460				; ccccccccH
	mov	DWORD PTR [ebp-20], eax
	mov	DWORD PTR [ebp-16], eax
	mov	DWORD PTR [ebp-12], eax
	mov	DWORD PTR [ebp-8], eax
	mov	DWORD PTR [ebp-4], eax
	mov	DWORD PTR _this$[ebp], ecx
	mov	DWORD PTR $T1[ebp], 0

; 1782 : 		if (max_size() - 1 <= this->_Mysize())

	mov	ecx, DWORD PTR _this$[ebp]
	call	?max_size@?$_Tree@V?$_Tset_traits@UTelegram@@U?$less@UTelegram@@@std@@V?$allocator@UTelegram@@@3@$0A@@std@@@std@@QBEIXZ ; std::_Tree<std::_Tset_traits<Telegram,std::less<Telegram>,std::allocator<Telegram>,0> >::max_size
	mov	esi, eax
	sub	esi, 1
	mov	ecx, DWORD PTR _this$[ebp]
	call	?_Mysize@?$_Tree_comp_alloc@V?$_Tset_traits@UTelegram@@U?$less@UTelegram@@@std@@V?$allocator@UTelegram@@@3@$0A@@std@@@std@@QAEAAIXZ ; std::_Tree_comp_alloc<std::_Tset_traits<Telegram,std::less<Telegram>,std::allocator<Telegram>,0> >::_Mysize
	cmp	esi, DWORD PTR [eax]
	ja	SHORT $LN5@Insert_at

; 1783 : 			{	// tree would get too big, fail
; 1784 : 			_Destroy_if_not_nil(_Node);

	movzx	eax, BYTE PTR __Node$[ebp]
	push	eax
	mov	ecx, DWORD PTR _this$[ebp]
	call	?_Destroy_if_not_nil@?$_Tree@V?$_Tset_traits@UTelegram@@U?$less@UTelegram@@@std@@V?$allocator@UTelegram@@@3@$0A@@std@@@std@@IAEXU_Nil@2@@Z ; std::_Tree<std::_Tset_traits<Telegram,std::less<Telegram>,std::allocator<Telegram>,0> >::_Destroy_if_not_nil

; 1785 : 			_Xlength_error("map/set<T> too long");

	push	OFFSET ??_C@_0BE@JONHPENG@map?1set?$DMT?$DO?5too?5long?$AA@
	call	?_Xlength_error@std@@YAXPBD@Z		; std::_Xlength_error
$LN5@Insert_at:

; 1786 : 			}
; 1787 : 
; 1788 : 		_Nodeptr _Newnode = _Buynode_if_nil(_Node, _STD forward<_Valty>(_Val));

	mov	ecx, DWORD PTR __Val$[ebp]
	push	ecx
	call	??$forward@ABUTelegram@@@std@@YAABUTelegram@@ABU1@@Z ; std::forward<Telegram const &>
	add	esp, 4
	push	eax
	movzx	edx, BYTE PTR __Node$[ebp]
	push	edx
	mov	ecx, DWORD PTR _this$[ebp]
	call	??$_Buynode_if_nil@ABUTelegram@@@?$_Tree@V?$_Tset_traits@UTelegram@@U?$less@UTelegram@@@std@@V?$allocator@UTelegram@@@3@$0A@@std@@@std@@IAEPAU?$_Tree_node@UTelegram@@PAX@1@U_Nil@1@ABUTelegram@@@Z ; std::_Tree<std::_Tset_traits<Telegram,std::less<Telegram>,std::allocator<Telegram>,0> >::_Buynode_if_nil<Telegram const &>
	mov	DWORD PTR __Newnode$[ebp], eax

; 1789 : 
; 1790 : 		++this->_Mysize();

	mov	ecx, DWORD PTR _this$[ebp]
	call	?_Mysize@?$_Tree_comp_alloc@V?$_Tset_traits@UTelegram@@U?$less@UTelegram@@@std@@V?$allocator@UTelegram@@@3@$0A@@std@@@std@@QAEAAIXZ ; std::_Tree_comp_alloc<std::_Tset_traits<Telegram,std::less<Telegram>,std::allocator<Telegram>,0> >::_Mysize
	mov	DWORD PTR tv89[ebp], eax
	mov	eax, DWORD PTR tv89[ebp]
	mov	ecx, DWORD PTR [eax]
	add	ecx, 1
	mov	edx, DWORD PTR tv89[ebp]
	mov	DWORD PTR [edx], ecx

; 1791 : 		_Newnode->_Parent = _Wherenode;

	mov	eax, DWORD PTR __Newnode$[ebp]
	mov	ecx, DWORD PTR __Wherenode$[ebp]
	mov	DWORD PTR [eax+4], ecx

; 1792 : 
; 1793 : 		if (_Wherenode == this->_Myhead())

	mov	ecx, DWORD PTR _this$[ebp]
	call	?_Myhead@?$_Tree_comp_alloc@V?$_Tset_traits@UTelegram@@U?$less@UTelegram@@@std@@V?$allocator@UTelegram@@@3@$0A@@std@@@std@@QAEAAPAU?$_Tree_node@UTelegram@@PAX@2@XZ ; std::_Tree_comp_alloc<std::_Tset_traits<Telegram,std::less<Telegram>,std::allocator<Telegram>,0> >::_Myhead
	mov	edx, DWORD PTR __Wherenode$[ebp]
	cmp	edx, DWORD PTR [eax]
	jne	SHORT $LN6@Insert_at

; 1794 : 			{	// first node in tree, just set head values
; 1795 : 			_Root() = _Newnode;

	mov	ecx, DWORD PTR _this$[ebp]
	call	?_Root@?$_Tree@V?$_Tset_traits@UTelegram@@U?$less@UTelegram@@@std@@V?$allocator@UTelegram@@@3@$0A@@std@@@std@@IBEAAPAU?$_Tree_node@UTelegram@@PAX@2@XZ ; std::_Tree<std::_Tset_traits<Telegram,std::less<Telegram>,std::allocator<Telegram>,0> >::_Root
	mov	ecx, DWORD PTR __Newnode$[ebp]
	mov	DWORD PTR [eax], ecx

; 1796 : 			_Lmost() = _Newnode;

	mov	ecx, DWORD PTR _this$[ebp]
	call	?_Lmost@?$_Tree@V?$_Tset_traits@UTelegram@@U?$less@UTelegram@@@std@@V?$allocator@UTelegram@@@3@$0A@@std@@@std@@IBEAAPAU?$_Tree_node@UTelegram@@PAX@2@XZ ; std::_Tree<std::_Tset_traits<Telegram,std::less<Telegram>,std::allocator<Telegram>,0> >::_Lmost
	mov	edx, DWORD PTR __Newnode$[ebp]
	mov	DWORD PTR [eax], edx

; 1797 : 			_Rmost() = _Newnode;

	mov	ecx, DWORD PTR _this$[ebp]
	call	?_Rmost@?$_Tree@V?$_Tset_traits@UTelegram@@U?$less@UTelegram@@@std@@V?$allocator@UTelegram@@@3@$0A@@std@@@std@@IBEAAPAU?$_Tree_node@UTelegram@@PAX@2@XZ ; std::_Tree<std::_Tset_traits<Telegram,std::less<Telegram>,std::allocator<Telegram>,0> >::_Rmost
	mov	ecx, DWORD PTR __Newnode$[ebp]
	mov	DWORD PTR [eax], ecx
	jmp	SHORT $LN7@Insert_at
$LN6@Insert_at:

; 1798 : 			}
; 1799 : 		else if (_Addleft)

	movzx	edx, BYTE PTR __Addleft$[ebp]
	test	edx, edx
	je	SHORT $LN8@Insert_at

; 1800 : 			{	// add to left of _Wherenode
; 1801 : 			_Wherenode->_Left = _Newnode;

	mov	eax, DWORD PTR __Wherenode$[ebp]
	mov	ecx, DWORD PTR __Newnode$[ebp]
	mov	DWORD PTR [eax], ecx

; 1802 : 			if (_Wherenode == _Lmost())

	mov	ecx, DWORD PTR _this$[ebp]
	call	?_Lmost@?$_Tree@V?$_Tset_traits@UTelegram@@U?$less@UTelegram@@@std@@V?$allocator@UTelegram@@@3@$0A@@std@@@std@@IBEAAPAU?$_Tree_node@UTelegram@@PAX@2@XZ ; std::_Tree<std::_Tset_traits<Telegram,std::less<Telegram>,std::allocator<Telegram>,0> >::_Lmost
	mov	edx, DWORD PTR __Wherenode$[ebp]
	cmp	edx, DWORD PTR [eax]
	jne	SHORT $LN10@Insert_at

; 1803 : 				{
; 1804 : 				_Lmost() = _Newnode;

	mov	ecx, DWORD PTR _this$[ebp]
	call	?_Lmost@?$_Tree@V?$_Tset_traits@UTelegram@@U?$less@UTelegram@@@std@@V?$allocator@UTelegram@@@3@$0A@@std@@@std@@IBEAAPAU?$_Tree_node@UTelegram@@PAX@2@XZ ; std::_Tree<std::_Tset_traits<Telegram,std::less<Telegram>,std::allocator<Telegram>,0> >::_Lmost
	mov	ecx, DWORD PTR __Newnode$[ebp]
	mov	DWORD PTR [eax], ecx
$LN10@Insert_at:

; 1805 : 				}
; 1806 : 			}
; 1807 : 		else

	jmp	SHORT $LN7@Insert_at
$LN8@Insert_at:

; 1808 : 			{	// add to right of _Wherenode
; 1809 : 			_Wherenode->_Right = _Newnode;

	mov	edx, DWORD PTR __Wherenode$[ebp]
	mov	eax, DWORD PTR __Newnode$[ebp]
	mov	DWORD PTR [edx+8], eax

; 1810 : 			if (_Wherenode == _Rmost())

	mov	ecx, DWORD PTR _this$[ebp]
	call	?_Rmost@?$_Tree@V?$_Tset_traits@UTelegram@@U?$less@UTelegram@@@std@@V?$allocator@UTelegram@@@3@$0A@@std@@@std@@IBEAAPAU?$_Tree_node@UTelegram@@PAX@2@XZ ; std::_Tree<std::_Tset_traits<Telegram,std::less<Telegram>,std::allocator<Telegram>,0> >::_Rmost
	mov	ecx, DWORD PTR __Wherenode$[ebp]
	cmp	ecx, DWORD PTR [eax]
	jne	SHORT $LN7@Insert_at

; 1811 : 				{
; 1812 : 				_Rmost() = _Newnode;

	mov	ecx, DWORD PTR _this$[ebp]
	call	?_Rmost@?$_Tree@V?$_Tset_traits@UTelegram@@U?$less@UTelegram@@@std@@V?$allocator@UTelegram@@@3@$0A@@std@@@std@@IBEAAPAU?$_Tree_node@UTelegram@@PAX@2@XZ ; std::_Tree<std::_Tset_traits<Telegram,std::less<Telegram>,std::allocator<Telegram>,0> >::_Rmost
	mov	edx, DWORD PTR __Newnode$[ebp]
	mov	DWORD PTR [eax], edx
$LN7@Insert_at:

; 1813 : 				}
; 1814 : 			}
; 1815 : 
; 1816 : 		for (_Nodeptr _Pnode = _Newnode; _Pnode->_Parent->_Color == this->_Red; )

	mov	eax, DWORD PTR __Newnode$[ebp]
	mov	DWORD PTR __Pnode$2[ebp], eax
$LN4@Insert_at:
	mov	ecx, DWORD PTR __Pnode$2[ebp]
	mov	edx, DWORD PTR [ecx+4]
	movsx	eax, BYTE PTR [edx+12]
	test	eax, eax
	jne	$LN3@Insert_at

; 1817 : 			{
; 1818 : 			if (_Pnode->_Parent == _Pnode->_Parent->_Parent->_Left)

	mov	ecx, DWORD PTR __Pnode$2[ebp]
	mov	edx, DWORD PTR [ecx+4]
	mov	eax, DWORD PTR [edx+4]
	mov	ecx, DWORD PTR __Pnode$2[ebp]
	mov	edx, DWORD PTR [ecx+4]
	cmp	edx, DWORD PTR [eax]
	jne	$LN12@Insert_at

; 1819 : 				{	// fixup red-red in left subtree
; 1820 : 				_Wherenode = _Pnode->_Parent->_Parent->_Right;

	mov	eax, DWORD PTR __Pnode$2[ebp]
	mov	ecx, DWORD PTR [eax+4]
	mov	edx, DWORD PTR [ecx+4]
	mov	eax, DWORD PTR [edx+8]
	mov	DWORD PTR __Wherenode$[ebp], eax

; 1821 : 				if (_Wherenode->_Color == this->_Red)

	mov	ecx, DWORD PTR __Wherenode$[ebp]
	movsx	edx, BYTE PTR [ecx+12]
	test	edx, edx
	jne	SHORT $LN14@Insert_at

; 1822 : 					{	// parent has two red children, blacken both
; 1823 : 					_Pnode->_Parent->_Color = this->_Black;

	mov	eax, DWORD PTR __Pnode$2[ebp]
	mov	ecx, DWORD PTR [eax+4]
	mov	BYTE PTR [ecx+12], 1

; 1824 : 					_Wherenode->_Color = this->_Black;

	mov	edx, DWORD PTR __Wherenode$[ebp]
	mov	BYTE PTR [edx+12], 1

; 1825 : 					_Pnode->_Parent->_Parent->_Color = this->_Red;

	mov	eax, DWORD PTR __Pnode$2[ebp]
	mov	ecx, DWORD PTR [eax+4]
	mov	edx, DWORD PTR [ecx+4]
	mov	BYTE PTR [edx+12], 0

; 1826 : 					_Pnode = _Pnode->_Parent->_Parent;

	mov	eax, DWORD PTR __Pnode$2[ebp]
	mov	ecx, DWORD PTR [eax+4]
	mov	edx, DWORD PTR [ecx+4]
	mov	DWORD PTR __Pnode$2[ebp], edx

; 1827 : 					}
; 1828 : 				else

	jmp	SHORT $LN15@Insert_at
$LN14@Insert_at:

; 1829 : 					{	// parent has red and black children
; 1830 : 					if (_Pnode == _Pnode->_Parent->_Right)

	mov	eax, DWORD PTR __Pnode$2[ebp]
	mov	ecx, DWORD PTR [eax+4]
	mov	edx, DWORD PTR __Pnode$2[ebp]
	cmp	edx, DWORD PTR [ecx+8]
	jne	SHORT $LN16@Insert_at

; 1831 : 						{	// rotate right child to left
; 1832 : 						_Pnode = _Pnode->_Parent;

	mov	eax, DWORD PTR __Pnode$2[ebp]
	mov	ecx, DWORD PTR [eax+4]
	mov	DWORD PTR __Pnode$2[ebp], ecx

; 1833 : 						_Lrotate(_Pnode);

	mov	edx, DWORD PTR __Pnode$2[ebp]
	push	edx
	mov	ecx, DWORD PTR _this$[ebp]
	call	?_Lrotate@?$_Tree@V?$_Tset_traits@UTelegram@@U?$less@UTelegram@@@std@@V?$allocator@UTelegram@@@3@$0A@@std@@@std@@IAEXPAU?$_Tree_node@UTelegram@@PAX@2@@Z ; std::_Tree<std::_Tset_traits<Telegram,std::less<Telegram>,std::allocator<Telegram>,0> >::_Lrotate
$LN16@Insert_at:

; 1834 : 						}
; 1835 : 
; 1836 : 					_Pnode->_Parent->_Color = this->_Black;	// propagate red up

	mov	eax, DWORD PTR __Pnode$2[ebp]
	mov	ecx, DWORD PTR [eax+4]
	mov	BYTE PTR [ecx+12], 1

; 1837 : 					_Pnode->_Parent->_Parent->_Color = this->_Red;

	mov	edx, DWORD PTR __Pnode$2[ebp]
	mov	eax, DWORD PTR [edx+4]
	mov	ecx, DWORD PTR [eax+4]
	mov	BYTE PTR [ecx+12], 0

; 1838 : 					_Rrotate(_Pnode->_Parent->_Parent);

	mov	edx, DWORD PTR __Pnode$2[ebp]
	mov	eax, DWORD PTR [edx+4]
	mov	ecx, DWORD PTR [eax+4]
	push	ecx
	mov	ecx, DWORD PTR _this$[ebp]
	call	?_Rrotate@?$_Tree@V?$_Tset_traits@UTelegram@@U?$less@UTelegram@@@std@@V?$allocator@UTelegram@@@3@$0A@@std@@@std@@IAEXPAU?$_Tree_node@UTelegram@@PAX@2@@Z ; std::_Tree<std::_Tset_traits<Telegram,std::less<Telegram>,std::allocator<Telegram>,0> >::_Rrotate
$LN15@Insert_at:

; 1839 : 					}
; 1840 : 				}
; 1841 : 			else

	jmp	$LN13@Insert_at
$LN12@Insert_at:

; 1842 : 				{	// fixup red-red in right subtree
; 1843 : 				_Wherenode = _Pnode->_Parent->_Parent->_Left;

	mov	edx, DWORD PTR __Pnode$2[ebp]
	mov	eax, DWORD PTR [edx+4]
	mov	ecx, DWORD PTR [eax+4]
	mov	edx, DWORD PTR [ecx]
	mov	DWORD PTR __Wherenode$[ebp], edx

; 1844 : 				if (_Wherenode->_Color == this->_Red)

	mov	eax, DWORD PTR __Wherenode$[ebp]
	movsx	ecx, BYTE PTR [eax+12]
	test	ecx, ecx
	jne	SHORT $LN17@Insert_at

; 1845 : 					{	// parent has two red children, blacken both
; 1846 : 					_Pnode->_Parent->_Color = this->_Black;

	mov	edx, DWORD PTR __Pnode$2[ebp]
	mov	eax, DWORD PTR [edx+4]
	mov	BYTE PTR [eax+12], 1

; 1847 : 					_Wherenode->_Color = this->_Black;

	mov	ecx, DWORD PTR __Wherenode$[ebp]
	mov	BYTE PTR [ecx+12], 1

; 1848 : 					_Pnode->_Parent->_Parent->_Color = this->_Red;

	mov	edx, DWORD PTR __Pnode$2[ebp]
	mov	eax, DWORD PTR [edx+4]
	mov	ecx, DWORD PTR [eax+4]
	mov	BYTE PTR [ecx+12], 0

; 1849 : 					_Pnode = _Pnode->_Parent->_Parent;

	mov	edx, DWORD PTR __Pnode$2[ebp]
	mov	eax, DWORD PTR [edx+4]
	mov	ecx, DWORD PTR [eax+4]
	mov	DWORD PTR __Pnode$2[ebp], ecx

; 1850 : 					}
; 1851 : 				else

	jmp	SHORT $LN13@Insert_at
$LN17@Insert_at:

; 1852 : 					{	// parent has red and black children
; 1853 : 					if (_Pnode == _Pnode->_Parent->_Left)

	mov	edx, DWORD PTR __Pnode$2[ebp]
	mov	eax, DWORD PTR [edx+4]
	mov	ecx, DWORD PTR __Pnode$2[ebp]
	cmp	ecx, DWORD PTR [eax]
	jne	SHORT $LN19@Insert_at

; 1854 : 						{	// rotate left child to right
; 1855 : 						_Pnode = _Pnode->_Parent;

	mov	edx, DWORD PTR __Pnode$2[ebp]
	mov	eax, DWORD PTR [edx+4]
	mov	DWORD PTR __Pnode$2[ebp], eax

; 1856 : 						_Rrotate(_Pnode);

	mov	ecx, DWORD PTR __Pnode$2[ebp]
	push	ecx
	mov	ecx, DWORD PTR _this$[ebp]
	call	?_Rrotate@?$_Tree@V?$_Tset_traits@UTelegram@@U?$less@UTelegram@@@std@@V?$allocator@UTelegram@@@3@$0A@@std@@@std@@IAEXPAU?$_Tree_node@UTelegram@@PAX@2@@Z ; std::_Tree<std::_Tset_traits<Telegram,std::less<Telegram>,std::allocator<Telegram>,0> >::_Rrotate
$LN19@Insert_at:

; 1857 : 						}
; 1858 : 
; 1859 : 					_Pnode->_Parent->_Color = this->_Black;	// propagate red up

	mov	edx, DWORD PTR __Pnode$2[ebp]
	mov	eax, DWORD PTR [edx+4]
	mov	BYTE PTR [eax+12], 1

; 1860 : 					_Pnode->_Parent->_Parent->_Color = this->_Red;

	mov	ecx, DWORD PTR __Pnode$2[ebp]
	mov	edx, DWORD PTR [ecx+4]
	mov	eax, DWORD PTR [edx+4]
	mov	BYTE PTR [eax+12], 0

; 1861 : 					_Lrotate(_Pnode->_Parent->_Parent);

	mov	ecx, DWORD PTR __Pnode$2[ebp]
	mov	edx, DWORD PTR [ecx+4]
	mov	eax, DWORD PTR [edx+4]
	push	eax
	mov	ecx, DWORD PTR _this$[ebp]
	call	?_Lrotate@?$_Tree@V?$_Tset_traits@UTelegram@@U?$less@UTelegram@@@std@@V?$allocator@UTelegram@@@3@$0A@@std@@@std@@IAEXPAU?$_Tree_node@UTelegram@@PAX@2@@Z ; std::_Tree<std::_Tset_traits<Telegram,std::less<Telegram>,std::allocator<Telegram>,0> >::_Lrotate
$LN13@Insert_at:

; 1862 : 					}
; 1863 : 				}
; 1864 : 			}

	jmp	$LN4@Insert_at
$LN3@Insert_at:

; 1865 : 
; 1866 : 		_Root()->_Color = this->_Black;	// root is always black

	mov	ecx, DWORD PTR _this$[ebp]
	call	?_Root@?$_Tree@V?$_Tset_traits@UTelegram@@U?$less@UTelegram@@@std@@V?$allocator@UTelegram@@@3@$0A@@std@@@std@@IBEAAPAU?$_Tree_node@UTelegram@@PAX@2@XZ ; std::_Tree<std::_Tset_traits<Telegram,std::less<Telegram>,std::allocator<Telegram>,0> >::_Root
	mov	ecx, DWORD PTR [eax]
	mov	BYTE PTR [ecx+12], 1

; 1867 : 		return (iterator(_Newnode, _STD addressof(this->_Get_data())));

	mov	ecx, DWORD PTR _this$[ebp]
	call	?_Get_data@?$_Tree_comp_alloc@V?$_Tset_traits@UTelegram@@U?$less@UTelegram@@@std@@V?$allocator@UTelegram@@@3@$0A@@std@@@std@@QAEAAV?$_Tree_val@U?$_Tree_simple_types@UTelegram@@@std@@@2@XZ ; std::_Tree_comp_alloc<std::_Tset_traits<Telegram,std::less<Telegram>,std::allocator<Telegram>,0> >::_Get_data
	push	eax
	call	??$addressof@V?$_Tree_val@U?$_Tree_simple_types@UTelegram@@@std@@@std@@@std@@YAPAV?$_Tree_val@U?$_Tree_simple_types@UTelegram@@@std@@@0@AAV10@@Z ; std::addressof<std::_Tree_val<std::_Tree_simple_types<Telegram> > >
	add	esp, 4
	push	eax
	mov	edx, DWORD PTR __Newnode$[ebp]
	push	edx
	mov	ecx, DWORD PTR ___$ReturnUdt$[ebp]
	call	??0?$_Tree_const_iterator@V?$_Tree_val@U?$_Tree_simple_types@UTelegram@@@std@@@std@@@std@@QAE@PAU?$_Tree_node@UTelegram@@PAX@1@PBV?$_Tree_val@U?$_Tree_simple_types@UTelegram@@@std@@@1@@Z ; std::_Tree_const_iterator<std::_Tree_val<std::_Tree_simple_types<Telegram> > >::_Tree_const_iterator<std::_Tree_val<std::_Tree_simple_types<Telegram> > >
	mov	eax, DWORD PTR $T1[ebp]
	or	eax, 1
	mov	DWORD PTR $T1[ebp], eax
	mov	eax, DWORD PTR ___$ReturnUdt$[ebp]
$LN20@Insert_at:

; 1868 : 		}

	pop	esi
	add	esp, 20					; 00000014H
	cmp	ebp, esp
	call	__RTC_CheckEsp
	mov	esp, ebp
	pop	ebp
	ret	20					; 00000014H
??$_Insert_at@ABUTelegram@@U_Nil@std@@@?$_Tree@V?$_Tset_traits@UTelegram@@U?$less@UTelegram@@@std@@V?$allocator@UTelegram@@@3@$0A@@std@@@std@@IAE?AV?$_Tree_const_iterator@V?$_Tree_val@U?$_Tree_simple_types@UTelegram@@@std@@@std@@@1@_NPAU?$_Tree_node@UTelegram@@PAX@1@ABUTelegram@@U_Nil@1@@Z ENDP ; std::_Tree<std::_Tset_traits<Telegram,std::less<Telegram>,std::allocator<Telegram>,0> >::_Insert_at<Telegram const &,std::_Nil>
_TEXT	ENDS
; Function compile flags: /Odtp /RTCsu
; File c:\program files (x86)\microsoft visual studio\2017\community\vc\tools\msvc\14.11.25503\include\type_traits
;	COMDAT ??$forward@ABUTelegram@@@std@@YAABUTelegram@@ABU1@@Z
_TEXT	SEGMENT
__Arg$ = 8						; size = 4
??$forward@ABUTelegram@@@std@@YAABUTelegram@@ABU1@@Z PROC ; std::forward<Telegram const &>, COMDAT

; 1591 : 	{	// forward an lvalue as either an lvalue or an rvalue

	push	ebp
	mov	ebp, esp

; 1592 : 	return (static_cast<_Ty&&>(_Arg));

	mov	eax, DWORD PTR __Arg$[ebp]

; 1593 : 	}

	pop	ebp
	ret	0
??$forward@ABUTelegram@@@std@@YAABUTelegram@@ABU1@@Z ENDP ; std::forward<Telegram const &>
_TEXT	ENDS
; Function compile flags: /Odtp /RTCsu
; File c:\program files (x86)\microsoft visual studio\2017\community\vc\tools\msvc\14.11.25503\include\xutility
;	COMDAT ??$_Debug_lt_pred@AAU?$less@UTelegram@@@std@@ABUTelegram@@ABU3@@std@@YA_NAAU?$less@UTelegram@@@0@ABUTelegram@@1PB_WI@Z
_TEXT	SEGMENT
tv85 = -2						; size = 1
tv82 = -1						; size = 1
__Pred$ = 8						; size = 4
__Left$ = 12						; size = 4
__Right$ = 16						; size = 4
__File$ = 20						; size = 4
__Line$ = 24						; size = 4
??$_Debug_lt_pred@AAU?$less@UTelegram@@@std@@ABUTelegram@@ABU3@@std@@YA_NAAU?$less@UTelegram@@@0@ABUTelegram@@1PB_WI@Z PROC ; std::_Debug_lt_pred<std::less<Telegram> &,Telegram const &,Telegram const &>, COMDAT

; 943  : 	{	// test if _Pred(_Left, _Right) and _Pred is strict weak ordering

	push	ebp
	mov	ebp, esp
	push	ecx
	mov	DWORD PTR [ebp-4], -858993460		; ccccccccH

; 944  : 	return (_Pred(_Left, _Right)

	mov	eax, DWORD PTR __Right$[ebp]
	push	eax
	mov	ecx, DWORD PTR __Left$[ebp]
	push	ecx
	mov	ecx, DWORD PTR __Pred$[ebp]
	call	??R?$less@UTelegram@@@std@@QBE_NABUTelegram@@0@Z ; std::less<Telegram>::operator()
	movzx	edx, al
	test	edx, edx
	je	SHORT $LN5@Debug_lt_p
	mov	eax, DWORD PTR __Left$[ebp]
	push	eax
	mov	ecx, DWORD PTR __Right$[ebp]
	push	ecx
	mov	ecx, DWORD PTR __Pred$[ebp]
	call	??R?$less@UTelegram@@@std@@QBE_NABUTelegram@@0@Z ; std::less<Telegram>::operator()
	movzx	edx, al
	test	edx, edx
	je	SHORT $LN3@Debug_lt_p
	mov	eax, DWORD PTR __Line$[ebp]
	push	eax
	mov	ecx, DWORD PTR __File$[ebp]
	push	ecx
	push	OFFSET ??_C@_1CG@LEJCKCBB@?$AAi?$AAn?$AAv?$AAa?$AAl?$AAi?$AAd?$AA?5?$AAc?$AAo?$AAm?$AAp?$AAa?$AAr?$AAa?$AAt?$AAo?$AAr?$AA?$AA@
	call	?_Debug_message@std@@YAXPB_W0I@Z	; std::_Debug_message
	add	esp, 12					; 0000000cH
	push	0
	push	946					; 000003b2H
	push	OFFSET ??_C@_1NC@EFLIIKIK@?$AAC?$AA?3?$AA?2?$AAP?$AAr?$AAo?$AAg?$AAr?$AAa?$AAm?$AA?5?$AAF?$AAi?$AAl?$AAe?$AAs?$AA?5?$AA?$CI?$AAx?$AA8?$AA6?$AA?$CJ?$AA?2?$AAM?$AAi?$AAc?$AAr?$AAo?$AAs?$AAo?$AAf?$AAt@
	push	OFFSET ??_C@_1CI@JONCLBEJ@?$AAs?$AAt?$AAd?$AA?3?$AA?3?$AA_?$AAD?$AAe?$AAb?$AAu?$AAg?$AA_?$AAl?$AAt?$AA_?$AAp?$AAr?$AAe?$AAd?$AA?$AA@
	push	OFFSET ??_C@_1CK@NDNHPKPI@?$AA?$CC?$AAi?$AAn?$AAv?$AAa?$AAl?$AAi?$AAd?$AA?5?$AAc?$AAo?$AAm?$AAp?$AAa?$AAr?$AAa?$AAt?$AAo?$AAr?$AA?$CC?$AA?$AA@
	call	__invalid_parameter
	add	esp, 20					; 00000014H
	mov	BYTE PTR tv82[ebp], 1
	jmp	SHORT $LN4@Debug_lt_p
$LN3@Debug_lt_p:
	mov	BYTE PTR tv82[ebp], 1
$LN4@Debug_lt_p:
	mov	dl, BYTE PTR tv82[ebp]
	mov	BYTE PTR tv85[ebp], dl
	jmp	SHORT $LN6@Debug_lt_p
$LN5@Debug_lt_p:
	mov	BYTE PTR tv85[ebp], 0
$LN6@Debug_lt_p:
	mov	al, BYTE PTR tv85[ebp]

; 945  : 		? (_Pred(_Right, _Left)
; 946  : 			? (_DEBUG_ERROR2("invalid comparator", _File, _Line), true)
; 947  : 			: true)
; 948  : 		: false);
; 949  : 	}

	add	esp, 4
	cmp	ebp, esp
	call	__RTC_CheckEsp
	mov	esp, ebp
	pop	ebp
	ret	0
??$_Debug_lt_pred@AAU?$less@UTelegram@@@std@@ABUTelegram@@ABU3@@std@@YA_NAAU?$less@UTelegram@@@0@ABUTelegram@@1PB_WI@Z ENDP ; std::_Debug_lt_pred<std::less<Telegram> &,Telegram const &,Telegram const &>
_TEXT	ENDS
; Function compile flags: /Odtp /RTCsu
; File c:\program files (x86)\microsoft visual studio\2017\community\vc\tools\msvc\14.11.25503\include\xlocnum
;	COMDAT ??__E?id@?$numpunct@D@std@@2V0locale@2@A@@YAXXZ
text$di	SEGMENT
??__E?id@?$numpunct@D@std@@2V0locale@2@A@@YAXXZ PROC	; `dynamic initializer for 'std::numpunct<char>::id'', COMDAT

; 298  : 	__PURE_APPDOMAIN_GLOBAL locale::id numpunct<_Elem>::id;

	push	ebp
	mov	ebp, esp
	push	0
	mov	ecx, OFFSET ?id@?$numpunct@D@std@@2V0locale@2@A ; std::numpunct<char>::id
	call	??0id@locale@std@@QAE@I@Z		; std::locale::id::id
	cmp	ebp, esp
	call	__RTC_CheckEsp
	pop	ebp
	ret	0
??__E?id@?$numpunct@D@std@@2V0locale@2@A@@YAXXZ ENDP	; `dynamic initializer for 'std::numpunct<char>::id''
text$di	ENDS
; Function compile flags: /Odtp /RTCsu
; File c:\program files (x86)\microsoft visual studio\2017\community\vc\tools\msvc\14.11.25503\include\xlocnum
;	COMDAT ??__E?id@?$num_put@DV?$ostreambuf_iterator@DU?$char_traits@D@std@@@std@@@std@@2V0locale@2@A@@YAXXZ
text$di	SEGMENT
??__E?id@?$num_put@DV?$ostreambuf_iterator@DU?$char_traits@D@std@@@std@@@std@@2V0locale@2@A@@YAXXZ PROC ; `dynamic initializer for 'std::num_put<char,std::ostreambuf_iterator<char,std::char_traits<char> > >::id'', COMDAT

; 1677 : 	__PURE_APPDOMAIN_GLOBAL locale::id num_put<_Elem, _OutIt>::id;

	push	ebp
	mov	ebp, esp
	push	0
	mov	ecx, OFFSET ?id@?$num_put@DV?$ostreambuf_iterator@DU?$char_traits@D@std@@@std@@@std@@2V0locale@2@A ; std::num_put<char,std::ostreambuf_iterator<char,std::char_traits<char> > >::id
	call	??0id@locale@std@@QAE@I@Z		; std::locale::id::id
	cmp	ebp, esp
	call	__RTC_CheckEsp
	pop	ebp
	ret	0
??__E?id@?$num_put@DV?$ostreambuf_iterator@DU?$char_traits@D@std@@@std@@@std@@2V0locale@2@A@@YAXXZ ENDP ; `dynamic initializer for 'std::num_put<char,std::ostreambuf_iterator<char,std::char_traits<char> > >::id''
text$di	ENDS
; Function compile flags: /Odtp /RTCsu
; File c:\program files (x86)\microsoft visual studio\2017\community\vc\tools\msvc\14.11.25503\include\type_traits
;	COMDAT ??$forward@AAPAU?$_Tree_node@UTelegram@@PAX@std@@@std@@YAAAPAU?$_Tree_node@UTelegram@@PAX@0@AAPAU10@@Z
_TEXT	SEGMENT
__Arg$ = 8						; size = 4
??$forward@AAPAU?$_Tree_node@UTelegram@@PAX@std@@@std@@YAAAPAU?$_Tree_node@UTelegram@@PAX@0@AAPAU10@@Z PROC ; std::forward<std::_Tree_node<Telegram,void *> * &>, COMDAT

; 1591 : 	{	// forward an lvalue as either an lvalue or an rvalue

	push	ebp
	mov	ebp, esp

; 1592 : 	return (static_cast<_Ty&&>(_Arg));

	mov	eax, DWORD PTR __Arg$[ebp]

; 1593 : 	}

	pop	ebp
	ret	0
??$forward@AAPAU?$_Tree_node@UTelegram@@PAX@std@@@std@@YAAAPAU?$_Tree_node@UTelegram@@PAX@0@AAPAU10@@Z ENDP ; std::forward<std::_Tree_node<Telegram,void *> * &>
_TEXT	ENDS
; Function compile flags: /Odtp /RTCsu
; File c:\program files (x86)\microsoft visual studio\2017\community\vc\tools\msvc\14.11.25503\include\xutility
;	COMDAT ??$?0$$V@?$_Compressed_pair@V?$allocator@U?$_Tree_node@UTelegram@@PAX@std@@@std@@V?$_Tree_val@U?$_Tree_simple_types@UTelegram@@@std@@@2@$00@std@@QAE@U_Zero_then_variadic_args_t@1@@Z
_TEXT	SEGMENT
_this$ = -4						; size = 4
___formal$ = 8						; size = 1
??$?0$$V@?$_Compressed_pair@V?$allocator@U?$_Tree_node@UTelegram@@PAX@std@@@std@@V?$_Tree_val@U?$_Tree_simple_types@UTelegram@@@std@@@2@$00@std@@QAE@U_Zero_then_variadic_args_t@1@@Z PROC ; std::_Compressed_pair<std::allocator<std::_Tree_node<Telegram,void *> >,std::_Tree_val<std::_Tree_simple_types<Telegram> >,1>::_Compressed_pair<std::allocator<std::_Tree_node<Telegram,void *> >,std::_Tree_val<std::_Tree_simple_types<Telegram> >,1><>, COMDAT
; _this$ = ecx

; 303  : 		{	// construct from forwarded values

	push	ebp
	mov	ebp, esp
	push	ecx
	mov	DWORD PTR [ebp-4], -858993460		; ccccccccH
	mov	DWORD PTR _this$[ebp], ecx

; 302  : 		: _Ty1(), _Myval2(_STD forward<_Other2>(_Val2)...)

	mov	ecx, DWORD PTR _this$[ebp]
	call	??0?$allocator@U?$_Tree_node@UTelegram@@PAX@std@@@std@@QAE@XZ ; std::allocator<std::_Tree_node<Telegram,void *> >::allocator<std::_Tree_node<Telegram,void *> >
	mov	ecx, DWORD PTR _this$[ebp]
	call	??0?$_Tree_val@U?$_Tree_simple_types@UTelegram@@@std@@@std@@QAE@XZ ; std::_Tree_val<std::_Tree_simple_types<Telegram> >::_Tree_val<std::_Tree_simple_types<Telegram> >

; 304  : 		}

	mov	eax, DWORD PTR _this$[ebp]
	add	esp, 4
	cmp	ebp, esp
	call	__RTC_CheckEsp
	mov	esp, ebp
	pop	ebp
	ret	4
??$?0$$V@?$_Compressed_pair@V?$allocator@U?$_Tree_node@UTelegram@@PAX@std@@@std@@V?$_Tree_val@U?$_Tree_simple_types@UTelegram@@@std@@@2@$00@std@@QAE@U_Zero_then_variadic_args_t@1@@Z ENDP ; std::_Compressed_pair<std::allocator<std::_Tree_node<Telegram,void *> >,std::_Tree_val<std::_Tree_simple_types<Telegram> >,1>::_Compressed_pair<std::allocator<std::_Tree_node<Telegram,void *> >,std::_Tree_val<std::_Tree_simple_types<Telegram> >,1><>
_TEXT	ENDS
; Function compile flags: /Odtp /RTCsu
; File c:\program files (x86)\microsoft visual studio\2017\community\vc\tools\msvc\14.11.25503\include\type_traits
;	COMDAT ??$forward@ABU?$less@UTelegram@@@std@@@std@@YAABU?$less@UTelegram@@@0@ABU10@@Z
_TEXT	SEGMENT
__Arg$ = 8						; size = 4
??$forward@ABU?$less@UTelegram@@@std@@@std@@YAABU?$less@UTelegram@@@0@ABU10@@Z PROC ; std::forward<std::less<Telegram> const &>, COMDAT

; 1591 : 	{	// forward an lvalue as either an lvalue or an rvalue

	push	ebp
	mov	ebp, esp

; 1592 : 	return (static_cast<_Ty&&>(_Arg));

	mov	eax, DWORD PTR __Arg$[ebp]

; 1593 : 	}

	pop	ebp
	ret	0
??$forward@ABU?$less@UTelegram@@@std@@@std@@YAABU?$less@UTelegram@@@0@ABU10@@Z ENDP ; std::forward<std::less<Telegram> const &>
_TEXT	ENDS
; Function compile flags: /Odtp /RTCsu
; File c:\program files (x86)\microsoft visual studio\2017\community\vc\tools\msvc\14.11.25503\include\type_traits
;	COMDAT ??$forward@U_Container_proxy@std@@@std@@YA$$QAU_Container_proxy@0@AAU10@@Z
_TEXT	SEGMENT
__Arg$ = 8						; size = 4
??$forward@U_Container_proxy@std@@@std@@YA$$QAU_Container_proxy@0@AAU10@@Z PROC ; std::forward<std::_Container_proxy>, COMDAT

; 1591 : 	{	// forward an lvalue as either an lvalue or an rvalue

	push	ebp
	mov	ebp, esp

; 1592 : 	return (static_cast<_Ty&&>(_Arg));

	mov	eax, DWORD PTR __Arg$[ebp]

; 1593 : 	}

	pop	ebp
	ret	0
??$forward@U_Container_proxy@std@@@std@@YA$$QAU_Container_proxy@0@AAU10@@Z ENDP ; std::forward<std::_Container_proxy>
_TEXT	ENDS
; Function compile flags: /Odtp /RTCsu
; File c:\program files (x86)\microsoft visual studio\2017\community\vc\tools\msvc\14.11.25503\include\type_traits
;	COMDAT ??$forward@U_Zero_then_variadic_args_t@std@@@std@@YA$$QAU_Zero_then_variadic_args_t@0@AAU10@@Z
_TEXT	SEGMENT
__Arg$ = 8						; size = 4
??$forward@U_Zero_then_variadic_args_t@std@@@std@@YA$$QAU_Zero_then_variadic_args_t@0@AAU10@@Z PROC ; std::forward<std::_Zero_then_variadic_args_t>, COMDAT

; 1591 : 	{	// forward an lvalue as either an lvalue or an rvalue

	push	ebp
	mov	ebp, esp

; 1592 : 	return (static_cast<_Ty&&>(_Arg));

	mov	eax, DWORD PTR __Arg$[ebp]

; 1593 : 	}

	pop	ebp
	ret	0
??$forward@U_Zero_then_variadic_args_t@std@@@std@@YA$$QAU_Zero_then_variadic_args_t@0@AAU10@@Z ENDP ; std::forward<std::_Zero_then_variadic_args_t>
_TEXT	ENDS
; Function compile flags: /Odtp /RTCsu
; File c:\program files (x86)\microsoft visual studio\2017\community\vc\tools\msvc\14.11.25503\include\type_traits
;	COMDAT ??$move@AAD@std@@YA$$QADAAD@Z
_TEXT	SEGMENT
__Arg$ = 8						; size = 4
??$move@AAD@std@@YA$$QADAAD@Z PROC			; std::move<char &>, COMDAT

; 1606 : 	{	// forward _Arg as movable

	push	ebp
	mov	ebp, esp

; 1607 : 	return (static_cast<remove_reference_t<_Ty>&&>(_Arg));

	mov	eax, DWORD PTR __Arg$[ebp]

; 1608 : 	}

	pop	ebp
	ret	0
??$move@AAD@std@@YA$$QADAAD@Z ENDP			; std::move<char &>
_TEXT	ENDS
; Function compile flags: /Odtp /RTCsu
; File c:\program files (x86)\microsoft visual studio\2017\community\vc\tools\msvc\14.11.25503\include\xtree
;	COMDAT ??$_Insert_nohint@ABUTelegram@@U_Nil@std@@@?$_Tree@V?$_Tset_traits@UTelegram@@U?$less@UTelegram@@@std@@V?$allocator@UTelegram@@@3@$0A@@std@@@std@@IAE?AU?$pair@V?$_Tree_const_iterator@V?$_Tree_val@U?$_Tree_simple_types@UTelegram@@@std@@@std@@@std@@_N@1@_NABUTelegram@@U_Nil@1@@Z
_TEXT	SEGMENT
tv280 = -204						; size = 4
tv295 = -197						; size = 1
tv294 = -196						; size = 4
tv293 = -192						; size = 4
tv292 = -188						; size = 4
tv276 = -184						; size = 4
tv291 = -177						; size = 1
tv274 = -176						; size = 4
tv290 = -172						; size = 4
tv289 = -168						; size = 4
tv267 = -164						; size = 4
tv153 = -160						; size = 4
tv288 = -153						; size = 1
tv287 = -152						; size = 4
tv286 = -148						; size = 4
tv129 = -144						; size = 4
tv156 = -137						; size = 1
tv197 = -136						; size = 4
tv240 = -132						; size = 4
tv258 = -128						; size = 4
$T2 = -124						; size = 4
$T3 = -117						; size = 1
$T4 = -116						; size = 12
$T5 = -101						; size = 1
$T6 = -100						; size = 12
$T7 = -85						; size = 1
$T8 = -84						; size = 12
$T9 = -69						; size = 1
$T10 = -68						; size = 12
$T11 = -53						; size = 1
__Where$12 = -48					; size = 12
__Addleft$13 = -29					; size = 1
__Wherenode$14 = -28					; size = 4
__Trynode$15 = -24					; size = 4
_this$ = -20						; size = 4
__$EHRec$ = -16						; size = 16
___$ReturnUdt$ = 8					; size = 4
__Leftish$ = 12						; size = 1
__Val$ = 16						; size = 4
__Newnode$ = 20						; size = 1
??$_Insert_nohint@ABUTelegram@@U_Nil@std@@@?$_Tree@V?$_Tset_traits@UTelegram@@U?$less@UTelegram@@@std@@V?$allocator@UTelegram@@@3@$0A@@std@@@std@@IAE?AU?$pair@V?$_Tree_const_iterator@V?$_Tree_val@U?$_Tree_simple_types@UTelegram@@@std@@@std@@@std@@_N@1@_NABUTelegram@@U_Nil@1@@Z PROC ; std::_Tree<std::_Tset_traits<Telegram,std::less<Telegram>,std::allocator<Telegram>,0> >::_Insert_nohint<Telegram const &,std::_Nil>, COMDAT
; _this$ = ecx

; 1710 : 		{	// try to insert node, on left if _Leftish

	push	ebp
	mov	ebp, esp
	push	-1
	push	__ehhandler$??$_Insert_nohint@ABUTelegram@@U_Nil@std@@@?$_Tree@V?$_Tset_traits@UTelegram@@U?$less@UTelegram@@@std@@V?$allocator@UTelegram@@@3@$0A@@std@@@std@@IAE?AU?$pair@V?$_Tree_const_iterator@V?$_Tree_val@U?$_Tree_simple_types@UTelegram@@@std@@@std@@@std@@_N@1@_NABUTelegram@@U_Nil@1@@Z
	mov	eax, DWORD PTR fs:0
	push	eax
	push	ecx
	sub	esp, 188				; 000000bcH
	push	ebx
	push	esi
	push	edi
	push	ecx
	lea	edi, DWORD PTR [ebp-204]
	mov	ecx, 47					; 0000002fH
	mov	eax, -858993460				; ccccccccH
	rep stosd
	pop	ecx
	mov	eax, DWORD PTR ___security_cookie
	xor	eax, ebp
	push	eax
	lea	eax, DWORD PTR __$EHRec$[ebp+4]
	mov	DWORD PTR fs:0, eax
	mov	DWORD PTR __$EHRec$[ebp], esp
	mov	DWORD PTR _this$[ebp], ecx
	mov	DWORD PTR $T2[ebp], 0

; 1711 : 		_TRY_BEGIN

	mov	DWORD PTR __$EHRec$[ebp+12], 0

; 1712 : 		_Nodeptr _Trynode = _Root();

	mov	ecx, DWORD PTR _this$[ebp]
	call	?_Root@?$_Tree@V?$_Tset_traits@UTelegram@@U?$less@UTelegram@@@std@@V?$allocator@UTelegram@@@3@$0A@@std@@@std@@IBEAAPAU?$_Tree_node@UTelegram@@PAX@2@XZ ; std::_Tree<std::_Tset_traits<Telegram,std::less<Telegram>,std::allocator<Telegram>,0> >::_Root
	mov	DWORD PTR tv258[ebp], eax
	mov	eax, DWORD PTR tv258[ebp]
	mov	ecx, DWORD PTR [eax]
	mov	DWORD PTR __Trynode$15[ebp], ecx

; 1713 : 		_Nodeptr _Wherenode = this->_Myhead();

	mov	ecx, DWORD PTR _this$[ebp]
	call	?_Myhead@?$_Tree_comp_alloc@V?$_Tset_traits@UTelegram@@U?$less@UTelegram@@@std@@V?$allocator@UTelegram@@@3@$0A@@std@@@std@@QAEAAPAU?$_Tree_node@UTelegram@@PAX@2@XZ ; std::_Tree_comp_alloc<std::_Tset_traits<Telegram,std::less<Telegram>,std::allocator<Telegram>,0> >::_Myhead
	mov	edx, DWORD PTR [eax]
	mov	DWORD PTR __Wherenode$14[ebp], edx

; 1714 : 		bool _Addleft = true;	// add to left of head if tree empty

	mov	BYTE PTR __Addleft$13[ebp], 1
$LN2@Insert_noh:

; 1715 : 
; 1716 : 		while (!_Trynode->_Isnil)

	mov	eax, DWORD PTR __Trynode$15[ebp]
	movsx	ecx, BYTE PTR [eax+13]
	test	ecx, ecx
	jne	$LN3@Insert_noh

; 1717 : 			{	// look for leaf to insert before (_Addleft) or after
; 1718 : 			_Wherenode = _Trynode;

	mov	edx, DWORD PTR __Trynode$15[ebp]
	mov	DWORD PTR __Wherenode$14[ebp], edx

; 1719 : 			if (_Leftish)

	movzx	eax, BYTE PTR __Leftish$[ebp]
	test	eax, eax
	je	SHORT $LN5@Insert_noh

; 1720 : 				{
; 1721 : 				_Addleft = !_DEBUG_LT_PRED(this->_Getcomp(),

	mov	ecx, DWORD PTR __Val$[ebp]
	push	ecx
	mov	ecx, DWORD PTR _this$[ebp]
	call	?_Kfn@?$_Tree@V?$_Tset_traits@UTelegram@@U?$less@UTelegram@@@std@@V?$allocator@UTelegram@@@3@$0A@@std@@@std@@IBEABUTelegram@@ABU3@@Z ; std::_Tree<std::_Tset_traits<Telegram,std::less<Telegram>,std::allocator<Telegram>,0> >::_Kfn
	mov	DWORD PTR tv240[ebp], eax
	mov	edx, DWORD PTR __Trynode$15[ebp]
	push	edx
	mov	ecx, DWORD PTR _this$[ebp]
	call	?_Key@?$_Tree@V?$_Tset_traits@UTelegram@@U?$less@UTelegram@@@std@@V?$allocator@UTelegram@@@3@$0A@@std@@@std@@IBEABUTelegram@@PAU?$_Tree_node@UTelegram@@PAX@2@@Z ; std::_Tree<std::_Tset_traits<Telegram,std::less<Telegram>,std::allocator<Telegram>,0> >::_Key
	mov	DWORD PTR tv197[ebp], eax
	push	1723					; 000006bbH
	push	OFFSET ??_C@_1MM@PPENIDKE@?$AAC?$AA?3?$AA?2?$AAP?$AAr?$AAo?$AAg?$AAr?$AAa?$AAm?$AA?5?$AAF?$AAi?$AAl?$AAe?$AAs?$AA?5?$AA?$CI?$AAx?$AA8?$AA6?$AA?$CJ?$AA?2?$AAM?$AAi?$AAc?$AAr?$AAo?$AAs?$AAo?$AAf?$AAt@
	mov	eax, DWORD PTR tv240[ebp]
	push	eax
	mov	ecx, DWORD PTR tv197[ebp]
	push	ecx
	mov	ecx, DWORD PTR _this$[ebp]
	call	?_Getcomp@?$_Tree_comp_alloc@V?$_Tset_traits@UTelegram@@U?$less@UTelegram@@@std@@V?$allocator@UTelegram@@@3@$0A@@std@@@std@@QAEAAU?$less@UTelegram@@@2@XZ ; std::_Tree_comp_alloc<std::_Tset_traits<Telegram,std::less<Telegram>,std::allocator<Telegram>,0> >::_Getcomp
	push	eax
	call	??$_Debug_lt_pred@AAU?$less@UTelegram@@@std@@ABUTelegram@@ABU3@@std@@YA_NAAU?$less@UTelegram@@@0@ABUTelegram@@1PB_WI@Z ; std::_Debug_lt_pred<std::less<Telegram> &,Telegram const &,Telegram const &>
	add	esp, 20					; 00000014H
	mov	BYTE PTR tv156[ebp], al
	movzx	edx, BYTE PTR tv156[ebp]
	test	edx, edx
	jne	SHORT $LN16@Insert_noh
	mov	DWORD PTR tv129[ebp], 1
	jmp	SHORT $LN17@Insert_noh
$LN16@Insert_noh:
	mov	DWORD PTR tv129[ebp], 0
$LN17@Insert_noh:
	mov	al, BYTE PTR tv129[ebp]
	mov	BYTE PTR __Addleft$13[ebp], al

; 1722 : 					this->_Key(_Trynode),
; 1723 : 					this->_Kfn(_Val));	// favor left end
; 1724 : 				}
; 1725 : 			else

	jmp	SHORT $LN6@Insert_noh
$LN5@Insert_noh:

; 1726 : 				{
; 1727 : 				_Addleft = _DEBUG_LT_PRED(this->_Getcomp(),

	mov	ecx, DWORD PTR __Trynode$15[ebp]
	push	ecx
	mov	ecx, DWORD PTR _this$[ebp]
	call	?_Key@?$_Tree@V?$_Tset_traits@UTelegram@@U?$less@UTelegram@@@std@@V?$allocator@UTelegram@@@3@$0A@@std@@@std@@IBEABUTelegram@@PAU?$_Tree_node@UTelegram@@PAX@2@@Z ; std::_Tree<std::_Tset_traits<Telegram,std::less<Telegram>,std::allocator<Telegram>,0> >::_Key
	mov	DWORD PTR tv286[ebp], eax
	mov	edx, DWORD PTR __Val$[ebp]
	push	edx
	mov	ecx, DWORD PTR _this$[ebp]
	call	?_Kfn@?$_Tree@V?$_Tset_traits@UTelegram@@U?$less@UTelegram@@@std@@V?$allocator@UTelegram@@@3@$0A@@std@@@std@@IBEABUTelegram@@ABU3@@Z ; std::_Tree<std::_Tset_traits<Telegram,std::less<Telegram>,std::allocator<Telegram>,0> >::_Kfn
	mov	DWORD PTR tv287[ebp], eax
	push	1729					; 000006c1H
	push	OFFSET ??_C@_1MM@PPENIDKE@?$AAC?$AA?3?$AA?2?$AAP?$AAr?$AAo?$AAg?$AAr?$AAa?$AAm?$AA?5?$AAF?$AAi?$AAl?$AAe?$AAs?$AA?5?$AA?$CI?$AAx?$AA8?$AA6?$AA?$CJ?$AA?2?$AAM?$AAi?$AAc?$AAr?$AAo?$AAs?$AAo?$AAf?$AAt@
	mov	eax, DWORD PTR tv286[ebp]
	push	eax
	mov	ecx, DWORD PTR tv287[ebp]
	push	ecx
	mov	ecx, DWORD PTR _this$[ebp]
	call	?_Getcomp@?$_Tree_comp_alloc@V?$_Tset_traits@UTelegram@@U?$less@UTelegram@@@std@@V?$allocator@UTelegram@@@3@$0A@@std@@@std@@QAEAAU?$less@UTelegram@@@2@XZ ; std::_Tree_comp_alloc<std::_Tset_traits<Telegram,std::less<Telegram>,std::allocator<Telegram>,0> >::_Getcomp
	push	eax
	call	??$_Debug_lt_pred@AAU?$less@UTelegram@@@std@@ABUTelegram@@ABU3@@std@@YA_NAAU?$less@UTelegram@@@0@ABUTelegram@@1PB_WI@Z ; std::_Debug_lt_pred<std::less<Telegram> &,Telegram const &,Telegram const &>
	add	esp, 20					; 00000014H
	mov	BYTE PTR tv288[ebp], al
	mov	dl, BYTE PTR tv288[ebp]
	mov	BYTE PTR __Addleft$13[ebp], dl
$LN6@Insert_noh:

; 1728 : 					this->_Kfn(_Val),
; 1729 : 					this->_Key(_Trynode));	// favor right end
; 1730 : 				}
; 1731 : 
; 1732 : 			_Trynode = _Addleft ? _Trynode->_Left : _Trynode->_Right;

	movzx	eax, BYTE PTR __Addleft$13[ebp]
	test	eax, eax
	je	SHORT $LN18@Insert_noh
	mov	ecx, DWORD PTR __Trynode$15[ebp]
	mov	edx, DWORD PTR [ecx]
	mov	DWORD PTR tv153[ebp], edx
	jmp	SHORT $LN19@Insert_noh
$LN18@Insert_noh:
	mov	eax, DWORD PTR __Trynode$15[ebp]
	mov	ecx, DWORD PTR [eax+8]
	mov	DWORD PTR tv153[ebp], ecx
$LN19@Insert_noh:
	mov	edx, DWORD PTR tv153[ebp]
	mov	DWORD PTR __Trynode$15[ebp], edx

; 1733 : 			}

	jmp	$LN2@Insert_noh
$LN3@Insert_noh:

; 1734 : 
; 1735 : #pragma warning(push)
; 1736 : #pragma warning(disable: 4127)	// conditional expression is constant
; 1737 : 		if (this->_Multi)

	xor	eax, eax
	je	SHORT $LN7@Insert_noh

; 1738 : 			{
; 1739 : 			return (_Pairib(_Insert_at(_Addleft, _Wherenode,

	mov	BYTE PTR $T11[ebp], 1
	movzx	ecx, BYTE PTR __Newnode$[ebp]
	push	ecx
	mov	edx, DWORD PTR __Val$[ebp]
	push	edx
	call	??$forward@ABUTelegram@@@std@@YAABUTelegram@@ABU1@@Z ; std::forward<Telegram const &>
	add	esp, 4
	push	eax
	mov	eax, DWORD PTR __Wherenode$14[ebp]
	push	eax
	movzx	ecx, BYTE PTR __Addleft$13[ebp]
	push	ecx
	lea	edx, DWORD PTR $T10[ebp]
	push	edx
	mov	ecx, DWORD PTR _this$[ebp]
	call	??$_Insert_at@ABUTelegram@@U_Nil@std@@@?$_Tree@V?$_Tset_traits@UTelegram@@U?$less@UTelegram@@@std@@V?$allocator@UTelegram@@@3@$0A@@std@@@std@@IAE?AV?$_Tree_const_iterator@V?$_Tree_val@U?$_Tree_simple_types@UTelegram@@@std@@@std@@@1@_NPAU?$_Tree_node@UTelegram@@PAX@1@ABUTelegram@@U_Nil@1@@Z ; std::_Tree<std::_Tset_traits<Telegram,std::less<Telegram>,std::allocator<Telegram>,0> >::_Insert_at<Telegram const &,std::_Nil>
	mov	DWORD PTR tv267[ebp], eax
	lea	eax, DWORD PTR $T11[ebp]
	push	eax
	mov	ecx, DWORD PTR tv267[ebp]
	push	ecx
	mov	ecx, DWORD PTR ___$ReturnUdt$[ebp]
	call	??$?0V?$_Tree_const_iterator@V?$_Tree_val@U?$_Tree_simple_types@UTelegram@@@std@@@std@@@std@@_NX$0A@@?$pair@V?$_Tree_const_iterator@V?$_Tree_val@U?$_Tree_simple_types@UTelegram@@@std@@@std@@@std@@_N@std@@QAE@$$QAV?$_Tree_const_iterator@V?$_Tree_val@U?$_Tree_simple_types@UTelegram@@@std@@@std@@@1@$$QA_N@Z ; std::pair<std::_Tree_const_iterator<std::_Tree_val<std::_Tree_simple_types<Telegram> > >,bool>::pair<std::_Tree_const_iterator<std::_Tree_val<std::_Tree_simple_types<Telegram> > >,bool><std::_Tree_const_iterator<std::_Tree_val<std::_Tree_simple_types<Telegram> > >,bool,void,0>
	mov	edx, DWORD PTR $T2[ebp]
	or	edx, 1
	mov	DWORD PTR $T2[ebp], edx
	lea	ecx, DWORD PTR $T10[ebp]
	call	??1?$_Tree_const_iterator@V?$_Tree_val@U?$_Tree_simple_types@UTelegram@@@std@@@std@@@std@@QAE@XZ
	mov	eax, DWORD PTR ___$ReturnUdt$[ebp]
	jmp	$LN15@Insert_noh

; 1740 : 				_STD forward<_Valty>(_Val), _Newnode), true));
; 1741 : 			}
; 1742 : 		else

	jmp	$LN8@Insert_noh
$LN7@Insert_noh:

; 1743 : 			{	// insert only if unique
; 1744 : 			iterator _Where = iterator(_Wherenode, _STD addressof(this->_Get_data()));

	mov	ecx, DWORD PTR _this$[ebp]
	call	?_Get_data@?$_Tree_comp_alloc@V?$_Tset_traits@UTelegram@@U?$less@UTelegram@@@std@@V?$allocator@UTelegram@@@3@$0A@@std@@@std@@QAEAAV?$_Tree_val@U?$_Tree_simple_types@UTelegram@@@std@@@2@XZ ; std::_Tree_comp_alloc<std::_Tset_traits<Telegram,std::less<Telegram>,std::allocator<Telegram>,0> >::_Get_data
	push	eax
	call	??$addressof@V?$_Tree_val@U?$_Tree_simple_types@UTelegram@@@std@@@std@@@std@@YAPAV?$_Tree_val@U?$_Tree_simple_types@UTelegram@@@std@@@0@AAV10@@Z ; std::addressof<std::_Tree_val<std::_Tree_simple_types<Telegram> > >
	add	esp, 4
	push	eax
	mov	eax, DWORD PTR __Wherenode$14[ebp]
	push	eax
	lea	ecx, DWORD PTR __Where$12[ebp]
	call	??0?$_Tree_const_iterator@V?$_Tree_val@U?$_Tree_simple_types@UTelegram@@@std@@@std@@@std@@QAE@PAU?$_Tree_node@UTelegram@@PAX@1@PBV?$_Tree_val@U?$_Tree_simple_types@UTelegram@@@std@@@1@@Z ; std::_Tree_const_iterator<std::_Tree_val<std::_Tree_simple_types<Telegram> > >::_Tree_const_iterator<std::_Tree_val<std::_Tree_simple_types<Telegram> > >
	mov	DWORD PTR tv289[ebp], eax
	mov	BYTE PTR __$EHRec$[ebp+12], 1

; 1745 : 			if (!_Addleft)

	movzx	ecx, BYTE PTR __Addleft$13[ebp]
	test	ecx, ecx
	jne	SHORT $LN9@Insert_noh
	jmp	$LN10@Insert_noh
$LN9@Insert_noh:

; 1746 : 				{	// need to test if insert after is okay
; 1747 : 				}
; 1748 : 			else if (_Where == begin())

	lea	edx, DWORD PTR $T8[ebp]
	push	edx
	mov	ecx, DWORD PTR _this$[ebp]
	call	?begin@?$_Tree@V?$_Tset_traits@UTelegram@@U?$less@UTelegram@@@std@@V?$allocator@UTelegram@@@3@$0A@@std@@@std@@QAE?AV?$_Tree_const_iterator@V?$_Tree_val@U?$_Tree_simple_types@UTelegram@@@std@@@std@@@2@XZ ; std::_Tree<std::_Tset_traits<Telegram,std::less<Telegram>,std::allocator<Telegram>,0> >::begin
	mov	DWORD PTR tv290[ebp], eax
	mov	eax, DWORD PTR tv290[ebp]
	mov	DWORD PTR tv274[ebp], eax
	mov	BYTE PTR __$EHRec$[ebp+12], 2
	mov	ecx, DWORD PTR tv274[ebp]
	push	ecx
	lea	ecx, DWORD PTR __Where$12[ebp]
	call	??8?$_Tree_const_iterator@V?$_Tree_val@U?$_Tree_simple_types@UTelegram@@@std@@@std@@@std@@QBE_NABV01@@Z ; std::_Tree_const_iterator<std::_Tree_val<std::_Tree_simple_types<Telegram> > >::operator==
	mov	BYTE PTR tv291[ebp], al
	mov	dl, BYTE PTR tv291[ebp]
	mov	BYTE PTR $T9[ebp], dl
	mov	BYTE PTR __$EHRec$[ebp+12], 1
	lea	ecx, DWORD PTR $T8[ebp]
	call	??1?$_Tree_const_iterator@V?$_Tree_val@U?$_Tree_simple_types@UTelegram@@@std@@@std@@@std@@QAE@XZ
	movzx	eax, BYTE PTR $T9[ebp]
	test	eax, eax
	je	SHORT $LN11@Insert_noh

; 1749 : 				{
; 1750 : 				return (_Pairib(_Insert_at(true, _Wherenode,

	mov	BYTE PTR $T7[ebp], 1
	movzx	ecx, BYTE PTR __Newnode$[ebp]
	push	ecx
	mov	edx, DWORD PTR __Val$[ebp]
	push	edx
	call	??$forward@ABUTelegram@@@std@@YAABUTelegram@@ABU1@@Z ; std::forward<Telegram const &>
	add	esp, 4
	push	eax
	mov	eax, DWORD PTR __Wherenode$14[ebp]
	push	eax
	push	1
	lea	ecx, DWORD PTR $T6[ebp]
	push	ecx
	mov	ecx, DWORD PTR _this$[ebp]
	call	??$_Insert_at@ABUTelegram@@U_Nil@std@@@?$_Tree@V?$_Tset_traits@UTelegram@@U?$less@UTelegram@@@std@@V?$allocator@UTelegram@@@3@$0A@@std@@@std@@IAE?AV?$_Tree_const_iterator@V?$_Tree_val@U?$_Tree_simple_types@UTelegram@@@std@@@std@@@1@_NPAU?$_Tree_node@UTelegram@@PAX@1@ABUTelegram@@U_Nil@1@@Z ; std::_Tree<std::_Tset_traits<Telegram,std::less<Telegram>,std::allocator<Telegram>,0> >::_Insert_at<Telegram const &,std::_Nil>
	mov	DWORD PTR tv276[ebp], eax
	lea	edx, DWORD PTR $T7[ebp]
	push	edx
	mov	eax, DWORD PTR tv276[ebp]
	push	eax
	mov	ecx, DWORD PTR ___$ReturnUdt$[ebp]
	call	??$?0V?$_Tree_const_iterator@V?$_Tree_val@U?$_Tree_simple_types@UTelegram@@@std@@@std@@@std@@_NX$0A@@?$pair@V?$_Tree_const_iterator@V?$_Tree_val@U?$_Tree_simple_types@UTelegram@@@std@@@std@@@std@@_N@std@@QAE@$$QAV?$_Tree_const_iterator@V?$_Tree_val@U?$_Tree_simple_types@UTelegram@@@std@@@std@@@1@$$QA_N@Z ; std::pair<std::_Tree_const_iterator<std::_Tree_val<std::_Tree_simple_types<Telegram> > >,bool>::pair<std::_Tree_const_iterator<std::_Tree_val<std::_Tree_simple_types<Telegram> > >,bool><std::_Tree_const_iterator<std::_Tree_val<std::_Tree_simple_types<Telegram> > >,bool,void,0>
	mov	ecx, DWORD PTR $T2[ebp]
	or	ecx, 1
	mov	DWORD PTR $T2[ebp], ecx
	lea	ecx, DWORD PTR $T6[ebp]
	call	??1?$_Tree_const_iterator@V?$_Tree_val@U?$_Tree_simple_types@UTelegram@@@std@@@std@@@std@@QAE@XZ
	mov	BYTE PTR __$EHRec$[ebp+12], 0
	lea	ecx, DWORD PTR __Where$12[ebp]
	call	??1?$_Tree_const_iterator@V?$_Tree_val@U?$_Tree_simple_types@UTelegram@@@std@@@std@@@std@@QAE@XZ
	mov	eax, DWORD PTR ___$ReturnUdt$[ebp]
	jmp	$LN15@Insert_noh

; 1751 : 					_STD forward<_Valty>(_Val), _Newnode), true));
; 1752 : 				}
; 1753 : 			else

	jmp	SHORT $LN10@Insert_noh
$LN11@Insert_noh:

; 1754 : 				{
; 1755 : 				--_Where;	// need to test if insert before is okay

	lea	ecx, DWORD PTR __Where$12[ebp]
	call	??F?$_Tree_const_iterator@V?$_Tree_val@U?$_Tree_simple_types@UTelegram@@@std@@@std@@@std@@QAEAAV01@XZ ; std::_Tree_const_iterator<std::_Tree_val<std::_Tree_simple_types<Telegram> > >::operator--
$LN10@Insert_noh:

; 1756 : 				}
; 1757 : 
; 1758 : 			if (_DEBUG_LT_PRED(this->_Getcomp(),

	mov	edx, DWORD PTR __Val$[ebp]
	push	edx
	mov	ecx, DWORD PTR _this$[ebp]
	call	?_Kfn@?$_Tree@V?$_Tset_traits@UTelegram@@U?$less@UTelegram@@@std@@V?$allocator@UTelegram@@@3@$0A@@std@@@std@@IBEABUTelegram@@ABU3@@Z ; std::_Tree<std::_Tset_traits<Telegram,std::less<Telegram>,std::allocator<Telegram>,0> >::_Kfn
	mov	DWORD PTR tv292[ebp], eax
	lea	ecx, DWORD PTR __Where$12[ebp]
	call	?_Mynode@?$_Tree_unchecked_const_iterator@V?$_Tree_val@U?$_Tree_simple_types@UTelegram@@@std@@@std@@U_Iterator_base12@2@@std@@QBEPAU?$_Tree_node@UTelegram@@PAX@2@XZ ; std::_Tree_unchecked_const_iterator<std::_Tree_val<std::_Tree_simple_types<Telegram> >,std::_Iterator_base12>::_Mynode
	mov	DWORD PTR tv293[ebp], eax
	mov	eax, DWORD PTR tv293[ebp]
	push	eax
	mov	ecx, DWORD PTR _this$[ebp]
	call	?_Key@?$_Tree@V?$_Tset_traits@UTelegram@@U?$less@UTelegram@@@std@@V?$allocator@UTelegram@@@3@$0A@@std@@@std@@IBEABUTelegram@@PAU?$_Tree_node@UTelegram@@PAX@2@@Z ; std::_Tree<std::_Tset_traits<Telegram,std::less<Telegram>,std::allocator<Telegram>,0> >::_Key
	mov	DWORD PTR tv294[ebp], eax
	push	1760					; 000006e0H
	push	OFFSET ??_C@_1MM@PPENIDKE@?$AAC?$AA?3?$AA?2?$AAP?$AAr?$AAo?$AAg?$AAr?$AAa?$AAm?$AA?5?$AAF?$AAi?$AAl?$AAe?$AAs?$AA?5?$AA?$CI?$AAx?$AA8?$AA6?$AA?$CJ?$AA?2?$AAM?$AAi?$AAc?$AAr?$AAo?$AAs?$AAo?$AAf?$AAt@
	mov	ecx, DWORD PTR tv292[ebp]
	push	ecx
	mov	edx, DWORD PTR tv294[ebp]
	push	edx
	mov	ecx, DWORD PTR _this$[ebp]
	call	?_Getcomp@?$_Tree_comp_alloc@V?$_Tset_traits@UTelegram@@U?$less@UTelegram@@@std@@V?$allocator@UTelegram@@@3@$0A@@std@@@std@@QAEAAU?$less@UTelegram@@@2@XZ ; std::_Tree_comp_alloc<std::_Tset_traits<Telegram,std::less<Telegram>,std::allocator<Telegram>,0> >::_Getcomp
	push	eax
	call	??$_Debug_lt_pred@AAU?$less@UTelegram@@@std@@ABUTelegram@@ABU3@@std@@YA_NAAU?$less@UTelegram@@@0@ABUTelegram@@1PB_WI@Z ; std::_Debug_lt_pred<std::less<Telegram> &,Telegram const &,Telegram const &>
	add	esp, 20					; 00000014H
	mov	BYTE PTR tv295[ebp], al
	movzx	eax, BYTE PTR tv295[ebp]
	test	eax, eax
	je	SHORT $LN13@Insert_noh

; 1759 : 				this->_Key(_Where._Mynode()),
; 1760 : 				this->_Kfn(_Val)))
; 1761 : 				{
; 1762 : 				return (_Pairib(_Insert_at(_Addleft, _Wherenode,

	mov	BYTE PTR $T5[ebp], 1
	movzx	ecx, BYTE PTR __Newnode$[ebp]
	push	ecx
	mov	edx, DWORD PTR __Val$[ebp]
	push	edx
	call	??$forward@ABUTelegram@@@std@@YAABUTelegram@@ABU1@@Z ; std::forward<Telegram const &>
	add	esp, 4
	push	eax
	mov	eax, DWORD PTR __Wherenode$14[ebp]
	push	eax
	movzx	ecx, BYTE PTR __Addleft$13[ebp]
	push	ecx
	lea	edx, DWORD PTR $T4[ebp]
	push	edx
	mov	ecx, DWORD PTR _this$[ebp]
	call	??$_Insert_at@ABUTelegram@@U_Nil@std@@@?$_Tree@V?$_Tset_traits@UTelegram@@U?$less@UTelegram@@@std@@V?$allocator@UTelegram@@@3@$0A@@std@@@std@@IAE?AV?$_Tree_const_iterator@V?$_Tree_val@U?$_Tree_simple_types@UTelegram@@@std@@@std@@@1@_NPAU?$_Tree_node@UTelegram@@PAX@1@ABUTelegram@@U_Nil@1@@Z ; std::_Tree<std::_Tset_traits<Telegram,std::less<Telegram>,std::allocator<Telegram>,0> >::_Insert_at<Telegram const &,std::_Nil>
	mov	DWORD PTR tv280[ebp], eax
	lea	eax, DWORD PTR $T5[ebp]
	push	eax
	mov	ecx, DWORD PTR tv280[ebp]
	push	ecx
	mov	ecx, DWORD PTR ___$ReturnUdt$[ebp]
	call	??$?0V?$_Tree_const_iterator@V?$_Tree_val@U?$_Tree_simple_types@UTelegram@@@std@@@std@@@std@@_NX$0A@@?$pair@V?$_Tree_const_iterator@V?$_Tree_val@U?$_Tree_simple_types@UTelegram@@@std@@@std@@@std@@_N@std@@QAE@$$QAV?$_Tree_const_iterator@V?$_Tree_val@U?$_Tree_simple_types@UTelegram@@@std@@@std@@@1@$$QA_N@Z ; std::pair<std::_Tree_const_iterator<std::_Tree_val<std::_Tree_simple_types<Telegram> > >,bool>::pair<std::_Tree_const_iterator<std::_Tree_val<std::_Tree_simple_types<Telegram> > >,bool><std::_Tree_const_iterator<std::_Tree_val<std::_Tree_simple_types<Telegram> > >,bool,void,0>
	mov	edx, DWORD PTR $T2[ebp]
	or	edx, 1
	mov	DWORD PTR $T2[ebp], edx
	lea	ecx, DWORD PTR $T4[ebp]
	call	??1?$_Tree_const_iterator@V?$_Tree_val@U?$_Tree_simple_types@UTelegram@@@std@@@std@@@std@@QAE@XZ
	mov	BYTE PTR __$EHRec$[ebp+12], 0
	lea	ecx, DWORD PTR __Where$12[ebp]
	call	??1?$_Tree_const_iterator@V?$_Tree_val@U?$_Tree_simple_types@UTelegram@@@std@@@std@@@std@@QAE@XZ
	mov	eax, DWORD PTR ___$ReturnUdt$[ebp]
	jmp	SHORT $LN15@Insert_noh

; 1763 : 					_STD forward<_Valty>(_Val), _Newnode), true));
; 1764 : 				}
; 1765 : 			else

	jmp	SHORT $LN14@Insert_noh
$LN13@Insert_noh:

; 1766 : 				{	// duplicate, don't insert
; 1767 : 				_Destroy_if_not_nil(_Newnode);

	movzx	eax, BYTE PTR __Newnode$[ebp]
	push	eax
	mov	ecx, DWORD PTR _this$[ebp]
	call	?_Destroy_if_not_nil@?$_Tree@V?$_Tset_traits@UTelegram@@U?$less@UTelegram@@@std@@V?$allocator@UTelegram@@@3@$0A@@std@@@std@@IAEXU_Nil@2@@Z ; std::_Tree<std::_Tset_traits<Telegram,std::less<Telegram>,std::allocator<Telegram>,0> >::_Destroy_if_not_nil

; 1768 : 				return (_Pairib(_Where, false));

	mov	BYTE PTR $T3[ebp], 0
	lea	ecx, DWORD PTR $T3[ebp]
	push	ecx
	lea	edx, DWORD PTR __Where$12[ebp]
	push	edx
	mov	ecx, DWORD PTR ___$ReturnUdt$[ebp]
	call	??$?0AAV?$_Tree_const_iterator@V?$_Tree_val@U?$_Tree_simple_types@UTelegram@@@std@@@std@@@std@@_NX$0A@@?$pair@V?$_Tree_const_iterator@V?$_Tree_val@U?$_Tree_simple_types@UTelegram@@@std@@@std@@@std@@_N@std@@QAE@AAV?$_Tree_const_iterator@V?$_Tree_val@U?$_Tree_simple_types@UTelegram@@@std@@@std@@@1@$$QA_N@Z ; std::pair<std::_Tree_const_iterator<std::_Tree_val<std::_Tree_simple_types<Telegram> > >,bool>::pair<std::_Tree_const_iterator<std::_Tree_val<std::_Tree_simple_types<Telegram> > >,bool><std::_Tree_const_iterator<std::_Tree_val<std::_Tree_simple_types<Telegram> > > &,bool,void,0>
	mov	eax, DWORD PTR $T2[ebp]
	or	eax, 1
	mov	DWORD PTR $T2[ebp], eax
	mov	BYTE PTR __$EHRec$[ebp+12], 0
	lea	ecx, DWORD PTR __Where$12[ebp]
	call	??1?$_Tree_const_iterator@V?$_Tree_val@U?$_Tree_simple_types@UTelegram@@@std@@@std@@@std@@QAE@XZ
	mov	eax, DWORD PTR ___$ReturnUdt$[ebp]
	jmp	SHORT $LN15@Insert_noh
$LN14@Insert_noh:

; 1769 : 				}
; 1770 : 			}

	mov	BYTE PTR __$EHRec$[ebp+12], 0
	lea	ecx, DWORD PTR __Where$12[ebp]
	call	??1?$_Tree_const_iterator@V?$_Tree_val@U?$_Tree_simple_types@UTelegram@@@std@@@std@@@std@@QAE@XZ
$LN8@Insert_noh:
	jmp	SHORT $LN20@Insert_noh
__catch$??$_Insert_nohint@ABUTelegram@@U_Nil@std@@@?$_Tree@V?$_Tset_traits@UTelegram@@U?$less@UTelegram@@@std@@V?$allocator@UTelegram@@@3@$0A@@std@@@std@@IAE?AU?$pair@V?$_Tree_const_iterator@V?$_Tree_val@U?$_Tree_simple_types@UTelegram@@@std@@@std@@@std@@_N@1@_NABUTelegram@@U_Nil@1@@Z$0:

; 1771 : #pragma warning(pop)
; 1772 : 		_CATCH_ALL
; 1773 : 		_Destroy_if_not_nil(_Newnode);

	movzx	ecx, BYTE PTR __Newnode$[ebp]
	push	ecx
	mov	ecx, DWORD PTR _this$[ebp]
	call	?_Destroy_if_not_nil@?$_Tree@V?$_Tset_traits@UTelegram@@U?$less@UTelegram@@@std@@V?$allocator@UTelegram@@@3@$0A@@std@@@std@@IAEXU_Nil@2@@Z ; std::_Tree<std::_Tset_traits<Telegram,std::less<Telegram>,std::allocator<Telegram>,0> >::_Destroy_if_not_nil

; 1774 : 		_RERAISE;

	push	0
	push	0
	call	__CxxThrowException@8

; 1775 : 		_CATCH_END

	mov	eax, $LN30@Insert_noh
	ret	0
$LN20@Insert_noh:
	mov	DWORD PTR __$EHRec$[ebp+12], -1
	jmp	SHORT $LN15@Insert_noh
$LN30@Insert_noh:
	mov	DWORD PTR __$EHRec$[ebp+12], -1
$LN15@Insert_noh:

; 1776 : 		}

	push	edx
	mov	ecx, ebp
	push	eax
	lea	edx, DWORD PTR $LN34@Insert_noh
	call	@_RTC_CheckStackVars@8
	pop	eax
	pop	edx
	mov	ecx, DWORD PTR __$EHRec$[ebp+4]
	mov	DWORD PTR fs:0, ecx
	pop	ecx
	pop	edi
	pop	esi
	pop	ebx
	add	esp, 204				; 000000ccH
	cmp	ebp, esp
	call	__RTC_CheckEsp
	mov	esp, ebp
	pop	ebp
	ret	16					; 00000010H
$LN34@Insert_noh:
	DD	1
	DD	$LN33@Insert_noh
$LN33@Insert_noh:
	DD	-48					; ffffffd0H
	DD	12					; 0000000cH
	DD	$LN31@Insert_noh
$LN31@Insert_noh:
	DB	95					; 0000005fH
	DB	87					; 00000057H
	DB	104					; 00000068H
	DB	101					; 00000065H
	DB	114					; 00000072H
	DB	101					; 00000065H
	DB	0
_TEXT	ENDS
;	COMDAT text$x
text$x	SEGMENT
__unwindfunclet$??$_Insert_nohint@ABUTelegram@@U_Nil@std@@@?$_Tree@V?$_Tset_traits@UTelegram@@U?$less@UTelegram@@@std@@V?$allocator@UTelegram@@@3@$0A@@std@@@std@@IAE?AU?$pair@V?$_Tree_const_iterator@V?$_Tree_val@U?$_Tree_simple_types@UTelegram@@@std@@@std@@@std@@_N@1@_NABUTelegram@@U_Nil@1@@Z$4:
	lea	ecx, DWORD PTR __Where$12[ebp]
	jmp	??1?$_Tree_const_iterator@V?$_Tree_val@U?$_Tree_simple_types@UTelegram@@@std@@@std@@@std@@QAE@XZ
__unwindfunclet$??$_Insert_nohint@ABUTelegram@@U_Nil@std@@@?$_Tree@V?$_Tset_traits@UTelegram@@U?$less@UTelegram@@@std@@V?$allocator@UTelegram@@@3@$0A@@std@@@std@@IAE?AU?$pair@V?$_Tree_const_iterator@V?$_Tree_val@U?$_Tree_simple_types@UTelegram@@@std@@@std@@@std@@_N@1@_NABUTelegram@@U_Nil@1@@Z$5:
	lea	ecx, DWORD PTR $T8[ebp]
	jmp	??1?$_Tree_const_iterator@V?$_Tree_val@U?$_Tree_simple_types@UTelegram@@@std@@@std@@@std@@QAE@XZ
__ehhandler$??$_Insert_nohint@ABUTelegram@@U_Nil@std@@@?$_Tree@V?$_Tset_traits@UTelegram@@U?$less@UTelegram@@@std@@V?$allocator@UTelegram@@@3@$0A@@std@@@std@@IAE?AU?$pair@V?$_Tree_const_iterator@V?$_Tree_val@U?$_Tree_simple_types@UTelegram@@@std@@@std@@@std@@_N@1@_NABUTelegram@@U_Nil@1@@Z:
	mov	edx, DWORD PTR [esp+8]
	lea	eax, DWORD PTR [edx+12]
	mov	ecx, DWORD PTR [edx-208]
	xor	ecx, eax
	call	@__security_check_cookie@4
	mov	eax, OFFSET __ehfuncinfo$??$_Insert_nohint@ABUTelegram@@U_Nil@std@@@?$_Tree@V?$_Tset_traits@UTelegram@@U?$less@UTelegram@@@std@@V?$allocator@UTelegram@@@3@$0A@@std@@@std@@IAE?AU?$pair@V?$_Tree_const_iterator@V?$_Tree_val@U?$_Tree_simple_types@UTelegram@@@std@@@std@@@std@@_N@1@_NABUTelegram@@U_Nil@1@@Z
	jmp	___CxxFrameHandler3
text$x	ENDS
??$_Insert_nohint@ABUTelegram@@U_Nil@std@@@?$_Tree@V?$_Tset_traits@UTelegram@@U?$less@UTelegram@@@std@@V?$allocator@UTelegram@@@3@$0A@@std@@@std@@IAE?AU?$pair@V?$_Tree_const_iterator@V?$_Tree_val@U?$_Tree_simple_types@UTelegram@@@std@@@std@@@std@@_N@1@_NABUTelegram@@U_Nil@1@@Z ENDP ; std::_Tree<std::_Tset_traits<Telegram,std::less<Telegram>,std::allocator<Telegram>,0> >::_Insert_nohint<Telegram const &,std::_Nil>
; Function compile flags: /Odtp /RTCsu
; File c:\program files (x86)\microsoft visual studio\2017\community\vc\tools\msvc\14.11.25503\include\xmemory0
;	COMDAT ??$construct@PAU?$_Tree_node@UTelegram@@PAX@std@@AAPAU12@@?$_Default_allocator_traits@V?$allocator@U?$_Tree_node@UTelegram@@PAX@std@@@std@@@std@@SAXAAV?$allocator@U?$_Tree_node@UTelegram@@PAX@std@@@1@QAPAU?$_Tree_node@UTelegram@@PAX@1@AAPAU31@@Z
_TEXT	SEGMENT
$T1 = -4						; size = 4
___formal$ = 8						; size = 4
__Ptr$ = 12						; size = 4
_<_Args_0>$ = 16					; size = 4
??$construct@PAU?$_Tree_node@UTelegram@@PAX@std@@AAPAU12@@?$_Default_allocator_traits@V?$allocator@U?$_Tree_node@UTelegram@@PAX@std@@@std@@@std@@SAXAAV?$allocator@U?$_Tree_node@UTelegram@@PAX@std@@@1@QAPAU?$_Tree_node@UTelegram@@PAX@1@AAPAU31@@Z PROC ; std::_Default_allocator_traits<std::allocator<std::_Tree_node<Telegram,void *> > >::construct<std::_Tree_node<Telegram,void *> *,std::_Tree_node<Telegram,void *> * &>, COMDAT

; 854  : 		{	// construct _Objty(_Types...) at _Ptr

	push	ebp
	mov	ebp, esp
	push	ecx
	mov	DWORD PTR [ebp-4], -858993460		; ccccccccH

; 855  : 		::new (const_cast<void *>(static_cast<const volatile void *>(_Ptr)))

	mov	eax, DWORD PTR __Ptr$[ebp]
	push	eax
	push	4
	call	??2@YAPAXIPAX@Z				; operator new
	add	esp, 8
	mov	DWORD PTR $T1[ebp], eax
	mov	ecx, DWORD PTR _<_Args_0>$[ebp]
	push	ecx
	call	??$forward@AAPAU?$_Tree_node@UTelegram@@PAX@std@@@std@@YAAAPAU?$_Tree_node@UTelegram@@PAX@0@AAPAU10@@Z ; std::forward<std::_Tree_node<Telegram,void *> * &>
	add	esp, 4
	mov	edx, DWORD PTR $T1[ebp]
	mov	eax, DWORD PTR [eax]
	mov	DWORD PTR [edx], eax

; 856  : 			_Objty(_STD forward<_Types>(_Args)...);
; 857  : 		}

	add	esp, 4
	cmp	ebp, esp
	call	__RTC_CheckEsp
	mov	esp, ebp
	pop	ebp
	ret	0
??$construct@PAU?$_Tree_node@UTelegram@@PAX@std@@AAPAU12@@?$_Default_allocator_traits@V?$allocator@U?$_Tree_node@UTelegram@@PAX@std@@@std@@@std@@SAXAAV?$allocator@U?$_Tree_node@UTelegram@@PAX@std@@@1@QAPAU?$_Tree_node@UTelegram@@PAX@1@AAPAU31@@Z ENDP ; std::_Default_allocator_traits<std::allocator<std::_Tree_node<Telegram,void *> > >::construct<std::_Tree_node<Telegram,void *> *,std::_Tree_node<Telegram,void *> * &>
_TEXT	ENDS
; Function compile flags: /Odtp /RTCsu
; File c:\program files (x86)\microsoft visual studio\2017\community\vc\tools\msvc\14.11.25503\include\xutility
;	COMDAT ??$?0ABU?$less@UTelegram@@@std@@U_Zero_then_variadic_args_t@1@@?$_Compressed_pair@U?$less@UTelegram@@@std@@V?$_Compressed_pair@V?$allocator@U?$_Tree_node@UTelegram@@PAX@std@@@std@@V?$_Tree_val@U?$_Tree_simple_types@UTelegram@@@std@@@2@$00@2@$00@std@@QAE@U_One_then_variadic_args_t@1@ABU?$less@UTelegram@@@1@$$QAU_Zero_then_variadic_args_t@1@@Z
_TEXT	SEGMENT
_this$ = -4						; size = 4
___formal$ = 8						; size = 1
__Val1$ = 12						; size = 4
_<_Val2_0>$ = 16					; size = 4
??$?0ABU?$less@UTelegram@@@std@@U_Zero_then_variadic_args_t@1@@?$_Compressed_pair@U?$less@UTelegram@@@std@@V?$_Compressed_pair@V?$allocator@U?$_Tree_node@UTelegram@@PAX@std@@@std@@V?$_Tree_val@U?$_Tree_simple_types@UTelegram@@@std@@@2@$00@2@$00@std@@QAE@U_One_then_variadic_args_t@1@ABU?$less@UTelegram@@@1@$$QAU_Zero_then_variadic_args_t@1@@Z PROC ; std::_Compressed_pair<std::less<Telegram>,std::_Compressed_pair<std::allocator<std::_Tree_node<Telegram,void *> >,std::_Tree_val<std::_Tree_simple_types<Telegram> >,1>,1>::_Compressed_pair<std::less<Telegram>,std::_Compressed_pair<std::allocator<std::_Tree_node<Telegram,void *> >,std::_Tree_val<std::_Tree_simple_types<Telegram> >,1>,1><std::less<Telegram> const &,std::_Zero_then_variadic_args_t>, COMDAT
; _this$ = ecx

; 312  : 		{	// construct from forwarded values

	push	ebp
	mov	ebp, esp
	push	ecx
	mov	DWORD PTR [ebp-4], -858993460		; ccccccccH
	mov	DWORD PTR _this$[ebp], ecx

; 310  : 		: _Ty1(_STD forward<_Other1>(_Val1)),

	mov	eax, DWORD PTR __Val1$[ebp]
	push	eax
	call	??$forward@ABU?$less@UTelegram@@@std@@@std@@YAABU?$less@UTelegram@@@0@ABU10@@Z ; std::forward<std::less<Telegram> const &>
	add	esp, 4

; 311  : 			_Myval2(_STD forward<_Other2>(_Val2)...)

	mov	ecx, DWORD PTR _<_Val2_0>$[ebp]
	push	ecx
	call	??$forward@U_Zero_then_variadic_args_t@std@@@std@@YA$$QAU_Zero_then_variadic_args_t@0@AAU10@@Z ; std::forward<std::_Zero_then_variadic_args_t>
	add	esp, 4
	mov	dl, BYTE PTR [eax]
	movzx	eax, dl
	push	eax
	mov	ecx, DWORD PTR _this$[ebp]
	call	??$?0$$V@?$_Compressed_pair@V?$allocator@U?$_Tree_node@UTelegram@@PAX@std@@@std@@V?$_Tree_val@U?$_Tree_simple_types@UTelegram@@@std@@@2@$00@std@@QAE@U_Zero_then_variadic_args_t@1@@Z ; std::_Compressed_pair<std::allocator<std::_Tree_node<Telegram,void *> >,std::_Tree_val<std::_Tree_simple_types<Telegram> >,1>::_Compressed_pair<std::allocator<std::_Tree_node<Telegram,void *> >,std::_Tree_val<std::_Tree_simple_types<Telegram> >,1><>

; 313  : 		}

	mov	eax, DWORD PTR _this$[ebp]
	add	esp, 4
	cmp	ebp, esp
	call	__RTC_CheckEsp
	mov	esp, ebp
	pop	ebp
	ret	12					; 0000000cH
??$?0ABU?$less@UTelegram@@@std@@U_Zero_then_variadic_args_t@1@@?$_Compressed_pair@U?$less@UTelegram@@@std@@V?$_Compressed_pair@V?$allocator@U?$_Tree_node@UTelegram@@PAX@std@@@std@@V?$_Tree_val@U?$_Tree_simple_types@UTelegram@@@std@@@2@$00@2@$00@std@@QAE@U_One_then_variadic_args_t@1@ABU?$less@UTelegram@@@1@$$QAU_Zero_then_variadic_args_t@1@@Z ENDP ; std::_Compressed_pair<std::less<Telegram>,std::_Compressed_pair<std::allocator<std::_Tree_node<Telegram,void *> >,std::_Tree_val<std::_Tree_simple_types<Telegram> >,1>,1>::_Compressed_pair<std::less<Telegram>,std::_Compressed_pair<std::allocator<std::_Tree_node<Telegram,void *> >,std::_Tree_val<std::_Tree_simple_types<Telegram> >,1>,1><std::less<Telegram> const &,std::_Zero_then_variadic_args_t>
_TEXT	ENDS
; Function compile flags: /Odtp /RTCsu
; File c:\program files (x86)\microsoft visual studio\2017\community\vc\tools\msvc\14.11.25503\include\xmemory0
;	COMDAT ??$?0U?$_Tree_node@UTelegram@@PAX@std@@@?$allocator@U_Container_proxy@std@@@std@@QAE@ABV?$allocator@U?$_Tree_node@UTelegram@@PAX@std@@@1@@Z
_TEXT	SEGMENT
_this$ = -4						; size = 4
___formal$ = 8						; size = 4
??$?0U?$_Tree_node@UTelegram@@PAX@std@@@?$allocator@U_Container_proxy@std@@@std@@QAE@ABV?$allocator@U?$_Tree_node@UTelegram@@PAX@std@@@1@@Z PROC ; std::allocator<std::_Container_proxy>::allocator<std::_Container_proxy><std::_Tree_node<Telegram,void *> >, COMDAT
; _this$ = ecx

; 936  : 		{	// construct from a related allocator (do nothing)

	push	ebp
	mov	ebp, esp
	push	ecx
	mov	DWORD PTR [ebp-4], -858993460		; ccccccccH
	mov	DWORD PTR _this$[ebp], ecx

; 937  : 		}

	mov	eax, DWORD PTR _this$[ebp]
	mov	esp, ebp
	pop	ebp
	ret	4
??$?0U?$_Tree_node@UTelegram@@PAX@std@@@?$allocator@U_Container_proxy@std@@@std@@QAE@ABV?$allocator@U?$_Tree_node@UTelegram@@PAX@std@@@1@@Z ENDP ; std::allocator<std::_Container_proxy>::allocator<std::_Container_proxy><std::_Tree_node<Telegram,void *> >
_TEXT	ENDS
; Function compile flags: /Odtp /RTCsu
; File c:\program files (x86)\microsoft visual studio\2017\community\vc\tools\msvc\14.11.25503\include\xmemory0
;	COMDAT ??$destroy@PAU?$_Tree_node@UTelegram@@PAX@std@@@?$_Default_allocator_traits@V?$allocator@U?$_Tree_node@UTelegram@@PAX@std@@@std@@@std@@SAXAAV?$allocator@U?$_Tree_node@UTelegram@@PAX@std@@@1@QAPAU?$_Tree_node@UTelegram@@PAX@1@@Z
_TEXT	SEGMENT
___formal$ = 8						; size = 4
__Ptr$ = 12						; size = 4
??$destroy@PAU?$_Tree_node@UTelegram@@PAX@std@@@?$_Default_allocator_traits@V?$allocator@U?$_Tree_node@UTelegram@@PAX@std@@@std@@@std@@SAXAAV?$allocator@U?$_Tree_node@UTelegram@@PAX@std@@@1@QAPAU?$_Tree_node@UTelegram@@PAX@1@@Z PROC ; std::_Default_allocator_traits<std::allocator<std::_Tree_node<Telegram,void *> > >::destroy<std::_Tree_node<Telegram,void *> *>, COMDAT

; 861  : 		{	// destroy object at _Ptr

	push	ebp
	mov	ebp, esp

; 862  : 		_Ptr->~_Uty();
; 863  : 		}

	pop	ebp
	ret	0
??$destroy@PAU?$_Tree_node@UTelegram@@PAX@std@@@?$_Default_allocator_traits@V?$allocator@U?$_Tree_node@UTelegram@@PAX@std@@@std@@@std@@SAXAAV?$allocator@U?$_Tree_node@UTelegram@@PAX@std@@@1@QAPAU?$_Tree_node@UTelegram@@PAX@1@@Z ENDP ; std::_Default_allocator_traits<std::allocator<std::_Tree_node<Telegram,void *> > >::destroy<std::_Tree_node<Telegram,void *> *>
_TEXT	ENDS
; Function compile flags: /Odtp /RTCsu
; File c:\program files (x86)\microsoft visual studio\2017\community\vc\tools\msvc\14.11.25503\include\xstddef
;	COMDAT ??$addressof@PAU?$_Tree_node@UTelegram@@PAX@std@@@std@@YAPAPAU?$_Tree_node@UTelegram@@PAX@0@AAPAU10@@Z
_TEXT	SEGMENT
__Val$ = 8						; size = 4
??$addressof@PAU?$_Tree_node@UTelegram@@PAX@std@@@std@@YAPAPAU?$_Tree_node@UTelegram@@PAX@0@AAPAU10@@Z PROC ; std::addressof<std::_Tree_node<Telegram,void *> *>, COMDAT

; 248  : 	{	// return address of _Val

	push	ebp
	mov	ebp, esp

; 249  : 	return (__builtin_addressof(_Val));

	mov	eax, DWORD PTR __Val$[ebp]

; 250  : 	}

	pop	ebp
	ret	0
??$addressof@PAU?$_Tree_node@UTelegram@@PAX@std@@@std@@YAPAPAU?$_Tree_node@UTelegram@@PAX@0@AAPAU10@@Z ENDP ; std::addressof<std::_Tree_node<Telegram,void *> *>
_TEXT	ENDS
; Function compile flags: /Odtp /RTCsu
; File c:\program files (x86)\microsoft visual studio\2017\community\vc\tools\msvc\14.11.25503\include\xmemory0
;	COMDAT ??$construct@U_Container_proxy@std@@U12@@?$_Default_allocator_traits@V?$allocator@U_Container_proxy@std@@@std@@@std@@SAXAAV?$allocator@U_Container_proxy@std@@@1@QAU_Container_proxy@1@$$QAU31@@Z
_TEXT	SEGMENT
$T1 = -4						; size = 4
___formal$ = 8						; size = 4
__Ptr$ = 12						; size = 4
_<_Args_0>$ = 16					; size = 4
??$construct@U_Container_proxy@std@@U12@@?$_Default_allocator_traits@V?$allocator@U_Container_proxy@std@@@std@@@std@@SAXAAV?$allocator@U_Container_proxy@std@@@1@QAU_Container_proxy@1@$$QAU31@@Z PROC ; std::_Default_allocator_traits<std::allocator<std::_Container_proxy> >::construct<std::_Container_proxy,std::_Container_proxy>, COMDAT

; 854  : 		{	// construct _Objty(_Types...) at _Ptr

	push	ebp
	mov	ebp, esp
	push	ecx
	mov	DWORD PTR [ebp-4], -858993460		; ccccccccH

; 855  : 		::new (const_cast<void *>(static_cast<const volatile void *>(_Ptr)))

	mov	eax, DWORD PTR __Ptr$[ebp]
	push	eax
	push	8
	call	??2@YAPAXIPAX@Z				; operator new
	add	esp, 8
	mov	DWORD PTR $T1[ebp], eax
	mov	ecx, DWORD PTR _<_Args_0>$[ebp]
	push	ecx
	call	??$forward@U_Container_proxy@std@@@std@@YA$$QAU_Container_proxy@0@AAU10@@Z ; std::forward<std::_Container_proxy>
	add	esp, 4
	mov	edx, DWORD PTR [eax]
	mov	eax, DWORD PTR [eax+4]
	mov	ecx, DWORD PTR $T1[ebp]
	mov	DWORD PTR [ecx], edx
	mov	DWORD PTR [ecx+4], eax

; 856  : 			_Objty(_STD forward<_Types>(_Args)...);
; 857  : 		}

	add	esp, 4
	cmp	ebp, esp
	call	__RTC_CheckEsp
	mov	esp, ebp
	pop	ebp
	ret	0
??$construct@U_Container_proxy@std@@U12@@?$_Default_allocator_traits@V?$allocator@U_Container_proxy@std@@@std@@@std@@SAXAAV?$allocator@U_Container_proxy@std@@@1@QAU_Container_proxy@1@$$QAU31@@Z ENDP ; std::_Default_allocator_traits<std::allocator<std::_Container_proxy> >::construct<std::_Container_proxy,std::_Container_proxy>
_TEXT	ENDS
; Function compile flags: /Odtp /RTCsu
; File c:\program files (x86)\microsoft visual studio\2017\community\vc\tools\msvc\14.11.25503\include\xstddef
;	COMDAT ??$_Unfancy@U_Container_proxy@std@@@std@@YAPAU_Container_proxy@0@PAU10@@Z
_TEXT	SEGMENT
__Ptr$ = 8						; size = 4
??$_Unfancy@U_Container_proxy@std@@@std@@YAPAU_Container_proxy@0@PAU10@@Z PROC ; std::_Unfancy<std::_Container_proxy>, COMDAT

; 264  : 	{	// do nothing for plain pointers

	push	ebp
	mov	ebp, esp

; 265  : 	return (_Ptr);

	mov	eax, DWORD PTR __Ptr$[ebp]

; 266  : 	}

	pop	ebp
	ret	0
??$_Unfancy@U_Container_proxy@std@@@std@@YAPAU_Container_proxy@0@PAU10@@Z ENDP ; std::_Unfancy<std::_Container_proxy>
_TEXT	ENDS
; Function compile flags: /Odtp /RTCsu
; File c:\program files (x86)\microsoft visual studio\2017\community\vc\tools\msvc\14.11.25503\include\xmemory0
;	COMDAT ??$_Deallocate_plain@V?$allocator@U_Container_proxy@std@@@std@@$0A@@std@@YAXAAV?$allocator@U_Container_proxy@std@@@0@QAU_Container_proxy@0@@Z
_TEXT	SEGMENT
__Al$ = 8						; size = 4
__Ptr$ = 12						; size = 4
??$_Deallocate_plain@V?$allocator@U_Container_proxy@std@@@std@@$0A@@std@@YAXAAV?$allocator@U_Container_proxy@std@@@0@QAU_Container_proxy@0@@Z PROC ; std::_Deallocate_plain<std::allocator<std::_Container_proxy>,0>, COMDAT

; 1220 : 	{	// deallocate a plain pointer using an allocator, non-fancy pointers special case

	push	ebp
	mov	ebp, esp

; 1221 : 	allocator_traits<_Alloc>::deallocate(_Al, _Ptr, 1);

	push	1
	mov	eax, DWORD PTR __Ptr$[ebp]
	push	eax
	mov	ecx, DWORD PTR __Al$[ebp]
	push	ecx
	call	?deallocate@?$_Default_allocator_traits@V?$allocator@U_Container_proxy@std@@@std@@@std@@SAXAAV?$allocator@U_Container_proxy@std@@@2@QAU_Container_proxy@2@I@Z ; std::_Default_allocator_traits<std::allocator<std::_Container_proxy> >::deallocate
	add	esp, 12					; 0000000cH

; 1222 : 	}

	cmp	ebp, esp
	call	__RTC_CheckEsp
	pop	ebp
	ret	0
??$_Deallocate_plain@V?$allocator@U_Container_proxy@std@@@std@@$0A@@std@@YAXAAV?$allocator@U_Container_proxy@std@@@0@QAU_Container_proxy@0@@Z ENDP ; std::_Deallocate_plain<std::allocator<std::_Container_proxy>,0>
_TEXT	ENDS
; Function compile flags: /Odtp /RTCsu
; File c:\program files (x86)\microsoft visual studio\2017\community\vc\tools\msvc\14.11.25503\include\xmemory0
;	COMDAT ??$destroy@U_Container_proxy@std@@@?$_Default_allocator_traits@V?$allocator@U_Container_proxy@std@@@std@@@std@@SAXAAV?$allocator@U_Container_proxy@std@@@1@QAU_Container_proxy@1@@Z
_TEXT	SEGMENT
___formal$ = 8						; size = 4
__Ptr$ = 12						; size = 4
??$destroy@U_Container_proxy@std@@@?$_Default_allocator_traits@V?$allocator@U_Container_proxy@std@@@std@@@std@@SAXAAV?$allocator@U_Container_proxy@std@@@1@QAU_Container_proxy@1@@Z PROC ; std::_Default_allocator_traits<std::allocator<std::_Container_proxy> >::destroy<std::_Container_proxy>, COMDAT

; 861  : 		{	// destroy object at _Ptr

	push	ebp
	mov	ebp, esp

; 862  : 		_Ptr->~_Uty();
; 863  : 		}

	pop	ebp
	ret	0
??$destroy@U_Container_proxy@std@@@?$_Default_allocator_traits@V?$allocator@U_Container_proxy@std@@@std@@@std@@SAXAAV?$allocator@U_Container_proxy@std@@@1@QAU_Container_proxy@1@@Z ENDP ; std::_Default_allocator_traits<std::allocator<std::_Container_proxy> >::destroy<std::_Container_proxy>
_TEXT	ENDS
; Function compile flags: /Odtp /RTCsu
; File c:\program files (x86)\microsoft visual studio\2017\community\vc\tools\msvc\14.11.25503\include\xmemory0
;	COMDAT ?deallocate@?$_Default_allocator_traits@V?$allocator@U_Container_proxy@std@@@std@@@std@@SAXAAV?$allocator@U_Container_proxy@std@@@2@QAU_Container_proxy@2@I@Z
_TEXT	SEGMENT
___formal$ = 8						; size = 4
__Ptr$ = 12						; size = 4
__Count$ = 16						; size = 4
?deallocate@?$_Default_allocator_traits@V?$allocator@U_Container_proxy@std@@@std@@@std@@SAXAAV?$allocator@U_Container_proxy@std@@@2@QAU_Container_proxy@2@I@Z PROC ; std::_Default_allocator_traits<std::allocator<std::_Container_proxy> >::deallocate, COMDAT

; 847  : 		{	// deallocate _Count elements at _Ptr

	push	ebp
	mov	ebp, esp

; 848  : 		_Deallocate(_Ptr, _Count, sizeof(value_type));

	push	8
	mov	eax, DWORD PTR __Count$[ebp]
	push	eax
	mov	ecx, DWORD PTR __Ptr$[ebp]
	push	ecx
	call	?_Deallocate@std@@YAXPAXII@Z		; std::_Deallocate
	add	esp, 12					; 0000000cH

; 849  : 		}

	cmp	ebp, esp
	call	__RTC_CheckEsp
	pop	ebp
	ret	0
?deallocate@?$_Default_allocator_traits@V?$allocator@U_Container_proxy@std@@@std@@@std@@SAXAAV?$allocator@U_Container_proxy@std@@@2@QAU_Container_proxy@2@I@Z ENDP ; std::_Default_allocator_traits<std::allocator<std::_Container_proxy> >::deallocate
_TEXT	ENDS
; Function compile flags: /Odtp /RTCsu
; File c:\program files (x86)\microsoft visual studio\2017\community\vc\tools\msvc\14.11.25503\include\xmemory0
;	COMDAT ?allocate@?$allocator@U_Container_proxy@std@@@std@@QAEPAU_Container_proxy@2@I@Z
_TEXT	SEGMENT
_this$ = -4						; size = 4
__Count$ = 8						; size = 4
?allocate@?$allocator@U_Container_proxy@std@@@std@@QAEPAU_Container_proxy@2@I@Z PROC ; std::allocator<std::_Container_proxy>::allocate, COMDAT
; _this$ = ecx

; 945  : 		{	// allocate array of _Count elements

	push	ebp
	mov	ebp, esp
	push	ecx
	mov	DWORD PTR [ebp-4], -858993460		; ccccccccH
	mov	DWORD PTR _this$[ebp], ecx

; 946  : 		return (static_cast<pointer>(_Allocate(_Count, sizeof(_Ty))));

	push	1
	push	8
	mov	eax, DWORD PTR __Count$[ebp]
	push	eax
	call	?_Allocate@std@@YAPAXII_N@Z		; std::_Allocate
	add	esp, 12					; 0000000cH

; 947  : 		}

	add	esp, 4
	cmp	ebp, esp
	call	__RTC_CheckEsp
	mov	esp, ebp
	pop	ebp
	ret	4
?allocate@?$allocator@U_Container_proxy@std@@@std@@QAEPAU_Container_proxy@2@I@Z ENDP ; std::allocator<std::_Container_proxy>::allocate
_TEXT	ENDS
; Function compile flags: /Odtp /RTCsu
; File c:\program files (x86)\microsoft visual studio\2017\community\vc\tools\msvc\14.11.25503\include\xstddef
;	COMDAT ??$addressof@$$CBUTelegram@@@std@@YAPBUTelegram@@ABU1@@Z
_TEXT	SEGMENT
__Val$ = 8						; size = 4
??$addressof@$$CBUTelegram@@@std@@YAPBUTelegram@@ABU1@@Z PROC ; std::addressof<Telegram const >, COMDAT

; 248  : 	{	// return address of _Val

	push	ebp
	mov	ebp, esp

; 249  : 	return (__builtin_addressof(_Val));

	mov	eax, DWORD PTR __Val$[ebp]

; 250  : 	}

	pop	ebp
	ret	0
??$addressof@$$CBUTelegram@@@std@@YAPBUTelegram@@ABU1@@Z ENDP ; std::addressof<Telegram const >
_TEXT	ENDS
; Function compile flags: /Odtp /RTCsu
; File c:\program files (x86)\microsoft visual studio\2017\community\vc\tools\msvc\14.11.25503\include\xmemory0
;	COMDAT ??$destroy@UTelegram@@@?$_Default_allocator_traits@V?$allocator@U?$_Tree_node@UTelegram@@PAX@std@@@std@@@std@@SAXAAV?$allocator@U?$_Tree_node@UTelegram@@PAX@std@@@1@QAUTelegram@@@Z
_TEXT	SEGMENT
___formal$ = 8						; size = 4
__Ptr$ = 12						; size = 4
??$destroy@UTelegram@@@?$_Default_allocator_traits@V?$allocator@U?$_Tree_node@UTelegram@@PAX@std@@@std@@@std@@SAXAAV?$allocator@U?$_Tree_node@UTelegram@@PAX@std@@@1@QAUTelegram@@@Z PROC ; std::_Default_allocator_traits<std::allocator<std::_Tree_node<Telegram,void *> > >::destroy<Telegram>, COMDAT

; 861  : 		{	// destroy object at _Ptr

	push	ebp
	mov	ebp, esp

; 862  : 		_Ptr->~_Uty();
; 863  : 		}

	pop	ebp
	ret	0
??$destroy@UTelegram@@@?$_Default_allocator_traits@V?$allocator@U?$_Tree_node@UTelegram@@PAX@std@@@std@@@std@@SAXAAV?$allocator@U?$_Tree_node@UTelegram@@PAX@std@@@1@QAUTelegram@@@Z ENDP ; std::_Default_allocator_traits<std::allocator<std::_Tree_node<Telegram,void *> > >::destroy<Telegram>
_TEXT	ENDS
; Function compile flags: /Odtp /RTCsu
; File c:\program files (x86)\microsoft visual studio\2017\community\vc\tools\msvc\14.11.25503\include\xstddef
;	COMDAT ??$addressof@UTelegram@@@std@@YAPAUTelegram@@AAU1@@Z
_TEXT	SEGMENT
__Val$ = 8						; size = 4
??$addressof@UTelegram@@@std@@YAPAUTelegram@@AAU1@@Z PROC ; std::addressof<Telegram>, COMDAT

; 248  : 	{	// return address of _Val

	push	ebp
	mov	ebp, esp

; 249  : 	return (__builtin_addressof(_Val));

	mov	eax, DWORD PTR __Val$[ebp]

; 250  : 	}

	pop	ebp
	ret	0
??$addressof@UTelegram@@@std@@YAPAUTelegram@@AAU1@@Z ENDP ; std::addressof<Telegram>
_TEXT	ENDS
; Function compile flags: /Odtp /RTCsu
; File c:\program files (x86)\microsoft visual studio\2017\community\vc\tools\msvc\14.11.25503\include\utility
;	COMDAT ??$swap@DX@std@@YAXAAD0@Z
_TEXT	SEGMENT
__Tmp$ = -5						; size = 1
__Left$ = 8						; size = 4
__Right$ = 12						; size = 4
??$swap@DX@std@@YAXAAD0@Z PROC				; std::swap<char,void>, COMDAT

; 65   : 	{	// exchange values stored at _Left and _Right

	push	ebp
	mov	ebp, esp
	sub	esp, 12					; 0000000cH
	mov	DWORD PTR [ebp-12], -858993460		; ccccccccH
	mov	DWORD PTR [ebp-8], -858993460		; ccccccccH
	mov	DWORD PTR [ebp-4], -858993460		; ccccccccH

; 66   : 	_Ty _Tmp = _STD move(_Left);

	mov	eax, DWORD PTR __Left$[ebp]
	push	eax
	call	??$move@AAD@std@@YA$$QADAAD@Z		; std::move<char &>
	add	esp, 4
	mov	cl, BYTE PTR [eax]
	mov	BYTE PTR __Tmp$[ebp], cl

; 67   : 	_Left = _STD move(_Right);

	mov	edx, DWORD PTR __Right$[ebp]
	push	edx
	call	??$move@AAD@std@@YA$$QADAAD@Z		; std::move<char &>
	add	esp, 4
	mov	ecx, DWORD PTR __Left$[ebp]
	mov	dl, BYTE PTR [eax]
	mov	BYTE PTR [ecx], dl

; 68   : 	_Right = _STD move(_Tmp);

	lea	eax, DWORD PTR __Tmp$[ebp]
	push	eax
	call	??$move@AAD@std@@YA$$QADAAD@Z		; std::move<char &>
	add	esp, 4
	mov	ecx, DWORD PTR __Right$[ebp]
	mov	dl, BYTE PTR [eax]
	mov	BYTE PTR [ecx], dl

; 69   : 	}

	push	edx
	mov	ecx, ebp
	push	eax
	lea	edx, DWORD PTR $LN5@swap
	call	@_RTC_CheckStackVars@8
	pop	eax
	pop	edx
	add	esp, 12					; 0000000cH
	cmp	ebp, esp
	call	__RTC_CheckEsp
	mov	esp, ebp
	pop	ebp
	ret	0
	npad	3
$LN5@swap:
	DD	1
	DD	$LN4@swap
$LN4@swap:
	DD	-5					; fffffffbH
	DD	1
	DD	$LN3@swap
$LN3@swap:
	DB	95					; 0000005fH
	DB	84					; 00000054H
	DB	109					; 0000006dH
	DB	112					; 00000070H
	DB	0
??$swap@DX@std@@YAXAAD0@Z ENDP				; std::swap<char,void>
_TEXT	ENDS
; Function compile flags: /Odtp /RTCsu
; File c:\program files (x86)\microsoft visual studio\2017\community\vc\tools\msvc\14.11.25503\include\xstddef
;	COMDAT ??$addressof@V?$_Tree_val@U?$_Tree_simple_types@UTelegram@@@std@@@std@@@std@@YAPAV?$_Tree_val@U?$_Tree_simple_types@UTelegram@@@std@@@0@AAV10@@Z
_TEXT	SEGMENT
__Val$ = 8						; size = 4
??$addressof@V?$_Tree_val@U?$_Tree_simple_types@UTelegram@@@std@@@std@@@std@@YAPAV?$_Tree_val@U?$_Tree_simple_types@UTelegram@@@std@@@0@AAV10@@Z PROC ; std::addressof<std::_Tree_val<std::_Tree_simple_types<Telegram> > >, COMDAT

; 248  : 	{	// return address of _Val

	push	ebp
	mov	ebp, esp

; 249  : 	return (__builtin_addressof(_Val));

	mov	eax, DWORD PTR __Val$[ebp]

; 250  : 	}

	pop	ebp
	ret	0
??$addressof@V?$_Tree_val@U?$_Tree_simple_types@UTelegram@@@std@@@std@@@std@@YAPAV?$_Tree_val@U?$_Tree_simple_types@UTelegram@@@std@@@0@AAV10@@Z ENDP ; std::addressof<std::_Tree_val<std::_Tree_simple_types<Telegram> > >
_TEXT	ENDS
; Function compile flags: /Odtp /RTCsu
; File c:\program files (x86)\microsoft visual studio\2017\community\vc\tools\msvc\14.11.25503\include\xmemory0
;	COMDAT ?pointer_to@?$pointer_traits@PBUTelegram@@@std@@SAPBUTelegram@@ABU3@@Z
_TEXT	SEGMENT
__Val$ = 8						; size = 4
?pointer_to@?$pointer_traits@PBUTelegram@@@std@@SAPBUTelegram@@ABU3@@Z PROC ; std::pointer_traits<Telegram const *>::pointer_to, COMDAT

; 322  : 		{	// convert raw reference to pointer

	push	ebp
	mov	ebp, esp

; 323  : 		return (_STD addressof(_Val));

	mov	eax, DWORD PTR __Val$[ebp]
	push	eax
	call	??$addressof@$$CBUTelegram@@@std@@YAPBUTelegram@@ABU1@@Z ; std::addressof<Telegram const >
	add	esp, 4

; 324  : 		}

	cmp	ebp, esp
	call	__RTC_CheckEsp
	pop	ebp
	ret	0
?pointer_to@?$pointer_traits@PBUTelegram@@@std@@SAPBUTelegram@@ABU3@@Z ENDP ; std::pointer_traits<Telegram const *>::pointer_to
_TEXT	ENDS
; Function compile flags: /Odtp /RTCsu
;	COMDAT ??1?$pair@V?$_Tree_const_iterator@V?$_Tree_val@U?$_Tree_simple_types@UTelegram@@@std@@@std@@@std@@_N@std@@QAE@XZ
_TEXT	SEGMENT
_this$ = -4						; size = 4
??1?$pair@V?$_Tree_const_iterator@V?$_Tree_val@U?$_Tree_simple_types@UTelegram@@@std@@@std@@@std@@_N@std@@QAE@XZ PROC ; std::pair<std::_Tree_const_iterator<std::_Tree_val<std::_Tree_simple_types<Telegram> > >,bool>::~pair<std::_Tree_const_iterator<std::_Tree_val<std::_Tree_simple_types<Telegram> > >,bool>, COMDAT
; _this$ = ecx
	push	ebp
	mov	ebp, esp
	push	ecx
	mov	DWORD PTR [ebp-4], -858993460		; ccccccccH
	mov	DWORD PTR _this$[ebp], ecx
	mov	ecx, DWORD PTR _this$[ebp]
	call	??1?$_Tree_const_iterator@V?$_Tree_val@U?$_Tree_simple_types@UTelegram@@@std@@@std@@@std@@QAE@XZ
	add	esp, 4
	cmp	ebp, esp
	call	__RTC_CheckEsp
	mov	esp, ebp
	pop	ebp
	ret	0
??1?$pair@V?$_Tree_const_iterator@V?$_Tree_val@U?$_Tree_simple_types@UTelegram@@@std@@@std@@@std@@_N@std@@QAE@XZ ENDP ; std::pair<std::_Tree_const_iterator<std::_Tree_val<std::_Tree_simple_types<Telegram> > >,bool>::~pair<std::_Tree_const_iterator<std::_Tree_val<std::_Tree_simple_types<Telegram> > >,bool>
_TEXT	ENDS
; Function compile flags: /Odtp /RTCsu
;	COMDAT ??0?$_Tree_const_iterator@V?$_Tree_val@U?$_Tree_simple_types@UTelegram@@@std@@@std@@@std@@QAE@$$QAV01@@Z
_TEXT	SEGMENT
_this$ = -4						; size = 4
___that$ = 8						; size = 4
??0?$_Tree_const_iterator@V?$_Tree_val@U?$_Tree_simple_types@UTelegram@@@std@@@std@@@std@@QAE@$$QAV01@@Z PROC ; std::_Tree_const_iterator<std::_Tree_val<std::_Tree_simple_types<Telegram> > >::_Tree_const_iterator<std::_Tree_val<std::_Tree_simple_types<Telegram> > >, COMDAT
; _this$ = ecx
	push	ebp
	mov	ebp, esp
	push	ecx
	mov	DWORD PTR [ebp-4], -858993460		; ccccccccH
	mov	DWORD PTR _this$[ebp], ecx
	mov	eax, DWORD PTR ___that$[ebp]
	push	eax
	mov	ecx, DWORD PTR _this$[ebp]
	call	??0?$_Tree_unchecked_const_iterator@V?$_Tree_val@U?$_Tree_simple_types@UTelegram@@@std@@@std@@U_Iterator_base12@2@@std@@QAE@$$QAV01@@Z
	mov	eax, DWORD PTR _this$[ebp]
	add	esp, 4
	cmp	ebp, esp
	call	__RTC_CheckEsp
	mov	esp, ebp
	pop	ebp
	ret	4
??0?$_Tree_const_iterator@V?$_Tree_val@U?$_Tree_simple_types@UTelegram@@@std@@@std@@@std@@QAE@$$QAV01@@Z ENDP ; std::_Tree_const_iterator<std::_Tree_val<std::_Tree_simple_types<Telegram> > >::_Tree_const_iterator<std::_Tree_val<std::_Tree_simple_types<Telegram> > >
_TEXT	ENDS
; Function compile flags: /Odtp /RTCsu
;	COMDAT ??0?$_Tree_const_iterator@V?$_Tree_val@U?$_Tree_simple_types@UTelegram@@@std@@@std@@@std@@QAE@ABV01@@Z
_TEXT	SEGMENT
_this$ = -4						; size = 4
___that$ = 8						; size = 4
??0?$_Tree_const_iterator@V?$_Tree_val@U?$_Tree_simple_types@UTelegram@@@std@@@std@@@std@@QAE@ABV01@@Z PROC ; std::_Tree_const_iterator<std::_Tree_val<std::_Tree_simple_types<Telegram> > >::_Tree_const_iterator<std::_Tree_val<std::_Tree_simple_types<Telegram> > >, COMDAT
; _this$ = ecx
	push	ebp
	mov	ebp, esp
	push	ecx
	mov	DWORD PTR [ebp-4], -858993460		; ccccccccH
	mov	DWORD PTR _this$[ebp], ecx
	mov	eax, DWORD PTR ___that$[ebp]
	push	eax
	mov	ecx, DWORD PTR _this$[ebp]
	call	??0?$_Tree_unchecked_const_iterator@V?$_Tree_val@U?$_Tree_simple_types@UTelegram@@@std@@@std@@U_Iterator_base12@2@@std@@QAE@ABV01@@Z
	mov	eax, DWORD PTR _this$[ebp]
	add	esp, 4
	cmp	ebp, esp
	call	__RTC_CheckEsp
	mov	esp, ebp
	pop	ebp
	ret	4
??0?$_Tree_const_iterator@V?$_Tree_val@U?$_Tree_simple_types@UTelegram@@@std@@@std@@@std@@QAE@ABV01@@Z ENDP ; std::_Tree_const_iterator<std::_Tree_val<std::_Tree_simple_types<Telegram> > >::_Tree_const_iterator<std::_Tree_val<std::_Tree_simple_types<Telegram> > >
_TEXT	ENDS
; Function compile flags: /Odtp /RTCsu
;	COMDAT ??1?$_Tree_const_iterator@V?$_Tree_val@U?$_Tree_simple_types@UTelegram@@@std@@@std@@@std@@QAE@XZ
_TEXT	SEGMENT
_this$ = -4						; size = 4
??1?$_Tree_const_iterator@V?$_Tree_val@U?$_Tree_simple_types@UTelegram@@@std@@@std@@@std@@QAE@XZ PROC ; std::_Tree_const_iterator<std::_Tree_val<std::_Tree_simple_types<Telegram> > >::~_Tree_const_iterator<std::_Tree_val<std::_Tree_simple_types<Telegram> > >, COMDAT
; _this$ = ecx
	push	ebp
	mov	ebp, esp
	push	ecx
	mov	DWORD PTR [ebp-4], -858993460		; ccccccccH
	mov	DWORD PTR _this$[ebp], ecx
	mov	ecx, DWORD PTR _this$[ebp]
	call	??1?$_Tree_unchecked_const_iterator@V?$_Tree_val@U?$_Tree_simple_types@UTelegram@@@std@@@std@@U_Iterator_base12@2@@std@@QAE@XZ
	add	esp, 4
	cmp	ebp, esp
	call	__RTC_CheckEsp
	mov	esp, ebp
	pop	ebp
	ret	0
??1?$_Tree_const_iterator@V?$_Tree_val@U?$_Tree_simple_types@UTelegram@@@std@@@std@@@std@@QAE@XZ ENDP ; std::_Tree_const_iterator<std::_Tree_val<std::_Tree_simple_types<Telegram> > >::~_Tree_const_iterator<std::_Tree_val<std::_Tree_simple_types<Telegram> > >
_TEXT	ENDS
; Function compile flags: /Odtp /RTCsu
; File c:\program files (x86)\microsoft visual studio\2017\community\vc\tools\msvc\14.11.25503\include\xtree
;	COMDAT ??9?$_Tree_const_iterator@V?$_Tree_val@U?$_Tree_simple_types@UTelegram@@@std@@@std@@@std@@QBE_NABV01@@Z
_TEXT	SEGMENT
tv69 = -8						; size = 4
_this$ = -4						; size = 4
__Right$ = 8						; size = 4
??9?$_Tree_const_iterator@V?$_Tree_val@U?$_Tree_simple_types@UTelegram@@@std@@@std@@@std@@QBE_NABV01@@Z PROC ; std::_Tree_const_iterator<std::_Tree_val<std::_Tree_simple_types<Telegram> > >::operator!=, COMDAT
; _this$ = ecx

; 314  : 		{	// test for iterator inequality

	push	ebp
	mov	ebp, esp
	sub	esp, 8
	mov	DWORD PTR [ebp-8], -858993460		; ccccccccH
	mov	DWORD PTR [ebp-4], -858993460		; ccccccccH
	mov	DWORD PTR _this$[ebp], ecx

; 315  : 		return (!(*this == _Right));

	mov	eax, DWORD PTR __Right$[ebp]
	push	eax
	mov	ecx, DWORD PTR _this$[ebp]
	call	??8?$_Tree_const_iterator@V?$_Tree_val@U?$_Tree_simple_types@UTelegram@@@std@@@std@@@std@@QBE_NABV01@@Z ; std::_Tree_const_iterator<std::_Tree_val<std::_Tree_simple_types<Telegram> > >::operator==
	movzx	ecx, al
	test	ecx, ecx
	jne	SHORT $LN3@operator
	mov	DWORD PTR tv69[ebp], 1
	jmp	SHORT $LN4@operator
$LN3@operator:
	mov	DWORD PTR tv69[ebp], 0
$LN4@operator:
	mov	al, BYTE PTR tv69[ebp]

; 316  : 		}

	add	esp, 8
	cmp	ebp, esp
	call	__RTC_CheckEsp
	mov	esp, ebp
	pop	ebp
	ret	4
??9?$_Tree_const_iterator@V?$_Tree_val@U?$_Tree_simple_types@UTelegram@@@std@@@std@@@std@@QBE_NABV01@@Z ENDP ; std::_Tree_const_iterator<std::_Tree_val<std::_Tree_simple_types<Telegram> > >::operator!=
_TEXT	ENDS
; Function compile flags: /Odtp /RTCsu
; File c:\program files (x86)\microsoft visual studio\2017\community\vc\tools\msvc\14.11.25503\include\xtree
;	COMDAT ??8?$_Tree_const_iterator@V?$_Tree_val@U?$_Tree_simple_types@UTelegram@@@std@@@std@@@std@@QBE_NABV01@@Z
_TEXT	SEGMENT
tv128 = -8						; size = 4
_this$ = -4						; size = 4
__Right$ = 8						; size = 4
??8?$_Tree_const_iterator@V?$_Tree_val@U?$_Tree_simple_types@UTelegram@@@std@@@std@@@std@@QBE_NABV01@@Z PROC ; std::_Tree_const_iterator<std::_Tree_val<std::_Tree_simple_types<Telegram> > >::operator==, COMDAT
; _this$ = ecx

; 299  : 		{	// test for iterator equality

	push	ebp
	mov	ebp, esp
	sub	esp, 8
	push	esi
	mov	DWORD PTR [ebp-8], -858993460		; ccccccccH
	mov	DWORD PTR [ebp-4], -858993460		; ccccccccH
	mov	DWORD PTR _this$[ebp], ecx

; 300  :  #if _ITERATOR_DEBUG_LEVEL == 2
; 301  : 		if (this->_Getcont() != _Right._Getcont())

	mov	ecx, DWORD PTR _this$[ebp]
	call	?_Getcont@_Iterator_base12@std@@QBEPBU_Container_base12@2@XZ ; std::_Iterator_base12::_Getcont
	mov	esi, eax
	mov	ecx, DWORD PTR __Right$[ebp]
	call	?_Getcont@_Iterator_base12@std@@QBEPBU_Container_base12@2@XZ ; std::_Iterator_base12::_Getcont
	cmp	esi, eax
	je	SHORT $LN2@operator

; 302  : 			{	// report error
; 303  : 			_DEBUG_ERROR("map/set iterators incompatible");

	push	303					; 0000012fH
	push	OFFSET ??_C@_1MM@PPENIDKE@?$AAC?$AA?3?$AA?2?$AAP?$AAr?$AAo?$AAg?$AAr?$AAa?$AAm?$AA?5?$AAF?$AAi?$AAl?$AAe?$AAs?$AA?5?$AA?$CI?$AAx?$AA8?$AA6?$AA?$CJ?$AA?2?$AAM?$AAi?$AAc?$AAr?$AAo?$AAs?$AAo?$AAf?$AAt@
	push	OFFSET ??_C@_1DO@CFEEPGGJ@?$AAm?$AAa?$AAp?$AA?1?$AAs?$AAe?$AAt?$AA?5?$AAi?$AAt?$AAe?$AAr?$AAa?$AAt?$AAo?$AAr?$AAs?$AA?5?$AAi?$AAn?$AAc?$AAo?$AAm?$AAp?$AAa?$AAt?$AAi?$AAb?$AAl?$AAe?$AA?$AA@
	call	?_Debug_message@std@@YAXPB_W0I@Z	; std::_Debug_message
	add	esp, 12					; 0000000cH
	push	0
	push	303					; 0000012fH
	push	OFFSET ??_C@_1MM@PPENIDKE@?$AAC?$AA?3?$AA?2?$AAP?$AAr?$AAo?$AAg?$AAr?$AAa?$AAm?$AA?5?$AAF?$AAi?$AAl?$AAe?$AAs?$AA?5?$AA?$CI?$AAx?$AA8?$AA6?$AA?$CJ?$AA?2?$AAM?$AAi?$AAc?$AAr?$AAo?$AAs?$AAo?$AAf?$AAt@
	push	OFFSET ??_C@_1OA@LGDDNOIK@?$AAs?$AAt?$AAd?$AA?3?$AA?3?$AA_?$AAT?$AAr?$AAe?$AAe?$AA_?$AAc?$AAo?$AAn?$AAs?$AAt?$AA_?$AAi?$AAt?$AAe?$AAr?$AAa?$AAt?$AAo?$AAr?$AA?$DM?$AAc?$AAl?$AAa?$AAs?$AAs?$AA?5@
	push	OFFSET ??_C@_1EC@JLIDLCDH@?$AA?$CC?$AAm?$AAa?$AAp?$AA?1?$AAs?$AAe?$AAt?$AA?5?$AAi?$AAt?$AAe?$AAr?$AAa?$AAt?$AAo?$AAr?$AAs?$AA?5?$AAi?$AAn?$AAc?$AAo?$AAm?$AAp?$AAa?$AAt?$AAi?$AAb?$AAl?$AAe?$AA?$CC@
	call	__invalid_parameter
	add	esp, 20					; 00000014H
$LN2@operator:

; 304  : 			}
; 305  : 
; 306  :  #elif _ITERATOR_DEBUG_LEVEL == 1
; 307  : 		_SCL_SECURE_VALIDATE(this->_Getcont() == _Right._Getcont());
; 308  :  #endif /* _ITERATOR_DEBUG_LEVEL */
; 309  : 
; 310  : 		return (this->_Ptr == _Right._Ptr);

	mov	eax, DWORD PTR _this$[ebp]
	mov	ecx, DWORD PTR __Right$[ebp]
	mov	edx, DWORD PTR [eax+8]
	cmp	edx, DWORD PTR [ecx+8]
	jne	SHORT $LN4@operator
	mov	DWORD PTR tv128[ebp], 1
	jmp	SHORT $LN5@operator
$LN4@operator:
	mov	DWORD PTR tv128[ebp], 0
$LN5@operator:
	mov	al, BYTE PTR tv128[ebp]

; 311  : 		}

	pop	esi
	add	esp, 8
	cmp	ebp, esp
	call	__RTC_CheckEsp
	mov	esp, ebp
	pop	ebp
	ret	4
??8?$_Tree_const_iterator@V?$_Tree_val@U?$_Tree_simple_types@UTelegram@@@std@@@std@@@std@@QBE_NABV01@@Z ENDP ; std::_Tree_const_iterator<std::_Tree_val<std::_Tree_simple_types<Telegram> > >::operator==
_TEXT	ENDS
; Function compile flags: /Odtp /RTCsu
; File c:\program files (x86)\microsoft visual studio\2017\community\vc\tools\msvc\14.11.25503\include\xtree
;	COMDAT ??F?$_Tree_const_iterator@V?$_Tree_val@U?$_Tree_simple_types@UTelegram@@@std@@@std@@@std@@QAEAAV01@XZ
_TEXT	SEGMENT
__Ptrsav$ = -8						; size = 4
_this$ = -4						; size = 4
??F?$_Tree_const_iterator@V?$_Tree_val@U?$_Tree_simple_types@UTelegram@@@std@@@std@@@std@@QAEAAV01@XZ PROC ; std::_Tree_const_iterator<std::_Tree_val<std::_Tree_simple_types<Telegram> > >::operator--, COMDAT
; _this$ = ecx

; 262  : 		{	// predecrement

	push	ebp
	mov	ebp, esp
	sub	esp, 8
	mov	DWORD PTR [ebp-8], -858993460		; ccccccccH
	mov	DWORD PTR [ebp-4], -858993460		; ccccccccH
	mov	DWORD PTR _this$[ebp], ecx

; 263  :  #if _ITERATOR_DEBUG_LEVEL == 2
; 264  : 		if (this->_Getcont() == 0
; 265  : 			|| this->_Ptr == nullptr)

	mov	ecx, DWORD PTR _this$[ebp]
	call	?_Getcont@_Iterator_base12@std@@QBEPBU_Container_base12@2@XZ ; std::_Iterator_base12::_Getcont
	test	eax, eax
	je	SHORT $LN3@operator
	mov	eax, DWORD PTR _this$[ebp]
	cmp	DWORD PTR [eax+8], 0
	jne	SHORT $LN2@operator
$LN3@operator:

; 266  : 			{	// report error
; 267  : 			_DEBUG_ERROR("map/set iterator not decrementable");

	push	267					; 0000010bH
	push	OFFSET ??_C@_1MM@PPENIDKE@?$AAC?$AA?3?$AA?2?$AAP?$AAr?$AAo?$AAg?$AAr?$AAa?$AAm?$AA?5?$AAF?$AAi?$AAl?$AAe?$AAs?$AA?5?$AA?$CI?$AAx?$AA8?$AA6?$AA?$CJ?$AA?2?$AAM?$AAi?$AAc?$AAr?$AAo?$AAs?$AAo?$AAf?$AAt@
	push	OFFSET ??_C@_1EG@OKCGOALM@?$AAm?$AAa?$AAp?$AA?1?$AAs?$AAe?$AAt?$AA?5?$AAi?$AAt?$AAe?$AAr?$AAa?$AAt?$AAo?$AAr?$AA?5?$AAn?$AAo?$AAt?$AA?5?$AAd?$AAe?$AAc?$AAr?$AAe?$AAm?$AAe?$AAn?$AAt?$AAa?$AAb@
	call	?_Debug_message@std@@YAXPB_W0I@Z	; std::_Debug_message
	add	esp, 12					; 0000000cH
	push	0
	push	267					; 0000010bH
	push	OFFSET ??_C@_1MM@PPENIDKE@?$AAC?$AA?3?$AA?2?$AAP?$AAr?$AAo?$AAg?$AAr?$AAa?$AAm?$AA?5?$AAF?$AAi?$AAl?$AAe?$AAs?$AA?5?$AA?$CI?$AAx?$AA8?$AA6?$AA?$CJ?$AA?2?$AAM?$AAi?$AAc?$AAr?$AAo?$AAs?$AAo?$AAf?$AAt@
	push	OFFSET ??_C@_1OA@OFPMILIO@?$AAs?$AAt?$AAd?$AA?3?$AA?3?$AA_?$AAT?$AAr?$AAe?$AAe?$AA_?$AAc?$AAo?$AAn?$AAs?$AAt?$AA_?$AAi?$AAt?$AAe?$AAr?$AAa?$AAt?$AAo?$AAr?$AA?$DM?$AAc?$AAl?$AAa?$AAs?$AAs?$AA?5@
	push	OFFSET ??_C@_1EK@OIBHPACE@?$AA?$CC?$AAm?$AAa?$AAp?$AA?1?$AAs?$AAe?$AAt?$AA?5?$AAi?$AAt?$AAe?$AAr?$AAa?$AAt?$AAo?$AAr?$AA?5?$AAn?$AAo?$AAt?$AA?5?$AAd?$AAe?$AAc?$AAr?$AAe?$AAm?$AAe?$AAn?$AAt?$AAa@
	call	__invalid_parameter
	add	esp, 20					; 00000014H
$LN2@operator:

; 268  : 			}
; 269  : 
; 270  : 		_Nodeptr _Ptrsav = this->_Ptr;

	mov	ecx, DWORD PTR _this$[ebp]
	mov	edx, DWORD PTR [ecx+8]
	mov	DWORD PTR __Ptrsav$[ebp], edx

; 271  : 		--static_cast<_Mybase&>(*this);

	mov	ecx, DWORD PTR _this$[ebp]
	call	??F?$_Tree_unchecked_const_iterator@V?$_Tree_val@U?$_Tree_simple_types@UTelegram@@@std@@@std@@U_Iterator_base12@2@@std@@QAEAAV01@XZ ; std::_Tree_unchecked_const_iterator<std::_Tree_val<std::_Tree_simple_types<Telegram> >,std::_Iterator_base12>::operator--

; 272  : 		if (_Ptrsav == this->_Ptr)

	mov	eax, DWORD PTR _this$[ebp]
	mov	ecx, DWORD PTR __Ptrsav$[ebp]
	cmp	ecx, DWORD PTR [eax+8]
	jne	SHORT $LN4@operator

; 273  : 			{	// report error
; 274  : 			_DEBUG_ERROR("map/set iterator not decrementable");

	push	274					; 00000112H
	push	OFFSET ??_C@_1MM@PPENIDKE@?$AAC?$AA?3?$AA?2?$AAP?$AAr?$AAo?$AAg?$AAr?$AAa?$AAm?$AA?5?$AAF?$AAi?$AAl?$AAe?$AAs?$AA?5?$AA?$CI?$AAx?$AA8?$AA6?$AA?$CJ?$AA?2?$AAM?$AAi?$AAc?$AAr?$AAo?$AAs?$AAo?$AAf?$AAt@
	push	OFFSET ??_C@_1EG@OKCGOALM@?$AAm?$AAa?$AAp?$AA?1?$AAs?$AAe?$AAt?$AA?5?$AAi?$AAt?$AAe?$AAr?$AAa?$AAt?$AAo?$AAr?$AA?5?$AAn?$AAo?$AAt?$AA?5?$AAd?$AAe?$AAc?$AAr?$AAe?$AAm?$AAe?$AAn?$AAt?$AAa?$AAb@
	call	?_Debug_message@std@@YAXPB_W0I@Z	; std::_Debug_message
	add	esp, 12					; 0000000cH
	push	0
	push	274					; 00000112H
	push	OFFSET ??_C@_1MM@PPENIDKE@?$AAC?$AA?3?$AA?2?$AAP?$AAr?$AAo?$AAg?$AAr?$AAa?$AAm?$AA?5?$AAF?$AAi?$AAl?$AAe?$AAs?$AA?5?$AA?$CI?$AAx?$AA8?$AA6?$AA?$CJ?$AA?2?$AAM?$AAi?$AAc?$AAr?$AAo?$AAs?$AAo?$AAf?$AAt@
	push	OFFSET ??_C@_1OA@OFPMILIO@?$AAs?$AAt?$AAd?$AA?3?$AA?3?$AA_?$AAT?$AAr?$AAe?$AAe?$AA_?$AAc?$AAo?$AAn?$AAs?$AAt?$AA_?$AAi?$AAt?$AAe?$AAr?$AAa?$AAt?$AAo?$AAr?$AA?$DM?$AAc?$AAl?$AAa?$AAs?$AAs?$AA?5@
	push	OFFSET ??_C@_1EK@OIBHPACE@?$AA?$CC?$AAm?$AAa?$AAp?$AA?1?$AAs?$AAe?$AAt?$AA?5?$AAi?$AAt?$AAe?$AAr?$AAa?$AAt?$AAo?$AAr?$AA?5?$AAn?$AAo?$AAt?$AA?5?$AAd?$AAe?$AAc?$AAr?$AAe?$AAm?$AAe?$AAn?$AAt?$AAa@
	call	__invalid_parameter
	add	esp, 20					; 00000014H
$LN4@operator:

; 275  : 			}
; 276  : 
; 277  :  #elif _ITERATOR_DEBUG_LEVEL == 1
; 278  : 		_SCL_SECURE_VALIDATE(this->_Getcont() != 0 && this->_Ptr != nullptr);
; 279  : 
; 280  : 		_Nodeptr _Ptrsav = this->_Ptr;
; 281  : 		--static_cast<_Mybase&>(*this);
; 282  : 		_SCL_SECURE_VALIDATE(_Ptrsav != this->_Ptr);
; 283  : 
; 284  :  #else /* _ITERATOR_DEBUG_LEVEL == 0 */
; 285  : 		--static_cast<_Mybase&>(*this);
; 286  :  #endif /* _ITERATOR_DEBUG_LEVEL */
; 287  : 
; 288  : 		return (*this);

	mov	eax, DWORD PTR _this$[ebp]

; 289  : 		}

	add	esp, 8
	cmp	ebp, esp
	call	__RTC_CheckEsp
	mov	esp, ebp
	pop	ebp
	ret	0
??F?$_Tree_const_iterator@V?$_Tree_val@U?$_Tree_simple_types@UTelegram@@@std@@@std@@@std@@QAEAAV01@XZ ENDP ; std::_Tree_const_iterator<std::_Tree_val<std::_Tree_simple_types<Telegram> > >::operator--
_TEXT	ENDS
; Function compile flags: /Odtp /RTCsu
; File c:\program files (x86)\microsoft visual studio\2017\community\vc\tools\msvc\14.11.25503\include\xtree
;	COMDAT ??E?$_Tree_const_iterator@V?$_Tree_val@U?$_Tree_simple_types@UTelegram@@@std@@@std@@@std@@QAE?AV01@H@Z
_TEXT	SEGMENT
$T2 = -40						; size = 4
__Tmp$ = -32						; size = 12
_this$ = -16						; size = 4
__$EHRec$ = -12						; size = 12
___$ReturnUdt$ = 8					; size = 4
___formal$ = 12						; size = 4
??E?$_Tree_const_iterator@V?$_Tree_val@U?$_Tree_simple_types@UTelegram@@@std@@@std@@@std@@QAE?AV01@H@Z PROC ; std::_Tree_const_iterator<std::_Tree_val<std::_Tree_simple_types<Telegram> > >::operator++, COMDAT
; _this$ = ecx

; 255  : 		{	// postincrement

	push	ebp
	mov	ebp, esp
	push	-1
	push	__ehhandler$??E?$_Tree_const_iterator@V?$_Tree_val@U?$_Tree_simple_types@UTelegram@@@std@@@std@@@std@@QAE?AV01@H@Z
	mov	eax, DWORD PTR fs:0
	push	eax
	sub	esp, 28					; 0000001cH
	mov	eax, -858993460				; ccccccccH
	mov	DWORD PTR [ebp-40], eax
	mov	DWORD PTR [ebp-36], eax
	mov	DWORD PTR [ebp-32], eax
	mov	DWORD PTR [ebp-28], eax
	mov	DWORD PTR [ebp-24], eax
	mov	DWORD PTR [ebp-20], eax
	mov	DWORD PTR [ebp-16], eax
	mov	eax, DWORD PTR ___security_cookie
	xor	eax, ebp
	push	eax
	lea	eax, DWORD PTR __$EHRec$[ebp]
	mov	DWORD PTR fs:0, eax
	mov	DWORD PTR _this$[ebp], ecx
	mov	DWORD PTR $T2[ebp], 0

; 256  : 		_Tree_const_iterator _Tmp = *this;

	mov	eax, DWORD PTR _this$[ebp]
	push	eax
	lea	ecx, DWORD PTR __Tmp$[ebp]
	call	??0?$_Tree_const_iterator@V?$_Tree_val@U?$_Tree_simple_types@UTelegram@@@std@@@std@@@std@@QAE@ABV01@@Z
	mov	DWORD PTR __$EHRec$[ebp+8], 0

; 257  : 		++*this;

	mov	ecx, DWORD PTR _this$[ebp]
	call	??E?$_Tree_const_iterator@V?$_Tree_val@U?$_Tree_simple_types@UTelegram@@@std@@@std@@@std@@QAEAAV01@XZ ; std::_Tree_const_iterator<std::_Tree_val<std::_Tree_simple_types<Telegram> > >::operator++

; 258  : 		return (_Tmp);

	lea	ecx, DWORD PTR __Tmp$[ebp]
	push	ecx
	mov	ecx, DWORD PTR ___$ReturnUdt$[ebp]
	call	??0?$_Tree_const_iterator@V?$_Tree_val@U?$_Tree_simple_types@UTelegram@@@std@@@std@@@std@@QAE@$$QAV01@@Z
	mov	edx, DWORD PTR $T2[ebp]
	or	edx, 1
	mov	DWORD PTR $T2[ebp], edx
	mov	DWORD PTR __$EHRec$[ebp+8], -1
	lea	ecx, DWORD PTR __Tmp$[ebp]
	call	??1?$_Tree_const_iterator@V?$_Tree_val@U?$_Tree_simple_types@UTelegram@@@std@@@std@@@std@@QAE@XZ
	mov	eax, DWORD PTR ___$ReturnUdt$[ebp]

; 259  : 		}

	push	edx
	mov	ecx, ebp
	push	eax
	lea	edx, DWORD PTR $LN9@operator
	call	@_RTC_CheckStackVars@8
	pop	eax
	pop	edx
	mov	ecx, DWORD PTR __$EHRec$[ebp]
	mov	DWORD PTR fs:0, ecx
	pop	ecx
	add	esp, 40					; 00000028H
	cmp	ebp, esp
	call	__RTC_CheckEsp
	mov	esp, ebp
	pop	ebp
	ret	8
	npad	1
$LN9@operator:
	DD	1
	DD	$LN8@operator
$LN8@operator:
	DD	-32					; ffffffe0H
	DD	12					; 0000000cH
	DD	$LN6@operator
$LN6@operator:
	DB	95					; 0000005fH
	DB	84					; 00000054H
	DB	109					; 0000006dH
	DB	112					; 00000070H
	DB	0
_TEXT	ENDS
;	COMDAT text$x
text$x	SEGMENT
__unwindfunclet$??E?$_Tree_const_iterator@V?$_Tree_val@U?$_Tree_simple_types@UTelegram@@@std@@@std@@@std@@QAE?AV01@H@Z$0:
	lea	ecx, DWORD PTR __Tmp$[ebp]
	jmp	??1?$_Tree_const_iterator@V?$_Tree_val@U?$_Tree_simple_types@UTelegram@@@std@@@std@@@std@@QAE@XZ
__ehhandler$??E?$_Tree_const_iterator@V?$_Tree_val@U?$_Tree_simple_types@UTelegram@@@std@@@std@@@std@@QAE?AV01@H@Z:
	mov	edx, DWORD PTR [esp+8]
	lea	eax, DWORD PTR [edx+12]
	mov	ecx, DWORD PTR [edx-32]
	xor	ecx, eax
	call	@__security_check_cookie@4
	mov	eax, OFFSET __ehfuncinfo$??E?$_Tree_const_iterator@V?$_Tree_val@U?$_Tree_simple_types@UTelegram@@@std@@@std@@@std@@QAE?AV01@H@Z
	jmp	___CxxFrameHandler3
text$x	ENDS
??E?$_Tree_const_iterator@V?$_Tree_val@U?$_Tree_simple_types@UTelegram@@@std@@@std@@@std@@QAE?AV01@H@Z ENDP ; std::_Tree_const_iterator<std::_Tree_val<std::_Tree_simple_types<Telegram> > >::operator++
; Function compile flags: /Odtp /RTCsu
; File c:\program files (x86)\microsoft visual studio\2017\community\vc\tools\msvc\14.11.25503\include\xtree
;	COMDAT ??E?$_Tree_const_iterator@V?$_Tree_val@U?$_Tree_simple_types@UTelegram@@@std@@@std@@@std@@QAEAAV01@XZ
_TEXT	SEGMENT
_this$ = -4						; size = 4
??E?$_Tree_const_iterator@V?$_Tree_val@U?$_Tree_simple_types@UTelegram@@@std@@@std@@@std@@QAEAAV01@XZ PROC ; std::_Tree_const_iterator<std::_Tree_val<std::_Tree_simple_types<Telegram> > >::operator++, COMDAT
; _this$ = ecx

; 236  : 		{	// preincrement

	push	ebp
	mov	ebp, esp
	push	ecx
	mov	DWORD PTR [ebp-4], -858993460		; ccccccccH
	mov	DWORD PTR _this$[ebp], ecx

; 237  :  #if _ITERATOR_DEBUG_LEVEL == 2
; 238  : 		if (this->_Getcont() == 0
; 239  : 			|| this->_Ptr == nullptr
; 240  : 			|| this->_Ptr->_Isnil)

	mov	ecx, DWORD PTR _this$[ebp]
	call	?_Getcont@_Iterator_base12@std@@QBEPBU_Container_base12@2@XZ ; std::_Iterator_base12::_Getcont
	test	eax, eax
	je	SHORT $LN3@operator
	mov	eax, DWORD PTR _this$[ebp]
	cmp	DWORD PTR [eax+8], 0
	je	SHORT $LN3@operator
	mov	ecx, DWORD PTR _this$[ebp]
	mov	edx, DWORD PTR [ecx+8]
	movsx	eax, BYTE PTR [edx+13]
	test	eax, eax
	je	SHORT $LN2@operator
$LN3@operator:

; 241  : 			{	// report error
; 242  : 			_DEBUG_ERROR("map/set iterator not incrementable");

	push	242					; 000000f2H
	push	OFFSET ??_C@_1MM@PPENIDKE@?$AAC?$AA?3?$AA?2?$AAP?$AAr?$AAo?$AAg?$AAr?$AAa?$AAm?$AA?5?$AAF?$AAi?$AAl?$AAe?$AAs?$AA?5?$AA?$CI?$AAx?$AA8?$AA6?$AA?$CJ?$AA?2?$AAM?$AAi?$AAc?$AAr?$AAo?$AAs?$AAo?$AAf?$AAt@
	push	OFFSET ??_C@_1EG@EHJFMBHJ@?$AAm?$AAa?$AAp?$AA?1?$AAs?$AAe?$AAt?$AA?5?$AAi?$AAt?$AAe?$AAr?$AAa?$AAt?$AAo?$AAr?$AA?5?$AAn?$AAo?$AAt?$AA?5?$AAi?$AAn?$AAc?$AAr?$AAe?$AAm?$AAe?$AAn?$AAt?$AAa?$AAb@
	call	?_Debug_message@std@@YAXPB_W0I@Z	; std::_Debug_message
	add	esp, 12					; 0000000cH
	push	0
	push	242					; 000000f2H
	push	OFFSET ??_C@_1MM@PPENIDKE@?$AAC?$AA?3?$AA?2?$AAP?$AAr?$AAo?$AAg?$AAr?$AAa?$AAm?$AA?5?$AAF?$AAi?$AAl?$AAe?$AAs?$AA?5?$AA?$CI?$AAx?$AA8?$AA6?$AA?$CJ?$AA?2?$AAM?$AAi?$AAc?$AAr?$AAo?$AAs?$AAo?$AAf?$AAt@
	push	OFFSET ??_C@_1OA@BGMODHEP@?$AAs?$AAt?$AAd?$AA?3?$AA?3?$AA_?$AAT?$AAr?$AAe?$AAe?$AA_?$AAc?$AAo?$AAn?$AAs?$AAt?$AA_?$AAi?$AAt?$AAe?$AAr?$AAa?$AAt?$AAo?$AAr?$AA?$DM?$AAc?$AAl?$AAa?$AAs?$AAs?$AA?5@
	push	OFFSET ??_C@_1EK@BCPDGOMC@?$AA?$CC?$AAm?$AAa?$AAp?$AA?1?$AAs?$AAe?$AAt?$AA?5?$AAi?$AAt?$AAe?$AAr?$AAa?$AAt?$AAo?$AAr?$AA?5?$AAn?$AAo?$AAt?$AA?5?$AAi?$AAn?$AAc?$AAr?$AAe?$AAm?$AAe?$AAn?$AAt?$AAa@
	call	__invalid_parameter
	add	esp, 20					; 00000014H
$LN2@operator:

; 243  : 			}
; 244  : 
; 245  :  #elif _ITERATOR_DEBUG_LEVEL == 1
; 246  : 		_SCL_SECURE_VALIDATE(this->_Getcont() != 0 && this->_Ptr != nullptr);
; 247  : 		_SCL_SECURE_VALIDATE_RANGE(!this->_Ptr->_Isnil);
; 248  :  #endif /* _ITERATOR_DEBUG_LEVEL */
; 249  : 
; 250  : 		++static_cast<_Mybase&>(*this);

	mov	ecx, DWORD PTR _this$[ebp]
	call	??E?$_Tree_unchecked_const_iterator@V?$_Tree_val@U?$_Tree_simple_types@UTelegram@@@std@@@std@@U_Iterator_base12@2@@std@@QAEAAV01@XZ ; std::_Tree_unchecked_const_iterator<std::_Tree_val<std::_Tree_simple_types<Telegram> >,std::_Iterator_base12>::operator++

; 251  : 		return (*this);

	mov	eax, DWORD PTR _this$[ebp]

; 252  : 		}

	add	esp, 4
	cmp	ebp, esp
	call	__RTC_CheckEsp
	mov	esp, ebp
	pop	ebp
	ret	0
??E?$_Tree_const_iterator@V?$_Tree_val@U?$_Tree_simple_types@UTelegram@@@std@@@std@@@std@@QAEAAV01@XZ ENDP ; std::_Tree_const_iterator<std::_Tree_val<std::_Tree_simple_types<Telegram> > >::operator++
_TEXT	ENDS
; Function compile flags: /Odtp /RTCsu
; File c:\program files (x86)\microsoft visual studio\2017\community\vc\tools\msvc\14.11.25503\include\xtree
;	COMDAT ??C?$_Tree_const_iterator@V?$_Tree_val@U?$_Tree_simple_types@UTelegram@@@std@@@std@@@std@@QBEPBUTelegram@@XZ
_TEXT	SEGMENT
_this$ = -4						; size = 4
??C?$_Tree_const_iterator@V?$_Tree_val@U?$_Tree_simple_types@UTelegram@@@std@@@std@@@std@@QBEPBUTelegram@@XZ PROC ; std::_Tree_const_iterator<std::_Tree_val<std::_Tree_simple_types<Telegram> > >::operator->, COMDAT
; _this$ = ecx

; 231  : 		{	// return pointer to class object

	push	ebp
	mov	ebp, esp
	push	ecx
	mov	DWORD PTR [ebp-4], -858993460		; ccccccccH
	mov	DWORD PTR _this$[ebp], ecx

; 232  : 		return (pointer_traits<pointer>::pointer_to(**this));

	mov	ecx, DWORD PTR _this$[ebp]
	call	??D?$_Tree_const_iterator@V?$_Tree_val@U?$_Tree_simple_types@UTelegram@@@std@@@std@@@std@@QBEABUTelegram@@XZ ; std::_Tree_const_iterator<std::_Tree_val<std::_Tree_simple_types<Telegram> > >::operator*
	push	eax
	call	?pointer_to@?$pointer_traits@PBUTelegram@@@std@@SAPBUTelegram@@ABU3@@Z ; std::pointer_traits<Telegram const *>::pointer_to
	add	esp, 4

; 233  : 		}

	add	esp, 4
	cmp	ebp, esp
	call	__RTC_CheckEsp
	mov	esp, ebp
	pop	ebp
	ret	0
??C?$_Tree_const_iterator@V?$_Tree_val@U?$_Tree_simple_types@UTelegram@@@std@@@std@@@std@@QBEPBUTelegram@@XZ ENDP ; std::_Tree_const_iterator<std::_Tree_val<std::_Tree_simple_types<Telegram> > >::operator->
_TEXT	ENDS
; Function compile flags: /Odtp /RTCsu
; File c:\program files (x86)\microsoft visual studio\2017\community\vc\tools\msvc\14.11.25503\include\xtree
;	COMDAT ??D?$_Tree_const_iterator@V?$_Tree_val@U?$_Tree_simple_types@UTelegram@@@std@@@std@@@std@@QBEABUTelegram@@XZ
_TEXT	SEGMENT
__Mycont$ = -8						; size = 4
_this$ = -4						; size = 4
??D?$_Tree_const_iterator@V?$_Tree_val@U?$_Tree_simple_types@UTelegram@@@std@@@std@@@std@@QBEABUTelegram@@XZ PROC ; std::_Tree_const_iterator<std::_Tree_val<std::_Tree_simple_types<Telegram> > >::operator*, COMDAT
; _this$ = ecx

; 210  : 		{	// return designated value

	push	ebp
	mov	ebp, esp
	sub	esp, 8
	mov	DWORD PTR [ebp-8], -858993460		; ccccccccH
	mov	DWORD PTR [ebp-4], -858993460		; ccccccccH
	mov	DWORD PTR _this$[ebp], ecx

; 211  :  #if _ITERATOR_DEBUG_LEVEL == 2
; 212  : 		const auto _Mycont = static_cast<const _Mytree *>(this->_Getcont());

	mov	ecx, DWORD PTR _this$[ebp]
	call	?_Getcont@_Iterator_base12@std@@QBEPBU_Container_base12@2@XZ ; std::_Iterator_base12::_Getcont
	mov	DWORD PTR __Mycont$[ebp], eax

; 213  : 		if (_Mycont == 0
; 214  : 			|| this->_Ptr == nullptr
; 215  : 			|| this->_Ptr == _Mycont->_Myhead)

	cmp	DWORD PTR __Mycont$[ebp], 0
	je	SHORT $LN3@operator
	mov	eax, DWORD PTR _this$[ebp]
	cmp	DWORD PTR [eax+8], 0
	je	SHORT $LN3@operator
	mov	ecx, DWORD PTR _this$[ebp]
	mov	edx, DWORD PTR __Mycont$[ebp]
	mov	eax, DWORD PTR [ecx+8]
	cmp	eax, DWORD PTR [edx+4]
	jne	SHORT $LN2@operator
$LN3@operator:

; 216  : 			{	// report error
; 217  : 			_DEBUG_ERROR("map/set iterator not dereferencable");

	push	217					; 000000d9H
	push	OFFSET ??_C@_1MM@PPENIDKE@?$AAC?$AA?3?$AA?2?$AAP?$AAr?$AAo?$AAg?$AAr?$AAa?$AAm?$AA?5?$AAF?$AAi?$AAl?$AAe?$AAs?$AA?5?$AA?$CI?$AAx?$AA8?$AA6?$AA?$CJ?$AA?2?$AAM?$AAi?$AAc?$AAr?$AAo?$AAs?$AAo?$AAf?$AAt@
	push	OFFSET ??_C@_1EI@FHEHNNNM@?$AAm?$AAa?$AAp?$AA?1?$AAs?$AAe?$AAt?$AA?5?$AAi?$AAt?$AAe?$AAr?$AAa?$AAt?$AAo?$AAr?$AA?5?$AAn?$AAo?$AAt?$AA?5?$AAd?$AAe?$AAr?$AAe?$AAf?$AAe?$AAr?$AAe?$AAn?$AAc?$AAa@
	call	?_Debug_message@std@@YAXPB_W0I@Z	; std::_Debug_message
	add	esp, 12					; 0000000cH
	push	0
	push	217					; 000000d9H
	push	OFFSET ??_C@_1MM@PPENIDKE@?$AAC?$AA?3?$AA?2?$AAP?$AAr?$AAo?$AAg?$AAr?$AAa?$AAm?$AA?5?$AAF?$AAi?$AAl?$AAe?$AAs?$AA?5?$AA?$CI?$AAx?$AA8?$AA6?$AA?$CJ?$AA?2?$AAM?$AAi?$AAc?$AAr?$AAo?$AAs?$AAo?$AAf?$AAt@
	push	OFFSET ??_C@_1NO@FBLHDHCP@?$AAs?$AAt?$AAd?$AA?3?$AA?3?$AA_?$AAT?$AAr?$AAe?$AAe?$AA_?$AAc?$AAo?$AAn?$AAs?$AAt?$AA_?$AAi?$AAt?$AAe?$AAr?$AAa?$AAt?$AAo?$AAr?$AA?$DM?$AAc?$AAl?$AAa?$AAs?$AAs?$AA?5@
	push	OFFSET ??_C@_1EM@KEKCOCNI@?$AA?$CC?$AAm?$AAa?$AAp?$AA?1?$AAs?$AAe?$AAt?$AA?5?$AAi?$AAt?$AAe?$AAr?$AAa?$AAt?$AAo?$AAr?$AA?5?$AAn?$AAo?$AAt?$AA?5?$AAd?$AAe?$AAr?$AAe?$AAf?$AAe?$AAr?$AAe?$AAn?$AAc@
	call	__invalid_parameter
	add	esp, 20					; 00000014H
$LN2@operator:

; 218  : 			}
; 219  : 
; 220  :  #elif _ITERATOR_DEBUG_LEVEL == 1
; 221  : 		_SCL_SECURE_VALIDATE(this->_Ptr != nullptr);
; 222  : 		const auto _Mycont = static_cast<const _Mytree *>(this->_Getcont());
; 223  : 		_SCL_SECURE_VALIDATE(_Mycont != 0);
; 224  : 		_SCL_SECURE_VALIDATE_RANGE(this->_Ptr != _Mycont->_Myhead);
; 225  :  #endif /* _ITERATOR_DEBUG_LEVEL */
; 226  : 
; 227  : 		return (this->_Ptr->_Myval);

	mov	ecx, DWORD PTR _this$[ebp]
	mov	eax, DWORD PTR [ecx+8]
	add	eax, 16					; 00000010H

; 228  : 		}

	add	esp, 8
	cmp	ebp, esp
	call	__RTC_CheckEsp
	mov	esp, ebp
	pop	ebp
	ret	0
??D?$_Tree_const_iterator@V?$_Tree_val@U?$_Tree_simple_types@UTelegram@@@std@@@std@@@std@@QBEABUTelegram@@XZ ENDP ; std::_Tree_const_iterator<std::_Tree_val<std::_Tree_simple_types<Telegram> > >::operator*
_TEXT	ENDS
; Function compile flags: /Odtp /RTCsu
; File c:\program files (x86)\microsoft visual studio\2017\community\vc\tools\msvc\14.11.25503\include\xtree
;	COMDAT ??0?$_Tree_const_iterator@V?$_Tree_val@U?$_Tree_simple_types@UTelegram@@@std@@@std@@@std@@QAE@PAU?$_Tree_node@UTelegram@@PAX@1@PBV?$_Tree_val@U?$_Tree_simple_types@UTelegram@@@std@@@1@@Z
_TEXT	SEGMENT
_this$ = -4						; size = 4
__Pnode$ = 8						; size = 4
__Plist$ = 12						; size = 4
??0?$_Tree_const_iterator@V?$_Tree_val@U?$_Tree_simple_types@UTelegram@@@std@@@std@@@std@@QAE@PAU?$_Tree_node@UTelegram@@PAX@1@PBV?$_Tree_val@U?$_Tree_simple_types@UTelegram@@@std@@@1@@Z PROC ; std::_Tree_const_iterator<std::_Tree_val<std::_Tree_simple_types<Telegram> > >::_Tree_const_iterator<std::_Tree_val<std::_Tree_simple_types<Telegram> > >, COMDAT
; _this$ = ecx

; 204  : 		{	// construct with node pointer _Pnode

	push	ebp
	mov	ebp, esp
	push	ecx
	mov	DWORD PTR [ebp-4], -858993460		; ccccccccH
	mov	DWORD PTR _this$[ebp], ecx

; 203  : 		: _Mybase(_Pnode, _Plist)

	mov	eax, DWORD PTR __Plist$[ebp]
	push	eax
	mov	ecx, DWORD PTR __Pnode$[ebp]
	push	ecx
	mov	ecx, DWORD PTR _this$[ebp]
	call	??0?$_Tree_unchecked_const_iterator@V?$_Tree_val@U?$_Tree_simple_types@UTelegram@@@std@@@std@@U_Iterator_base12@2@@std@@QAE@PAU?$_Tree_node@UTelegram@@PAX@1@PBV?$_Tree_val@U?$_Tree_simple_types@UTelegram@@@std@@@1@@Z ; std::_Tree_unchecked_const_iterator<std::_Tree_val<std::_Tree_simple_types<Telegram> >,std::_Iterator_base12>::_Tree_unchecked_const_iterator<std::_Tree_val<std::_Tree_simple_types<Telegram> >,std::_Iterator_base12>

; 205  : 		}

	mov	eax, DWORD PTR _this$[ebp]
	add	esp, 4
	cmp	ebp, esp
	call	__RTC_CheckEsp
	mov	esp, ebp
	pop	ebp
	ret	8
??0?$_Tree_const_iterator@V?$_Tree_val@U?$_Tree_simple_types@UTelegram@@@std@@@std@@@std@@QAE@PAU?$_Tree_node@UTelegram@@PAX@1@PBV?$_Tree_val@U?$_Tree_simple_types@UTelegram@@@std@@@1@@Z ENDP ; std::_Tree_const_iterator<std::_Tree_val<std::_Tree_simple_types<Telegram> > >::_Tree_const_iterator<std::_Tree_val<std::_Tree_simple_types<Telegram> > >
_TEXT	ENDS
; Function compile flags: /Odtp /RTCsu
;	COMDAT ??0?$_Tree_unchecked_const_iterator@V?$_Tree_val@U?$_Tree_simple_types@UTelegram@@@std@@@std@@U_Iterator_base12@2@@std@@QAE@$$QAV01@@Z
_TEXT	SEGMENT
_this$ = -4						; size = 4
___that$ = 8						; size = 4
??0?$_Tree_unchecked_const_iterator@V?$_Tree_val@U?$_Tree_simple_types@UTelegram@@@std@@@std@@U_Iterator_base12@2@@std@@QAE@$$QAV01@@Z PROC ; std::_Tree_unchecked_const_iterator<std::_Tree_val<std::_Tree_simple_types<Telegram> >,std::_Iterator_base12>::_Tree_unchecked_const_iterator<std::_Tree_val<std::_Tree_simple_types<Telegram> >,std::_Iterator_base12>, COMDAT
; _this$ = ecx
	push	ebp
	mov	ebp, esp
	push	ecx
	mov	DWORD PTR [ebp-4], -858993460		; ccccccccH
	mov	DWORD PTR _this$[ebp], ecx
	mov	eax, DWORD PTR ___that$[ebp]
	push	eax
	mov	ecx, DWORD PTR _this$[ebp]
	call	??0_Iterator_base12@std@@QAE@ABU01@@Z	; std::_Iterator_base12::_Iterator_base12
	mov	ecx, DWORD PTR _this$[ebp]
	mov	edx, DWORD PTR ___that$[ebp]
	mov	eax, DWORD PTR [edx+8]
	mov	DWORD PTR [ecx+8], eax
	mov	eax, DWORD PTR _this$[ebp]
	add	esp, 4
	cmp	ebp, esp
	call	__RTC_CheckEsp
	mov	esp, ebp
	pop	ebp
	ret	4
??0?$_Tree_unchecked_const_iterator@V?$_Tree_val@U?$_Tree_simple_types@UTelegram@@@std@@@std@@U_Iterator_base12@2@@std@@QAE@$$QAV01@@Z ENDP ; std::_Tree_unchecked_const_iterator<std::_Tree_val<std::_Tree_simple_types<Telegram> >,std::_Iterator_base12>::_Tree_unchecked_const_iterator<std::_Tree_val<std::_Tree_simple_types<Telegram> >,std::_Iterator_base12>
_TEXT	ENDS
; Function compile flags: /Odtp /RTCsu
;	COMDAT ??0?$_Tree_unchecked_const_iterator@V?$_Tree_val@U?$_Tree_simple_types@UTelegram@@@std@@@std@@U_Iterator_base12@2@@std@@QAE@ABV01@@Z
_TEXT	SEGMENT
_this$ = -4						; size = 4
___that$ = 8						; size = 4
??0?$_Tree_unchecked_const_iterator@V?$_Tree_val@U?$_Tree_simple_types@UTelegram@@@std@@@std@@U_Iterator_base12@2@@std@@QAE@ABV01@@Z PROC ; std::_Tree_unchecked_const_iterator<std::_Tree_val<std::_Tree_simple_types<Telegram> >,std::_Iterator_base12>::_Tree_unchecked_const_iterator<std::_Tree_val<std::_Tree_simple_types<Telegram> >,std::_Iterator_base12>, COMDAT
; _this$ = ecx
	push	ebp
	mov	ebp, esp
	push	ecx
	mov	DWORD PTR [ebp-4], -858993460		; ccccccccH
	mov	DWORD PTR _this$[ebp], ecx
	mov	eax, DWORD PTR ___that$[ebp]
	push	eax
	mov	ecx, DWORD PTR _this$[ebp]
	call	??0_Iterator_base12@std@@QAE@ABU01@@Z	; std::_Iterator_base12::_Iterator_base12
	mov	ecx, DWORD PTR _this$[ebp]
	mov	edx, DWORD PTR ___that$[ebp]
	mov	eax, DWORD PTR [edx+8]
	mov	DWORD PTR [ecx+8], eax
	mov	eax, DWORD PTR _this$[ebp]
	add	esp, 4
	cmp	ebp, esp
	call	__RTC_CheckEsp
	mov	esp, ebp
	pop	ebp
	ret	4
??0?$_Tree_unchecked_const_iterator@V?$_Tree_val@U?$_Tree_simple_types@UTelegram@@@std@@@std@@U_Iterator_base12@2@@std@@QAE@ABV01@@Z ENDP ; std::_Tree_unchecked_const_iterator<std::_Tree_val<std::_Tree_simple_types<Telegram> >,std::_Iterator_base12>::_Tree_unchecked_const_iterator<std::_Tree_val<std::_Tree_simple_types<Telegram> >,std::_Iterator_base12>
_TEXT	ENDS
; Function compile flags: /Odtp /RTCsu
;	COMDAT ??1?$_Tree_unchecked_const_iterator@V?$_Tree_val@U?$_Tree_simple_types@UTelegram@@@std@@@std@@U_Iterator_base12@2@@std@@QAE@XZ
_TEXT	SEGMENT
_this$ = -4						; size = 4
??1?$_Tree_unchecked_const_iterator@V?$_Tree_val@U?$_Tree_simple_types@UTelegram@@@std@@@std@@U_Iterator_base12@2@@std@@QAE@XZ PROC ; std::_Tree_unchecked_const_iterator<std::_Tree_val<std::_Tree_simple_types<Telegram> >,std::_Iterator_base12>::~_Tree_unchecked_const_iterator<std::_Tree_val<std::_Tree_simple_types<Telegram> >,std::_Iterator_base12>, COMDAT
; _this$ = ecx
	push	ebp
	mov	ebp, esp
	push	ecx
	mov	DWORD PTR [ebp-4], -858993460		; ccccccccH
	mov	DWORD PTR _this$[ebp], ecx
	mov	ecx, DWORD PTR _this$[ebp]
	call	??1_Iterator_base12@std@@QAE@XZ		; std::_Iterator_base12::~_Iterator_base12
	add	esp, 4
	cmp	ebp, esp
	call	__RTC_CheckEsp
	mov	esp, ebp
	pop	ebp
	ret	0
??1?$_Tree_unchecked_const_iterator@V?$_Tree_val@U?$_Tree_simple_types@UTelegram@@@std@@@std@@U_Iterator_base12@2@@std@@QAE@XZ ENDP ; std::_Tree_unchecked_const_iterator<std::_Tree_val<std::_Tree_simple_types<Telegram> >,std::_Iterator_base12>::~_Tree_unchecked_const_iterator<std::_Tree_val<std::_Tree_simple_types<Telegram> >,std::_Iterator_base12>
_TEXT	ENDS
; Function compile flags: /Odtp /RTCsu
; File c:\program files (x86)\microsoft visual studio\2017\community\vc\tools\msvc\14.11.25503\include\xtree
;	COMDAT ?_Mynode@?$_Tree_unchecked_const_iterator@V?$_Tree_val@U?$_Tree_simple_types@UTelegram@@@std@@@std@@U_Iterator_base12@2@@std@@QBEPAU?$_Tree_node@UTelegram@@PAX@2@XZ
_TEXT	SEGMENT
_this$ = -4						; size = 4
?_Mynode@?$_Tree_unchecked_const_iterator@V?$_Tree_val@U?$_Tree_simple_types@UTelegram@@@std@@@std@@U_Iterator_base12@2@@std@@QBEPAU?$_Tree_node@UTelegram@@PAX@2@XZ PROC ; std::_Tree_unchecked_const_iterator<std::_Tree_val<std::_Tree_simple_types<Telegram> >,std::_Iterator_base12>::_Mynode, COMDAT
; _this$ = ecx

; 114  : 		{	// return node pointer

	push	ebp
	mov	ebp, esp
	push	ecx
	mov	DWORD PTR [ebp-4], -858993460		; ccccccccH
	mov	DWORD PTR _this$[ebp], ecx

; 115  : 		return (_Ptr);

	mov	eax, DWORD PTR _this$[ebp]
	mov	eax, DWORD PTR [eax+8]

; 116  : 		}

	mov	esp, ebp
	pop	ebp
	ret	0
?_Mynode@?$_Tree_unchecked_const_iterator@V?$_Tree_val@U?$_Tree_simple_types@UTelegram@@@std@@@std@@U_Iterator_base12@2@@std@@QBEPAU?$_Tree_node@UTelegram@@PAX@2@XZ ENDP ; std::_Tree_unchecked_const_iterator<std::_Tree_val<std::_Tree_simple_types<Telegram> >,std::_Iterator_base12>::_Mynode
_TEXT	ENDS
; Function compile flags: /Odtp /RTCsu
; File c:\program files (x86)\microsoft visual studio\2017\community\vc\tools\msvc\14.11.25503\include\xtree
;	COMDAT ??F?$_Tree_unchecked_const_iterator@V?$_Tree_val@U?$_Tree_simple_types@UTelegram@@@std@@@std@@U_Iterator_base12@2@@std@@QAEAAV01@XZ
_TEXT	SEGMENT
__Pnode$1 = -8						; size = 4
_this$ = -4						; size = 4
??F?$_Tree_unchecked_const_iterator@V?$_Tree_val@U?$_Tree_simple_types@UTelegram@@@std@@@std@@U_Iterator_base12@2@@std@@QAEAAV01@XZ PROC ; std::_Tree_unchecked_const_iterator<std::_Tree_val<std::_Tree_simple_types<Telegram> >,std::_Iterator_base12>::operator--, COMDAT
; _this$ = ecx

; 77   : 		{	// predecrement

	push	ebp
	mov	ebp, esp
	sub	esp, 8
	mov	DWORD PTR [ebp-8], -858993460		; ccccccccH
	mov	DWORD PTR [ebp-4], -858993460		; ccccccccH
	mov	DWORD PTR _this$[ebp], ecx

; 78   : 		if (_Ptr->_Isnil)

	mov	eax, DWORD PTR _this$[ebp]
	mov	ecx, DWORD PTR [eax+8]
	movsx	edx, BYTE PTR [ecx+13]
	test	edx, edx
	je	SHORT $LN4@operator

; 79   : 			_Ptr = _Ptr->_Right;	// end() ==> rightmost

	mov	eax, DWORD PTR _this$[ebp]
	mov	ecx, DWORD PTR [eax+8]
	mov	edx, DWORD PTR _this$[ebp]
	mov	eax, DWORD PTR [ecx+8]
	mov	DWORD PTR [edx+8], eax
	jmp	SHORT $LN5@operator
$LN4@operator:

; 80   : 		else if (!_Ptr->_Left->_Isnil)

	mov	ecx, DWORD PTR _this$[ebp]
	mov	edx, DWORD PTR [ecx+8]
	mov	eax, DWORD PTR [edx]
	movsx	ecx, BYTE PTR [eax+13]
	test	ecx, ecx
	jne	SHORT $LN2@operator

; 81   : 			_Ptr = _Mytree::_Max(_Ptr->_Left);	// ==> largest of left subtree

	mov	edx, DWORD PTR _this$[ebp]
	mov	eax, DWORD PTR [edx+8]
	mov	ecx, DWORD PTR [eax]
	push	ecx
	call	?_Max@?$_Tree_val@U?$_Tree_simple_types@UTelegram@@@std@@@std@@SAPAU?$_Tree_node@UTelegram@@PAX@2@PAU32@@Z ; std::_Tree_val<std::_Tree_simple_types<Telegram> >::_Max
	add	esp, 4
	mov	edx, DWORD PTR _this$[ebp]
	mov	DWORD PTR [edx+8], eax

; 82   : 		else

	jmp	SHORT $LN5@operator
$LN2@operator:

; 83   : 			{	// climb looking for left subtree
; 84   : 			_Nodeptr _Pnode;
; 85   : 			while (!(_Pnode = _Ptr->_Parent)->_Isnil
; 86   : 				&& _Ptr == _Pnode->_Left)

	mov	eax, DWORD PTR _this$[ebp]
	mov	ecx, DWORD PTR [eax+8]
	mov	edx, DWORD PTR [ecx+4]
	mov	DWORD PTR __Pnode$1[ebp], edx
	mov	eax, DWORD PTR __Pnode$1[ebp]
	movsx	ecx, BYTE PTR [eax+13]
	test	ecx, ecx
	jne	SHORT $LN3@operator
	mov	edx, DWORD PTR _this$[ebp]
	mov	eax, DWORD PTR __Pnode$1[ebp]
	mov	ecx, DWORD PTR [edx+8]
	cmp	ecx, DWORD PTR [eax]
	jne	SHORT $LN3@operator

; 87   : 				_Ptr = _Pnode;	// ==> parent while left subtree

	mov	edx, DWORD PTR _this$[ebp]
	mov	eax, DWORD PTR __Pnode$1[ebp]
	mov	DWORD PTR [edx+8], eax
	jmp	SHORT $LN2@operator
$LN3@operator:

; 88   : 			if (_Ptr->_Isnil)

	mov	ecx, DWORD PTR _this$[ebp]
	mov	edx, DWORD PTR [ecx+8]
	movsx	eax, BYTE PTR [edx+13]
	test	eax, eax
	je	SHORT $LN8@operator

; 89   : 				;	// begin() shouldn't be decremented, don't move
; 90   : 			else

	jmp	SHORT $LN5@operator
$LN8@operator:

; 91   : 				_Ptr = _Pnode;	// ==> parent if not head

	mov	ecx, DWORD PTR _this$[ebp]
	mov	edx, DWORD PTR __Pnode$1[ebp]
	mov	DWORD PTR [ecx+8], edx
$LN5@operator:

; 92   : 			}
; 93   : 		return (*this);

	mov	eax, DWORD PTR _this$[ebp]

; 94   : 		}

	add	esp, 8
	cmp	ebp, esp
	call	__RTC_CheckEsp
	mov	esp, ebp
	pop	ebp
	ret	0
??F?$_Tree_unchecked_const_iterator@V?$_Tree_val@U?$_Tree_simple_types@UTelegram@@@std@@@std@@U_Iterator_base12@2@@std@@QAEAAV01@XZ ENDP ; std::_Tree_unchecked_const_iterator<std::_Tree_val<std::_Tree_simple_types<Telegram> >,std::_Iterator_base12>::operator--
_TEXT	ENDS
; Function compile flags: /Odtp /RTCsu
; File c:\program files (x86)\microsoft visual studio\2017\community\vc\tools\msvc\14.11.25503\include\xtree
;	COMDAT ??E?$_Tree_unchecked_const_iterator@V?$_Tree_val@U?$_Tree_simple_types@UTelegram@@@std@@@std@@U_Iterator_base12@2@@std@@QAEAAV01@XZ
_TEXT	SEGMENT
__Pnode$1 = -8						; size = 4
_this$ = -4						; size = 4
??E?$_Tree_unchecked_const_iterator@V?$_Tree_val@U?$_Tree_simple_types@UTelegram@@@std@@@std@@U_Iterator_base12@2@@std@@QAEAAV01@XZ PROC ; std::_Tree_unchecked_const_iterator<std::_Tree_val<std::_Tree_simple_types<Telegram> >,std::_Iterator_base12>::operator++, COMDAT
; _this$ = ecx

; 53   : 		{	// preincrement

	push	ebp
	mov	ebp, esp
	sub	esp, 8
	mov	DWORD PTR [ebp-8], -858993460		; ccccccccH
	mov	DWORD PTR [ebp-4], -858993460		; ccccccccH
	mov	DWORD PTR _this$[ebp], ecx

; 54   : 		if (_Ptr->_Isnil)

	mov	eax, DWORD PTR _this$[ebp]
	mov	ecx, DWORD PTR [eax+8]
	movsx	edx, BYTE PTR [ecx+13]
	test	edx, edx
	je	SHORT $LN4@operator
	jmp	SHORT $LN5@operator
$LN4@operator:

; 55   : 			;	// end() shouldn't be incremented, don't move
; 56   : 		else if (!_Ptr->_Right->_Isnil)

	mov	eax, DWORD PTR _this$[ebp]
	mov	ecx, DWORD PTR [eax+8]
	mov	edx, DWORD PTR [ecx+8]
	movsx	eax, BYTE PTR [edx+13]
	test	eax, eax
	jne	SHORT $LN2@operator

; 57   : 			_Ptr = _Mytree::_Min(_Ptr->_Right);	// ==> smallest of right subtree

	mov	ecx, DWORD PTR _this$[ebp]
	mov	edx, DWORD PTR [ecx+8]
	mov	eax, DWORD PTR [edx+8]
	push	eax
	call	?_Min@?$_Tree_val@U?$_Tree_simple_types@UTelegram@@@std@@@std@@SAPAU?$_Tree_node@UTelegram@@PAX@2@PAU32@@Z ; std::_Tree_val<std::_Tree_simple_types<Telegram> >::_Min
	add	esp, 4
	mov	ecx, DWORD PTR _this$[ebp]
	mov	DWORD PTR [ecx+8], eax

; 58   : 		else

	jmp	SHORT $LN5@operator
$LN2@operator:

; 59   : 			{	// climb looking for right subtree
; 60   : 			_Nodeptr _Pnode;
; 61   : 			while (!(_Pnode = _Ptr->_Parent)->_Isnil
; 62   : 				&& _Ptr == _Pnode->_Right)

	mov	edx, DWORD PTR _this$[ebp]
	mov	eax, DWORD PTR [edx+8]
	mov	ecx, DWORD PTR [eax+4]
	mov	DWORD PTR __Pnode$1[ebp], ecx
	mov	edx, DWORD PTR __Pnode$1[ebp]
	movsx	eax, BYTE PTR [edx+13]
	test	eax, eax
	jne	SHORT $LN3@operator
	mov	ecx, DWORD PTR _this$[ebp]
	mov	edx, DWORD PTR __Pnode$1[ebp]
	mov	eax, DWORD PTR [ecx+8]
	cmp	eax, DWORD PTR [edx+8]
	jne	SHORT $LN3@operator

; 63   : 				_Ptr = _Pnode;	// ==> parent while right subtree

	mov	ecx, DWORD PTR _this$[ebp]
	mov	edx, DWORD PTR __Pnode$1[ebp]
	mov	DWORD PTR [ecx+8], edx
	jmp	SHORT $LN2@operator
$LN3@operator:

; 64   : 			_Ptr = _Pnode;	// ==> parent (head if end())

	mov	eax, DWORD PTR _this$[ebp]
	mov	ecx, DWORD PTR __Pnode$1[ebp]
	mov	DWORD PTR [eax+8], ecx
$LN5@operator:

; 65   : 			}
; 66   : 		return (*this);

	mov	eax, DWORD PTR _this$[ebp]

; 67   : 		}

	add	esp, 8
	cmp	ebp, esp
	call	__RTC_CheckEsp
	mov	esp, ebp
	pop	ebp
	ret	0
??E?$_Tree_unchecked_const_iterator@V?$_Tree_val@U?$_Tree_simple_types@UTelegram@@@std@@@std@@U_Iterator_base12@2@@std@@QAEAAV01@XZ ENDP ; std::_Tree_unchecked_const_iterator<std::_Tree_val<std::_Tree_simple_types<Telegram> >,std::_Iterator_base12>::operator++
_TEXT	ENDS
; Function compile flags: /Odtp /RTCsu
; File c:\program files (x86)\microsoft visual studio\2017\community\vc\tools\msvc\14.11.25503\include\xtree
;	COMDAT ??0?$_Tree_unchecked_const_iterator@V?$_Tree_val@U?$_Tree_simple_types@UTelegram@@@std@@@std@@U_Iterator_base12@2@@std@@QAE@PAU?$_Tree_node@UTelegram@@PAX@1@PBV?$_Tree_val@U?$_Tree_simple_types@UTelegram@@@std@@@1@@Z
_TEXT	SEGMENT
_this$ = -4						; size = 4
__Pnode$ = 8						; size = 4
__Plist$ = 12						; size = 4
??0?$_Tree_unchecked_const_iterator@V?$_Tree_val@U?$_Tree_simple_types@UTelegram@@@std@@@std@@U_Iterator_base12@2@@std@@QAE@PAU?$_Tree_node@UTelegram@@PAX@1@PBV?$_Tree_val@U?$_Tree_simple_types@UTelegram@@@std@@@1@@Z PROC ; std::_Tree_unchecked_const_iterator<std::_Tree_val<std::_Tree_simple_types<Telegram> >,std::_Iterator_base12>::_Tree_unchecked_const_iterator<std::_Tree_val<std::_Tree_simple_types<Telegram> >,std::_Iterator_base12>, COMDAT
; _this$ = ecx

; 38   : 		{	// construct with node pointer _Pnode

	push	ebp
	mov	ebp, esp
	push	ecx
	mov	DWORD PTR [ebp-4], -858993460		; ccccccccH
	mov	DWORD PTR _this$[ebp], ecx
	mov	ecx, DWORD PTR _this$[ebp]
	call	??0_Iterator_base12@std@@QAE@XZ		; std::_Iterator_base12::_Iterator_base12

; 37   : 		: _Ptr(_Pnode)

	mov	eax, DWORD PTR _this$[ebp]
	mov	ecx, DWORD PTR __Pnode$[ebp]
	mov	DWORD PTR [eax+8], ecx

; 39   : 		this->_Adopt(_Plist);

	mov	edx, DWORD PTR __Plist$[ebp]
	push	edx
	mov	ecx, DWORD PTR _this$[ebp]
	call	?_Adopt@_Iterator_base12@std@@QAEXPBU_Container_base12@2@@Z ; std::_Iterator_base12::_Adopt

; 40   : 		}

	mov	eax, DWORD PTR _this$[ebp]
	add	esp, 4
	cmp	ebp, esp
	call	__RTC_CheckEsp
	mov	esp, ebp
	pop	ebp
	ret	8
??0?$_Tree_unchecked_const_iterator@V?$_Tree_val@U?$_Tree_simple_types@UTelegram@@@std@@@std@@U_Iterator_base12@2@@std@@QAE@PAU?$_Tree_node@UTelegram@@PAX@1@PBV?$_Tree_val@U?$_Tree_simple_types@UTelegram@@@std@@@1@@Z ENDP ; std::_Tree_unchecked_const_iterator<std::_Tree_val<std::_Tree_simple_types<Telegram> >,std::_Iterator_base12>::_Tree_unchecked_const_iterator<std::_Tree_val<std::_Tree_simple_types<Telegram> >,std::_Iterator_base12>
_TEXT	ENDS
; Function compile flags: /Odtp /RTCsu
; File c:\program files (x86)\microsoft visual studio\2017\community\vc\tools\msvc\14.11.25503\include\xtree
;	COMDAT ??$insert@$0A@$0A@@?$_Tree@V?$_Tset_traits@UTelegram@@U?$less@UTelegram@@@std@@V?$allocator@UTelegram@@@3@$0A@@std@@@std@@QAE?AU?$pair@V?$_Tree_const_iterator@V?$_Tree_val@U?$_Tree_simple_types@UTelegram@@@std@@@std@@@std@@_N@1@ABUTelegram@@@Z
_TEXT	SEGMENT
$T1 = -12						; size = 4
$T2 = -5						; size = 1
_this$ = -4						; size = 4
___$ReturnUdt$ = 8					; size = 4
__Val$ = 12						; size = 4
??$insert@$0A@$0A@@?$_Tree@V?$_Tset_traits@UTelegram@@U?$less@UTelegram@@@std@@V?$allocator@UTelegram@@@3@$0A@@std@@@std@@QAE?AU?$pair@V?$_Tree_const_iterator@V?$_Tree_val@U?$_Tree_simple_types@UTelegram@@@std@@@std@@@std@@_N@1@ABUTelegram@@@Z PROC ; std::_Tree<std::_Tset_traits<Telegram,std::less<Telegram>,std::allocator<Telegram>,0> >::insert<0,0>, COMDAT
; _this$ = ecx

; 1103 : 		{	// try to insert node with value _Val, favoring right side

	push	ebp
	mov	ebp, esp
	sub	esp, 12					; 0000000cH
	mov	DWORD PTR [ebp-12], -858993460		; ccccccccH
	mov	DWORD PTR [ebp-8], -858993460		; ccccccccH
	mov	DWORD PTR [ebp-4], -858993460		; ccccccccH
	mov	DWORD PTR _this$[ebp], ecx
	mov	DWORD PTR $T1[ebp], 0

; 1104 : 		return (_Insert_nohint(false, _Val, _Nil()));

	movzx	eax, BYTE PTR $T2[ebp]
	push	eax
	mov	ecx, DWORD PTR __Val$[ebp]
	push	ecx
	push	0
	mov	edx, DWORD PTR ___$ReturnUdt$[ebp]
	push	edx
	mov	ecx, DWORD PTR _this$[ebp]
	call	??$_Insert_nohint@ABUTelegram@@U_Nil@std@@@?$_Tree@V?$_Tset_traits@UTelegram@@U?$less@UTelegram@@@std@@V?$allocator@UTelegram@@@3@$0A@@std@@@std@@IAE?AU?$pair@V?$_Tree_const_iterator@V?$_Tree_val@U?$_Tree_simple_types@UTelegram@@@std@@@std@@@std@@_N@1@_NABUTelegram@@U_Nil@1@@Z ; std::_Tree<std::_Tset_traits<Telegram,std::less<Telegram>,std::allocator<Telegram>,0> >::_Insert_nohint<Telegram const &,std::_Nil>
	mov	eax, DWORD PTR $T1[ebp]
	or	eax, 1
	mov	DWORD PTR $T1[ebp], eax
	mov	eax, DWORD PTR ___$ReturnUdt$[ebp]

; 1105 : 		}

	add	esp, 12					; 0000000cH
	cmp	ebp, esp
	call	__RTC_CheckEsp
	mov	esp, ebp
	pop	ebp
	ret	8
??$insert@$0A@$0A@@?$_Tree@V?$_Tset_traits@UTelegram@@U?$less@UTelegram@@@std@@V?$allocator@UTelegram@@@3@$0A@@std@@@std@@QAE?AU?$pair@V?$_Tree_const_iterator@V?$_Tree_val@U?$_Tree_simple_types@UTelegram@@@std@@@std@@@std@@_N@1@ABUTelegram@@@Z ENDP ; std::_Tree<std::_Tset_traits<Telegram,std::less<Telegram>,std::allocator<Telegram>,0> >::insert<0,0>
_TEXT	ENDS
; Function compile flags: /Odtp /RTCsu
;	COMDAT ??__Finstance@?1??Instance@MessageDispatcher@@SAPAV1@XZ@YAXXZ
text$yd	SEGMENT
??__Finstance@?1??Instance@MessageDispatcher@@SAPAV1@XZ@YAXXZ PROC ; `MessageDispatcher::Instance'::`2'::`dynamic atexit destructor for 'instance'', COMDAT
	push	ebp
	mov	ebp, esp
	mov	ecx, OFFSET ?instance@?1??Instance@MessageDispatcher@@SAPAV2@XZ@4V2@A
	call	??1MessageDispatcher@@QAE@XZ
	cmp	ebp, esp
	call	__RTC_CheckEsp
	pop	ebp
	ret	0
??__Finstance@?1??Instance@MessageDispatcher@@SAPAV1@XZ@YAXXZ ENDP ; `MessageDispatcher::Instance'::`2'::`dynamic atexit destructor for 'instance''
text$yd	ENDS
; Function compile flags: /Odtp /RTCsu
; File d:\8iar125 - intelligence artificielle pour le jeu vidéo\projetfinal\common\misc\framecounter.h
;	COMDAT ?GetCurrentFrame@FrameCounter@@QAEJXZ
_TEXT	SEGMENT
_this$ = -4						; size = 4
?GetCurrentFrame@FrameCounter@@QAEJXZ PROC		; FrameCounter::GetCurrentFrame, COMDAT
; _this$ = ecx

; 27   :   long GetCurrentFrame(){return m_lCount;}

	push	ebp
	mov	ebp, esp
	push	ecx
	mov	DWORD PTR [ebp-4], -858993460		; ccccccccH
	mov	DWORD PTR _this$[ebp], ecx
	mov	eax, DWORD PTR _this$[ebp]
	mov	eax, DWORD PTR [eax]
	mov	esp, ebp
	pop	ebp
	ret	0
?GetCurrentFrame@FrameCounter@@QAEJXZ ENDP		; FrameCounter::GetCurrentFrame
_TEXT	ENDS
; Function compile flags: /Odtp /RTCsu
; File d:\8iar125 - intelligence artificielle pour le jeu vidéo\projetfinal\common\misc\utils.h
;	COMDAT ??__EMinFloat@@YAXXZ
text$di	SEGMENT
??__EMinFloat@@YAXXZ PROC				; `dynamic initializer for 'MinFloat'', COMDAT

; 27   : const float   MinFloat  = (std::numeric_limits<float>::min)();

	push	ebp
	mov	ebp, esp
	call	?min@?$numeric_limits@M@std@@SAMXZ	; std::numeric_limits<float>::min
	fstp	DWORD PTR ?MinFloat@@3MB
	cmp	ebp, esp
	call	__RTC_CheckEsp
	pop	ebp
	ret	0
??__EMinFloat@@YAXXZ ENDP				; `dynamic initializer for 'MinFloat''
text$di	ENDS
; Function compile flags: /Odtp /RTCsu
; File d:\8iar125 - intelligence artificielle pour le jeu vidéo\projetfinal\common\misc\utils.h
;	COMDAT ??__EMaxFloat@@YAXXZ
text$di	SEGMENT
??__EMaxFloat@@YAXXZ PROC				; `dynamic initializer for 'MaxFloat'', COMDAT

; 26   : const float   MaxFloat  = (std::numeric_limits<float>::max)();

	push	ebp
	mov	ebp, esp
	call	?max@?$numeric_limits@M@std@@SAMXZ	; std::numeric_limits<float>::max
	fstp	DWORD PTR ?MaxFloat@@3MB
	cmp	ebp, esp
	call	__RTC_CheckEsp
	pop	ebp
	ret	0
??__EMaxFloat@@YAXXZ ENDP				; `dynamic initializer for 'MaxFloat''
text$di	ENDS
; Function compile flags: /Odtp /RTCsu
; File d:\8iar125 - intelligence artificielle pour le jeu vidéo\projetfinal\common\misc\utils.h
;	COMDAT ??__EMinDouble@@YAXXZ
text$di	SEGMENT
??__EMinDouble@@YAXXZ PROC				; `dynamic initializer for 'MinDouble'', COMDAT

; 25   : const double  MinDouble = (std::numeric_limits<double>::min)();

	push	ebp
	mov	ebp, esp
	call	?min@?$numeric_limits@N@std@@SANXZ	; std::numeric_limits<double>::min
	fstp	QWORD PTR ?MinDouble@@3NB
	cmp	ebp, esp
	call	__RTC_CheckEsp
	pop	ebp
	ret	0
??__EMinDouble@@YAXXZ ENDP				; `dynamic initializer for 'MinDouble''
text$di	ENDS
; Function compile flags: /Odtp /RTCsu
; File d:\8iar125 - intelligence artificielle pour le jeu vidéo\projetfinal\common\misc\utils.h
;	COMDAT ??__EMaxDouble@@YAXXZ
text$di	SEGMENT
??__EMaxDouble@@YAXXZ PROC				; `dynamic initializer for 'MaxDouble'', COMDAT

; 24   : const double  MaxDouble = (std::numeric_limits<double>::max)();

	push	ebp
	mov	ebp, esp
	call	?max@?$numeric_limits@N@std@@SANXZ	; std::numeric_limits<double>::max
	fstp	QWORD PTR ?MaxDouble@@3NB
	cmp	ebp, esp
	call	__RTC_CheckEsp
	pop	ebp
	ret	0
??__EMaxDouble@@YAXXZ ENDP				; `dynamic initializer for 'MaxDouble''
text$di	ENDS
; Function compile flags: /Odtp /RTCsu
; File d:\8iar125 - intelligence artificielle pour le jeu vidéo\projetfinal\common\misc\utils.h
;	COMDAT ??__EMaxInt@@YAXXZ
text$di	SEGMENT
??__EMaxInt@@YAXXZ PROC					; `dynamic initializer for 'MaxInt'', COMDAT

; 23   : const int     MaxInt    = (std::numeric_limits<int>::max)();

	push	ebp
	mov	ebp, esp
	call	?max@?$numeric_limits@H@std@@SAHXZ	; std::numeric_limits<int>::max
	mov	DWORD PTR ?MaxInt@@3HB, eax
	cmp	ebp, esp
	call	__RTC_CheckEsp
	pop	ebp
	ret	0
??__EMaxInt@@YAXXZ ENDP					; `dynamic initializer for 'MaxInt''
text$di	ENDS
; Function compile flags: /Odtp /RTCsu
;	COMDAT ??1MessageDispatcher@@QAE@XZ
_TEXT	SEGMENT
_this$ = -4						; size = 4
??1MessageDispatcher@@QAE@XZ PROC			; MessageDispatcher::~MessageDispatcher, COMDAT
; _this$ = ecx
	push	ebp
	mov	ebp, esp
	push	ecx
	mov	DWORD PTR [ebp-4], -858993460		; ccccccccH
	mov	DWORD PTR _this$[ebp], ecx
	mov	ecx, DWORD PTR _this$[ebp]
	call	??1?$set@UTelegram@@U?$less@UTelegram@@@std@@V?$allocator@UTelegram@@@3@@std@@QAE@XZ
	add	esp, 4
	cmp	ebp, esp
	call	__RTC_CheckEsp
	mov	esp, ebp
	pop	ebp
	ret	0
??1MessageDispatcher@@QAE@XZ ENDP			; MessageDispatcher::~MessageDispatcher
_TEXT	ENDS
; Function compile flags: /Odtp /RTCsu
; File d:\8iar125 - intelligence artificielle pour le jeu vidéo\projetfinal\common\messaging\messagedispatcher.cpp
_TEXT	SEGMENT
tv207 = -124						; size = 4
tv204 = -120						; size = 4
tv217 = -116						; size = 4
tv137 = -112						; size = 4
tv198 = -108						; size = 4
tv213 = -104						; size = 4
tv193 = -100						; size = 4
tv209 = -96						; size = 4
$T2 = -92						; size = 4
$T3 = -88						; size = 12
$T4 = -76						; size = 4
$T5 = -72						; size = 12
$T6 = -60						; size = 12
$T7 = -48						; size = 12
$T8 = -33						; size = 1
_pReceiver$9 = -32					; size = 4
_telegram$10 = -28					; size = 4
_CurrentTime$ = -24					; size = 8
_this$ = -16						; size = 4
__$EHRec$ = -12						; size = 12
?DispatchDelayedMessages@MessageDispatcher@@QAEXXZ PROC	; MessageDispatcher::DispatchDelayedMessages
; _this$ = ecx

; 104  : { 

	push	ebp
	mov	ebp, esp
	push	-1
	push	__ehhandler$?DispatchDelayedMessages@MessageDispatcher@@QAEXXZ
	mov	eax, DWORD PTR fs:0
	push	eax
	sub	esp, 112				; 00000070H
	push	edi
	push	ecx
	lea	edi, DWORD PTR [ebp-124]
	mov	ecx, 28					; 0000001cH
	mov	eax, -858993460				; ccccccccH
	rep stosd
	pop	ecx
	mov	eax, DWORD PTR ___security_cookie
	xor	eax, ebp
	push	eax
	lea	eax, DWORD PTR __$EHRec$[ebp]
	mov	DWORD PTR fs:0, eax
	mov	DWORD PTR _this$[ebp], ecx
	mov	DWORD PTR $T2[ebp], 0

; 105  :   //first get current time
; 106  :   double CurrentTime = TickCounter->GetCurrentFrame(); 

	call	?Instance@FrameCounter@@SAPAV1@XZ	; FrameCounter::Instance
	mov	ecx, eax
	call	?GetCurrentFrame@FrameCounter@@QAEJXZ	; FrameCounter::GetCurrentFrame
	cvtsi2sd xmm0, eax
	movsd	QWORD PTR _CurrentTime$[ebp], xmm0
$LN2@DispatchDe:

; 107  : 
; 108  :   //now peek at the queue to see if any telegrams need dispatching.
; 109  :   //remove all telegrams from the front of the queue that have gone
; 110  :   //past their sell by date
; 111  :   while( !PriorityQ.empty() &&
; 112  : 	     (PriorityQ.begin()->DispatchTime < CurrentTime) && 

	mov	ecx, DWORD PTR _this$[ebp]
	call	?empty@?$_Tree@V?$_Tset_traits@UTelegram@@U?$less@UTelegram@@@std@@V?$allocator@UTelegram@@@3@$0A@@std@@@std@@QBE_NXZ ; std::_Tree<std::_Tset_traits<Telegram,std::less<Telegram>,std::allocator<Telegram>,0> >::empty
	movzx	eax, al
	test	eax, eax
	jne	SHORT $LN5@DispatchDe
	lea	ecx, DWORD PTR $T7[ebp]
	push	ecx
	mov	ecx, DWORD PTR _this$[ebp]
	call	?begin@?$_Tree@V?$_Tset_traits@UTelegram@@U?$less@UTelegram@@@std@@V?$allocator@UTelegram@@@3@$0A@@std@@@std@@QAE?AV?$_Tree_const_iterator@V?$_Tree_val@U?$_Tree_simple_types@UTelegram@@@std@@@std@@@2@XZ ; std::_Tree<std::_Tset_traits<Telegram,std::less<Telegram>,std::allocator<Telegram>,0> >::begin
	mov	DWORD PTR tv209[ebp], eax
	mov	edx, DWORD PTR tv209[ebp]
	mov	DWORD PTR tv193[ebp], edx
	mov	DWORD PTR __$EHRec$[ebp+8], 0
	mov	eax, DWORD PTR $T2[ebp]
	or	eax, 1
	mov	DWORD PTR $T2[ebp], eax
	mov	ecx, DWORD PTR tv193[ebp]
	call	??C?$_Tree_const_iterator@V?$_Tree_val@U?$_Tree_simple_types@UTelegram@@@std@@@std@@@std@@QBEPBUTelegram@@XZ ; std::_Tree_const_iterator<std::_Tree_val<std::_Tree_simple_types<Telegram> > >::operator->
	movsd	xmm0, QWORD PTR _CurrentTime$[ebp]
	comisd	xmm0, QWORD PTR [eax+16]
	jbe	SHORT $LN5@DispatchDe
	lea	ecx, DWORD PTR $T6[ebp]
	push	ecx
	mov	ecx, DWORD PTR _this$[ebp]
	call	?begin@?$_Tree@V?$_Tset_traits@UTelegram@@U?$less@UTelegram@@@std@@V?$allocator@UTelegram@@@3@$0A@@std@@@std@@QAE?AV?$_Tree_const_iterator@V?$_Tree_val@U?$_Tree_simple_types@UTelegram@@@std@@@std@@@2@XZ ; std::_Tree<std::_Tset_traits<Telegram,std::less<Telegram>,std::allocator<Telegram>,0> >::begin
	mov	DWORD PTR tv213[ebp], eax
	mov	edx, DWORD PTR tv213[ebp]
	mov	DWORD PTR tv198[ebp], edx
	mov	DWORD PTR __$EHRec$[ebp+8], 1
	mov	eax, DWORD PTR $T2[ebp]
	or	eax, 2
	mov	DWORD PTR $T2[ebp], eax
	mov	ecx, DWORD PTR tv198[ebp]
	call	??C?$_Tree_const_iterator@V?$_Tree_val@U?$_Tree_simple_types@UTelegram@@@std@@@std@@@std@@QBEPBUTelegram@@XZ ; std::_Tree_const_iterator<std::_Tree_val<std::_Tree_simple_types<Telegram> > >::operator->
	movsd	xmm0, QWORD PTR [eax+16]
	comisd	xmm0, QWORD PTR __real@0000000000000000
	jbe	SHORT $LN5@DispatchDe
	mov	DWORD PTR tv137[ebp], 1
	jmp	SHORT $LN6@DispatchDe
$LN5@DispatchDe:
	mov	DWORD PTR tv137[ebp], 0
$LN6@DispatchDe:
	mov	cl, BYTE PTR tv137[ebp]
	mov	BYTE PTR $T8[ebp], cl
	mov	DWORD PTR __$EHRec$[ebp+8], 0
	mov	edx, DWORD PTR $T2[ebp]
	and	edx, 2
	je	SHORT $LN11@DispatchDe
	and	DWORD PTR $T2[ebp], -3			; fffffffdH
	lea	ecx, DWORD PTR $T6[ebp]
	call	??1?$_Tree_const_iterator@V?$_Tree_val@U?$_Tree_simple_types@UTelegram@@@std@@@std@@@std@@QAE@XZ
$LN11@DispatchDe:
	mov	DWORD PTR __$EHRec$[ebp+8], -1
	mov	eax, DWORD PTR $T2[ebp]
	and	eax, 1
	je	SHORT $LN12@DispatchDe
	and	DWORD PTR $T2[ebp], -2			; fffffffeH
	lea	ecx, DWORD PTR $T7[ebp]
	call	??1?$_Tree_const_iterator@V?$_Tree_val@U?$_Tree_simple_types@UTelegram@@@std@@@std@@@std@@QAE@XZ
$LN12@DispatchDe:
	movzx	ecx, BYTE PTR $T8[ebp]
	test	ecx, ecx
	je	$LN3@DispatchDe

; 113  :          (PriorityQ.begin()->DispatchTime > 0) )
; 114  :   {
; 115  :     //read the telegram from the front of the queue
; 116  :     const Telegram& telegram = *PriorityQ.begin();

	lea	edx, DWORD PTR $T5[ebp]
	push	edx
	mov	ecx, DWORD PTR _this$[ebp]
	call	?begin@?$_Tree@V?$_Tset_traits@UTelegram@@U?$less@UTelegram@@@std@@V?$allocator@UTelegram@@@3@$0A@@std@@@std@@QAE?AV?$_Tree_const_iterator@V?$_Tree_val@U?$_Tree_simple_types@UTelegram@@@std@@@std@@@2@XZ ; std::_Tree<std::_Tset_traits<Telegram,std::less<Telegram>,std::allocator<Telegram>,0> >::begin
	mov	DWORD PTR tv217[ebp], eax
	mov	eax, DWORD PTR tv217[ebp]
	mov	DWORD PTR tv204[ebp], eax
	mov	DWORD PTR __$EHRec$[ebp+8], 2
	mov	ecx, DWORD PTR tv204[ebp]
	call	??D?$_Tree_const_iterator@V?$_Tree_val@U?$_Tree_simple_types@UTelegram@@@std@@@std@@@std@@QBEABUTelegram@@XZ ; std::_Tree_const_iterator<std::_Tree_val<std::_Tree_simple_types<Telegram> > >::operator*
	mov	DWORD PTR _telegram$10[ebp], eax
	mov	DWORD PTR __$EHRec$[ebp+8], -1
	lea	ecx, DWORD PTR $T5[ebp]
	call	??1?$_Tree_const_iterator@V?$_Tree_val@U?$_Tree_simple_types@UTelegram@@@std@@@std@@@std@@QAE@XZ

; 117  : 
; 118  :     //find the recipient
; 119  :     BaseGameEntity* pReceiver = EntityMgr->GetEntityFromID(telegram.Receiver);

	mov	ecx, DWORD PTR _telegram$10[ebp]
	mov	edx, DWORD PTR [ecx+4]
	push	edx
	call	?Instance@EntityManager@@SAPAV1@XZ	; EntityManager::Instance
	mov	ecx, eax
	call	?GetEntityFromID@EntityManager@@QBEPAVBaseGameEntity@@H@Z ; EntityManager::GetEntityFromID
	mov	DWORD PTR _pReceiver$9[ebp], eax

; 120  : 
; 121  :     #ifdef SHOW_MESSAGING_INFO
; 122  :     debug_con << "\nQueued telegram ready for dispatch: Sent to " 
; 123  :          << pReceiver->ID() << ". Msg is "<< telegram.Msg << "";
; 124  :     #endif
; 125  : 
; 126  :     //send the telegram to the recipient
; 127  :     Discharge(pReceiver, telegram);

	mov	eax, DWORD PTR _telegram$10[ebp]
	push	eax
	mov	ecx, DWORD PTR _pReceiver$9[ebp]
	push	ecx
	mov	ecx, DWORD PTR _this$[ebp]
	call	?Discharge@MessageDispatcher@@AAEXPAVBaseGameEntity@@ABUTelegram@@@Z ; MessageDispatcher::Discharge

; 128  : 
; 129  : 	//remove it from the queue
; 130  :     PriorityQ.erase(PriorityQ.begin());

	sub	esp, 12					; 0000000cH
	mov	edx, esp
	mov	DWORD PTR $T4[ebp], esp
	push	edx
	mov	ecx, DWORD PTR _this$[ebp]
	call	?begin@?$_Tree@V?$_Tset_traits@UTelegram@@U?$less@UTelegram@@@std@@V?$allocator@UTelegram@@@3@$0A@@std@@@std@@QAE?AV?$_Tree_const_iterator@V?$_Tree_val@U?$_Tree_simple_types@UTelegram@@@std@@@std@@@2@XZ ; std::_Tree<std::_Tset_traits<Telegram,std::less<Telegram>,std::allocator<Telegram>,0> >::begin
	lea	eax, DWORD PTR $T3[ebp]
	push	eax
	mov	ecx, DWORD PTR _this$[ebp]
	call	?erase@?$_Tree@V?$_Tset_traits@UTelegram@@U?$less@UTelegram@@@std@@V?$allocator@UTelegram@@@3@$0A@@std@@@std@@QAE?AV?$_Tree_const_iterator@V?$_Tree_val@U?$_Tree_simple_types@UTelegram@@@std@@@std@@@2@V32@@Z ; std::_Tree<std::_Tset_traits<Telegram,std::less<Telegram>,std::allocator<Telegram>,0> >::erase
	mov	DWORD PTR tv207[ebp], eax
	lea	ecx, DWORD PTR $T3[ebp]
	call	??1?$_Tree_const_iterator@V?$_Tree_val@U?$_Tree_simple_types@UTelegram@@@std@@@std@@@std@@QAE@XZ

; 131  :   }

	jmp	$LN2@DispatchDe
$LN3@DispatchDe:

; 132  : }

	mov	ecx, DWORD PTR __$EHRec$[ebp]
	mov	DWORD PTR fs:0, ecx
	pop	ecx
	pop	edi
	add	esp, 124				; 0000007cH
	cmp	ebp, esp
	call	__RTC_CheckEsp
	mov	esp, ebp
	pop	ebp
	ret	0
_TEXT	ENDS
text$x	SEGMENT
__unwindfunclet$?DispatchDelayedMessages@MessageDispatcher@@QAEXXZ$0:
	mov	eax, DWORD PTR $T2[ebp]
	and	eax, 1
	je	$LN8@DispatchDe
	and	DWORD PTR $T2[ebp], -2			; fffffffeH
	lea	ecx, DWORD PTR $T7[ebp]
	jmp	??1?$_Tree_const_iterator@V?$_Tree_val@U?$_Tree_simple_types@UTelegram@@@std@@@std@@@std@@QAE@XZ
$LN8@DispatchDe:
	ret	0
__unwindfunclet$?DispatchDelayedMessages@MessageDispatcher@@QAEXXZ$1:
	mov	eax, DWORD PTR $T2[ebp]
	and	eax, 2
	je	$LN10@DispatchDe
	and	DWORD PTR $T2[ebp], -3			; fffffffdH
	lea	ecx, DWORD PTR $T6[ebp]
	jmp	??1?$_Tree_const_iterator@V?$_Tree_val@U?$_Tree_simple_types@UTelegram@@@std@@@std@@@std@@QAE@XZ
$LN10@DispatchDe:
	ret	0
__unwindfunclet$?DispatchDelayedMessages@MessageDispatcher@@QAEXXZ$2:
	lea	ecx, DWORD PTR $T5[ebp]
	jmp	??1?$_Tree_const_iterator@V?$_Tree_val@U?$_Tree_simple_types@UTelegram@@@std@@@std@@@std@@QAE@XZ
__ehhandler$?DispatchDelayedMessages@MessageDispatcher@@QAEXXZ:
	mov	edx, DWORD PTR [esp+8]
	lea	eax, DWORD PTR [edx+12]
	mov	ecx, DWORD PTR [edx-120]
	xor	ecx, eax
	call	@__security_check_cookie@4
	mov	eax, OFFSET __ehfuncinfo$?DispatchDelayedMessages@MessageDispatcher@@QAEXXZ
	jmp	___CxxFrameHandler3
text$x	ENDS
?DispatchDelayedMessages@MessageDispatcher@@QAEXXZ ENDP	; MessageDispatcher::DispatchDelayedMessages
; Function compile flags: /Odtp /RTCsu
; File d:\8iar125 - intelligence artificielle pour le jeu vidéo\projetfinal\common\messaging\messagedispatcher.cpp
_TEXT	SEGMENT
$T1 = -72						; size = 16
_CurrentTime$2 = -56					; size = 8
_telegram$ = -44					; size = 32
_pReceiver$ = -8					; size = 4
_this$ = -4						; size = 4
_delay$ = 8						; size = 8
_sender$ = 16						; size = 4
_receiver$ = 20						; size = 4
_msg$ = 24						; size = 4
_AdditionalInfo$ = 28					; size = 4
?DispatchMsg@MessageDispatcher@@QAEXNHHHPAX@Z PROC	; MessageDispatcher::DispatchMsg
; _this$ = ecx

; 49   : {

	push	ebp
	mov	ebp, esp
	sub	esp, 72					; 00000048H
	push	edi
	push	ecx
	lea	edi, DWORD PTR [ebp-72]
	mov	ecx, 18					; 00000012H
	mov	eax, -858993460				; ccccccccH
	rep stosd
	pop	ecx
	mov	DWORD PTR _this$[ebp], ecx

; 50   : 
; 51   :   //get a pointer to the receiver
; 52   :   BaseGameEntity* pReceiver = EntityMgr->GetEntityFromID(receiver);

	mov	eax, DWORD PTR _receiver$[ebp]
	push	eax
	call	?Instance@EntityManager@@SAPAV1@XZ	; EntityManager::Instance
	mov	ecx, eax
	call	?GetEntityFromID@EntityManager@@QBEPAVBaseGameEntity@@H@Z ; EntityManager::GetEntityFromID
	mov	DWORD PTR _pReceiver$[ebp], eax

; 53   : 
; 54   :   //make sure the receiver is valid
; 55   :   if (pReceiver == NULL)

	cmp	DWORD PTR _pReceiver$[ebp], 0
	jne	SHORT $LN2@DispatchMs

; 56   :   {
; 57   :     #ifdef SHOW_MESSAGING_INFO
; 58   :     debug_con << "\nWarning! No Receiver with ID of " << receiver << " found" << "";
; 59   :     #endif
; 60   : 
; 61   :     return;

	jmp	SHORT $LN1@DispatchMs
$LN2@DispatchMs:

; 62   :   }
; 63   :   
; 64   :   //create the telegram
; 65   :   Telegram telegram(0, sender, receiver, msg, AdditionalInfo);

	mov	ecx, DWORD PTR _AdditionalInfo$[ebp]
	push	ecx
	mov	edx, DWORD PTR _msg$[ebp]
	push	edx
	mov	eax, DWORD PTR _receiver$[ebp]
	push	eax
	mov	ecx, DWORD PTR _sender$[ebp]
	push	ecx
	sub	esp, 8
	xorps	xmm0, xmm0
	movsd	QWORD PTR [esp], xmm0
	lea	ecx, DWORD PTR _telegram$[ebp]
	call	??0Telegram@@QAE@NHHHPAX@Z		; Telegram::Telegram

; 66   :   
; 67   :   //if there is no delay, route telegram immediately                       
; 68   :   if (delay <= 0.0)                                                        

	xorps	xmm0, xmm0
	comisd	xmm0, QWORD PTR _delay$[ebp]
	jb	SHORT $LN3@DispatchMs

; 69   :   {
; 70   :     #ifdef SHOW_MESSAGING_INFO
; 71   :     debug_con << "\nTelegram dispatched at time: " << TickCounter->GetCurrentFrame()
; 72   :          << " by " << sender << " for " << receiver 
; 73   :          << ". Msg is " << msg << "";
; 74   :     #endif
; 75   : 
; 76   :     //send the telegram to the recipient
; 77   :     Discharge(pReceiver, telegram);

	lea	edx, DWORD PTR _telegram$[ebp]
	push	edx
	mov	eax, DWORD PTR _pReceiver$[ebp]
	push	eax
	mov	ecx, DWORD PTR _this$[ebp]
	call	?Discharge@MessageDispatcher@@AAEXPAVBaseGameEntity@@ABUTelegram@@@Z ; MessageDispatcher::Discharge

; 78   :   }
; 79   : 
; 80   :   //else calculate the time when the telegram should be dispatched
; 81   :   else

	jmp	SHORT $LN4@DispatchMs
$LN3@DispatchMs:

; 82   :   {
; 83   :     double CurrentTime = TickCounter->GetCurrentFrame(); 

	call	?Instance@FrameCounter@@SAPAV1@XZ	; FrameCounter::Instance
	mov	ecx, eax
	call	?GetCurrentFrame@FrameCounter@@QAEJXZ	; FrameCounter::GetCurrentFrame
	cvtsi2sd xmm0, eax
	movsd	QWORD PTR _CurrentTime$2[ebp], xmm0

; 84   : 
; 85   :     telegram.DispatchTime = CurrentTime + delay;

	movsd	xmm0, QWORD PTR _CurrentTime$2[ebp]
	addsd	xmm0, QWORD PTR _delay$[ebp]
	movsd	QWORD PTR _telegram$[ebp+16], xmm0

; 86   : 
; 87   :     //and put it in the queue
; 88   :     PriorityQ.insert(telegram);   

	lea	ecx, DWORD PTR _telegram$[ebp]
	push	ecx
	lea	edx, DWORD PTR $T1[ebp]
	push	edx
	mov	ecx, DWORD PTR _this$[ebp]
	call	??$insert@$0A@$0A@@?$_Tree@V?$_Tset_traits@UTelegram@@U?$less@UTelegram@@@std@@V?$allocator@UTelegram@@@3@$0A@@std@@@std@@QAE?AU?$pair@V?$_Tree_const_iterator@V?$_Tree_val@U?$_Tree_simple_types@UTelegram@@@std@@@std@@@std@@_N@1@ABUTelegram@@@Z ; std::_Tree<std::_Tset_traits<Telegram,std::less<Telegram>,std::allocator<Telegram>,0> >::insert<0,0>
	lea	ecx, DWORD PTR $T1[ebp]
	call	??1?$pair@V?$_Tree_const_iterator@V?$_Tree_val@U?$_Tree_simple_types@UTelegram@@@std@@@std@@@std@@_N@std@@QAE@XZ
$LN4@DispatchMs:
$LN1@DispatchMs:

; 89   : 
; 90   :     #ifdef SHOW_MESSAGING_INFO
; 91   :     debug_con << "\nDelayed telegram from " << sender << " recorded at time " 
; 92   :             << TickCounter->GetCurrentFrame() << " for " << receiver
; 93   :             << ". Msg is " << msg << "";
; 94   :     #endif
; 95   :   }
; 96   : }

	push	edx
	mov	ecx, ebp
	push	eax
	lea	edx, DWORD PTR $LN9@DispatchMs
	call	@_RTC_CheckStackVars@8
	pop	eax
	pop	edx
	pop	edi
	add	esp, 72					; 00000048H
	cmp	ebp, esp
	call	__RTC_CheckEsp
	mov	esp, ebp
	pop	ebp
	ret	24					; 00000018H
	npad	1
$LN9@DispatchMs:
	DD	1
	DD	$LN8@DispatchMs
$LN8@DispatchMs:
	DD	-44					; ffffffd4H
	DD	32					; 00000020H
	DD	$LN7@DispatchMs
$LN7@DispatchMs:
	DB	116					; 00000074H
	DB	101					; 00000065H
	DB	108					; 0000006cH
	DB	101					; 00000065H
	DB	103					; 00000067H
	DB	114					; 00000072H
	DB	97					; 00000061H
	DB	109					; 0000006dH
	DB	0
?DispatchMsg@MessageDispatcher@@QAEXNHHHPAX@Z ENDP	; MessageDispatcher::DispatchMsg
_TEXT	ENDS
; Function compile flags: /Odtp /RTCsu
; File d:\8iar125 - intelligence artificielle pour le jeu vidéo\projetfinal\common\messaging\messagedispatcher.cpp
_TEXT	SEGMENT
__$EHRec$ = -12						; size = 12
?Instance@MessageDispatcher@@SAPAV1@XZ PROC		; MessageDispatcher::Instance

; 17   : {

	push	ebp
	mov	ebp, esp
	push	-1
	push	__ehhandler$?Instance@MessageDispatcher@@SAPAV1@XZ
	mov	eax, DWORD PTR fs:0
	push	eax
	mov	eax, DWORD PTR ___security_cookie
	xor	eax, ebp
	push	eax
	lea	eax, DWORD PTR __$EHRec$[ebp]
	mov	DWORD PTR fs:0, eax

; 18   :   static MessageDispatcher instance; 

	mov	eax, DWORD PTR __tls_index
	mov	ecx, DWORD PTR fs:__tls_array
	mov	edx, DWORD PTR [ecx+eax*4]
	mov	eax, DWORD PTR ?$TSS0@?1??Instance@MessageDispatcher@@SAPAV2@XZ@4HA
	cmp	eax, DWORD PTR __Init_thread_epoch[edx]
	jle	SHORT $LN2@Instance
	push	OFFSET ?$TSS0@?1??Instance@MessageDispatcher@@SAPAV2@XZ@4HA
	call	__Init_thread_header
	add	esp, 4
	cmp	DWORD PTR ?$TSS0@?1??Instance@MessageDispatcher@@SAPAV2@XZ@4HA, -1
	jne	SHORT $LN2@Instance
	mov	DWORD PTR __$EHRec$[ebp+8], 0
	mov	ecx, OFFSET ?instance@?1??Instance@MessageDispatcher@@SAPAV2@XZ@4V2@A
	call	??0MessageDispatcher@@AAE@XZ		; MessageDispatcher::MessageDispatcher
	push	OFFSET ??__Finstance@?1??Instance@MessageDispatcher@@SAPAV1@XZ@YAXXZ ; `MessageDispatcher::Instance'::`2'::`dynamic atexit destructor for 'instance''
	call	_atexit
	add	esp, 4
	mov	DWORD PTR __$EHRec$[ebp+8], -1
	push	OFFSET ?$TSS0@?1??Instance@MessageDispatcher@@SAPAV2@XZ@4HA
	call	__Init_thread_footer
	add	esp, 4
$LN2@Instance:

; 19   :   
; 20   :   return &instance;

	mov	eax, OFFSET ?instance@?1??Instance@MessageDispatcher@@SAPAV2@XZ@4V2@A

; 21   : }

	mov	ecx, DWORD PTR __$EHRec$[ebp]
	mov	DWORD PTR fs:0, ecx
	pop	ecx
	add	esp, 12					; 0000000cH
	cmp	ebp, esp
	call	__RTC_CheckEsp
	mov	esp, ebp
	pop	ebp
	ret	0
_TEXT	ENDS
text$x	SEGMENT
__unwindfunclet$?Instance@MessageDispatcher@@SAPAV1@XZ$0:
	push	OFFSET ?$TSS0@?1??Instance@MessageDispatcher@@SAPAV2@XZ@4HA
	call	__Init_thread_abort
	pop	ecx
	ret	0
__ehhandler$?Instance@MessageDispatcher@@SAPAV1@XZ:
	mov	edx, DWORD PTR [esp+8]
	lea	eax, DWORD PTR [edx+12]
	mov	ecx, DWORD PTR [edx-4]
	xor	ecx, eax
	call	@__security_check_cookie@4
	mov	eax, OFFSET __ehfuncinfo$?Instance@MessageDispatcher@@SAPAV1@XZ
	jmp	___CxxFrameHandler3
text$x	ENDS
?Instance@MessageDispatcher@@SAPAV1@XZ ENDP		; MessageDispatcher::Instance
; Function compile flags: /Odtp /RTCsu
; File d:\8iar125 - intelligence artificielle pour le jeu vidéo\projetfinal\common\messaging\messagedispatcher.h
;	COMDAT ??0MessageDispatcher@@AAE@XZ
_TEXT	SEGMENT
_this$ = -4						; size = 4
??0MessageDispatcher@@AAE@XZ PROC			; MessageDispatcher::MessageDispatcher, COMDAT
; _this$ = ecx

; 47   :   MessageDispatcher(){}

	push	ebp
	mov	ebp, esp
	push	ecx
	mov	DWORD PTR [ebp-4], -858993460		; ccccccccH
	mov	DWORD PTR _this$[ebp], ecx
	mov	ecx, DWORD PTR _this$[ebp]
	call	??0?$set@UTelegram@@U?$less@UTelegram@@@std@@V?$allocator@UTelegram@@@3@@std@@QAE@XZ ; std::set<Telegram,std::less<Telegram>,std::allocator<Telegram> >::set<Telegram,std::less<Telegram>,std::allocator<Telegram> >
	mov	eax, DWORD PTR _this$[ebp]
	add	esp, 4
	cmp	ebp, esp
	call	__RTC_CheckEsp
	mov	esp, ebp
	pop	ebp
	ret	0
??0MessageDispatcher@@AAE@XZ ENDP			; MessageDispatcher::MessageDispatcher
_TEXT	ENDS
; Function compile flags: /Odtp /RTCsu
; File d:\8iar125 - intelligence artificielle pour le jeu vidéo\projetfinal\common\messaging\messagedispatcher.cpp
_TEXT	SEGMENT
_this$ = -4						; size = 4
_pReceiver$ = 8						; size = 4
_telegram$ = 12						; size = 4
?Discharge@MessageDispatcher@@AAEXPAVBaseGameEntity@@ABUTelegram@@@Z PROC ; MessageDispatcher::Discharge
; _this$ = ecx

; 28   : {

	push	ebp
	mov	ebp, esp
	push	ecx
	push	esi
	mov	DWORD PTR [ebp-4], -858993460		; ccccccccH
	mov	DWORD PTR _this$[ebp], ecx

; 29   :   if (!pReceiver->HandleMessage(telegram))

	mov	esi, esp
	mov	eax, DWORD PTR _telegram$[ebp]
	push	eax
	mov	ecx, DWORD PTR _pReceiver$[ebp]
	mov	edx, DWORD PTR [ecx]
	mov	ecx, DWORD PTR _pReceiver$[ebp]
	mov	eax, DWORD PTR [edx+12]
	call	eax
	cmp	esi, esp
	call	__RTC_CheckEsp

; 30   :   {
; 31   :     //telegram could not be handled
; 32   :     #ifdef SHOW_MESSAGING_INFO
; 33   :     debug_con << "Message not handled" << "";
; 34   :     #endif
; 35   :   }
; 36   : }

	pop	esi
	add	esp, 4
	cmp	ebp, esp
	call	__RTC_CheckEsp
	mov	esp, ebp
	pop	ebp
	ret	8
?Discharge@MessageDispatcher@@AAEXPAVBaseGameEntity@@ABUTelegram@@@Z ENDP ; MessageDispatcher::Discharge
_TEXT	ENDS
; Function compile flags: /Odtp /RTCsu
;	COMDAT ??1?$set@UTelegram@@U?$less@UTelegram@@@std@@V?$allocator@UTelegram@@@3@@std@@QAE@XZ
_TEXT	SEGMENT
_this$ = -4						; size = 4
??1?$set@UTelegram@@U?$less@UTelegram@@@std@@V?$allocator@UTelegram@@@3@@std@@QAE@XZ PROC ; std::set<Telegram,std::less<Telegram>,std::allocator<Telegram> >::~set<Telegram,std::less<Telegram>,std::allocator<Telegram> >, COMDAT
; _this$ = ecx
	push	ebp
	mov	ebp, esp
	push	ecx
	mov	DWORD PTR [ebp-4], -858993460		; ccccccccH
	mov	DWORD PTR _this$[ebp], ecx
	mov	ecx, DWORD PTR _this$[ebp]
	call	??1?$_Tree@V?$_Tset_traits@UTelegram@@U?$less@UTelegram@@@std@@V?$allocator@UTelegram@@@3@$0A@@std@@@std@@QAE@XZ ; std::_Tree<std::_Tset_traits<Telegram,std::less<Telegram>,std::allocator<Telegram>,0> >::~_Tree<std::_Tset_traits<Telegram,std::less<Telegram>,std::allocator<Telegram>,0> >
	add	esp, 4
	cmp	ebp, esp
	call	__RTC_CheckEsp
	mov	esp, ebp
	pop	ebp
	ret	0
??1?$set@UTelegram@@U?$less@UTelegram@@@std@@V?$allocator@UTelegram@@@3@@std@@QAE@XZ ENDP ; std::set<Telegram,std::less<Telegram>,std::allocator<Telegram> >::~set<Telegram,std::less<Telegram>,std::allocator<Telegram> >
_TEXT	ENDS
; Function compile flags: /Odtp /RTCsu
; File c:\program files (x86)\microsoft visual studio\2017\community\vc\tools\msvc\14.11.25503\include\set
;	COMDAT ??0?$set@UTelegram@@U?$less@UTelegram@@@std@@V?$allocator@UTelegram@@@3@@std@@QAE@XZ
_TEXT	SEGMENT
$T1 = -5						; size = 1
_this$ = -4						; size = 4
??0?$set@UTelegram@@U?$less@UTelegram@@@std@@V?$allocator@UTelegram@@@3@@std@@QAE@XZ PROC ; std::set<Telegram,std::less<Telegram>,std::allocator<Telegram> >::set<Telegram,std::less<Telegram>,std::allocator<Telegram> >, COMDAT
; _this$ = ecx

; 72   : 		{	// construct empty set from defaults

	push	ebp
	mov	ebp, esp
	sub	esp, 8
	mov	DWORD PTR [ebp-8], -858993460		; ccccccccH
	mov	DWORD PTR [ebp-4], -858993460		; ccccccccH
	mov	DWORD PTR _this$[ebp], ecx

; 71   : 		: _Mybase(key_compare())

	lea	eax, DWORD PTR $T1[ebp]
	push	eax
	mov	ecx, DWORD PTR _this$[ebp]
	call	??0?$_Tree@V?$_Tset_traits@UTelegram@@U?$less@UTelegram@@@std@@V?$allocator@UTelegram@@@3@$0A@@std@@@std@@QAE@ABU?$less@UTelegram@@@1@@Z ; std::_Tree<std::_Tset_traits<Telegram,std::less<Telegram>,std::allocator<Telegram>,0> >::_Tree<std::_Tset_traits<Telegram,std::less<Telegram>,std::allocator<Telegram>,0> >

; 73   : 		}

	mov	eax, DWORD PTR _this$[ebp]
	add	esp, 8
	cmp	ebp, esp
	call	__RTC_CheckEsp
	mov	esp, ebp
	pop	ebp
	ret	0
??0?$set@UTelegram@@U?$less@UTelegram@@@std@@V?$allocator@UTelegram@@@3@@std@@QAE@XZ ENDP ; std::set<Telegram,std::less<Telegram>,std::allocator<Telegram> >::set<Telegram,std::less<Telegram>,std::allocator<Telegram> >
_TEXT	ENDS
; Function compile flags: /Odtp /RTCsu
; File c:\program files (x86)\microsoft visual studio\2017\community\vc\tools\msvc\14.11.25503\include\xtree
;	COMDAT ?_Key@?$_Tree@V?$_Tset_traits@UTelegram@@U?$less@UTelegram@@@std@@V?$allocator@UTelegram@@@3@$0A@@std@@@std@@IBEABUTelegram@@PAU?$_Tree_node@UTelegram@@PAX@2@@Z
_TEXT	SEGMENT
_this$ = -4						; size = 4
__Pnode$ = 8						; size = 4
?_Key@?$_Tree@V?$_Tset_traits@UTelegram@@U?$less@UTelegram@@@std@@V?$allocator@UTelegram@@@3@$0A@@std@@@std@@IBEABUTelegram@@PAU?$_Tree_node@UTelegram@@PAX@2@@Z PROC ; std::_Tree<std::_Tset_traits<Telegram,std::less<Telegram>,std::allocator<Telegram>,0> >::_Key, COMDAT
; _this$ = ecx

; 2163 : 		{	// return reference to key in node

	push	ebp
	mov	ebp, esp
	push	ecx
	mov	DWORD PTR [ebp-4], -858993460		; ccccccccH
	mov	DWORD PTR _this$[ebp], ecx

; 2164 : 		return ((const key_type&)this->_Kfn(_Pnode->_Myval));

	mov	eax, DWORD PTR __Pnode$[ebp]
	add	eax, 16					; 00000010H
	push	eax
	mov	ecx, DWORD PTR _this$[ebp]
	call	?_Kfn@?$_Tree@V?$_Tset_traits@UTelegram@@U?$less@UTelegram@@@std@@V?$allocator@UTelegram@@@3@$0A@@std@@@std@@IBEABUTelegram@@ABU3@@Z ; std::_Tree<std::_Tset_traits<Telegram,std::less<Telegram>,std::allocator<Telegram>,0> >::_Kfn

; 2165 : 		}

	add	esp, 4
	cmp	ebp, esp
	call	__RTC_CheckEsp
	mov	esp, ebp
	pop	ebp
	ret	4
?_Key@?$_Tree@V?$_Tset_traits@UTelegram@@U?$less@UTelegram@@@std@@V?$allocator@UTelegram@@@3@$0A@@std@@@std@@IBEABUTelegram@@PAU?$_Tree_node@UTelegram@@PAX@2@@Z ENDP ; std::_Tree<std::_Tset_traits<Telegram,std::less<Telegram>,std::allocator<Telegram>,0> >::_Key
_TEXT	ENDS
; Function compile flags: /Odtp /RTCsu
; File c:\program files (x86)\microsoft visual studio\2017\community\vc\tools\msvc\14.11.25503\include\xtree
;	COMDAT ?_Kfn@?$_Tree@V?$_Tset_traits@UTelegram@@U?$less@UTelegram@@@std@@V?$allocator@UTelegram@@@3@$0A@@std@@@std@@IBEABUTelegram@@ABU3@@Z
_TEXT	SEGMENT
_this$ = -4						; size = 4
__Val$ = 8						; size = 4
?_Kfn@?$_Tree@V?$_Tset_traits@UTelegram@@U?$less@UTelegram@@@std@@V?$allocator@UTelegram@@@3@$0A@@std@@@std@@IBEABUTelegram@@ABU3@@Z PROC ; std::_Tree<std::_Tset_traits<Telegram,std::less<Telegram>,std::allocator<Telegram>,0> >::_Kfn, COMDAT
; _this$ = ecx

; 2158 : 		{	// get key from value

	push	ebp
	mov	ebp, esp
	push	ecx
	mov	DWORD PTR [ebp-4], -858993460		; ccccccccH
	mov	DWORD PTR _this$[ebp], ecx

; 2159 : 		return (_Traits::_Kfn(_Val));

	mov	eax, DWORD PTR __Val$[ebp]
	push	eax
	call	?_Kfn@?$_Tset_traits@UTelegram@@U?$less@UTelegram@@@std@@V?$allocator@UTelegram@@@3@$0A@@std@@SAABUTelegram@@ABU3@@Z ; std::_Tset_traits<Telegram,std::less<Telegram>,std::allocator<Telegram>,0>::_Kfn
	add	esp, 4

; 2160 : 		}

	add	esp, 4
	cmp	ebp, esp
	call	__RTC_CheckEsp
	mov	esp, ebp
	pop	ebp
	ret	4
?_Kfn@?$_Tree@V?$_Tset_traits@UTelegram@@U?$less@UTelegram@@@std@@V?$allocator@UTelegram@@@3@$0A@@std@@@std@@IBEABUTelegram@@ABU3@@Z ENDP ; std::_Tree<std::_Tset_traits<Telegram,std::less<Telegram>,std::allocator<Telegram>,0> >::_Kfn
_TEXT	ENDS
; Function compile flags: /Odtp /RTCsu
; File c:\program files (x86)\microsoft visual studio\2017\community\vc\tools\msvc\14.11.25503\include\xtree
;	COMDAT ?_Tidy@?$_Tree@V?$_Tset_traits@UTelegram@@U?$less@UTelegram@@@std@@V?$allocator@UTelegram@@@3@$0A@@std@@@std@@IAEXXZ
_TEXT	SEGMENT
tv129 = -28						; size = 4
$T1 = -24						; size = 12
$T2 = -12						; size = 4
$T3 = -8						; size = 4
_this$ = -4						; size = 4
?_Tidy@?$_Tree@V?$_Tset_traits@UTelegram@@U?$less@UTelegram@@@std@@V?$allocator@UTelegram@@@3@$0A@@std@@@std@@IAEXXZ PROC ; std::_Tree<std::_Tset_traits<Telegram,std::less<Telegram>,std::allocator<Telegram>,0> >::_Tidy, COMDAT
; _this$ = ecx

; 2153 : 		{	// free all storage

	push	ebp
	mov	ebp, esp
	sub	esp, 28					; 0000001cH
	mov	eax, -858993460				; ccccccccH
	mov	DWORD PTR [ebp-28], eax
	mov	DWORD PTR [ebp-24], eax
	mov	DWORD PTR [ebp-20], eax
	mov	DWORD PTR [ebp-16], eax
	mov	DWORD PTR [ebp-12], eax
	mov	DWORD PTR [ebp-8], eax
	mov	DWORD PTR [ebp-4], eax
	mov	DWORD PTR _this$[ebp], ecx

; 2154 : 		erase(begin(), end());

	sub	esp, 12					; 0000000cH
	mov	eax, esp
	mov	DWORD PTR $T3[ebp], esp
	push	eax
	mov	ecx, DWORD PTR _this$[ebp]
	call	?end@?$_Tree@V?$_Tset_traits@UTelegram@@U?$less@UTelegram@@@std@@V?$allocator@UTelegram@@@3@$0A@@std@@@std@@QAE?AV?$_Tree_const_iterator@V?$_Tree_val@U?$_Tree_simple_types@UTelegram@@@std@@@std@@@2@XZ ; std::_Tree<std::_Tset_traits<Telegram,std::less<Telegram>,std::allocator<Telegram>,0> >::end
	sub	esp, 12					; 0000000cH
	mov	ecx, esp
	mov	DWORD PTR $T2[ebp], esp
	push	ecx
	mov	ecx, DWORD PTR _this$[ebp]
	call	?begin@?$_Tree@V?$_Tset_traits@UTelegram@@U?$less@UTelegram@@@std@@V?$allocator@UTelegram@@@3@$0A@@std@@@std@@QAE?AV?$_Tree_const_iterator@V?$_Tree_val@U?$_Tree_simple_types@UTelegram@@@std@@@std@@@2@XZ ; std::_Tree<std::_Tset_traits<Telegram,std::less<Telegram>,std::allocator<Telegram>,0> >::begin
	lea	edx, DWORD PTR $T1[ebp]
	push	edx
	mov	ecx, DWORD PTR _this$[ebp]
	call	?erase@?$_Tree@V?$_Tset_traits@UTelegram@@U?$less@UTelegram@@@std@@V?$allocator@UTelegram@@@3@$0A@@std@@@std@@QAE?AV?$_Tree_const_iterator@V?$_Tree_val@U?$_Tree_simple_types@UTelegram@@@std@@@std@@@2@V32@0@Z ; std::_Tree<std::_Tset_traits<Telegram,std::less<Telegram>,std::allocator<Telegram>,0> >::erase
	mov	DWORD PTR tv129[ebp], eax
	lea	ecx, DWORD PTR $T1[ebp]
	call	??1?$_Tree_const_iterator@V?$_Tree_val@U?$_Tree_simple_types@UTelegram@@@std@@@std@@@std@@QAE@XZ

; 2155 : 		}

	add	esp, 28					; 0000001cH
	cmp	ebp, esp
	call	__RTC_CheckEsp
	mov	esp, ebp
	pop	ebp
	ret	0
?_Tidy@?$_Tree@V?$_Tset_traits@UTelegram@@U?$less@UTelegram@@@std@@V?$allocator@UTelegram@@@3@$0A@@std@@@std@@IAEXXZ ENDP ; std::_Tree<std::_Tset_traits<Telegram,std::less<Telegram>,std::allocator<Telegram>,0> >::_Tidy
_TEXT	ENDS
; Function compile flags: /Odtp /RTCsu
; File c:\program files (x86)\microsoft visual studio\2017\community\vc\tools\msvc\14.11.25503\include\xtree
;	COMDAT ?_Orphan_ptr@?$_Tree@V?$_Tset_traits@UTelegram@@U?$less@UTelegram@@@std@@V?$allocator@UTelegram@@@3@$0A@@std@@@std@@IAEXPAU?$_Tree_node@UTelegram@@PAX@2@@Z
_TEXT	SEGMENT
__Pnext$ = -32						; size = 4
__Lock$ = -24						; size = 4
_this$ = -16						; size = 4
__$EHRec$ = -12						; size = 12
__Ptr$ = 8						; size = 4
?_Orphan_ptr@?$_Tree@V?$_Tset_traits@UTelegram@@U?$less@UTelegram@@@std@@V?$allocator@UTelegram@@@3@$0A@@std@@@std@@IAEXPAU?$_Tree_node@UTelegram@@PAX@2@@Z PROC ; std::_Tree<std::_Tset_traits<Telegram,std::less<Telegram>,std::allocator<Telegram>,0> >::_Orphan_ptr, COMDAT
; _this$ = ecx

; 2130 : 		{	// orphan iterators with specified node pointers

	push	ebp
	mov	ebp, esp
	push	-1
	push	__ehhandler$?_Orphan_ptr@?$_Tree@V?$_Tset_traits@UTelegram@@U?$less@UTelegram@@@std@@V?$allocator@UTelegram@@@3@$0A@@std@@@std@@IAEXPAU?$_Tree_node@UTelegram@@PAX@2@@Z
	mov	eax, DWORD PTR fs:0
	push	eax
	sub	esp, 20					; 00000014H
	push	esi
	mov	eax, -858993460				; ccccccccH
	mov	DWORD PTR [ebp-32], eax
	mov	DWORD PTR [ebp-28], eax
	mov	DWORD PTR [ebp-24], eax
	mov	DWORD PTR [ebp-20], eax
	mov	DWORD PTR [ebp-16], eax
	mov	eax, DWORD PTR ___security_cookie
	xor	eax, ebp
	push	eax
	lea	eax, DWORD PTR __$EHRec$[ebp]
	mov	DWORD PTR fs:0, eax
	mov	DWORD PTR _this$[ebp], ecx

; 2131 : 		_Lockit _Lock(_LOCK_DEBUG);

	push	3
	lea	ecx, DWORD PTR __Lock$[ebp]
	call	??0_Lockit@std@@QAE@H@Z			; std::_Lockit::_Lockit
	mov	DWORD PTR __$EHRec$[ebp+8], 0

; 2132 : 		const_iterator **_Pnext = (const_iterator **)this->_Getpfirst();

	mov	ecx, DWORD PTR _this$[ebp]
	call	?_Getpfirst@?$_Tree_comp_alloc@V?$_Tset_traits@UTelegram@@U?$less@UTelegram@@@std@@V?$allocator@UTelegram@@@3@$0A@@std@@@std@@QBEPAPAU_Iterator_base12@2@XZ ; std::_Tree_comp_alloc<std::_Tset_traits<Telegram,std::less<Telegram>,std::allocator<Telegram>,0> >::_Getpfirst
	mov	DWORD PTR __Pnext$[ebp], eax

; 2133 : 		if (_Pnext != 0)

	cmp	DWORD PTR __Pnext$[ebp], 0
	je	SHORT $LN4@Orphan_ptr
$LN2@Orphan_ptr:

; 2134 : 			{
; 2135 : 			while (*_Pnext != 0)

	mov	eax, DWORD PTR __Pnext$[ebp]
	cmp	DWORD PTR [eax], 0
	je	SHORT $LN4@Orphan_ptr

; 2136 : 				{
; 2137 : 				if ((*_Pnext)->_Ptr == this->_Myhead()
; 2138 : 					|| (_Ptr != nullptr && (*_Pnext)->_Ptr != _Ptr))

	mov	ecx, DWORD PTR __Pnext$[ebp]
	mov	esi, DWORD PTR [ecx]
	mov	ecx, DWORD PTR _this$[ebp]
	call	?_Myhead@?$_Tree_comp_alloc@V?$_Tset_traits@UTelegram@@U?$less@UTelegram@@@std@@V?$allocator@UTelegram@@@3@$0A@@std@@@std@@QAEAAPAU?$_Tree_node@UTelegram@@PAX@2@XZ ; std::_Tree_comp_alloc<std::_Tset_traits<Telegram,std::less<Telegram>,std::allocator<Telegram>,0> >::_Myhead
	mov	edx, DWORD PTR [esi+8]
	cmp	edx, DWORD PTR [eax]
	je	SHORT $LN7@Orphan_ptr
	cmp	DWORD PTR __Ptr$[ebp], 0
	je	SHORT $LN5@Orphan_ptr
	mov	eax, DWORD PTR __Pnext$[ebp]
	mov	ecx, DWORD PTR [eax]
	mov	edx, DWORD PTR [ecx+8]
	cmp	edx, DWORD PTR __Ptr$[ebp]
	je	SHORT $LN5@Orphan_ptr
$LN7@Orphan_ptr:

; 2139 : 					{
; 2140 : 					_Pnext = (const_iterator **)(*_Pnext)->_Getpnext();

	mov	eax, DWORD PTR __Pnext$[ebp]
	mov	ecx, DWORD PTR [eax]
	call	?_Getpnext@_Iterator_base12@std@@QAEPAPAU12@XZ ; std::_Iterator_base12::_Getpnext
	mov	DWORD PTR __Pnext$[ebp], eax

; 2141 : 					}
; 2142 : 				else

	jmp	SHORT $LN6@Orphan_ptr
$LN5@Orphan_ptr:

; 2143 : 					{	// orphan the iterator
; 2144 : 					(*_Pnext)->_Clrcont();

	mov	ecx, DWORD PTR __Pnext$[ebp]
	mov	ecx, DWORD PTR [ecx]
	call	?_Clrcont@_Iterator_base12@std@@QAEXXZ	; std::_Iterator_base12::_Clrcont

; 2145 : 					*_Pnext = *(const_iterator **)(*_Pnext)->_Getpnext();

	mov	edx, DWORD PTR __Pnext$[ebp]
	mov	ecx, DWORD PTR [edx]
	call	?_Getpnext@_Iterator_base12@std@@QAEPAPAU12@XZ ; std::_Iterator_base12::_Getpnext
	mov	ecx, DWORD PTR __Pnext$[ebp]
	mov	edx, DWORD PTR [eax]
	mov	DWORD PTR [ecx], edx
$LN6@Orphan_ptr:

; 2146 : 					}
; 2147 : 				}

	jmp	SHORT $LN2@Orphan_ptr
$LN4@Orphan_ptr:

; 2148 : 			}
; 2149 : 		}

	mov	DWORD PTR __$EHRec$[ebp+8], -1
	lea	ecx, DWORD PTR __Lock$[ebp]
	call	??1_Lockit@std@@QAE@XZ			; std::_Lockit::~_Lockit
	push	edx
	mov	ecx, ebp
	push	eax
	lea	edx, DWORD PTR $LN13@Orphan_ptr
	call	@_RTC_CheckStackVars@8
	pop	eax
	pop	edx
	mov	ecx, DWORD PTR __$EHRec$[ebp]
	mov	DWORD PTR fs:0, ecx
	pop	ecx
	pop	esi
	add	esp, 32					; 00000020H
	cmp	ebp, esp
	call	__RTC_CheckEsp
	mov	esp, ebp
	pop	ebp
	ret	4
	npad	2
$LN13@Orphan_ptr:
	DD	1
	DD	$LN12@Orphan_ptr
$LN12@Orphan_ptr:
	DD	-24					; ffffffe8H
	DD	4
	DD	$LN10@Orphan_ptr
$LN10@Orphan_ptr:
	DB	95					; 0000005fH
	DB	76					; 0000004cH
	DB	111					; 0000006fH
	DB	99					; 00000063H
	DB	107					; 0000006bH
	DB	0
_TEXT	ENDS
;	COMDAT text$x
text$x	SEGMENT
__unwindfunclet$?_Orphan_ptr@?$_Tree@V?$_Tset_traits@UTelegram@@U?$less@UTelegram@@@std@@V?$allocator@UTelegram@@@3@$0A@@std@@@std@@IAEXPAU?$_Tree_node@UTelegram@@PAX@2@@Z$0:
	lea	ecx, DWORD PTR __Lock$[ebp]
	jmp	??1_Lockit@std@@QAE@XZ			; std::_Lockit::~_Lockit
__ehhandler$?_Orphan_ptr@?$_Tree@V?$_Tset_traits@UTelegram@@U?$less@UTelegram@@@std@@V?$allocator@UTelegram@@@3@$0A@@std@@@std@@IAEXPAU?$_Tree_node@UTelegram@@PAX@2@@Z:
	mov	edx, DWORD PTR [esp+8]
	lea	eax, DWORD PTR [edx+12]
	mov	ecx, DWORD PTR [edx-28]
	xor	ecx, eax
	call	@__security_check_cookie@4
	mov	eax, OFFSET __ehfuncinfo$?_Orphan_ptr@?$_Tree@V?$_Tset_traits@UTelegram@@U?$less@UTelegram@@@std@@V?$allocator@UTelegram@@@3@$0A@@std@@@std@@IAEXPAU?$_Tree_node@UTelegram@@PAX@2@@Z
	jmp	___CxxFrameHandler3
text$x	ENDS
?_Orphan_ptr@?$_Tree@V?$_Tset_traits@UTelegram@@U?$less@UTelegram@@@std@@V?$allocator@UTelegram@@@3@$0A@@std@@@std@@IAEXPAU?$_Tree_node@UTelegram@@PAX@2@@Z ENDP ; std::_Tree<std::_Tset_traits<Telegram,std::less<Telegram>,std::allocator<Telegram>,0> >::_Orphan_ptr
; Function compile flags: /Odtp /RTCsu
; File c:\program files (x86)\microsoft visual studio\2017\community\vc\tools\msvc\14.11.25503\include\xtree
;	COMDAT ?_Rrotate@?$_Tree@V?$_Tset_traits@UTelegram@@U?$less@UTelegram@@@std@@V?$allocator@UTelegram@@@3@$0A@@std@@@std@@IAEXPAU?$_Tree_node@UTelegram@@PAX@2@@Z
_TEXT	SEGMENT
__Pnode$ = -8						; size = 4
_this$ = -4						; size = 4
__Wherenode$ = 8					; size = 4
?_Rrotate@?$_Tree@V?$_Tset_traits@UTelegram@@U?$less@UTelegram@@@std@@V?$allocator@UTelegram@@@3@$0A@@std@@@std@@IAEXPAU?$_Tree_node@UTelegram@@PAX@2@@Z PROC ; std::_Tree<std::_Tset_traits<Telegram,std::less<Telegram>,std::allocator<Telegram>,0> >::_Rrotate, COMDAT
; _this$ = ecx

; 2081 : 		{	// promote left node to root of subtree

	push	ebp
	mov	ebp, esp
	sub	esp, 8
	mov	DWORD PTR [ebp-8], -858993460		; ccccccccH
	mov	DWORD PTR [ebp-4], -858993460		; ccccccccH
	mov	DWORD PTR _this$[ebp], ecx

; 2082 : 		_Nodeptr _Pnode = _Wherenode->_Left;

	mov	eax, DWORD PTR __Wherenode$[ebp]
	mov	ecx, DWORD PTR [eax]
	mov	DWORD PTR __Pnode$[ebp], ecx

; 2083 : 		_Wherenode->_Left = _Pnode->_Right;

	mov	edx, DWORD PTR __Wherenode$[ebp]
	mov	eax, DWORD PTR __Pnode$[ebp]
	mov	ecx, DWORD PTR [eax+8]
	mov	DWORD PTR [edx], ecx

; 2084 : 
; 2085 : 		if (!_Pnode->_Right->_Isnil)

	mov	edx, DWORD PTR __Pnode$[ebp]
	mov	eax, DWORD PTR [edx+8]
	movsx	ecx, BYTE PTR [eax+13]
	test	ecx, ecx
	jne	SHORT $LN2@Rrotate

; 2086 : 			_Pnode->_Right->_Parent = _Wherenode;

	mov	edx, DWORD PTR __Pnode$[ebp]
	mov	eax, DWORD PTR [edx+8]
	mov	ecx, DWORD PTR __Wherenode$[ebp]
	mov	DWORD PTR [eax+4], ecx
$LN2@Rrotate:

; 2087 : 		_Pnode->_Parent = _Wherenode->_Parent;

	mov	edx, DWORD PTR __Pnode$[ebp]
	mov	eax, DWORD PTR __Wherenode$[ebp]
	mov	ecx, DWORD PTR [eax+4]
	mov	DWORD PTR [edx+4], ecx

; 2088 : 
; 2089 : 		if (_Wherenode == _Root())

	mov	ecx, DWORD PTR _this$[ebp]
	call	?_Root@?$_Tree@V?$_Tset_traits@UTelegram@@U?$less@UTelegram@@@std@@V?$allocator@UTelegram@@@3@$0A@@std@@@std@@IBEAAPAU?$_Tree_node@UTelegram@@PAX@2@XZ ; std::_Tree<std::_Tset_traits<Telegram,std::less<Telegram>,std::allocator<Telegram>,0> >::_Root
	mov	edx, DWORD PTR __Wherenode$[ebp]
	cmp	edx, DWORD PTR [eax]
	jne	SHORT $LN3@Rrotate

; 2090 : 			{
; 2091 : 			_Root() = _Pnode;

	mov	ecx, DWORD PTR _this$[ebp]
	call	?_Root@?$_Tree@V?$_Tset_traits@UTelegram@@U?$less@UTelegram@@@std@@V?$allocator@UTelegram@@@3@$0A@@std@@@std@@IBEAAPAU?$_Tree_node@UTelegram@@PAX@2@XZ ; std::_Tree<std::_Tset_traits<Telegram,std::less<Telegram>,std::allocator<Telegram>,0> >::_Root
	mov	ecx, DWORD PTR __Pnode$[ebp]
	mov	DWORD PTR [eax], ecx
	jmp	SHORT $LN4@Rrotate
$LN3@Rrotate:

; 2092 : 			}
; 2093 : 		else if (_Wherenode == _Wherenode->_Parent->_Right)

	mov	edx, DWORD PTR __Wherenode$[ebp]
	mov	eax, DWORD PTR [edx+4]
	mov	ecx, DWORD PTR __Wherenode$[ebp]
	cmp	ecx, DWORD PTR [eax+8]
	jne	SHORT $LN5@Rrotate

; 2094 : 			{
; 2095 : 			_Wherenode->_Parent->_Right = _Pnode;

	mov	edx, DWORD PTR __Wherenode$[ebp]
	mov	eax, DWORD PTR [edx+4]
	mov	ecx, DWORD PTR __Pnode$[ebp]
	mov	DWORD PTR [eax+8], ecx

; 2096 : 			}
; 2097 : 		else

	jmp	SHORT $LN4@Rrotate
$LN5@Rrotate:

; 2098 : 			{
; 2099 : 			_Wherenode->_Parent->_Left = _Pnode;

	mov	edx, DWORD PTR __Wherenode$[ebp]
	mov	eax, DWORD PTR [edx+4]
	mov	ecx, DWORD PTR __Pnode$[ebp]
	mov	DWORD PTR [eax], ecx
$LN4@Rrotate:

; 2100 : 			}
; 2101 : 
; 2102 : 		_Pnode->_Right = _Wherenode;

	mov	edx, DWORD PTR __Pnode$[ebp]
	mov	eax, DWORD PTR __Wherenode$[ebp]
	mov	DWORD PTR [edx+8], eax

; 2103 : 		_Wherenode->_Parent = _Pnode;

	mov	ecx, DWORD PTR __Wherenode$[ebp]
	mov	edx, DWORD PTR __Pnode$[ebp]
	mov	DWORD PTR [ecx+4], edx

; 2104 : 		}

	add	esp, 8
	cmp	ebp, esp
	call	__RTC_CheckEsp
	mov	esp, ebp
	pop	ebp
	ret	4
?_Rrotate@?$_Tree@V?$_Tset_traits@UTelegram@@U?$less@UTelegram@@@std@@V?$allocator@UTelegram@@@3@$0A@@std@@@std@@IAEXPAU?$_Tree_node@UTelegram@@PAX@2@@Z ENDP ; std::_Tree<std::_Tset_traits<Telegram,std::less<Telegram>,std::allocator<Telegram>,0> >::_Rrotate
_TEXT	ENDS
; Function compile flags: /Odtp /RTCsu
; File c:\program files (x86)\microsoft visual studio\2017\community\vc\tools\msvc\14.11.25503\include\xtree
;	COMDAT ?_Root@?$_Tree@V?$_Tset_traits@UTelegram@@U?$less@UTelegram@@@std@@V?$allocator@UTelegram@@@3@$0A@@std@@@std@@IBEAAPAU?$_Tree_node@UTelegram@@PAX@2@XZ
_TEXT	SEGMENT
_this$ = -4						; size = 4
?_Root@?$_Tree@V?$_Tset_traits@UTelegram@@U?$less@UTelegram@@@std@@V?$allocator@UTelegram@@@3@$0A@@std@@@std@@IBEAAPAU?$_Tree_node@UTelegram@@PAX@2@XZ PROC ; std::_Tree<std::_Tset_traits<Telegram,std::less<Telegram>,std::allocator<Telegram>,0> >::_Root, COMDAT
; _this$ = ecx

; 2076 : 		{	// return root of nonmutable tree

	push	ebp
	mov	ebp, esp
	push	ecx
	mov	DWORD PTR [ebp-4], -858993460		; ccccccccH
	mov	DWORD PTR _this$[ebp], ecx

; 2077 : 		return (this->_Myhead()->_Parent);

	mov	ecx, DWORD PTR _this$[ebp]
	call	?_Myhead@?$_Tree_comp_alloc@V?$_Tset_traits@UTelegram@@U?$less@UTelegram@@@std@@V?$allocator@UTelegram@@@3@$0A@@std@@@std@@QBEABQAU?$_Tree_node@UTelegram@@PAX@2@XZ ; std::_Tree_comp_alloc<std::_Tset_traits<Telegram,std::less<Telegram>,std::allocator<Telegram>,0> >::_Myhead
	mov	eax, DWORD PTR [eax]
	add	eax, 4

; 2078 : 		}

	add	esp, 4
	cmp	ebp, esp
	call	__RTC_CheckEsp
	mov	esp, ebp
	pop	ebp
	ret	0
?_Root@?$_Tree@V?$_Tset_traits@UTelegram@@U?$less@UTelegram@@@std@@V?$allocator@UTelegram@@@3@$0A@@std@@@std@@IBEAAPAU?$_Tree_node@UTelegram@@PAX@2@XZ ENDP ; std::_Tree<std::_Tset_traits<Telegram,std::less<Telegram>,std::allocator<Telegram>,0> >::_Root
_TEXT	ENDS
; Function compile flags: /Odtp /RTCsu
; File c:\program files (x86)\microsoft visual studio\2017\community\vc\tools\msvc\14.11.25503\include\xtree
;	COMDAT ?_Rmost@?$_Tree@V?$_Tset_traits@UTelegram@@U?$less@UTelegram@@@std@@V?$allocator@UTelegram@@@3@$0A@@std@@@std@@IBEAAPAU?$_Tree_node@UTelegram@@PAX@2@XZ
_TEXT	SEGMENT
_this$ = -4						; size = 4
?_Rmost@?$_Tree@V?$_Tset_traits@UTelegram@@U?$less@UTelegram@@@std@@V?$allocator@UTelegram@@@3@$0A@@std@@@std@@IBEAAPAU?$_Tree_node@UTelegram@@PAX@2@XZ PROC ; std::_Tree<std::_Tset_traits<Telegram,std::less<Telegram>,std::allocator<Telegram>,0> >::_Rmost, COMDAT
; _this$ = ecx

; 2071 : 		{	// return rightmost node in nonmutable tree

	push	ebp
	mov	ebp, esp
	push	ecx
	mov	DWORD PTR [ebp-4], -858993460		; ccccccccH
	mov	DWORD PTR _this$[ebp], ecx

; 2072 : 		return (this->_Myhead()->_Right);

	mov	ecx, DWORD PTR _this$[ebp]
	call	?_Myhead@?$_Tree_comp_alloc@V?$_Tset_traits@UTelegram@@U?$less@UTelegram@@@std@@V?$allocator@UTelegram@@@3@$0A@@std@@@std@@QBEABQAU?$_Tree_node@UTelegram@@PAX@2@XZ ; std::_Tree_comp_alloc<std::_Tset_traits<Telegram,std::less<Telegram>,std::allocator<Telegram>,0> >::_Myhead
	mov	eax, DWORD PTR [eax]
	add	eax, 8

; 2073 : 		}

	add	esp, 4
	cmp	ebp, esp
	call	__RTC_CheckEsp
	mov	esp, ebp
	pop	ebp
	ret	0
?_Rmost@?$_Tree@V?$_Tset_traits@UTelegram@@U?$less@UTelegram@@@std@@V?$allocator@UTelegram@@@3@$0A@@std@@@std@@IBEAAPAU?$_Tree_node@UTelegram@@PAX@2@XZ ENDP ; std::_Tree<std::_Tset_traits<Telegram,std::less<Telegram>,std::allocator<Telegram>,0> >::_Rmost
_TEXT	ENDS
; Function compile flags: /Odtp /RTCsu
; File c:\program files (x86)\microsoft visual studio\2017\community\vc\tools\msvc\14.11.25503\include\xtree
;	COMDAT ?_Lrotate@?$_Tree@V?$_Tset_traits@UTelegram@@U?$less@UTelegram@@@std@@V?$allocator@UTelegram@@@3@$0A@@std@@@std@@IAEXPAU?$_Tree_node@UTelegram@@PAX@2@@Z
_TEXT	SEGMENT
__Pnode$ = -8						; size = 4
_this$ = -4						; size = 4
__Wherenode$ = 8					; size = 4
?_Lrotate@?$_Tree@V?$_Tset_traits@UTelegram@@U?$less@UTelegram@@@std@@V?$allocator@UTelegram@@@3@$0A@@std@@@std@@IAEXPAU?$_Tree_node@UTelegram@@PAX@2@@Z PROC ; std::_Tree<std::_Tset_traits<Telegram,std::less<Telegram>,std::allocator<Telegram>,0> >::_Lrotate, COMDAT
; _this$ = ecx

; 2042 : 		{	// promote right node to root of subtree

	push	ebp
	mov	ebp, esp
	sub	esp, 8
	mov	DWORD PTR [ebp-8], -858993460		; ccccccccH
	mov	DWORD PTR [ebp-4], -858993460		; ccccccccH
	mov	DWORD PTR _this$[ebp], ecx

; 2043 : 		_Nodeptr _Pnode = _Wherenode->_Right;

	mov	eax, DWORD PTR __Wherenode$[ebp]
	mov	ecx, DWORD PTR [eax+8]
	mov	DWORD PTR __Pnode$[ebp], ecx

; 2044 : 		_Wherenode->_Right = _Pnode->_Left;

	mov	edx, DWORD PTR __Wherenode$[ebp]
	mov	eax, DWORD PTR __Pnode$[ebp]
	mov	ecx, DWORD PTR [eax]
	mov	DWORD PTR [edx+8], ecx

; 2045 : 
; 2046 : 		if (!_Pnode->_Left->_Isnil)

	mov	edx, DWORD PTR __Pnode$[ebp]
	mov	eax, DWORD PTR [edx]
	movsx	ecx, BYTE PTR [eax+13]
	test	ecx, ecx
	jne	SHORT $LN2@Lrotate

; 2047 : 			{
; 2048 : 			_Pnode->_Left->_Parent = _Wherenode;

	mov	edx, DWORD PTR __Pnode$[ebp]
	mov	eax, DWORD PTR [edx]
	mov	ecx, DWORD PTR __Wherenode$[ebp]
	mov	DWORD PTR [eax+4], ecx
$LN2@Lrotate:

; 2049 : 			}
; 2050 : 
; 2051 : 		_Pnode->_Parent = _Wherenode->_Parent;

	mov	edx, DWORD PTR __Pnode$[ebp]
	mov	eax, DWORD PTR __Wherenode$[ebp]
	mov	ecx, DWORD PTR [eax+4]
	mov	DWORD PTR [edx+4], ecx

; 2052 : 
; 2053 : 		if (_Wherenode == _Root())

	mov	ecx, DWORD PTR _this$[ebp]
	call	?_Root@?$_Tree@V?$_Tset_traits@UTelegram@@U?$less@UTelegram@@@std@@V?$allocator@UTelegram@@@3@$0A@@std@@@std@@IBEAAPAU?$_Tree_node@UTelegram@@PAX@2@XZ ; std::_Tree<std::_Tset_traits<Telegram,std::less<Telegram>,std::allocator<Telegram>,0> >::_Root
	mov	edx, DWORD PTR __Wherenode$[ebp]
	cmp	edx, DWORD PTR [eax]
	jne	SHORT $LN3@Lrotate

; 2054 : 			{
; 2055 : 			_Root() = _Pnode;

	mov	ecx, DWORD PTR _this$[ebp]
	call	?_Root@?$_Tree@V?$_Tset_traits@UTelegram@@U?$less@UTelegram@@@std@@V?$allocator@UTelegram@@@3@$0A@@std@@@std@@IBEAAPAU?$_Tree_node@UTelegram@@PAX@2@XZ ; std::_Tree<std::_Tset_traits<Telegram,std::less<Telegram>,std::allocator<Telegram>,0> >::_Root
	mov	ecx, DWORD PTR __Pnode$[ebp]
	mov	DWORD PTR [eax], ecx
	jmp	SHORT $LN4@Lrotate
$LN3@Lrotate:

; 2056 : 			}
; 2057 : 		else if (_Wherenode == _Wherenode->_Parent->_Left)

	mov	edx, DWORD PTR __Wherenode$[ebp]
	mov	eax, DWORD PTR [edx+4]
	mov	ecx, DWORD PTR __Wherenode$[ebp]
	cmp	ecx, DWORD PTR [eax]
	jne	SHORT $LN5@Lrotate

; 2058 : 			{
; 2059 : 			_Wherenode->_Parent->_Left = _Pnode;

	mov	edx, DWORD PTR __Wherenode$[ebp]
	mov	eax, DWORD PTR [edx+4]
	mov	ecx, DWORD PTR __Pnode$[ebp]
	mov	DWORD PTR [eax], ecx

; 2060 : 			}
; 2061 : 		else

	jmp	SHORT $LN4@Lrotate
$LN5@Lrotate:

; 2062 : 			{
; 2063 : 			_Wherenode->_Parent->_Right = _Pnode;

	mov	edx, DWORD PTR __Wherenode$[ebp]
	mov	eax, DWORD PTR [edx+4]
	mov	ecx, DWORD PTR __Pnode$[ebp]
	mov	DWORD PTR [eax+8], ecx
$LN4@Lrotate:

; 2064 : 			}
; 2065 : 
; 2066 : 		_Pnode->_Left = _Wherenode;

	mov	edx, DWORD PTR __Pnode$[ebp]
	mov	eax, DWORD PTR __Wherenode$[ebp]
	mov	DWORD PTR [edx], eax

; 2067 : 		_Wherenode->_Parent = _Pnode;

	mov	ecx, DWORD PTR __Wherenode$[ebp]
	mov	edx, DWORD PTR __Pnode$[ebp]
	mov	DWORD PTR [ecx+4], edx

; 2068 : 		}

	add	esp, 8
	cmp	ebp, esp
	call	__RTC_CheckEsp
	mov	esp, ebp
	pop	ebp
	ret	4
?_Lrotate@?$_Tree@V?$_Tset_traits@UTelegram@@U?$less@UTelegram@@@std@@V?$allocator@UTelegram@@@3@$0A@@std@@@std@@IAEXPAU?$_Tree_node@UTelegram@@PAX@2@@Z ENDP ; std::_Tree<std::_Tset_traits<Telegram,std::less<Telegram>,std::allocator<Telegram>,0> >::_Lrotate
_TEXT	ENDS
; Function compile flags: /Odtp /RTCsu
; File c:\program files (x86)\microsoft visual studio\2017\community\vc\tools\msvc\14.11.25503\include\xtree
;	COMDAT ?_Lmost@?$_Tree@V?$_Tset_traits@UTelegram@@U?$less@UTelegram@@@std@@V?$allocator@UTelegram@@@3@$0A@@std@@@std@@IBEAAPAU?$_Tree_node@UTelegram@@PAX@2@XZ
_TEXT	SEGMENT
_this$ = -4						; size = 4
?_Lmost@?$_Tree@V?$_Tset_traits@UTelegram@@U?$less@UTelegram@@@std@@V?$allocator@UTelegram@@@3@$0A@@std@@@std@@IBEAAPAU?$_Tree_node@UTelegram@@PAX@2@XZ PROC ; std::_Tree<std::_Tset_traits<Telegram,std::less<Telegram>,std::allocator<Telegram>,0> >::_Lmost, COMDAT
; _this$ = ecx

; 2037 : 		{	// return leftmost node in nonmutable tree

	push	ebp
	mov	ebp, esp
	push	ecx
	mov	DWORD PTR [ebp-4], -858993460		; ccccccccH
	mov	DWORD PTR _this$[ebp], ecx

; 2038 : 		return (this->_Myhead()->_Left);

	mov	ecx, DWORD PTR _this$[ebp]
	call	?_Myhead@?$_Tree_comp_alloc@V?$_Tset_traits@UTelegram@@U?$less@UTelegram@@@std@@V?$allocator@UTelegram@@@3@$0A@@std@@@std@@QBEABQAU?$_Tree_node@UTelegram@@PAX@2@XZ ; std::_Tree_comp_alloc<std::_Tset_traits<Telegram,std::less<Telegram>,std::allocator<Telegram>,0> >::_Myhead
	mov	eax, DWORD PTR [eax]

; 2039 : 		}

	add	esp, 4
	cmp	ebp, esp
	call	__RTC_CheckEsp
	mov	esp, ebp
	pop	ebp
	ret	0
?_Lmost@?$_Tree@V?$_Tset_traits@UTelegram@@U?$less@UTelegram@@@std@@V?$allocator@UTelegram@@@3@$0A@@std@@@std@@IBEAAPAU?$_Tree_node@UTelegram@@PAX@2@XZ ENDP ; std::_Tree<std::_Tset_traits<Telegram,std::less<Telegram>,std::allocator<Telegram>,0> >::_Lmost
_TEXT	ENDS
; Function compile flags: /Odtp /RTCsu
; File c:\program files (x86)\microsoft visual studio\2017\community\vc\tools\msvc\14.11.25503\include\xtree
;	COMDAT ?_Erase@?$_Tree@V?$_Tset_traits@UTelegram@@U?$less@UTelegram@@@std@@V?$allocator@UTelegram@@@3@$0A@@std@@@std@@IAEXPAU?$_Tree_node@UTelegram@@PAX@2@@Z
_TEXT	SEGMENT
__Al$1 = -12						; size = 4
__Pnode$2 = -8						; size = 4
_this$ = -4						; size = 4
__Rootnode$ = 8						; size = 4
?_Erase@?$_Tree@V?$_Tset_traits@UTelegram@@U?$less@UTelegram@@@std@@V?$allocator@UTelegram@@@3@$0A@@std@@@std@@IAEXPAU?$_Tree_node@UTelegram@@PAX@2@@Z PROC ; std::_Tree<std::_Tset_traits<Telegram,std::less<Telegram>,std::allocator<Telegram>,0> >::_Erase, COMDAT
; _this$ = ecx

; 1991 : 		{	// free entire subtree, recursively

	push	ebp
	mov	ebp, esp
	sub	esp, 12					; 0000000cH
	mov	DWORD PTR [ebp-12], -858993460		; ccccccccH
	mov	DWORD PTR [ebp-8], -858993460		; ccccccccH
	mov	DWORD PTR [ebp-4], -858993460		; ccccccccH
	mov	DWORD PTR _this$[ebp], ecx

; 1992 : 		for (_Nodeptr _Pnode = _Rootnode; !_Pnode->_Isnil; _Rootnode = _Pnode)

	mov	eax, DWORD PTR __Rootnode$[ebp]
	mov	DWORD PTR __Pnode$2[ebp], eax
	jmp	SHORT $LN4@Erase
$LN2@Erase:
	mov	ecx, DWORD PTR __Pnode$2[ebp]
	mov	DWORD PTR __Rootnode$[ebp], ecx
$LN4@Erase:
	mov	edx, DWORD PTR __Pnode$2[ebp]
	movsx	eax, BYTE PTR [edx+13]
	test	eax, eax
	jne	SHORT $LN1@Erase

; 1993 : 			{	// free subtrees, then node
; 1994 : 			_Erase(_Pnode->_Right);

	mov	ecx, DWORD PTR __Pnode$2[ebp]
	mov	edx, DWORD PTR [ecx+8]
	push	edx
	mov	ecx, DWORD PTR _this$[ebp]
	call	?_Erase@?$_Tree@V?$_Tset_traits@UTelegram@@U?$less@UTelegram@@@std@@V?$allocator@UTelegram@@@3@$0A@@std@@@std@@IAEXPAU?$_Tree_node@UTelegram@@PAX@2@@Z ; std::_Tree<std::_Tset_traits<Telegram,std::less<Telegram>,std::allocator<Telegram>,0> >::_Erase

; 1995 : 			_Pnode = _Pnode->_Left;

	mov	eax, DWORD PTR __Pnode$2[ebp]
	mov	ecx, DWORD PTR [eax]
	mov	DWORD PTR __Pnode$2[ebp], ecx

; 1996 : 			_Alnode& _Al = this->_Getal();

	mov	ecx, DWORD PTR _this$[ebp]
	call	?_Getal@?$_Tree_comp_alloc@V?$_Tset_traits@UTelegram@@U?$less@UTelegram@@@std@@V?$allocator@UTelegram@@@3@$0A@@std@@@std@@QAEAAV?$allocator@U?$_Tree_node@UTelegram@@PAX@std@@@2@XZ ; std::_Tree_comp_alloc<std::_Tset_traits<Telegram,std::less<Telegram>,std::allocator<Telegram>,0> >::_Getal
	mov	DWORD PTR __Al$1[ebp], eax

; 1997 : 			_Alnode_traits::destroy(_Al, _STD addressof(_Rootnode->_Myval));

	mov	edx, DWORD PTR __Rootnode$[ebp]
	add	edx, 16					; 00000010H
	push	edx
	call	??$addressof@UTelegram@@@std@@YAPAUTelegram@@AAU1@@Z ; std::addressof<Telegram>
	add	esp, 4
	push	eax
	mov	eax, DWORD PTR __Al$1[ebp]
	push	eax
	call	??$destroy@UTelegram@@@?$_Default_allocator_traits@V?$allocator@U?$_Tree_node@UTelegram@@PAX@std@@@std@@@std@@SAXAAV?$allocator@U?$_Tree_node@UTelegram@@PAX@std@@@1@QAUTelegram@@@Z ; std::_Default_allocator_traits<std::allocator<std::_Tree_node<Telegram,void *> > >::destroy<Telegram>
	add	esp, 8

; 1998 : 			_Al.deallocate(_Rootnode, 1);

	push	1
	mov	ecx, DWORD PTR __Rootnode$[ebp]
	push	ecx
	mov	ecx, DWORD PTR __Al$1[ebp]
	call	?deallocate@?$allocator@U?$_Tree_node@UTelegram@@PAX@std@@@std@@QAEXQAU?$_Tree_node@UTelegram@@PAX@2@I@Z ; std::allocator<std::_Tree_node<Telegram,void *> >::deallocate

; 1999 : 			}

	jmp	SHORT $LN2@Erase
$LN1@Erase:

; 2000 : 		}

	add	esp, 12					; 0000000cH
	cmp	ebp, esp
	call	__RTC_CheckEsp
	mov	esp, ebp
	pop	ebp
	ret	4
?_Erase@?$_Tree@V?$_Tset_traits@UTelegram@@U?$less@UTelegram@@@std@@V?$allocator@UTelegram@@@3@$0A@@std@@@std@@IAEXPAU?$_Tree_node@UTelegram@@PAX@2@@Z ENDP ; std::_Tree<std::_Tset_traits<Telegram,std::less<Telegram>,std::allocator<Telegram>,0> >::_Erase
_TEXT	ENDS
; Function compile flags: /Odtp /RTCsu
; File c:\program files (x86)\microsoft visual studio\2017\community\vc\tools\msvc\14.11.25503\include\xtree
;	COMDAT ?_Destroy_if_not_nil@?$_Tree@V?$_Tset_traits@UTelegram@@U?$less@UTelegram@@@std@@V?$allocator@UTelegram@@@3@$0A@@std@@@std@@IAEXU_Nil@2@@Z
_TEXT	SEGMENT
_this$ = -4						; size = 4
___formal$ = 8						; size = 1
?_Destroy_if_not_nil@?$_Tree@V?$_Tset_traits@UTelegram@@U?$less@UTelegram@@@std@@V?$allocator@UTelegram@@@3@$0A@@std@@@std@@IAEXU_Nil@2@@Z PROC ; std::_Tree<std::_Tset_traits<Telegram,std::less<Telegram>,std::allocator<Telegram>,0> >::_Destroy_if_not_nil, COMDAT
; _this$ = ecx

; 1566 : 		{	// node doesn't exist, do nothing

	push	ebp
	mov	ebp, esp
	push	ecx
	mov	DWORD PTR [ebp-4], -858993460		; ccccccccH
	mov	DWORD PTR _this$[ebp], ecx

; 1567 : 		}

	mov	esp, ebp
	pop	ebp
	ret	4
?_Destroy_if_not_nil@?$_Tree@V?$_Tset_traits@UTelegram@@U?$less@UTelegram@@@std@@V?$allocator@UTelegram@@@3@$0A@@std@@@std@@IAEXU_Nil@2@@Z ENDP ; std::_Tree<std::_Tset_traits<Telegram,std::less<Telegram>,std::allocator<Telegram>,0> >::_Destroy_if_not_nil
_TEXT	ENDS
; Function compile flags: /Odtp /RTCsu
; File c:\program files (x86)\microsoft visual studio\2017\community\vc\tools\msvc\14.11.25503\include\xtree
;	COMDAT ?clear@?$_Tree@V?$_Tset_traits@UTelegram@@U?$less@UTelegram@@@std@@V?$allocator@UTelegram@@@3@$0A@@std@@@std@@QAEXXZ
_TEXT	SEGMENT
_this$ = -16						; size = 4
__$EHRec$ = -12						; size = 12
?clear@?$_Tree@V?$_Tset_traits@UTelegram@@U?$less@UTelegram@@@std@@V?$allocator@UTelegram@@@3@$0A@@std@@@std@@QAEXXZ PROC ; std::_Tree<std::_Tset_traits<Telegram,std::less<Telegram>,std::allocator<Telegram>,0> >::clear, COMDAT
; _this$ = ecx

; 1386 : 		{	// erase all

	push	ebp
	mov	ebp, esp
	push	-1
	push	__ehhandler$?clear@?$_Tree@V?$_Tset_traits@UTelegram@@U?$less@UTelegram@@@std@@V?$allocator@UTelegram@@@3@$0A@@std@@@std@@QAEXXZ
	mov	eax, DWORD PTR fs:0
	push	eax
	push	ecx
	push	esi
	mov	DWORD PTR [ebp-16], -858993460		; ccccccccH
	mov	eax, DWORD PTR ___security_cookie
	xor	eax, ebp
	push	eax
	lea	eax, DWORD PTR __$EHRec$[ebp]
	mov	DWORD PTR fs:0, eax
	mov	DWORD PTR _this$[ebp], ecx

; 1387 :  #if _ITERATOR_DEBUG_LEVEL == 2
; 1388 : 		this->_Orphan_ptr(nullptr);

	push	0
	mov	ecx, DWORD PTR _this$[ebp]
	call	?_Orphan_ptr@?$_Tree@V?$_Tset_traits@UTelegram@@U?$less@UTelegram@@@std@@V?$allocator@UTelegram@@@3@$0A@@std@@@std@@IAEXPAU?$_Tree_node@UTelegram@@PAX@2@@Z ; std::_Tree<std::_Tset_traits<Telegram,std::less<Telegram>,std::allocator<Telegram>,0> >::_Orphan_ptr

; 1389 :  #endif /* _ITERATOR_DEBUG_LEVEL == 2 */
; 1390 : 
; 1391 : 		_Erase(_Root());

	mov	ecx, DWORD PTR _this$[ebp]
	call	?_Root@?$_Tree@V?$_Tset_traits@UTelegram@@U?$less@UTelegram@@@std@@V?$allocator@UTelegram@@@3@$0A@@std@@@std@@IBEAAPAU?$_Tree_node@UTelegram@@PAX@2@XZ ; std::_Tree<std::_Tset_traits<Telegram,std::less<Telegram>,std::allocator<Telegram>,0> >::_Root
	mov	eax, DWORD PTR [eax]
	push	eax
	mov	ecx, DWORD PTR _this$[ebp]
	call	?_Erase@?$_Tree@V?$_Tset_traits@UTelegram@@U?$less@UTelegram@@@std@@V?$allocator@UTelegram@@@3@$0A@@std@@@std@@IAEXPAU?$_Tree_node@UTelegram@@PAX@2@@Z ; std::_Tree<std::_Tset_traits<Telegram,std::less<Telegram>,std::allocator<Telegram>,0> >::_Erase

; 1392 : 		_Root() = this->_Myhead();

	mov	ecx, DWORD PTR _this$[ebp]
	call	?_Myhead@?$_Tree_comp_alloc@V?$_Tset_traits@UTelegram@@U?$less@UTelegram@@@std@@V?$allocator@UTelegram@@@3@$0A@@std@@@std@@QAEAAPAU?$_Tree_node@UTelegram@@PAX@2@XZ ; std::_Tree_comp_alloc<std::_Tset_traits<Telegram,std::less<Telegram>,std::allocator<Telegram>,0> >::_Myhead
	mov	esi, eax
	mov	ecx, DWORD PTR _this$[ebp]
	call	?_Root@?$_Tree@V?$_Tset_traits@UTelegram@@U?$less@UTelegram@@@std@@V?$allocator@UTelegram@@@3@$0A@@std@@@std@@IBEAAPAU?$_Tree_node@UTelegram@@PAX@2@XZ ; std::_Tree<std::_Tset_traits<Telegram,std::less<Telegram>,std::allocator<Telegram>,0> >::_Root
	mov	ecx, DWORD PTR [esi]
	mov	DWORD PTR [eax], ecx

; 1393 : 		_Lmost() = this->_Myhead();

	mov	ecx, DWORD PTR _this$[ebp]
	call	?_Myhead@?$_Tree_comp_alloc@V?$_Tset_traits@UTelegram@@U?$less@UTelegram@@@std@@V?$allocator@UTelegram@@@3@$0A@@std@@@std@@QAEAAPAU?$_Tree_node@UTelegram@@PAX@2@XZ ; std::_Tree_comp_alloc<std::_Tset_traits<Telegram,std::less<Telegram>,std::allocator<Telegram>,0> >::_Myhead
	mov	esi, eax
	mov	ecx, DWORD PTR _this$[ebp]
	call	?_Lmost@?$_Tree@V?$_Tset_traits@UTelegram@@U?$less@UTelegram@@@std@@V?$allocator@UTelegram@@@3@$0A@@std@@@std@@IBEAAPAU?$_Tree_node@UTelegram@@PAX@2@XZ ; std::_Tree<std::_Tset_traits<Telegram,std::less<Telegram>,std::allocator<Telegram>,0> >::_Lmost
	mov	edx, DWORD PTR [esi]
	mov	DWORD PTR [eax], edx

; 1394 : 		_Rmost() = this->_Myhead();

	mov	ecx, DWORD PTR _this$[ebp]
	call	?_Myhead@?$_Tree_comp_alloc@V?$_Tset_traits@UTelegram@@U?$less@UTelegram@@@std@@V?$allocator@UTelegram@@@3@$0A@@std@@@std@@QAEAAPAU?$_Tree_node@UTelegram@@PAX@2@XZ ; std::_Tree_comp_alloc<std::_Tset_traits<Telegram,std::less<Telegram>,std::allocator<Telegram>,0> >::_Myhead
	mov	esi, eax
	mov	ecx, DWORD PTR _this$[ebp]
	call	?_Rmost@?$_Tree@V?$_Tset_traits@UTelegram@@U?$less@UTelegram@@@std@@V?$allocator@UTelegram@@@3@$0A@@std@@@std@@IBEAAPAU?$_Tree_node@UTelegram@@PAX@2@XZ ; std::_Tree<std::_Tset_traits<Telegram,std::less<Telegram>,std::allocator<Telegram>,0> >::_Rmost
	mov	ecx, DWORD PTR [esi]
	mov	DWORD PTR [eax], ecx

; 1395 : 		this->_Mysize() = 0;

	mov	ecx, DWORD PTR _this$[ebp]
	call	?_Mysize@?$_Tree_comp_alloc@V?$_Tset_traits@UTelegram@@U?$less@UTelegram@@@std@@V?$allocator@UTelegram@@@3@$0A@@std@@@std@@QAEAAIXZ ; std::_Tree_comp_alloc<std::_Tset_traits<Telegram,std::less<Telegram>,std::allocator<Telegram>,0> >::_Mysize
	mov	DWORD PTR [eax], 0

; 1396 : 		}

	mov	ecx, DWORD PTR __$EHRec$[ebp]
	mov	DWORD PTR fs:0, ecx
	pop	ecx
	pop	esi
	add	esp, 16					; 00000010H
	cmp	ebp, esp
	call	__RTC_CheckEsp
	mov	esp, ebp
	pop	ebp
	ret	0
_TEXT	ENDS
;	COMDAT text$x
text$x	SEGMENT
__ehhandler$?clear@?$_Tree@V?$_Tset_traits@UTelegram@@U?$less@UTelegram@@@std@@V?$allocator@UTelegram@@@3@$0A@@std@@@std@@QAEXXZ:
	mov	edx, DWORD PTR [esp+8]
	lea	eax, DWORD PTR [edx+12]
	mov	ecx, DWORD PTR [edx-12]
	xor	ecx, eax
	call	@__security_check_cookie@4
	mov	eax, OFFSET __ehfuncinfo$?clear@?$_Tree@V?$_Tset_traits@UTelegram@@U?$less@UTelegram@@@std@@V?$allocator@UTelegram@@@3@$0A@@std@@@std@@QAEXXZ
	jmp	___CxxFrameHandler3
text$x	ENDS
?clear@?$_Tree@V?$_Tset_traits@UTelegram@@U?$less@UTelegram@@@std@@V?$allocator@UTelegram@@@3@$0A@@std@@@std@@QAEXXZ ENDP ; std::_Tree<std::_Tset_traits<Telegram,std::less<Telegram>,std::allocator<Telegram>,0> >::clear
; Function compile flags: /Odtp /RTCsu
; File c:\program files (x86)\microsoft visual studio\2017\community\vc\tools\msvc\14.11.25503\include\xtree
;	COMDAT ?erase@?$_Tree@V?$_Tset_traits@UTelegram@@U?$less@UTelegram@@@std@@V?$allocator@UTelegram@@@3@$0A@@std@@@std@@QAE?AV?$_Tree_const_iterator@V?$_Tree_val@U?$_Tree_simple_types@UTelegram@@@std@@@std@@@2@V32@0@Z
_TEXT	SEGMENT
tv193 = -88						; size = 4
tv86 = -84						; size = 4
tv180 = -80						; size = 4
tv200 = -76						; size = 4
tv175 = -72						; size = 4
tv152 = -68						; size = 4
$T2 = -64						; size = 4
$T3 = -60						; size = 12
$T4 = -48						; size = 4
$T5 = -44						; size = 12
$T6 = -32						; size = 12
$T7 = -17						; size = 1
_this$ = -16						; size = 4
__$EHRec$ = -12						; size = 12
___$ReturnUdt$ = 8					; size = 4
__First$ = 12						; size = 12
__Last$ = 24						; size = 12
?erase@?$_Tree@V?$_Tset_traits@UTelegram@@U?$less@UTelegram@@@std@@V?$allocator@UTelegram@@@3@$0A@@std@@@std@@QAE?AV?$_Tree_const_iterator@V?$_Tree_val@U?$_Tree_simple_types@UTelegram@@@std@@@std@@@2@V32@0@Z PROC ; std::_Tree<std::_Tset_traits<Telegram,std::less<Telegram>,std::allocator<Telegram>,0> >::erase, COMDAT
; _this$ = ecx

; 1363 : 		{	// erase [_First, _Last)

	push	ebp
	mov	ebp, esp
	push	-1
	push	__ehhandler$?erase@?$_Tree@V?$_Tset_traits@UTelegram@@U?$less@UTelegram@@@std@@V?$allocator@UTelegram@@@3@$0A@@std@@@std@@QAE?AV?$_Tree_const_iterator@V?$_Tree_val@U?$_Tree_simple_types@UTelegram@@@std@@@std@@@2@V32@0@Z
	mov	eax, DWORD PTR fs:0
	push	eax
	sub	esp, 76					; 0000004cH
	push	edi
	push	ecx
	lea	edi, DWORD PTR [ebp-88]
	mov	ecx, 19					; 00000013H
	mov	eax, -858993460				; ccccccccH
	rep stosd
	pop	ecx
	mov	eax, DWORD PTR ___security_cookie
	xor	eax, ebp
	push	eax
	lea	eax, DWORD PTR __$EHRec$[ebp]
	mov	DWORD PTR fs:0, eax
	mov	DWORD PTR _this$[ebp], ecx
	mov	DWORD PTR $T2[ebp], 0
	mov	DWORD PTR __$EHRec$[ebp+8], 1

; 1364 : 		if (_First == begin() && _Last == end())

	lea	eax, DWORD PTR $T6[ebp]
	push	eax
	mov	ecx, DWORD PTR _this$[ebp]
	call	?begin@?$_Tree@V?$_Tset_traits@UTelegram@@U?$less@UTelegram@@@std@@V?$allocator@UTelegram@@@3@$0A@@std@@@std@@QAE?AV?$_Tree_const_iterator@V?$_Tree_val@U?$_Tree_simple_types@UTelegram@@@std@@@std@@@2@XZ ; std::_Tree<std::_Tset_traits<Telegram,std::less<Telegram>,std::allocator<Telegram>,0> >::begin
	mov	DWORD PTR tv152[ebp], eax
	mov	ecx, DWORD PTR tv152[ebp]
	mov	DWORD PTR tv175[ebp], ecx
	mov	BYTE PTR __$EHRec$[ebp+8], 2
	mov	edx, DWORD PTR $T2[ebp]
	or	edx, 1
	mov	DWORD PTR $T2[ebp], edx
	mov	eax, DWORD PTR tv175[ebp]
	push	eax
	lea	ecx, DWORD PTR __First$[ebp]
	call	??8?$_Tree_const_iterator@V?$_Tree_val@U?$_Tree_simple_types@UTelegram@@@std@@@std@@@std@@QBE_NABV01@@Z ; std::_Tree_const_iterator<std::_Tree_val<std::_Tree_simple_types<Telegram> > >::operator==
	movzx	ecx, al
	test	ecx, ecx
	je	SHORT $LN7@erase
	lea	edx, DWORD PTR $T5[ebp]
	push	edx
	mov	ecx, DWORD PTR _this$[ebp]
	call	?end@?$_Tree@V?$_Tset_traits@UTelegram@@U?$less@UTelegram@@@std@@V?$allocator@UTelegram@@@3@$0A@@std@@@std@@QAE?AV?$_Tree_const_iterator@V?$_Tree_val@U?$_Tree_simple_types@UTelegram@@@std@@@std@@@2@XZ ; std::_Tree<std::_Tset_traits<Telegram,std::less<Telegram>,std::allocator<Telegram>,0> >::end
	mov	DWORD PTR tv200[ebp], eax
	mov	eax, DWORD PTR tv200[ebp]
	mov	DWORD PTR tv180[ebp], eax
	mov	DWORD PTR __$EHRec$[ebp+8], 3
	mov	ecx, DWORD PTR $T2[ebp]
	or	ecx, 2
	mov	DWORD PTR $T2[ebp], ecx
	mov	edx, DWORD PTR tv180[ebp]
	push	edx
	lea	ecx, DWORD PTR __Last$[ebp]
	call	??8?$_Tree_const_iterator@V?$_Tree_val@U?$_Tree_simple_types@UTelegram@@@std@@@std@@@std@@QBE_NABV01@@Z ; std::_Tree_const_iterator<std::_Tree_val<std::_Tree_simple_types<Telegram> > >::operator==
	movzx	eax, al
	test	eax, eax
	je	SHORT $LN7@erase
	mov	DWORD PTR tv86[ebp], 1
	jmp	SHORT $LN8@erase
$LN7@erase:
	mov	DWORD PTR tv86[ebp], 0
$LN8@erase:
	mov	cl, BYTE PTR tv86[ebp]
	mov	BYTE PTR $T7[ebp], cl
	mov	DWORD PTR __$EHRec$[ebp+8], 2
	mov	edx, DWORD PTR $T2[ebp]
	and	edx, 2
	je	SHORT $LN15@erase
	and	DWORD PTR $T2[ebp], -3			; fffffffdH
	lea	ecx, DWORD PTR $T5[ebp]
	call	??1?$_Tree_const_iterator@V?$_Tree_val@U?$_Tree_simple_types@UTelegram@@@std@@@std@@@std@@QAE@XZ
$LN15@erase:
	mov	DWORD PTR __$EHRec$[ebp+8], 1
	mov	eax, DWORD PTR $T2[ebp]
	and	eax, 1
	je	SHORT $LN16@erase
	and	DWORD PTR $T2[ebp], -2			; fffffffeH
	lea	ecx, DWORD PTR $T6[ebp]
	call	??1?$_Tree_const_iterator@V?$_Tree_val@U?$_Tree_simple_types@UTelegram@@@std@@@std@@@std@@QAE@XZ
$LN16@erase:
	movzx	ecx, BYTE PTR $T7[ebp]
	test	ecx, ecx
	je	SHORT $LN2@erase

; 1365 : 			{	// erase all
; 1366 : 			clear();

	mov	ecx, DWORD PTR _this$[ebp]
	call	?clear@?$_Tree@V?$_Tset_traits@UTelegram@@U?$less@UTelegram@@@std@@V?$allocator@UTelegram@@@3@$0A@@std@@@std@@QAEXXZ ; std::_Tree<std::_Tset_traits<Telegram,std::less<Telegram>,std::allocator<Telegram>,0> >::clear

; 1367 : 			return (begin());

	mov	edx, DWORD PTR ___$ReturnUdt$[ebp]
	push	edx
	mov	ecx, DWORD PTR _this$[ebp]
	call	?begin@?$_Tree@V?$_Tset_traits@UTelegram@@U?$less@UTelegram@@@std@@V?$allocator@UTelegram@@@3@$0A@@std@@@std@@QAE?AV?$_Tree_const_iterator@V?$_Tree_val@U?$_Tree_simple_types@UTelegram@@@std@@@std@@@2@XZ ; std::_Tree<std::_Tset_traits<Telegram,std::less<Telegram>,std::allocator<Telegram>,0> >::begin
	mov	eax, DWORD PTR $T2[ebp]
	or	eax, 4
	mov	DWORD PTR $T2[ebp], eax
	mov	BYTE PTR __$EHRec$[ebp+8], 0
	lea	ecx, DWORD PTR __First$[ebp]
	call	??1?$_Tree_const_iterator@V?$_Tree_val@U?$_Tree_simple_types@UTelegram@@@std@@@std@@@std@@QAE@XZ
	mov	DWORD PTR __$EHRec$[ebp+8], -1
	lea	ecx, DWORD PTR __Last$[ebp]
	call	??1?$_Tree_const_iterator@V?$_Tree_val@U?$_Tree_simple_types@UTelegram@@@std@@@std@@@std@@QAE@XZ
	mov	eax, DWORD PTR ___$ReturnUdt$[ebp]
	jmp	$LN1@erase

; 1368 : 			}
; 1369 : 		else

	jmp	$LN5@erase
$LN2@erase:

; 1370 : 			{	// partial erase, one at a time
; 1371 : 			while (_First != _Last)

	lea	ecx, DWORD PTR __Last$[ebp]
	push	ecx
	lea	ecx, DWORD PTR __First$[ebp]
	call	??9?$_Tree_const_iterator@V?$_Tree_val@U?$_Tree_simple_types@UTelegram@@@std@@@std@@@std@@QBE_NABV01@@Z ; std::_Tree_const_iterator<std::_Tree_val<std::_Tree_simple_types<Telegram> > >::operator!=
	movzx	edx, al
	test	edx, edx
	je	SHORT $LN3@erase

; 1372 : 				erase(_First++);

	sub	esp, 12					; 0000000cH
	mov	eax, esp
	mov	DWORD PTR $T4[ebp], esp
	push	0
	push	eax
	lea	ecx, DWORD PTR __First$[ebp]
	call	??E?$_Tree_const_iterator@V?$_Tree_val@U?$_Tree_simple_types@UTelegram@@@std@@@std@@@std@@QAE?AV01@H@Z ; std::_Tree_const_iterator<std::_Tree_val<std::_Tree_simple_types<Telegram> > >::operator++
	lea	ecx, DWORD PTR $T3[ebp]
	push	ecx
	mov	ecx, DWORD PTR _this$[ebp]
	call	?erase@?$_Tree@V?$_Tset_traits@UTelegram@@U?$less@UTelegram@@@std@@V?$allocator@UTelegram@@@3@$0A@@std@@@std@@QAE?AV?$_Tree_const_iterator@V?$_Tree_val@U?$_Tree_simple_types@UTelegram@@@std@@@std@@@2@V32@@Z ; std::_Tree<std::_Tset_traits<Telegram,std::less<Telegram>,std::allocator<Telegram>,0> >::erase
	mov	DWORD PTR tv193[ebp], eax
	lea	ecx, DWORD PTR $T3[ebp]
	call	??1?$_Tree_const_iterator@V?$_Tree_val@U?$_Tree_simple_types@UTelegram@@@std@@@std@@@std@@QAE@XZ
	jmp	SHORT $LN2@erase
$LN3@erase:

; 1373 : 			return (iterator(_First._Ptr, _STD addressof(this->_Get_data())));

	mov	ecx, DWORD PTR _this$[ebp]
	call	?_Get_data@?$_Tree_comp_alloc@V?$_Tset_traits@UTelegram@@U?$less@UTelegram@@@std@@V?$allocator@UTelegram@@@3@$0A@@std@@@std@@QAEAAV?$_Tree_val@U?$_Tree_simple_types@UTelegram@@@std@@@2@XZ ; std::_Tree_comp_alloc<std::_Tset_traits<Telegram,std::less<Telegram>,std::allocator<Telegram>,0> >::_Get_data
	push	eax
	call	??$addressof@V?$_Tree_val@U?$_Tree_simple_types@UTelegram@@@std@@@std@@@std@@YAPAV?$_Tree_val@U?$_Tree_simple_types@UTelegram@@@std@@@0@AAV10@@Z ; std::addressof<std::_Tree_val<std::_Tree_simple_types<Telegram> > >
	add	esp, 4
	push	eax
	mov	edx, DWORD PTR __First$[ebp+8]
	push	edx
	mov	ecx, DWORD PTR ___$ReturnUdt$[ebp]
	call	??0?$_Tree_const_iterator@V?$_Tree_val@U?$_Tree_simple_types@UTelegram@@@std@@@std@@@std@@QAE@PAU?$_Tree_node@UTelegram@@PAX@1@PBV?$_Tree_val@U?$_Tree_simple_types@UTelegram@@@std@@@1@@Z ; std::_Tree_const_iterator<std::_Tree_val<std::_Tree_simple_types<Telegram> > >::_Tree_const_iterator<std::_Tree_val<std::_Tree_simple_types<Telegram> > >
	mov	eax, DWORD PTR $T2[ebp]
	or	eax, 4
	mov	DWORD PTR $T2[ebp], eax
	mov	BYTE PTR __$EHRec$[ebp+8], 0
	lea	ecx, DWORD PTR __First$[ebp]
	call	??1?$_Tree_const_iterator@V?$_Tree_val@U?$_Tree_simple_types@UTelegram@@@std@@@std@@@std@@QAE@XZ
	mov	DWORD PTR __$EHRec$[ebp+8], -1
	lea	ecx, DWORD PTR __Last$[ebp]
	call	??1?$_Tree_const_iterator@V?$_Tree_val@U?$_Tree_simple_types@UTelegram@@@std@@@std@@@std@@QAE@XZ
	mov	eax, DWORD PTR ___$ReturnUdt$[ebp]
	jmp	SHORT $LN1@erase
$LN5@erase:

; 1374 : 			}
; 1375 : 		}

	mov	BYTE PTR __$EHRec$[ebp+8], 0
	lea	ecx, DWORD PTR __First$[ebp]
	call	??1?$_Tree_const_iterator@V?$_Tree_val@U?$_Tree_simple_types@UTelegram@@@std@@@std@@@std@@QAE@XZ
	mov	DWORD PTR __$EHRec$[ebp+8], -1
	lea	ecx, DWORD PTR __Last$[ebp]
	call	??1?$_Tree_const_iterator@V?$_Tree_val@U?$_Tree_simple_types@UTelegram@@@std@@@std@@@std@@QAE@XZ
$LN1@erase:
	mov	ecx, DWORD PTR __$EHRec$[ebp]
	mov	DWORD PTR fs:0, ecx
	pop	ecx
	pop	edi
	add	esp, 88					; 00000058H
	cmp	ebp, esp
	call	__RTC_CheckEsp
	mov	esp, ebp
	pop	ebp
	ret	28					; 0000001cH
_TEXT	ENDS
;	COMDAT text$x
text$x	SEGMENT
__unwindfunclet$?erase@?$_Tree@V?$_Tset_traits@UTelegram@@U?$less@UTelegram@@@std@@V?$allocator@UTelegram@@@3@$0A@@std@@@std@@QAE?AV?$_Tree_const_iterator@V?$_Tree_val@U?$_Tree_simple_types@UTelegram@@@std@@@std@@@2@V32@0@Z$0:
	lea	ecx, DWORD PTR __Last$[ebp]
	jmp	??1?$_Tree_const_iterator@V?$_Tree_val@U?$_Tree_simple_types@UTelegram@@@std@@@std@@@std@@QAE@XZ
__unwindfunclet$?erase@?$_Tree@V?$_Tset_traits@UTelegram@@U?$less@UTelegram@@@std@@V?$allocator@UTelegram@@@3@$0A@@std@@@std@@QAE?AV?$_Tree_const_iterator@V?$_Tree_val@U?$_Tree_simple_types@UTelegram@@@std@@@std@@@2@V32@0@Z$1:
	lea	ecx, DWORD PTR __First$[ebp]
	jmp	??1?$_Tree_const_iterator@V?$_Tree_val@U?$_Tree_simple_types@UTelegram@@@std@@@std@@@std@@QAE@XZ
__unwindfunclet$?erase@?$_Tree@V?$_Tset_traits@UTelegram@@U?$less@UTelegram@@@std@@V?$allocator@UTelegram@@@3@$0A@@std@@@std@@QAE?AV?$_Tree_const_iterator@V?$_Tree_val@U?$_Tree_simple_types@UTelegram@@@std@@@std@@@2@V32@0@Z$2:
	mov	eax, DWORD PTR $T2[ebp]
	and	eax, 1
	je	$LN12@erase
	and	DWORD PTR $T2[ebp], -2			; fffffffeH
	lea	ecx, DWORD PTR $T6[ebp]
	jmp	??1?$_Tree_const_iterator@V?$_Tree_val@U?$_Tree_simple_types@UTelegram@@@std@@@std@@@std@@QAE@XZ
$LN12@erase:
	ret	0
__unwindfunclet$?erase@?$_Tree@V?$_Tset_traits@UTelegram@@U?$less@UTelegram@@@std@@V?$allocator@UTelegram@@@3@$0A@@std@@@std@@QAE?AV?$_Tree_const_iterator@V?$_Tree_val@U?$_Tree_simple_types@UTelegram@@@std@@@std@@@2@V32@0@Z$3:
	mov	eax, DWORD PTR $T2[ebp]
	and	eax, 2
	je	$LN14@erase
	and	DWORD PTR $T2[ebp], -3			; fffffffdH
	lea	ecx, DWORD PTR $T5[ebp]
	jmp	??1?$_Tree_const_iterator@V?$_Tree_val@U?$_Tree_simple_types@UTelegram@@@std@@@std@@@std@@QAE@XZ
$LN14@erase:
	ret	0
__ehhandler$?erase@?$_Tree@V?$_Tset_traits@UTelegram@@U?$less@UTelegram@@@std@@V?$allocator@UTelegram@@@3@$0A@@std@@@std@@QAE?AV?$_Tree_const_iterator@V?$_Tree_val@U?$_Tree_simple_types@UTelegram@@@std@@@std@@@2@V32@0@Z:
	mov	edx, DWORD PTR [esp+8]
	lea	eax, DWORD PTR [edx+12]
	mov	ecx, DWORD PTR [edx-84]
	xor	ecx, eax
	call	@__security_check_cookie@4
	mov	eax, OFFSET __ehfuncinfo$?erase@?$_Tree@V?$_Tset_traits@UTelegram@@U?$less@UTelegram@@@std@@V?$allocator@UTelegram@@@3@$0A@@std@@@std@@QAE?AV?$_Tree_const_iterator@V?$_Tree_val@U?$_Tree_simple_types@UTelegram@@@std@@@std@@@2@V32@0@Z
	jmp	___CxxFrameHandler3
text$x	ENDS
?erase@?$_Tree@V?$_Tset_traits@UTelegram@@U?$less@UTelegram@@@std@@V?$allocator@UTelegram@@@3@$0A@@std@@@std@@QAE?AV?$_Tree_const_iterator@V?$_Tree_val@U?$_Tree_simple_types@UTelegram@@@std@@@std@@@2@V32@0@Z ENDP ; std::_Tree<std::_Tset_traits<Telegram,std::less<Telegram>,std::allocator<Telegram>,0> >::erase
; Function compile flags: /Odtp /RTCsu
; File c:\program files (x86)\microsoft visual studio\2017\community\vc\tools\msvc\14.11.25503\include\xtree
;	COMDAT ?erase@?$_Tree@V?$_Tset_traits@UTelegram@@U?$less@UTelegram@@@std@@V?$allocator@UTelegram@@@3@$0A@@std@@@std@@QAE?AV?$_Tree_const_iterator@V?$_Tree_val@U?$_Tree_simple_types@UTelegram@@@std@@@std@@@2@V32@@Z
_TEXT	SEGMENT
tv346 = -52						; size = 4
tv195 = -48						; size = 4
tv184 = -44						; size = 4
$T2 = -40						; size = 4
__Al$ = -36						; size = 4
__Pnode$ = -32						; size = 4
__Fixnodeparent$ = -28					; size = 4
__Fixnode$ = -24					; size = 4
__Erasednode$ = -20					; size = 4
_this$ = -16						; size = 4
__$EHRec$ = -12						; size = 12
___$ReturnUdt$ = 8					; size = 4
__Where$ = 12						; size = 12
?erase@?$_Tree@V?$_Tset_traits@UTelegram@@U?$less@UTelegram@@@std@@V?$allocator@UTelegram@@@3@$0A@@std@@@std@@QAE?AV?$_Tree_const_iterator@V?$_Tree_val@U?$_Tree_simple_types@UTelegram@@@std@@@std@@@2@V32@@Z PROC ; std::_Tree<std::_Tset_traits<Telegram,std::less<Telegram>,std::allocator<Telegram>,0> >::erase, COMDAT
; _this$ = ecx

; 1163 : 		{	// erase element at _Where

	push	ebp
	mov	ebp, esp
	push	-1
	push	__ehhandler$?erase@?$_Tree@V?$_Tset_traits@UTelegram@@U?$less@UTelegram@@@std@@V?$allocator@UTelegram@@@3@$0A@@std@@@std@@QAE?AV?$_Tree_const_iterator@V?$_Tree_val@U?$_Tree_simple_types@UTelegram@@@std@@@std@@@2@V32@@Z
	mov	eax, DWORD PTR fs:0
	push	eax
	sub	esp, 40					; 00000028H
	push	esi
	push	edi
	push	ecx
	lea	edi, DWORD PTR [ebp-52]
	mov	ecx, 10					; 0000000aH
	mov	eax, -858993460				; ccccccccH
	rep stosd
	pop	ecx
	mov	eax, DWORD PTR ___security_cookie
	xor	eax, ebp
	push	eax
	lea	eax, DWORD PTR __$EHRec$[ebp]
	mov	DWORD PTR fs:0, eax
	mov	DWORD PTR _this$[ebp], ecx
	mov	DWORD PTR $T2[ebp], 0
	mov	DWORD PTR __$EHRec$[ebp+8], 0

; 1164 :  #if _ITERATOR_DEBUG_LEVEL == 2
; 1165 : 		if (_Where._Getcont() != _STD addressof(this->_Get_data())
; 1166 : 			|| _Where._Mynode()->_Isnil)

	lea	ecx, DWORD PTR __Where$[ebp]
	call	?_Getcont@_Iterator_base12@std@@QBEPBU_Container_base12@2@XZ ; std::_Iterator_base12::_Getcont
	mov	esi, eax
	mov	ecx, DWORD PTR _this$[ebp]
	call	?_Get_data@?$_Tree_comp_alloc@V?$_Tset_traits@UTelegram@@U?$less@UTelegram@@@std@@V?$allocator@UTelegram@@@3@$0A@@std@@@std@@QAEAAV?$_Tree_val@U?$_Tree_simple_types@UTelegram@@@std@@@2@XZ ; std::_Tree_comp_alloc<std::_Tset_traits<Telegram,std::less<Telegram>,std::allocator<Telegram>,0> >::_Get_data
	push	eax
	call	??$addressof@V?$_Tree_val@U?$_Tree_simple_types@UTelegram@@@std@@@std@@@std@@YAPAV?$_Tree_val@U?$_Tree_simple_types@UTelegram@@@std@@@0@AAV10@@Z ; std::addressof<std::_Tree_val<std::_Tree_simple_types<Telegram> > >
	add	esp, 4
	cmp	esi, eax
	jne	SHORT $LN6@erase
	lea	ecx, DWORD PTR __Where$[ebp]
	call	?_Mynode@?$_Tree_unchecked_const_iterator@V?$_Tree_val@U?$_Tree_simple_types@UTelegram@@@std@@@std@@U_Iterator_base12@2@@std@@QBEPAU?$_Tree_node@UTelegram@@PAX@2@XZ ; std::_Tree_unchecked_const_iterator<std::_Tree_val<std::_Tree_simple_types<Telegram> >,std::_Iterator_base12>::_Mynode
	movsx	eax, BYTE PTR [eax+13]
	test	eax, eax
	je	SHORT $LN5@erase
$LN6@erase:

; 1167 : 			{
; 1168 : 			_DEBUG_ERROR("map/set erase iterator outside range");

	push	1168					; 00000490H
	push	OFFSET ??_C@_1MM@PPENIDKE@?$AAC?$AA?3?$AA?2?$AAP?$AAr?$AAo?$AAg?$AAr?$AAa?$AAm?$AA?5?$AAF?$AAi?$AAl?$AAe?$AAs?$AA?5?$AA?$CI?$AAx?$AA8?$AA6?$AA?$CJ?$AA?2?$AAM?$AAi?$AAc?$AAr?$AAo?$AAs?$AAo?$AAf?$AAt@
	push	OFFSET ??_C@_1EK@PPDBPCAN@?$AAm?$AAa?$AAp?$AA?1?$AAs?$AAe?$AAt?$AA?5?$AAe?$AAr?$AAa?$AAs?$AAe?$AA?5?$AAi?$AAt?$AAe?$AAr?$AAa?$AAt?$AAo?$AAr?$AA?5?$AAo?$AAu?$AAt?$AAs?$AAi?$AAd?$AAe?$AA?5?$AAr@
	call	?_Debug_message@std@@YAXPB_W0I@Z	; std::_Debug_message
	add	esp, 12					; 0000000cH
	push	0
	push	1168					; 00000490H
	push	OFFSET ??_C@_1MM@PPENIDKE@?$AAC?$AA?3?$AA?2?$AAP?$AAr?$AAo?$AAg?$AAr?$AAa?$AAm?$AA?5?$AAF?$AAi?$AAl?$AAe?$AAs?$AA?5?$AA?$CI?$AAx?$AA8?$AA6?$AA?$CJ?$AA?2?$AAM?$AAi?$AAc?$AAr?$AAo?$AAs?$AAo?$AAf?$AAt@
	push	OFFSET ??_C@_1BAO@LAKEHICC@?$AAs?$AAt?$AAd?$AA?3?$AA?3?$AA_?$AAT?$AAr?$AAe?$AAe?$AA?$DM?$AAc?$AAl?$AAa?$AAs?$AAs?$AA?5?$AAs?$AAt?$AAd?$AA?3?$AA?3?$AA_?$AAT?$AAs?$AAe?$AAt?$AA_?$AAt?$AAr?$AAa?$AAi@
	push	OFFSET ??_C@_1EO@CEDAEPC@?$AA?$CC?$AAm?$AAa?$AAp?$AA?1?$AAs?$AAe?$AAt?$AA?5?$AAe?$AAr?$AAa?$AAs?$AAe?$AA?5?$AAi?$AAt?$AAe?$AAr?$AAa?$AAt?$AAo?$AAr?$AA?5?$AAo?$AAu?$AAt?$AAs?$AAi?$AAd?$AAe?$AA?5@
	call	__invalid_parameter
	add	esp, 20					; 00000014H
$LN5@erase:

; 1169 : 			}
; 1170 : 
; 1171 : 		_Nodeptr _Erasednode = _Where._Mynode();	// node to erase

	lea	ecx, DWORD PTR __Where$[ebp]
	call	?_Mynode@?$_Tree_unchecked_const_iterator@V?$_Tree_val@U?$_Tree_simple_types@UTelegram@@@std@@@std@@U_Iterator_base12@2@@std@@QBEPAU?$_Tree_node@UTelegram@@PAX@2@XZ ; std::_Tree_unchecked_const_iterator<std::_Tree_val<std::_Tree_simple_types<Telegram> >,std::_Iterator_base12>::_Mynode
	mov	DWORD PTR __Erasednode$[ebp], eax

; 1172 : 		++_Where;	// save successor iterator for return

	lea	ecx, DWORD PTR __Where$[ebp]
	call	??E?$_Tree_const_iterator@V?$_Tree_val@U?$_Tree_simple_types@UTelegram@@@std@@@std@@@std@@QAEAAV01@XZ ; std::_Tree_const_iterator<std::_Tree_val<std::_Tree_simple_types<Telegram> > >::operator++

; 1173 : 		_Orphan_ptr(_Erasednode);

	mov	ecx, DWORD PTR __Erasednode$[ebp]
	push	ecx
	mov	ecx, DWORD PTR _this$[ebp]
	call	?_Orphan_ptr@?$_Tree@V?$_Tset_traits@UTelegram@@U?$less@UTelegram@@@std@@V?$allocator@UTelegram@@@3@$0A@@std@@@std@@IAEXPAU?$_Tree_node@UTelegram@@PAX@2@@Z ; std::_Tree<std::_Tset_traits<Telegram,std::less<Telegram>,std::allocator<Telegram>,0> >::_Orphan_ptr

; 1174 : 
; 1175 :  #else /* _ITERATOR_DEBUG_LEVEL == 2 */
; 1176 : 		_Nodeptr _Erasednode = _Where._Mynode();	// node to erase
; 1177 : 		++_Where;	// save successor iterator for return
; 1178 :  #endif /* _ITERATOR_DEBUG_LEVEL == 2 */
; 1179 : 
; 1180 : 		_Nodeptr _Fixnode;	// the node to recolor as needed
; 1181 : 		_Nodeptr _Fixnodeparent;	// parent of _Fixnode (which may be nil)
; 1182 : 		_Nodeptr _Pnode = _Erasednode;

	mov	edx, DWORD PTR __Erasednode$[ebp]
	mov	DWORD PTR __Pnode$[ebp], edx

; 1183 : 
; 1184 : 		if (_Pnode->_Left->_Isnil)

	mov	eax, DWORD PTR __Pnode$[ebp]
	mov	ecx, DWORD PTR [eax]
	movsx	edx, BYTE PTR [ecx+13]
	test	edx, edx
	je	SHORT $LN7@erase

; 1185 : 			{
; 1186 : 			_Fixnode = _Pnode->_Right;	// stitch up right subtree

	mov	eax, DWORD PTR __Pnode$[ebp]
	mov	ecx, DWORD PTR [eax+8]
	mov	DWORD PTR __Fixnode$[ebp], ecx
	jmp	SHORT $LN8@erase
$LN7@erase:

; 1187 : 			}
; 1188 : 		else if (_Pnode->_Right->_Isnil)

	mov	edx, DWORD PTR __Pnode$[ebp]
	mov	eax, DWORD PTR [edx+8]
	movsx	ecx, BYTE PTR [eax+13]
	test	ecx, ecx
	je	SHORT $LN9@erase

; 1189 : 			{
; 1190 : 			_Fixnode = _Pnode->_Left;	// stitch up left subtree

	mov	edx, DWORD PTR __Pnode$[ebp]
	mov	eax, DWORD PTR [edx]
	mov	DWORD PTR __Fixnode$[ebp], eax

; 1191 : 			}
; 1192 : 		else

	jmp	SHORT $LN8@erase
$LN9@erase:

; 1193 : 			{	// two subtrees, must lift successor node to replace erased
; 1194 : 			_Pnode = _Where._Mynode();	// _Pnode is successor node

	lea	ecx, DWORD PTR __Where$[ebp]
	call	?_Mynode@?$_Tree_unchecked_const_iterator@V?$_Tree_val@U?$_Tree_simple_types@UTelegram@@@std@@@std@@U_Iterator_base12@2@@std@@QBEPAU?$_Tree_node@UTelegram@@PAX@2@XZ ; std::_Tree_unchecked_const_iterator<std::_Tree_val<std::_Tree_simple_types<Telegram> >,std::_Iterator_base12>::_Mynode
	mov	DWORD PTR __Pnode$[ebp], eax

; 1195 : 			_Fixnode = _Pnode->_Right;	// _Fixnode is only subtree

	mov	ecx, DWORD PTR __Pnode$[ebp]
	mov	edx, DWORD PTR [ecx+8]
	mov	DWORD PTR __Fixnode$[ebp], edx
$LN8@erase:

; 1196 : 			}
; 1197 : 
; 1198 : 		if (_Pnode == _Erasednode)

	mov	eax, DWORD PTR __Pnode$[ebp]
	cmp	eax, DWORD PTR __Erasednode$[ebp]
	jne	$LN11@erase

; 1199 : 			{	// at most one subtree, relink it
; 1200 : 			_Fixnodeparent = _Erasednode->_Parent;

	mov	ecx, DWORD PTR __Erasednode$[ebp]
	mov	edx, DWORD PTR [ecx+4]
	mov	DWORD PTR __Fixnodeparent$[ebp], edx

; 1201 : 			if (!_Fixnode->_Isnil)

	mov	eax, DWORD PTR __Fixnode$[ebp]
	movsx	ecx, BYTE PTR [eax+13]
	test	ecx, ecx
	jne	SHORT $LN13@erase

; 1202 : 				_Fixnode->_Parent = _Fixnodeparent;	// link up

	mov	edx, DWORD PTR __Fixnode$[ebp]
	mov	eax, DWORD PTR __Fixnodeparent$[ebp]
	mov	DWORD PTR [edx+4], eax
$LN13@erase:

; 1203 : 
; 1204 : 			if (_Root() == _Erasednode)

	mov	ecx, DWORD PTR _this$[ebp]
	call	?_Root@?$_Tree@V?$_Tset_traits@UTelegram@@U?$less@UTelegram@@@std@@V?$allocator@UTelegram@@@3@$0A@@std@@@std@@IBEAAPAU?$_Tree_node@UTelegram@@PAX@2@XZ ; std::_Tree<std::_Tset_traits<Telegram,std::less<Telegram>,std::allocator<Telegram>,0> >::_Root
	mov	ecx, DWORD PTR [eax]
	cmp	ecx, DWORD PTR __Erasednode$[ebp]
	jne	SHORT $LN14@erase

; 1205 : 				{
; 1206 : 				_Root() = _Fixnode;	// link down from root

	mov	ecx, DWORD PTR _this$[ebp]
	call	?_Root@?$_Tree@V?$_Tset_traits@UTelegram@@U?$less@UTelegram@@@std@@V?$allocator@UTelegram@@@3@$0A@@std@@@std@@IBEAAPAU?$_Tree_node@UTelegram@@PAX@2@XZ ; std::_Tree<std::_Tset_traits<Telegram,std::less<Telegram>,std::allocator<Telegram>,0> >::_Root
	mov	edx, DWORD PTR __Fixnode$[ebp]
	mov	DWORD PTR [eax], edx
	jmp	SHORT $LN15@erase
$LN14@erase:

; 1207 : 				}
; 1208 : 			else if (_Fixnodeparent->_Left == _Erasednode)

	mov	eax, DWORD PTR __Fixnodeparent$[ebp]
	mov	ecx, DWORD PTR [eax]
	cmp	ecx, DWORD PTR __Erasednode$[ebp]
	jne	SHORT $LN16@erase

; 1209 : 				{
; 1210 : 				_Fixnodeparent->_Left = _Fixnode;	// link down to left

	mov	edx, DWORD PTR __Fixnodeparent$[ebp]
	mov	eax, DWORD PTR __Fixnode$[ebp]
	mov	DWORD PTR [edx], eax

; 1211 : 				}
; 1212 : 			else

	jmp	SHORT $LN15@erase
$LN16@erase:

; 1213 : 				{
; 1214 : 				_Fixnodeparent->_Right = _Fixnode;	// link down to right

	mov	ecx, DWORD PTR __Fixnodeparent$[ebp]
	mov	edx, DWORD PTR __Fixnode$[ebp]
	mov	DWORD PTR [ecx+8], edx
$LN15@erase:

; 1215 : 				}
; 1216 : 
; 1217 : 			if (_Lmost() == _Erasednode)

	mov	ecx, DWORD PTR _this$[ebp]
	call	?_Lmost@?$_Tree@V?$_Tset_traits@UTelegram@@U?$less@UTelegram@@@std@@V?$allocator@UTelegram@@@3@$0A@@std@@@std@@IBEAAPAU?$_Tree_node@UTelegram@@PAX@2@XZ ; std::_Tree<std::_Tset_traits<Telegram,std::less<Telegram>,std::allocator<Telegram>,0> >::_Lmost
	mov	eax, DWORD PTR [eax]
	cmp	eax, DWORD PTR __Erasednode$[ebp]
	jne	SHORT $LN18@erase

; 1218 : 				{
; 1219 : 				_Lmost() = _Fixnode->_Isnil

	mov	ecx, DWORD PTR __Fixnode$[ebp]
	movsx	edx, BYTE PTR [ecx+13]
	test	edx, edx
	je	SHORT $LN44@erase
	mov	eax, DWORD PTR __Fixnodeparent$[ebp]
	mov	DWORD PTR tv184[ebp], eax
	jmp	SHORT $LN45@erase
$LN44@erase:
	mov	ecx, DWORD PTR __Fixnode$[ebp]
	push	ecx
	call	?_Min@?$_Tree_comp_alloc@V?$_Tset_traits@UTelegram@@U?$less@UTelegram@@@std@@V?$allocator@UTelegram@@@3@$0A@@std@@@std@@SAPAU?$_Tree_node@UTelegram@@PAX@2@PAU32@@Z ; std::_Tree_comp_alloc<std::_Tset_traits<Telegram,std::less<Telegram>,std::allocator<Telegram>,0> >::_Min
	add	esp, 4
	mov	DWORD PTR tv184[ebp], eax
$LN45@erase:
	mov	ecx, DWORD PTR _this$[ebp]
	call	?_Lmost@?$_Tree@V?$_Tset_traits@UTelegram@@U?$less@UTelegram@@@std@@V?$allocator@UTelegram@@@3@$0A@@std@@@std@@IBEAAPAU?$_Tree_node@UTelegram@@PAX@2@XZ ; std::_Tree<std::_Tset_traits<Telegram,std::less<Telegram>,std::allocator<Telegram>,0> >::_Lmost
	mov	edx, DWORD PTR tv184[ebp]
	mov	DWORD PTR [eax], edx
$LN18@erase:

; 1220 : 					? _Fixnodeparent	// smallest is parent of erased node
; 1221 : 					: this->_Min(_Fixnode);	// smallest in relinked subtree
; 1222 : 				}
; 1223 : 
; 1224 : 			if (_Rmost() == _Erasednode)

	mov	ecx, DWORD PTR _this$[ebp]
	call	?_Rmost@?$_Tree@V?$_Tset_traits@UTelegram@@U?$less@UTelegram@@@std@@V?$allocator@UTelegram@@@3@$0A@@std@@@std@@IBEAAPAU?$_Tree_node@UTelegram@@PAX@2@XZ ; std::_Tree<std::_Tset_traits<Telegram,std::less<Telegram>,std::allocator<Telegram>,0> >::_Rmost
	mov	eax, DWORD PTR [eax]
	cmp	eax, DWORD PTR __Erasednode$[ebp]
	jne	SHORT $LN19@erase

; 1225 : 				{
; 1226 : 				_Rmost() = _Fixnode->_Isnil

	mov	ecx, DWORD PTR __Fixnode$[ebp]
	movsx	edx, BYTE PTR [ecx+13]
	test	edx, edx
	je	SHORT $LN46@erase
	mov	eax, DWORD PTR __Fixnodeparent$[ebp]
	mov	DWORD PTR tv195[ebp], eax
	jmp	SHORT $LN47@erase
$LN46@erase:
	mov	ecx, DWORD PTR __Fixnode$[ebp]
	push	ecx
	call	?_Max@?$_Tree_comp_alloc@V?$_Tset_traits@UTelegram@@U?$less@UTelegram@@@std@@V?$allocator@UTelegram@@@3@$0A@@std@@@std@@SAPAU?$_Tree_node@UTelegram@@PAX@2@PAU32@@Z ; std::_Tree_comp_alloc<std::_Tset_traits<Telegram,std::less<Telegram>,std::allocator<Telegram>,0> >::_Max
	add	esp, 4
	mov	DWORD PTR tv195[ebp], eax
$LN47@erase:
	mov	ecx, DWORD PTR _this$[ebp]
	call	?_Rmost@?$_Tree@V?$_Tset_traits@UTelegram@@U?$less@UTelegram@@@std@@V?$allocator@UTelegram@@@3@$0A@@std@@@std@@IBEAAPAU?$_Tree_node@UTelegram@@PAX@2@XZ ; std::_Tree<std::_Tset_traits<Telegram,std::less<Telegram>,std::allocator<Telegram>,0> >::_Rmost
	mov	edx, DWORD PTR tv195[ebp]
	mov	DWORD PTR [eax], edx
$LN19@erase:

; 1227 : 					? _Fixnodeparent	// largest is parent of erased node
; 1228 : 					: this->_Max(_Fixnode);	// largest in relinked subtree
; 1229 : 				}
; 1230 : 			}
; 1231 : 		else

	jmp	$LN12@erase
$LN11@erase:

; 1232 : 			{	// erased has two subtrees, _Pnode is successor to erased
; 1233 : 			_Erasednode->_Left->_Parent = _Pnode;	// link left up

	mov	eax, DWORD PTR __Erasednode$[ebp]
	mov	ecx, DWORD PTR [eax]
	mov	edx, DWORD PTR __Pnode$[ebp]
	mov	DWORD PTR [ecx+4], edx

; 1234 : 			_Pnode->_Left = _Erasednode->_Left;	// link successor down

	mov	eax, DWORD PTR __Pnode$[ebp]
	mov	ecx, DWORD PTR __Erasednode$[ebp]
	mov	edx, DWORD PTR [ecx]
	mov	DWORD PTR [eax], edx

; 1235 : 
; 1236 : 			if (_Pnode == _Erasednode->_Right)

	mov	eax, DWORD PTR __Erasednode$[ebp]
	mov	ecx, DWORD PTR __Pnode$[ebp]
	cmp	ecx, DWORD PTR [eax+8]
	jne	SHORT $LN20@erase

; 1237 : 				{
; 1238 : 				_Fixnodeparent = _Pnode;	// successor is next to erased

	mov	edx, DWORD PTR __Pnode$[ebp]
	mov	DWORD PTR __Fixnodeparent$[ebp], edx

; 1239 : 				}
; 1240 : 			else

	jmp	SHORT $LN21@erase
$LN20@erase:

; 1241 : 				{	// successor further down, link in place of erased
; 1242 : 				_Fixnodeparent = _Pnode->_Parent;	// parent is successor's

	mov	eax, DWORD PTR __Pnode$[ebp]
	mov	ecx, DWORD PTR [eax+4]
	mov	DWORD PTR __Fixnodeparent$[ebp], ecx

; 1243 : 				if (!_Fixnode->_Isnil)

	mov	edx, DWORD PTR __Fixnode$[ebp]
	movsx	eax, BYTE PTR [edx+13]
	test	eax, eax
	jne	SHORT $LN22@erase

; 1244 : 					{
; 1245 : 					_Fixnode->_Parent = _Fixnodeparent;	// link fix up

	mov	ecx, DWORD PTR __Fixnode$[ebp]
	mov	edx, DWORD PTR __Fixnodeparent$[ebp]
	mov	DWORD PTR [ecx+4], edx
$LN22@erase:

; 1246 : 					}
; 1247 : 
; 1248 : 				_Fixnodeparent->_Left = _Fixnode;	// link fix down

	mov	eax, DWORD PTR __Fixnodeparent$[ebp]
	mov	ecx, DWORD PTR __Fixnode$[ebp]
	mov	DWORD PTR [eax], ecx

; 1249 : 				_Pnode->_Right = _Erasednode->_Right;	// link next down

	mov	edx, DWORD PTR __Pnode$[ebp]
	mov	eax, DWORD PTR __Erasednode$[ebp]
	mov	ecx, DWORD PTR [eax+8]
	mov	DWORD PTR [edx+8], ecx

; 1250 : 				_Erasednode->_Right->_Parent = _Pnode;	// right up

	mov	edx, DWORD PTR __Erasednode$[ebp]
	mov	eax, DWORD PTR [edx+8]
	mov	ecx, DWORD PTR __Pnode$[ebp]
	mov	DWORD PTR [eax+4], ecx
$LN21@erase:

; 1251 : 				}
; 1252 : 
; 1253 : 			if (_Root() == _Erasednode)

	mov	ecx, DWORD PTR _this$[ebp]
	call	?_Root@?$_Tree@V?$_Tset_traits@UTelegram@@U?$less@UTelegram@@@std@@V?$allocator@UTelegram@@@3@$0A@@std@@@std@@IBEAAPAU?$_Tree_node@UTelegram@@PAX@2@XZ ; std::_Tree<std::_Tset_traits<Telegram,std::less<Telegram>,std::allocator<Telegram>,0> >::_Root
	mov	edx, DWORD PTR [eax]
	cmp	edx, DWORD PTR __Erasednode$[ebp]
	jne	SHORT $LN23@erase

; 1254 : 				{
; 1255 : 				_Root() = _Pnode;	// link down from root

	mov	ecx, DWORD PTR _this$[ebp]
	call	?_Root@?$_Tree@V?$_Tset_traits@UTelegram@@U?$less@UTelegram@@@std@@V?$allocator@UTelegram@@@3@$0A@@std@@@std@@IBEAAPAU?$_Tree_node@UTelegram@@PAX@2@XZ ; std::_Tree<std::_Tset_traits<Telegram,std::less<Telegram>,std::allocator<Telegram>,0> >::_Root
	mov	ecx, DWORD PTR __Pnode$[ebp]
	mov	DWORD PTR [eax], ecx
	jmp	SHORT $LN24@erase
$LN23@erase:

; 1256 : 				}
; 1257 : 			else if (_Erasednode->_Parent->_Left == _Erasednode)

	mov	edx, DWORD PTR __Erasednode$[ebp]
	mov	eax, DWORD PTR [edx+4]
	mov	ecx, DWORD PTR [eax]
	cmp	ecx, DWORD PTR __Erasednode$[ebp]
	jne	SHORT $LN25@erase

; 1258 : 				{
; 1259 : 				_Erasednode->_Parent->_Left = _Pnode;	// link down to left

	mov	edx, DWORD PTR __Erasednode$[ebp]
	mov	eax, DWORD PTR [edx+4]
	mov	ecx, DWORD PTR __Pnode$[ebp]
	mov	DWORD PTR [eax], ecx

; 1260 : 				}
; 1261 : 			else

	jmp	SHORT $LN24@erase
$LN25@erase:

; 1262 : 				{
; 1263 : 				_Erasednode->_Parent->_Right = _Pnode;	// link down to right

	mov	edx, DWORD PTR __Erasednode$[ebp]
	mov	eax, DWORD PTR [edx+4]
	mov	ecx, DWORD PTR __Pnode$[ebp]
	mov	DWORD PTR [eax+8], ecx
$LN24@erase:

; 1264 : 				}
; 1265 : 
; 1266 : 			_Pnode->_Parent = _Erasednode->_Parent;	// link successor up

	mov	edx, DWORD PTR __Pnode$[ebp]
	mov	eax, DWORD PTR __Erasednode$[ebp]
	mov	ecx, DWORD PTR [eax+4]
	mov	DWORD PTR [edx+4], ecx

; 1267 : 			_STD swap(_Pnode->_Color, _Erasednode->_Color);	// recolor it

	mov	edx, DWORD PTR __Erasednode$[ebp]
	add	edx, 12					; 0000000cH
	push	edx
	mov	eax, DWORD PTR __Pnode$[ebp]
	add	eax, 12					; 0000000cH
	push	eax
	call	??$swap@DX@std@@YAXAAD0@Z		; std::swap<char,void>
	add	esp, 8
$LN12@erase:

; 1268 : 			}
; 1269 : 
; 1270 : 		if (_Erasednode->_Color == this->_Black)

	mov	ecx, DWORD PTR __Erasednode$[ebp]
	movsx	edx, BYTE PTR [ecx+12]
	cmp	edx, 1
	jne	$LN27@erase

; 1271 : 			{	// erasing black link, must recolor/rebalance tree
; 1272 : 			for (; _Fixnode != _Root()

	jmp	SHORT $LN4@erase
$LN2@erase:

; 1274 : 				_Fixnodeparent = _Fixnode->_Parent)

	mov	eax, DWORD PTR __Fixnode$[ebp]
	mov	ecx, DWORD PTR [eax+4]
	mov	DWORD PTR __Fixnodeparent$[ebp], ecx
$LN4@erase:

; 1273 : 				&& _Fixnode->_Color == this->_Black;

	mov	ecx, DWORD PTR _this$[ebp]
	call	?_Root@?$_Tree@V?$_Tset_traits@UTelegram@@U?$less@UTelegram@@@std@@V?$allocator@UTelegram@@@3@$0A@@std@@@std@@IBEAAPAU?$_Tree_node@UTelegram@@PAX@2@XZ ; std::_Tree<std::_Tset_traits<Telegram,std::less<Telegram>,std::allocator<Telegram>,0> >::_Root
	mov	edx, DWORD PTR __Fixnode$[ebp]
	cmp	edx, DWORD PTR [eax]
	je	$LN3@erase
	mov	eax, DWORD PTR __Fixnode$[ebp]
	movsx	ecx, BYTE PTR [eax+12]
	cmp	ecx, 1
	jne	$LN3@erase

; 1275 : 				if (_Fixnode == _Fixnodeparent->_Left)

	mov	edx, DWORD PTR __Fixnodeparent$[ebp]
	mov	eax, DWORD PTR __Fixnode$[ebp]
	cmp	eax, DWORD PTR [edx]
	jne	$LN28@erase

; 1276 : 					{	// fixup left subtree
; 1277 : 					_Pnode = _Fixnodeparent->_Right;

	mov	ecx, DWORD PTR __Fixnodeparent$[ebp]
	mov	edx, DWORD PTR [ecx+8]
	mov	DWORD PTR __Pnode$[ebp], edx

; 1278 : 					if (_Pnode->_Color == this->_Red)

	mov	eax, DWORD PTR __Pnode$[ebp]
	movsx	ecx, BYTE PTR [eax+12]
	test	ecx, ecx
	jne	SHORT $LN30@erase

; 1279 : 						{	// rotate red up from right subtree
; 1280 : 						_Pnode->_Color = this->_Black;

	mov	edx, DWORD PTR __Pnode$[ebp]
	mov	BYTE PTR [edx+12], 1

; 1281 : 						_Fixnodeparent->_Color = this->_Red;

	mov	eax, DWORD PTR __Fixnodeparent$[ebp]
	mov	BYTE PTR [eax+12], 0

; 1282 : 						_Lrotate(_Fixnodeparent);

	mov	ecx, DWORD PTR __Fixnodeparent$[ebp]
	push	ecx
	mov	ecx, DWORD PTR _this$[ebp]
	call	?_Lrotate@?$_Tree@V?$_Tset_traits@UTelegram@@U?$less@UTelegram@@@std@@V?$allocator@UTelegram@@@3@$0A@@std@@@std@@IAEXPAU?$_Tree_node@UTelegram@@PAX@2@@Z ; std::_Tree<std::_Tset_traits<Telegram,std::less<Telegram>,std::allocator<Telegram>,0> >::_Lrotate

; 1283 : 						_Pnode = _Fixnodeparent->_Right;

	mov	edx, DWORD PTR __Fixnodeparent$[ebp]
	mov	eax, DWORD PTR [edx+8]
	mov	DWORD PTR __Pnode$[ebp], eax
$LN30@erase:

; 1284 : 						}
; 1285 : 
; 1286 : 					if (_Pnode->_Isnil)

	mov	ecx, DWORD PTR __Pnode$[ebp]
	movsx	edx, BYTE PTR [ecx+13]
	test	edx, edx
	je	SHORT $LN31@erase

; 1287 : 						_Fixnode = _Fixnodeparent;	// shouldn't happen

	mov	eax, DWORD PTR __Fixnodeparent$[ebp]
	mov	DWORD PTR __Fixnode$[ebp], eax

; 1288 : 					else if (_Pnode->_Left->_Color == this->_Black

	jmp	$LN32@erase
$LN31@erase:

; 1289 : 						&& _Pnode->_Right->_Color == this->_Black)

	mov	ecx, DWORD PTR __Pnode$[ebp]
	mov	edx, DWORD PTR [ecx]
	movsx	eax, BYTE PTR [edx+12]
	cmp	eax, 1
	jne	SHORT $LN33@erase
	mov	ecx, DWORD PTR __Pnode$[ebp]
	mov	edx, DWORD PTR [ecx+8]
	movsx	eax, BYTE PTR [edx+12]
	cmp	eax, 1
	jne	SHORT $LN33@erase

; 1290 : 						{	// redden right subtree with black children
; 1291 : 						_Pnode->_Color = this->_Red;

	mov	ecx, DWORD PTR __Pnode$[ebp]
	mov	BYTE PTR [ecx+12], 0

; 1292 : 						_Fixnode = _Fixnodeparent;

	mov	edx, DWORD PTR __Fixnodeparent$[ebp]
	mov	DWORD PTR __Fixnode$[ebp], edx

; 1293 : 						}
; 1294 : 					else

	jmp	SHORT $LN32@erase
$LN33@erase:

; 1295 : 						{	// must rearrange right subtree
; 1296 : 						if (_Pnode->_Right->_Color == this->_Black)

	mov	eax, DWORD PTR __Pnode$[ebp]
	mov	ecx, DWORD PTR [eax+8]
	movsx	edx, BYTE PTR [ecx+12]
	cmp	edx, 1
	jne	SHORT $LN35@erase

; 1297 : 							{	// rotate red up from left sub-subtree
; 1298 : 							_Pnode->_Left->_Color = this->_Black;

	mov	eax, DWORD PTR __Pnode$[ebp]
	mov	ecx, DWORD PTR [eax]
	mov	BYTE PTR [ecx+12], 1

; 1299 : 							_Pnode->_Color = this->_Red;

	mov	edx, DWORD PTR __Pnode$[ebp]
	mov	BYTE PTR [edx+12], 0

; 1300 : 							_Rrotate(_Pnode);

	mov	eax, DWORD PTR __Pnode$[ebp]
	push	eax
	mov	ecx, DWORD PTR _this$[ebp]
	call	?_Rrotate@?$_Tree@V?$_Tset_traits@UTelegram@@U?$less@UTelegram@@@std@@V?$allocator@UTelegram@@@3@$0A@@std@@@std@@IAEXPAU?$_Tree_node@UTelegram@@PAX@2@@Z ; std::_Tree<std::_Tset_traits<Telegram,std::less<Telegram>,std::allocator<Telegram>,0> >::_Rrotate

; 1301 : 							_Pnode = _Fixnodeparent->_Right;

	mov	ecx, DWORD PTR __Fixnodeparent$[ebp]
	mov	edx, DWORD PTR [ecx+8]
	mov	DWORD PTR __Pnode$[ebp], edx
$LN35@erase:

; 1302 : 							}
; 1303 : 
; 1304 : 						_Pnode->_Color = _Fixnodeparent->_Color;

	mov	eax, DWORD PTR __Pnode$[ebp]
	mov	ecx, DWORD PTR __Fixnodeparent$[ebp]
	mov	dl, BYTE PTR [ecx+12]
	mov	BYTE PTR [eax+12], dl

; 1305 : 						_Fixnodeparent->_Color = this->_Black;

	mov	eax, DWORD PTR __Fixnodeparent$[ebp]
	mov	BYTE PTR [eax+12], 1

; 1306 : 						_Pnode->_Right->_Color = this->_Black;

	mov	ecx, DWORD PTR __Pnode$[ebp]
	mov	edx, DWORD PTR [ecx+8]
	mov	BYTE PTR [edx+12], 1

; 1307 : 						_Lrotate(_Fixnodeparent);

	mov	eax, DWORD PTR __Fixnodeparent$[ebp]
	push	eax
	mov	ecx, DWORD PTR _this$[ebp]
	call	?_Lrotate@?$_Tree@V?$_Tset_traits@UTelegram@@U?$less@UTelegram@@@std@@V?$allocator@UTelegram@@@3@$0A@@std@@@std@@IAEXPAU?$_Tree_node@UTelegram@@PAX@2@@Z ; std::_Tree<std::_Tset_traits<Telegram,std::less<Telegram>,std::allocator<Telegram>,0> >::_Lrotate

; 1308 : 						break;	// tree now recolored/rebalanced

	jmp	$LN3@erase
$LN32@erase:

; 1309 : 						}
; 1310 : 					}
; 1311 : 				else

	jmp	$LN29@erase
$LN28@erase:

; 1312 : 					{	// fixup right subtree
; 1313 : 					_Pnode = _Fixnodeparent->_Left;

	mov	ecx, DWORD PTR __Fixnodeparent$[ebp]
	mov	edx, DWORD PTR [ecx]
	mov	DWORD PTR __Pnode$[ebp], edx

; 1314 : 					if (_Pnode->_Color == this->_Red)

	mov	eax, DWORD PTR __Pnode$[ebp]
	movsx	ecx, BYTE PTR [eax+12]
	test	ecx, ecx
	jne	SHORT $LN36@erase

; 1315 : 						{	// rotate red up from left subtree
; 1316 : 						_Pnode->_Color = this->_Black;

	mov	edx, DWORD PTR __Pnode$[ebp]
	mov	BYTE PTR [edx+12], 1

; 1317 : 						_Fixnodeparent->_Color = this->_Red;

	mov	eax, DWORD PTR __Fixnodeparent$[ebp]
	mov	BYTE PTR [eax+12], 0

; 1318 : 						_Rrotate(_Fixnodeparent);

	mov	ecx, DWORD PTR __Fixnodeparent$[ebp]
	push	ecx
	mov	ecx, DWORD PTR _this$[ebp]
	call	?_Rrotate@?$_Tree@V?$_Tset_traits@UTelegram@@U?$less@UTelegram@@@std@@V?$allocator@UTelegram@@@3@$0A@@std@@@std@@IAEXPAU?$_Tree_node@UTelegram@@PAX@2@@Z ; std::_Tree<std::_Tset_traits<Telegram,std::less<Telegram>,std::allocator<Telegram>,0> >::_Rrotate

; 1319 : 						_Pnode = _Fixnodeparent->_Left;

	mov	edx, DWORD PTR __Fixnodeparent$[ebp]
	mov	eax, DWORD PTR [edx]
	mov	DWORD PTR __Pnode$[ebp], eax
$LN36@erase:

; 1320 : 						}
; 1321 : 
; 1322 : 					if (_Pnode->_Isnil)

	mov	ecx, DWORD PTR __Pnode$[ebp]
	movsx	edx, BYTE PTR [ecx+13]
	test	edx, edx
	je	SHORT $LN37@erase

; 1323 : 						_Fixnode = _Fixnodeparent;	// shouldn't happen

	mov	eax, DWORD PTR __Fixnodeparent$[ebp]
	mov	DWORD PTR __Fixnode$[ebp], eax

; 1324 : 					else if (_Pnode->_Right->_Color == this->_Black

	jmp	$LN29@erase
$LN37@erase:

; 1325 : 						&& _Pnode->_Left->_Color == this->_Black)

	mov	ecx, DWORD PTR __Pnode$[ebp]
	mov	edx, DWORD PTR [ecx+8]
	movsx	eax, BYTE PTR [edx+12]
	cmp	eax, 1
	jne	SHORT $LN39@erase
	mov	ecx, DWORD PTR __Pnode$[ebp]
	mov	edx, DWORD PTR [ecx]
	movsx	eax, BYTE PTR [edx+12]
	cmp	eax, 1
	jne	SHORT $LN39@erase

; 1326 : 						{	// redden left subtree with black children
; 1327 : 						_Pnode->_Color = this->_Red;

	mov	ecx, DWORD PTR __Pnode$[ebp]
	mov	BYTE PTR [ecx+12], 0

; 1328 : 						_Fixnode = _Fixnodeparent;

	mov	edx, DWORD PTR __Fixnodeparent$[ebp]
	mov	DWORD PTR __Fixnode$[ebp], edx

; 1329 : 						}
; 1330 : 					else

	jmp	SHORT $LN29@erase
$LN39@erase:

; 1331 : 						{	// must rearrange left subtree
; 1332 : 						if (_Pnode->_Left->_Color == this->_Black)

	mov	eax, DWORD PTR __Pnode$[ebp]
	mov	ecx, DWORD PTR [eax]
	movsx	edx, BYTE PTR [ecx+12]
	cmp	edx, 1
	jne	SHORT $LN41@erase

; 1333 : 							{	// rotate red up from right sub-subtree
; 1334 : 							_Pnode->_Right->_Color = this->_Black;

	mov	eax, DWORD PTR __Pnode$[ebp]
	mov	ecx, DWORD PTR [eax+8]
	mov	BYTE PTR [ecx+12], 1

; 1335 : 							_Pnode->_Color = this->_Red;

	mov	edx, DWORD PTR __Pnode$[ebp]
	mov	BYTE PTR [edx+12], 0

; 1336 : 							_Lrotate(_Pnode);

	mov	eax, DWORD PTR __Pnode$[ebp]
	push	eax
	mov	ecx, DWORD PTR _this$[ebp]
	call	?_Lrotate@?$_Tree@V?$_Tset_traits@UTelegram@@U?$less@UTelegram@@@std@@V?$allocator@UTelegram@@@3@$0A@@std@@@std@@IAEXPAU?$_Tree_node@UTelegram@@PAX@2@@Z ; std::_Tree<std::_Tset_traits<Telegram,std::less<Telegram>,std::allocator<Telegram>,0> >::_Lrotate

; 1337 : 							_Pnode = _Fixnodeparent->_Left;

	mov	ecx, DWORD PTR __Fixnodeparent$[ebp]
	mov	edx, DWORD PTR [ecx]
	mov	DWORD PTR __Pnode$[ebp], edx
$LN41@erase:

; 1338 : 							}
; 1339 : 
; 1340 : 						_Pnode->_Color = _Fixnodeparent->_Color;

	mov	eax, DWORD PTR __Pnode$[ebp]
	mov	ecx, DWORD PTR __Fixnodeparent$[ebp]
	mov	dl, BYTE PTR [ecx+12]
	mov	BYTE PTR [eax+12], dl

; 1341 : 						_Fixnodeparent->_Color = this->_Black;

	mov	eax, DWORD PTR __Fixnodeparent$[ebp]
	mov	BYTE PTR [eax+12], 1

; 1342 : 						_Pnode->_Left->_Color = this->_Black;

	mov	ecx, DWORD PTR __Pnode$[ebp]
	mov	edx, DWORD PTR [ecx]
	mov	BYTE PTR [edx+12], 1

; 1343 : 						_Rrotate(_Fixnodeparent);

	mov	eax, DWORD PTR __Fixnodeparent$[ebp]
	push	eax
	mov	ecx, DWORD PTR _this$[ebp]
	call	?_Rrotate@?$_Tree@V?$_Tset_traits@UTelegram@@U?$less@UTelegram@@@std@@V?$allocator@UTelegram@@@3@$0A@@std@@@std@@IAEXPAU?$_Tree_node@UTelegram@@PAX@2@@Z ; std::_Tree<std::_Tset_traits<Telegram,std::less<Telegram>,std::allocator<Telegram>,0> >::_Rrotate

; 1344 : 						break;	// tree now recolored/rebalanced

	jmp	SHORT $LN3@erase
$LN29@erase:

; 1345 : 						}
; 1346 : 					}

	jmp	$LN2@erase
$LN3@erase:

; 1347 : 
; 1348 : 			_Fixnode->_Color = this->_Black;	// stopping node is black

	mov	ecx, DWORD PTR __Fixnode$[ebp]
	mov	BYTE PTR [ecx+12], 1
$LN27@erase:

; 1349 : 			}
; 1350 : 
; 1351 : 		_Alnode& _Al = this->_Getal();

	mov	ecx, DWORD PTR _this$[ebp]
	call	?_Getal@?$_Tree_comp_alloc@V?$_Tset_traits@UTelegram@@U?$less@UTelegram@@@std@@V?$allocator@UTelegram@@@3@$0A@@std@@@std@@QAEAAV?$allocator@U?$_Tree_node@UTelegram@@PAX@std@@@2@XZ ; std::_Tree_comp_alloc<std::_Tset_traits<Telegram,std::less<Telegram>,std::allocator<Telegram>,0> >::_Getal
	mov	DWORD PTR __Al$[ebp], eax

; 1352 : 		_Alnode_traits::destroy(_Al, _STD addressof(_Erasednode->_Myval));	// delete erased node

	mov	edx, DWORD PTR __Erasednode$[ebp]
	add	edx, 16					; 00000010H
	push	edx
	call	??$addressof@UTelegram@@@std@@YAPAUTelegram@@AAU1@@Z ; std::addressof<Telegram>
	add	esp, 4
	push	eax
	mov	eax, DWORD PTR __Al$[ebp]
	push	eax
	call	??$destroy@UTelegram@@@?$_Default_allocator_traits@V?$allocator@U?$_Tree_node@UTelegram@@PAX@std@@@std@@@std@@SAXAAV?$allocator@U?$_Tree_node@UTelegram@@PAX@std@@@1@QAUTelegram@@@Z ; std::_Default_allocator_traits<std::allocator<std::_Tree_node<Telegram,void *> > >::destroy<Telegram>
	add	esp, 8

; 1353 : 		_Al.deallocate(_Erasednode, 1);

	push	1
	mov	ecx, DWORD PTR __Erasednode$[ebp]
	push	ecx
	mov	ecx, DWORD PTR __Al$[ebp]
	call	?deallocate@?$allocator@U?$_Tree_node@UTelegram@@PAX@std@@@std@@QAEXQAU?$_Tree_node@UTelegram@@PAX@2@I@Z ; std::allocator<std::_Tree_node<Telegram,void *> >::deallocate

; 1354 : 
; 1355 : 		if (0 < this->_Mysize())

	mov	ecx, DWORD PTR _this$[ebp]
	call	?_Mysize@?$_Tree_comp_alloc@V?$_Tset_traits@UTelegram@@U?$less@UTelegram@@@std@@V?$allocator@UTelegram@@@3@$0A@@std@@@std@@QAEAAIXZ ; std::_Tree_comp_alloc<std::_Tset_traits<Telegram,std::less<Telegram>,std::allocator<Telegram>,0> >::_Mysize
	cmp	DWORD PTR [eax], 0
	jbe	SHORT $LN42@erase

; 1356 : 			--this->_Mysize();

	mov	ecx, DWORD PTR _this$[ebp]
	call	?_Mysize@?$_Tree_comp_alloc@V?$_Tset_traits@UTelegram@@U?$less@UTelegram@@@std@@V?$allocator@UTelegram@@@3@$0A@@std@@@std@@QAEAAIXZ ; std::_Tree_comp_alloc<std::_Tset_traits<Telegram,std::less<Telegram>,std::allocator<Telegram>,0> >::_Mysize
	mov	DWORD PTR tv346[ebp], eax
	mov	edx, DWORD PTR tv346[ebp]
	mov	eax, DWORD PTR [edx]
	sub	eax, 1
	mov	ecx, DWORD PTR tv346[ebp]
	mov	DWORD PTR [ecx], eax
$LN42@erase:

; 1357 : 
; 1358 : 		return (iterator(_Where._Ptr,

	mov	ecx, DWORD PTR _this$[ebp]
	call	?_Get_data@?$_Tree_comp_alloc@V?$_Tset_traits@UTelegram@@U?$less@UTelegram@@@std@@V?$allocator@UTelegram@@@3@$0A@@std@@@std@@QAEAAV?$_Tree_val@U?$_Tree_simple_types@UTelegram@@@std@@@2@XZ ; std::_Tree_comp_alloc<std::_Tset_traits<Telegram,std::less<Telegram>,std::allocator<Telegram>,0> >::_Get_data
	push	eax
	call	??$addressof@V?$_Tree_val@U?$_Tree_simple_types@UTelegram@@@std@@@std@@@std@@YAPAV?$_Tree_val@U?$_Tree_simple_types@UTelegram@@@std@@@0@AAV10@@Z ; std::addressof<std::_Tree_val<std::_Tree_simple_types<Telegram> > >
	add	esp, 4
	push	eax
	mov	edx, DWORD PTR __Where$[ebp+8]
	push	edx
	mov	ecx, DWORD PTR ___$ReturnUdt$[ebp]
	call	??0?$_Tree_const_iterator@V?$_Tree_val@U?$_Tree_simple_types@UTelegram@@@std@@@std@@@std@@QAE@PAU?$_Tree_node@UTelegram@@PAX@1@PBV?$_Tree_val@U?$_Tree_simple_types@UTelegram@@@std@@@1@@Z ; std::_Tree_const_iterator<std::_Tree_val<std::_Tree_simple_types<Telegram> > >::_Tree_const_iterator<std::_Tree_val<std::_Tree_simple_types<Telegram> > >
	mov	eax, DWORD PTR $T2[ebp]
	or	eax, 1
	mov	DWORD PTR $T2[ebp], eax
	mov	DWORD PTR __$EHRec$[ebp+8], -1
	lea	ecx, DWORD PTR __Where$[ebp]
	call	??1?$_Tree_const_iterator@V?$_Tree_val@U?$_Tree_simple_types@UTelegram@@@std@@@std@@@std@@QAE@XZ
	mov	eax, DWORD PTR ___$ReturnUdt$[ebp]

; 1359 : 			_STD addressof(this->_Get_data())));	// return successor iterator
; 1360 : 		}

	mov	ecx, DWORD PTR __$EHRec$[ebp]
	mov	DWORD PTR fs:0, ecx
	pop	ecx
	pop	edi
	pop	esi
	add	esp, 52					; 00000034H
	cmp	ebp, esp
	call	__RTC_CheckEsp
	mov	esp, ebp
	pop	ebp
	ret	16					; 00000010H
_TEXT	ENDS
;	COMDAT text$x
text$x	SEGMENT
__unwindfunclet$?erase@?$_Tree@V?$_Tset_traits@UTelegram@@U?$less@UTelegram@@@std@@V?$allocator@UTelegram@@@3@$0A@@std@@@std@@QAE?AV?$_Tree_const_iterator@V?$_Tree_val@U?$_Tree_simple_types@UTelegram@@@std@@@std@@@2@V32@@Z$0:
	lea	ecx, DWORD PTR __Where$[ebp]
	jmp	??1?$_Tree_const_iterator@V?$_Tree_val@U?$_Tree_simple_types@UTelegram@@@std@@@std@@@std@@QAE@XZ
__ehhandler$?erase@?$_Tree@V?$_Tset_traits@UTelegram@@U?$less@UTelegram@@@std@@V?$allocator@UTelegram@@@3@$0A@@std@@@std@@QAE?AV?$_Tree_const_iterator@V?$_Tree_val@U?$_Tree_simple_types@UTelegram@@@std@@@std@@@2@V32@@Z:
	mov	edx, DWORD PTR [esp+8]
	lea	eax, DWORD PTR [edx+12]
	mov	ecx, DWORD PTR [edx-52]
	xor	ecx, eax
	call	@__security_check_cookie@4
	mov	eax, OFFSET __ehfuncinfo$?erase@?$_Tree@V?$_Tset_traits@UTelegram@@U?$less@UTelegram@@@std@@V?$allocator@UTelegram@@@3@$0A@@std@@@std@@QAE?AV?$_Tree_const_iterator@V?$_Tree_val@U?$_Tree_simple_types@UTelegram@@@std@@@std@@@2@V32@@Z
	jmp	___CxxFrameHandler3
text$x	ENDS
?erase@?$_Tree@V?$_Tset_traits@UTelegram@@U?$less@UTelegram@@@std@@V?$allocator@UTelegram@@@3@$0A@@std@@@std@@QAE?AV?$_Tree_const_iterator@V?$_Tree_val@U?$_Tree_simple_types@UTelegram@@@std@@@std@@@2@V32@@Z ENDP ; std::_Tree<std::_Tset_traits<Telegram,std::less<Telegram>,std::allocator<Telegram>,0> >::erase
; Function compile flags: /Odtp /RTCsu
; File c:\program files (x86)\microsoft visual studio\2017\community\vc\tools\msvc\14.11.25503\include\xtree
;	COMDAT ?empty@?$_Tree@V?$_Tset_traits@UTelegram@@U?$less@UTelegram@@@std@@V?$allocator@UTelegram@@@3@$0A@@std@@@std@@QBE_NXZ
_TEXT	SEGMENT
tv67 = -8						; size = 4
_this$ = -4						; size = 4
?empty@?$_Tree@V?$_Tset_traits@UTelegram@@U?$less@UTelegram@@@std@@V?$allocator@UTelegram@@@3@$0A@@std@@@std@@QBE_NXZ PROC ; std::_Tree<std::_Tset_traits<Telegram,std::less<Telegram>,std::allocator<Telegram>,0> >::empty, COMDAT
; _this$ = ecx

; 1081 : 		{	// return true only if sequence is empty

	push	ebp
	mov	ebp, esp
	sub	esp, 8
	mov	DWORD PTR [ebp-8], -858993460		; ccccccccH
	mov	DWORD PTR [ebp-4], -858993460		; ccccccccH
	mov	DWORD PTR _this$[ebp], ecx

; 1082 : 		return (size() == 0);

	mov	ecx, DWORD PTR _this$[ebp]
	call	?size@?$_Tree@V?$_Tset_traits@UTelegram@@U?$less@UTelegram@@@std@@V?$allocator@UTelegram@@@3@$0A@@std@@@std@@QBEIXZ ; std::_Tree<std::_Tset_traits<Telegram,std::less<Telegram>,std::allocator<Telegram>,0> >::size
	test	eax, eax
	jne	SHORT $LN3@empty
	mov	DWORD PTR tv67[ebp], 1
	jmp	SHORT $LN4@empty
$LN3@empty:
	mov	DWORD PTR tv67[ebp], 0
$LN4@empty:
	mov	al, BYTE PTR tv67[ebp]

; 1083 : 		}

	add	esp, 8
	cmp	ebp, esp
	call	__RTC_CheckEsp
	mov	esp, ebp
	pop	ebp
	ret	0
?empty@?$_Tree@V?$_Tset_traits@UTelegram@@U?$less@UTelegram@@@std@@V?$allocator@UTelegram@@@3@$0A@@std@@@std@@QBE_NXZ ENDP ; std::_Tree<std::_Tset_traits<Telegram,std::less<Telegram>,std::allocator<Telegram>,0> >::empty
_TEXT	ENDS
; Function compile flags: /Odtp /RTCsu
; File c:\program files (x86)\microsoft visual studio\2017\community\vc\tools\msvc\14.11.25503\include\xtree
;	COMDAT ?max_size@?$_Tree@V?$_Tset_traits@UTelegram@@U?$less@UTelegram@@@std@@V?$allocator@UTelegram@@@3@$0A@@std@@@std@@QBEIXZ
_TEXT	SEGMENT
_this$ = -4						; size = 4
?max_size@?$_Tree@V?$_Tset_traits@UTelegram@@U?$less@UTelegram@@@std@@V?$allocator@UTelegram@@@3@$0A@@std@@@std@@QBEIXZ PROC ; std::_Tree<std::_Tset_traits<Telegram,std::less<Telegram>,std::allocator<Telegram>,0> >::max_size, COMDAT
; _this$ = ecx

; 1076 : 		{	// return maximum possible length of sequence

	push	ebp
	mov	ebp, esp
	push	ecx
	mov	DWORD PTR [ebp-4], -858993460		; ccccccccH
	mov	DWORD PTR _this$[ebp], ecx

; 1077 : 		return (_Alnode_traits::max_size(this->_Getal()));

	mov	ecx, DWORD PTR _this$[ebp]
	call	?_Getal@?$_Tree_comp_alloc@V?$_Tset_traits@UTelegram@@U?$less@UTelegram@@@std@@V?$allocator@UTelegram@@@3@$0A@@std@@@std@@QBEABV?$allocator@U?$_Tree_node@UTelegram@@PAX@std@@@2@XZ ; std::_Tree_comp_alloc<std::_Tset_traits<Telegram,std::less<Telegram>,std::allocator<Telegram>,0> >::_Getal
	push	eax
	call	?max_size@?$_Default_allocator_traits@V?$allocator@U?$_Tree_node@UTelegram@@PAX@std@@@std@@@std@@SAIABV?$allocator@U?$_Tree_node@UTelegram@@PAX@std@@@2@@Z ; std::_Default_allocator_traits<std::allocator<std::_Tree_node<Telegram,void *> > >::max_size
	add	esp, 4

; 1078 : 		}

	add	esp, 4
	cmp	ebp, esp
	call	__RTC_CheckEsp
	mov	esp, ebp
	pop	ebp
	ret	0
?max_size@?$_Tree@V?$_Tset_traits@UTelegram@@U?$less@UTelegram@@@std@@V?$allocator@UTelegram@@@3@$0A@@std@@@std@@QBEIXZ ENDP ; std::_Tree<std::_Tset_traits<Telegram,std::less<Telegram>,std::allocator<Telegram>,0> >::max_size
_TEXT	ENDS
; Function compile flags: /Odtp /RTCsu
; File c:\program files (x86)\microsoft visual studio\2017\community\vc\tools\msvc\14.11.25503\include\xtree
;	COMDAT ?size@?$_Tree@V?$_Tset_traits@UTelegram@@U?$less@UTelegram@@@std@@V?$allocator@UTelegram@@@3@$0A@@std@@@std@@QBEIXZ
_TEXT	SEGMENT
_this$ = -4						; size = 4
?size@?$_Tree@V?$_Tset_traits@UTelegram@@U?$less@UTelegram@@@std@@V?$allocator@UTelegram@@@3@$0A@@std@@@std@@QBEIXZ PROC ; std::_Tree<std::_Tset_traits<Telegram,std::less<Telegram>,std::allocator<Telegram>,0> >::size, COMDAT
; _this$ = ecx

; 1071 : 		{	// return length of sequence

	push	ebp
	mov	ebp, esp
	push	ecx
	mov	DWORD PTR [ebp-4], -858993460		; ccccccccH
	mov	DWORD PTR _this$[ebp], ecx

; 1072 : 		return (this->_Mysize());

	mov	ecx, DWORD PTR _this$[ebp]
	call	?_Mysize@?$_Tree_comp_alloc@V?$_Tset_traits@UTelegram@@U?$less@UTelegram@@@std@@V?$allocator@UTelegram@@@3@$0A@@std@@@std@@QBEABIXZ ; std::_Tree_comp_alloc<std::_Tset_traits<Telegram,std::less<Telegram>,std::allocator<Telegram>,0> >::_Mysize
	mov	eax, DWORD PTR [eax]

; 1073 : 		}

	add	esp, 4
	cmp	ebp, esp
	call	__RTC_CheckEsp
	mov	esp, ebp
	pop	ebp
	ret	0
?size@?$_Tree@V?$_Tset_traits@UTelegram@@U?$less@UTelegram@@@std@@V?$allocator@UTelegram@@@3@$0A@@std@@@std@@QBEIXZ ENDP ; std::_Tree<std::_Tset_traits<Telegram,std::less<Telegram>,std::allocator<Telegram>,0> >::size
_TEXT	ENDS
; Function compile flags: /Odtp /RTCsu
; File c:\program files (x86)\microsoft visual studio\2017\community\vc\tools\msvc\14.11.25503\include\xtree
;	COMDAT ?end@?$_Tree@V?$_Tset_traits@UTelegram@@U?$less@UTelegram@@@std@@V?$allocator@UTelegram@@@3@$0A@@std@@@std@@QAE?AV?$_Tree_const_iterator@V?$_Tree_val@U?$_Tree_simple_types@UTelegram@@@std@@@std@@@2@XZ
_TEXT	SEGMENT
_this$ = -16						; size = 4
__$EHRec$ = -12						; size = 12
___$ReturnUdt$ = 8					; size = 4
?end@?$_Tree@V?$_Tset_traits@UTelegram@@U?$less@UTelegram@@@std@@V?$allocator@UTelegram@@@3@$0A@@std@@@std@@QAE?AV?$_Tree_const_iterator@V?$_Tree_val@U?$_Tree_simple_types@UTelegram@@@std@@@std@@@2@XZ PROC ; std::_Tree<std::_Tset_traits<Telegram,std::less<Telegram>,std::allocator<Telegram>,0> >::end, COMDAT
; _this$ = ecx

; 1001 : 		{	// return iterator for end of mutable sequence

	push	ebp
	mov	ebp, esp
	push	-1
	push	__ehhandler$?end@?$_Tree@V?$_Tset_traits@UTelegram@@U?$less@UTelegram@@@std@@V?$allocator@UTelegram@@@3@$0A@@std@@@std@@QAE?AV?$_Tree_const_iterator@V?$_Tree_val@U?$_Tree_simple_types@UTelegram@@@std@@@std@@@2@XZ
	mov	eax, DWORD PTR fs:0
	push	eax
	push	ecx
	mov	DWORD PTR [ebp-16], -858993460		; ccccccccH
	mov	eax, DWORD PTR ___security_cookie
	xor	eax, ebp
	push	eax
	lea	eax, DWORD PTR __$EHRec$[ebp]
	mov	DWORD PTR fs:0, eax
	mov	DWORD PTR _this$[ebp], ecx

; 1002 : 		return (iterator(this->_Myhead(), _STD addressof(this->_Get_data())));

	mov	ecx, DWORD PTR _this$[ebp]
	call	?_Get_data@?$_Tree_comp_alloc@V?$_Tset_traits@UTelegram@@U?$less@UTelegram@@@std@@V?$allocator@UTelegram@@@3@$0A@@std@@@std@@QAEAAV?$_Tree_val@U?$_Tree_simple_types@UTelegram@@@std@@@2@XZ ; std::_Tree_comp_alloc<std::_Tset_traits<Telegram,std::less<Telegram>,std::allocator<Telegram>,0> >::_Get_data
	push	eax
	call	??$addressof@V?$_Tree_val@U?$_Tree_simple_types@UTelegram@@@std@@@std@@@std@@YAPAV?$_Tree_val@U?$_Tree_simple_types@UTelegram@@@std@@@0@AAV10@@Z ; std::addressof<std::_Tree_val<std::_Tree_simple_types<Telegram> > >
	add	esp, 4
	push	eax
	mov	ecx, DWORD PTR _this$[ebp]
	call	?_Myhead@?$_Tree_comp_alloc@V?$_Tset_traits@UTelegram@@U?$less@UTelegram@@@std@@V?$allocator@UTelegram@@@3@$0A@@std@@@std@@QAEAAPAU?$_Tree_node@UTelegram@@PAX@2@XZ ; std::_Tree_comp_alloc<std::_Tset_traits<Telegram,std::less<Telegram>,std::allocator<Telegram>,0> >::_Myhead
	mov	eax, DWORD PTR [eax]
	push	eax
	mov	ecx, DWORD PTR ___$ReturnUdt$[ebp]
	call	??0?$_Tree_const_iterator@V?$_Tree_val@U?$_Tree_simple_types@UTelegram@@@std@@@std@@@std@@QAE@PAU?$_Tree_node@UTelegram@@PAX@1@PBV?$_Tree_val@U?$_Tree_simple_types@UTelegram@@@std@@@1@@Z ; std::_Tree_const_iterator<std::_Tree_val<std::_Tree_simple_types<Telegram> > >::_Tree_const_iterator<std::_Tree_val<std::_Tree_simple_types<Telegram> > >
	mov	eax, DWORD PTR ___$ReturnUdt$[ebp]

; 1003 : 		}

	mov	ecx, DWORD PTR __$EHRec$[ebp]
	mov	DWORD PTR fs:0, ecx
	pop	ecx
	add	esp, 16					; 00000010H
	cmp	ebp, esp
	call	__RTC_CheckEsp
	mov	esp, ebp
	pop	ebp
	ret	4
_TEXT	ENDS
;	COMDAT text$x
text$x	SEGMENT
__ehhandler$?end@?$_Tree@V?$_Tset_traits@UTelegram@@U?$less@UTelegram@@@std@@V?$allocator@UTelegram@@@3@$0A@@std@@@std@@QAE?AV?$_Tree_const_iterator@V?$_Tree_val@U?$_Tree_simple_types@UTelegram@@@std@@@std@@@2@XZ:
	mov	edx, DWORD PTR [esp+8]
	lea	eax, DWORD PTR [edx+12]
	mov	ecx, DWORD PTR [edx-8]
	xor	ecx, eax
	call	@__security_check_cookie@4
	mov	eax, OFFSET __ehfuncinfo$?end@?$_Tree@V?$_Tset_traits@UTelegram@@U?$less@UTelegram@@@std@@V?$allocator@UTelegram@@@3@$0A@@std@@@std@@QAE?AV?$_Tree_const_iterator@V?$_Tree_val@U?$_Tree_simple_types@UTelegram@@@std@@@std@@@2@XZ
	jmp	___CxxFrameHandler3
text$x	ENDS
?end@?$_Tree@V?$_Tset_traits@UTelegram@@U?$less@UTelegram@@@std@@V?$allocator@UTelegram@@@3@$0A@@std@@@std@@QAE?AV?$_Tree_const_iterator@V?$_Tree_val@U?$_Tree_simple_types@UTelegram@@@std@@@std@@@2@XZ ENDP ; std::_Tree<std::_Tset_traits<Telegram,std::less<Telegram>,std::allocator<Telegram>,0> >::end
; Function compile flags: /Odtp /RTCsu
; File c:\program files (x86)\microsoft visual studio\2017\community\vc\tools\msvc\14.11.25503\include\xtree
;	COMDAT ?begin@?$_Tree@V?$_Tset_traits@UTelegram@@U?$less@UTelegram@@@std@@V?$allocator@UTelegram@@@3@$0A@@std@@@std@@QAE?AV?$_Tree_const_iterator@V?$_Tree_val@U?$_Tree_simple_types@UTelegram@@@std@@@std@@@2@XZ
_TEXT	SEGMENT
_this$ = -16						; size = 4
__$EHRec$ = -12						; size = 12
___$ReturnUdt$ = 8					; size = 4
?begin@?$_Tree@V?$_Tset_traits@UTelegram@@U?$less@UTelegram@@@std@@V?$allocator@UTelegram@@@3@$0A@@std@@@std@@QAE?AV?$_Tree_const_iterator@V?$_Tree_val@U?$_Tree_simple_types@UTelegram@@@std@@@std@@@2@XZ PROC ; std::_Tree<std::_Tset_traits<Telegram,std::less<Telegram>,std::allocator<Telegram>,0> >::begin, COMDAT
; _this$ = ecx

; 991  : 		{	// return iterator for beginning of mutable sequence

	push	ebp
	mov	ebp, esp
	push	-1
	push	__ehhandler$?begin@?$_Tree@V?$_Tset_traits@UTelegram@@U?$less@UTelegram@@@std@@V?$allocator@UTelegram@@@3@$0A@@std@@@std@@QAE?AV?$_Tree_const_iterator@V?$_Tree_val@U?$_Tree_simple_types@UTelegram@@@std@@@std@@@2@XZ
	mov	eax, DWORD PTR fs:0
	push	eax
	push	ecx
	mov	DWORD PTR [ebp-16], -858993460		; ccccccccH
	mov	eax, DWORD PTR ___security_cookie
	xor	eax, ebp
	push	eax
	lea	eax, DWORD PTR __$EHRec$[ebp]
	mov	DWORD PTR fs:0, eax
	mov	DWORD PTR _this$[ebp], ecx

; 992  : 		return (iterator(_Lmost(), _STD addressof(this->_Get_data())));

	mov	ecx, DWORD PTR _this$[ebp]
	call	?_Get_data@?$_Tree_comp_alloc@V?$_Tset_traits@UTelegram@@U?$less@UTelegram@@@std@@V?$allocator@UTelegram@@@3@$0A@@std@@@std@@QAEAAV?$_Tree_val@U?$_Tree_simple_types@UTelegram@@@std@@@2@XZ ; std::_Tree_comp_alloc<std::_Tset_traits<Telegram,std::less<Telegram>,std::allocator<Telegram>,0> >::_Get_data
	push	eax
	call	??$addressof@V?$_Tree_val@U?$_Tree_simple_types@UTelegram@@@std@@@std@@@std@@YAPAV?$_Tree_val@U?$_Tree_simple_types@UTelegram@@@std@@@0@AAV10@@Z ; std::addressof<std::_Tree_val<std::_Tree_simple_types<Telegram> > >
	add	esp, 4
	push	eax
	mov	ecx, DWORD PTR _this$[ebp]
	call	?_Lmost@?$_Tree@V?$_Tset_traits@UTelegram@@U?$less@UTelegram@@@std@@V?$allocator@UTelegram@@@3@$0A@@std@@@std@@IBEAAPAU?$_Tree_node@UTelegram@@PAX@2@XZ ; std::_Tree<std::_Tset_traits<Telegram,std::less<Telegram>,std::allocator<Telegram>,0> >::_Lmost
	mov	eax, DWORD PTR [eax]
	push	eax
	mov	ecx, DWORD PTR ___$ReturnUdt$[ebp]
	call	??0?$_Tree_const_iterator@V?$_Tree_val@U?$_Tree_simple_types@UTelegram@@@std@@@std@@@std@@QAE@PAU?$_Tree_node@UTelegram@@PAX@1@PBV?$_Tree_val@U?$_Tree_simple_types@UTelegram@@@std@@@1@@Z ; std::_Tree_const_iterator<std::_Tree_val<std::_Tree_simple_types<Telegram> > >::_Tree_const_iterator<std::_Tree_val<std::_Tree_simple_types<Telegram> > >
	mov	eax, DWORD PTR ___$ReturnUdt$[ebp]

; 993  : 		}

	mov	ecx, DWORD PTR __$EHRec$[ebp]
	mov	DWORD PTR fs:0, ecx
	pop	ecx
	add	esp, 16					; 00000010H
	cmp	ebp, esp
	call	__RTC_CheckEsp
	mov	esp, ebp
	pop	ebp
	ret	4
_TEXT	ENDS
;	COMDAT text$x
text$x	SEGMENT
__ehhandler$?begin@?$_Tree@V?$_Tset_traits@UTelegram@@U?$less@UTelegram@@@std@@V?$allocator@UTelegram@@@3@$0A@@std@@@std@@QAE?AV?$_Tree_const_iterator@V?$_Tree_val@U?$_Tree_simple_types@UTelegram@@@std@@@std@@@2@XZ:
	mov	edx, DWORD PTR [esp+8]
	lea	eax, DWORD PTR [edx+12]
	mov	ecx, DWORD PTR [edx-8]
	xor	ecx, eax
	call	@__security_check_cookie@4
	mov	eax, OFFSET __ehfuncinfo$?begin@?$_Tree@V?$_Tset_traits@UTelegram@@U?$less@UTelegram@@@std@@V?$allocator@UTelegram@@@3@$0A@@std@@@std@@QAE?AV?$_Tree_const_iterator@V?$_Tree_val@U?$_Tree_simple_types@UTelegram@@@std@@@std@@@2@XZ
	jmp	___CxxFrameHandler3
text$x	ENDS
?begin@?$_Tree@V?$_Tset_traits@UTelegram@@U?$less@UTelegram@@@std@@V?$allocator@UTelegram@@@3@$0A@@std@@@std@@QAE?AV?$_Tree_const_iterator@V?$_Tree_val@U?$_Tree_simple_types@UTelegram@@@std@@@std@@@2@XZ ENDP ; std::_Tree<std::_Tset_traits<Telegram,std::less<Telegram>,std::allocator<Telegram>,0> >::begin
; Function compile flags: /Odtp /RTCsu
; File c:\program files (x86)\microsoft visual studio\2017\community\vc\tools\msvc\14.11.25503\include\xtree
;	COMDAT ??1?$_Tree@V?$_Tset_traits@UTelegram@@U?$less@UTelegram@@@std@@V?$allocator@UTelegram@@@3@$0A@@std@@@std@@QAE@XZ
_TEXT	SEGMENT
_this$ = -16						; size = 4
__$EHRec$ = -12						; size = 12
??1?$_Tree@V?$_Tset_traits@UTelegram@@U?$less@UTelegram@@@std@@V?$allocator@UTelegram@@@3@$0A@@std@@@std@@QAE@XZ PROC ; std::_Tree<std::_Tset_traits<Telegram,std::less<Telegram>,std::allocator<Telegram>,0> >::~_Tree<std::_Tset_traits<Telegram,std::less<Telegram>,std::allocator<Telegram>,0> >, COMDAT
; _this$ = ecx

; 973  : 		{	// destroy tree

	push	ebp
	mov	ebp, esp
	push	-1
	push	__ehhandler$??1?$_Tree@V?$_Tset_traits@UTelegram@@U?$less@UTelegram@@@std@@V?$allocator@UTelegram@@@3@$0A@@std@@@std@@QAE@XZ
	mov	eax, DWORD PTR fs:0
	push	eax
	push	ecx
	mov	DWORD PTR [ebp-16], -858993460		; ccccccccH
	mov	eax, DWORD PTR ___security_cookie
	xor	eax, ebp
	push	eax
	lea	eax, DWORD PTR __$EHRec$[ebp]
	mov	DWORD PTR fs:0, eax
	mov	DWORD PTR _this$[ebp], ecx

; 974  : 		_Tidy();

	mov	ecx, DWORD PTR _this$[ebp]
	call	?_Tidy@?$_Tree@V?$_Tset_traits@UTelegram@@U?$less@UTelegram@@@std@@V?$allocator@UTelegram@@@3@$0A@@std@@@std@@IAEXXZ ; std::_Tree<std::_Tset_traits<Telegram,std::less<Telegram>,std::allocator<Telegram>,0> >::_Tidy

; 975  : 		}

	mov	ecx, DWORD PTR _this$[ebp]
	call	??1?$_Tree_comp_alloc@V?$_Tset_traits@UTelegram@@U?$less@UTelegram@@@std@@V?$allocator@UTelegram@@@3@$0A@@std@@@std@@QAE@XZ ; std::_Tree_comp_alloc<std::_Tset_traits<Telegram,std::less<Telegram>,std::allocator<Telegram>,0> >::~_Tree_comp_alloc<std::_Tset_traits<Telegram,std::less<Telegram>,std::allocator<Telegram>,0> >
	mov	ecx, DWORD PTR __$EHRec$[ebp]
	mov	DWORD PTR fs:0, ecx
	pop	ecx
	add	esp, 16					; 00000010H
	cmp	ebp, esp
	call	__RTC_CheckEsp
	mov	esp, ebp
	pop	ebp
	ret	0
_TEXT	ENDS
;	COMDAT text$x
text$x	SEGMENT
__ehhandler$??1?$_Tree@V?$_Tset_traits@UTelegram@@U?$less@UTelegram@@@std@@V?$allocator@UTelegram@@@3@$0A@@std@@@std@@QAE@XZ:
	mov	edx, DWORD PTR [esp+8]
	lea	eax, DWORD PTR [edx+12]
	mov	ecx, DWORD PTR [edx-8]
	xor	ecx, eax
	call	@__security_check_cookie@4
	mov	eax, OFFSET __ehfuncinfo$??1?$_Tree@V?$_Tset_traits@UTelegram@@U?$less@UTelegram@@@std@@V?$allocator@UTelegram@@@3@$0A@@std@@@std@@QAE@XZ
	jmp	___CxxFrameHandler3
text$x	ENDS
??1?$_Tree@V?$_Tset_traits@UTelegram@@U?$less@UTelegram@@@std@@V?$allocator@UTelegram@@@3@$0A@@std@@@std@@QAE@XZ ENDP ; std::_Tree<std::_Tset_traits<Telegram,std::less<Telegram>,std::allocator<Telegram>,0> >::~_Tree<std::_Tset_traits<Telegram,std::less<Telegram>,std::allocator<Telegram>,0> >
; Function compile flags: /Odtp /RTCsu
; File c:\program files (x86)\microsoft visual studio\2017\community\vc\tools\msvc\14.11.25503\include\xtree
;	COMDAT ??0?$_Tree@V?$_Tset_traits@UTelegram@@U?$less@UTelegram@@@std@@V?$allocator@UTelegram@@@3@$0A@@std@@@std@@QAE@ABU?$less@UTelegram@@@1@@Z
_TEXT	SEGMENT
_this$ = -4						; size = 4
__Parg$ = 8						; size = 4
??0?$_Tree@V?$_Tset_traits@UTelegram@@U?$less@UTelegram@@@std@@V?$allocator@UTelegram@@@3@$0A@@std@@@std@@QAE@ABU?$less@UTelegram@@@1@@Z PROC ; std::_Tree<std::_Tset_traits<Telegram,std::less<Telegram>,std::allocator<Telegram>,0> >::_Tree<std::_Tset_traits<Telegram,std::less<Telegram>,std::allocator<Telegram>,0> >, COMDAT
; _this$ = ecx

; 892  : 		{	// construct empty tree from comparator

	push	ebp
	mov	ebp, esp
	push	ecx
	mov	DWORD PTR [ebp-4], -858993460		; ccccccccH
	mov	DWORD PTR _this$[ebp], ecx

; 891  : 		: _Mybase(_Parg)

	mov	eax, DWORD PTR __Parg$[ebp]
	push	eax
	mov	ecx, DWORD PTR _this$[ebp]
	call	??0?$_Tree_comp_alloc@V?$_Tset_traits@UTelegram@@U?$less@UTelegram@@@std@@V?$allocator@UTelegram@@@3@$0A@@std@@@std@@QAE@ABU?$less@UTelegram@@@1@@Z ; std::_Tree_comp_alloc<std::_Tset_traits<Telegram,std::less<Telegram>,std::allocator<Telegram>,0> >::_Tree_comp_alloc<std::_Tset_traits<Telegram,std::less<Telegram>,std::allocator<Telegram>,0> >

; 893  : 		}

	mov	eax, DWORD PTR _this$[ebp]
	add	esp, 4
	cmp	ebp, esp
	call	__RTC_CheckEsp
	mov	esp, ebp
	pop	ebp
	ret	4
??0?$_Tree@V?$_Tset_traits@UTelegram@@U?$less@UTelegram@@@std@@V?$allocator@UTelegram@@@3@$0A@@std@@@std@@QAE@ABU?$less@UTelegram@@@1@@Z ENDP ; std::_Tree<std::_Tset_traits<Telegram,std::less<Telegram>,std::allocator<Telegram>,0> >::_Tree<std::_Tset_traits<Telegram,std::less<Telegram>,std::allocator<Telegram>,0> >
_TEXT	ENDS
; Function compile flags: /Odtp /RTCsu
;	COMDAT ??1?$_Compressed_pair@U?$less@UTelegram@@@std@@V?$_Compressed_pair@V?$allocator@U?$_Tree_node@UTelegram@@PAX@std@@@std@@V?$_Tree_val@U?$_Tree_simple_types@UTelegram@@@std@@@2@$00@2@$00@std@@QAE@XZ
_TEXT	SEGMENT
_this$ = -4						; size = 4
??1?$_Compressed_pair@U?$less@UTelegram@@@std@@V?$_Compressed_pair@V?$allocator@U?$_Tree_node@UTelegram@@PAX@std@@@std@@V?$_Tree_val@U?$_Tree_simple_types@UTelegram@@@std@@@2@$00@2@$00@std@@QAE@XZ PROC ; std::_Compressed_pair<std::less<Telegram>,std::_Compressed_pair<std::allocator<std::_Tree_node<Telegram,void *> >,std::_Tree_val<std::_Tree_simple_types<Telegram> >,1>,1>::~_Compressed_pair<std::less<Telegram>,std::_Compressed_pair<std::allocator<std::_Tree_node<Telegram,void *> >,std::_Tree_val<std::_Tree_simple_types<Telegram> >,1>,1>, COMDAT
; _this$ = ecx
	push	ebp
	mov	ebp, esp
	push	ecx
	mov	DWORD PTR [ebp-4], -858993460		; ccccccccH
	mov	DWORD PTR _this$[ebp], ecx
	mov	ecx, DWORD PTR _this$[ebp]
	call	??1?$_Compressed_pair@V?$allocator@U?$_Tree_node@UTelegram@@PAX@std@@@std@@V?$_Tree_val@U?$_Tree_simple_types@UTelegram@@@std@@@2@$00@std@@QAE@XZ
	add	esp, 4
	cmp	ebp, esp
	call	__RTC_CheckEsp
	mov	esp, ebp
	pop	ebp
	ret	0
??1?$_Compressed_pair@U?$less@UTelegram@@@std@@V?$_Compressed_pair@V?$allocator@U?$_Tree_node@UTelegram@@PAX@std@@@std@@V?$_Tree_val@U?$_Tree_simple_types@UTelegram@@@std@@@2@$00@2@$00@std@@QAE@XZ ENDP ; std::_Compressed_pair<std::less<Telegram>,std::_Compressed_pair<std::allocator<std::_Tree_node<Telegram,void *> >,std::_Tree_val<std::_Tree_simple_types<Telegram> >,1>,1>::~_Compressed_pair<std::less<Telegram>,std::_Compressed_pair<std::allocator<std::_Tree_node<Telegram,void *> >,std::_Tree_val<std::_Tree_simple_types<Telegram> >,1>,1>
_TEXT	ENDS
; Function compile flags: /Odtp /RTCsu
; File c:\program files (x86)\microsoft visual studio\2017\community\vc\tools\msvc\14.11.25503\include\xutility
;	COMDAT ?_Get_second@?$_Compressed_pair@U?$less@UTelegram@@@std@@V?$_Compressed_pair@V?$allocator@U?$_Tree_node@UTelegram@@PAX@std@@@std@@V?$_Tree_val@U?$_Tree_simple_types@UTelegram@@@std@@@2@$00@2@$00@std@@QBEABV?$_Compressed_pair@V?$allocator@U?$_Tree_node@UTelegram@@PAX@std@@@std@@V?$_Tree_val@U?$_Tree_simple_types@UTelegram@@@std@@@2@$00@2@XZ
_TEXT	SEGMENT
_this$ = -4						; size = 4
?_Get_second@?$_Compressed_pair@U?$less@UTelegram@@@std@@V?$_Compressed_pair@V?$allocator@U?$_Tree_node@UTelegram@@PAX@std@@@std@@V?$_Tree_val@U?$_Tree_simple_types@UTelegram@@@std@@@2@$00@2@$00@std@@QBEABV?$_Compressed_pair@V?$allocator@U?$_Tree_node@UTelegram@@PAX@std@@@std@@V?$_Tree_val@U?$_Tree_simple_types@UTelegram@@@std@@@2@$00@2@XZ PROC ; std::_Compressed_pair<std::less<Telegram>,std::_Compressed_pair<std::allocator<std::_Tree_node<Telegram,void *> >,std::_Tree_val<std::_Tree_simple_types<Telegram> >,1>,1>::_Get_second, COMDAT
; _this$ = ecx

; 342  : 		{	// return const reference to second

	push	ebp
	mov	ebp, esp
	push	ecx
	mov	DWORD PTR [ebp-4], -858993460		; ccccccccH
	mov	DWORD PTR _this$[ebp], ecx

; 343  : 		return (_Myval2);

	mov	eax, DWORD PTR _this$[ebp]

; 344  : 		}

	mov	esp, ebp
	pop	ebp
	ret	0
?_Get_second@?$_Compressed_pair@U?$less@UTelegram@@@std@@V?$_Compressed_pair@V?$allocator@U?$_Tree_node@UTelegram@@PAX@std@@@std@@V?$_Tree_val@U?$_Tree_simple_types@UTelegram@@@std@@@2@$00@2@$00@std@@QBEABV?$_Compressed_pair@V?$allocator@U?$_Tree_node@UTelegram@@PAX@std@@@std@@V?$_Tree_val@U?$_Tree_simple_types@UTelegram@@@std@@@2@$00@2@XZ ENDP ; std::_Compressed_pair<std::less<Telegram>,std::_Compressed_pair<std::allocator<std::_Tree_node<Telegram,void *> >,std::_Tree_val<std::_Tree_simple_types<Telegram> >,1>,1>::_Get_second
_TEXT	ENDS
; Function compile flags: /Odtp /RTCsu
; File c:\program files (x86)\microsoft visual studio\2017\community\vc\tools\msvc\14.11.25503\include\xutility
;	COMDAT ?_Get_second@?$_Compressed_pair@U?$less@UTelegram@@@std@@V?$_Compressed_pair@V?$allocator@U?$_Tree_node@UTelegram@@PAX@std@@@std@@V?$_Tree_val@U?$_Tree_simple_types@UTelegram@@@std@@@2@$00@2@$00@std@@QAEAAV?$_Compressed_pair@V?$allocator@U?$_Tree_node@UTelegram@@PAX@std@@@std@@V?$_Tree_val@U?$_Tree_simple_types@UTelegram@@@std@@@2@$00@2@XZ
_TEXT	SEGMENT
_this$ = -4						; size = 4
?_Get_second@?$_Compressed_pair@U?$less@UTelegram@@@std@@V?$_Compressed_pair@V?$allocator@U?$_Tree_node@UTelegram@@PAX@std@@@std@@V?$_Tree_val@U?$_Tree_simple_types@UTelegram@@@std@@@2@$00@2@$00@std@@QAEAAV?$_Compressed_pair@V?$allocator@U?$_Tree_node@UTelegram@@PAX@std@@@std@@V?$_Tree_val@U?$_Tree_simple_types@UTelegram@@@std@@@2@$00@2@XZ PROC ; std::_Compressed_pair<std::less<Telegram>,std::_Compressed_pair<std::allocator<std::_Tree_node<Telegram,void *> >,std::_Tree_val<std::_Tree_simple_types<Telegram> >,1>,1>::_Get_second, COMDAT
; _this$ = ecx

; 337  : 		{	// return reference to second

	push	ebp
	mov	ebp, esp
	push	ecx
	mov	DWORD PTR [ebp-4], -858993460		; ccccccccH
	mov	DWORD PTR _this$[ebp], ecx

; 338  : 		return (_Myval2);

	mov	eax, DWORD PTR _this$[ebp]

; 339  : 		}

	mov	esp, ebp
	pop	ebp
	ret	0
?_Get_second@?$_Compressed_pair@U?$less@UTelegram@@@std@@V?$_Compressed_pair@V?$allocator@U?$_Tree_node@UTelegram@@PAX@std@@@std@@V?$_Tree_val@U?$_Tree_simple_types@UTelegram@@@std@@@2@$00@2@$00@std@@QAEAAV?$_Compressed_pair@V?$allocator@U?$_Tree_node@UTelegram@@PAX@std@@@std@@V?$_Tree_val@U?$_Tree_simple_types@UTelegram@@@std@@@2@$00@2@XZ ENDP ; std::_Compressed_pair<std::less<Telegram>,std::_Compressed_pair<std::allocator<std::_Tree_node<Telegram,void *> >,std::_Tree_val<std::_Tree_simple_types<Telegram> >,1>,1>::_Get_second
_TEXT	ENDS
; Function compile flags: /Odtp /RTCsu
; File c:\program files (x86)\microsoft visual studio\2017\community\vc\tools\msvc\14.11.25503\include\xutility
;	COMDAT ?_Get_first@?$_Compressed_pair@U?$less@UTelegram@@@std@@V?$_Compressed_pair@V?$allocator@U?$_Tree_node@UTelegram@@PAX@std@@@std@@V?$_Tree_val@U?$_Tree_simple_types@UTelegram@@@std@@@2@$00@2@$00@std@@QAEAAU?$less@UTelegram@@@2@XZ
_TEXT	SEGMENT
_this$ = -4						; size = 4
?_Get_first@?$_Compressed_pair@U?$less@UTelegram@@@std@@V?$_Compressed_pair@V?$allocator@U?$_Tree_node@UTelegram@@PAX@std@@@std@@V?$_Tree_val@U?$_Tree_simple_types@UTelegram@@@std@@@2@$00@2@$00@std@@QAEAAU?$less@UTelegram@@@2@XZ PROC ; std::_Compressed_pair<std::less<Telegram>,std::_Compressed_pair<std::allocator<std::_Tree_node<Telegram,void *> >,std::_Tree_val<std::_Tree_simple_types<Telegram> >,1>,1>::_Get_first, COMDAT
; _this$ = ecx

; 317  : 		{	// return reference to first

	push	ebp
	mov	ebp, esp
	push	ecx
	mov	DWORD PTR [ebp-4], -858993460		; ccccccccH
	mov	DWORD PTR _this$[ebp], ecx

; 318  : 		return (*this);

	mov	eax, DWORD PTR _this$[ebp]

; 319  : 		}

	mov	esp, ebp
	pop	ebp
	ret	0
?_Get_first@?$_Compressed_pair@U?$less@UTelegram@@@std@@V?$_Compressed_pair@V?$allocator@U?$_Tree_node@UTelegram@@PAX@std@@@std@@V?$_Tree_val@U?$_Tree_simple_types@UTelegram@@@std@@@2@$00@2@$00@std@@QAEAAU?$less@UTelegram@@@2@XZ ENDP ; std::_Compressed_pair<std::less<Telegram>,std::_Compressed_pair<std::allocator<std::_Tree_node<Telegram,void *> >,std::_Tree_val<std::_Tree_simple_types<Telegram> >,1>,1>::_Get_first
_TEXT	ENDS
; Function compile flags: /Odtp /RTCsu
;	COMDAT ??1?$_Compressed_pair@V?$allocator@U?$_Tree_node@UTelegram@@PAX@std@@@std@@V?$_Tree_val@U?$_Tree_simple_types@UTelegram@@@std@@@2@$00@std@@QAE@XZ
_TEXT	SEGMENT
_this$ = -4						; size = 4
??1?$_Compressed_pair@V?$allocator@U?$_Tree_node@UTelegram@@PAX@std@@@std@@V?$_Tree_val@U?$_Tree_simple_types@UTelegram@@@std@@@2@$00@std@@QAE@XZ PROC ; std::_Compressed_pair<std::allocator<std::_Tree_node<Telegram,void *> >,std::_Tree_val<std::_Tree_simple_types<Telegram> >,1>::~_Compressed_pair<std::allocator<std::_Tree_node<Telegram,void *> >,std::_Tree_val<std::_Tree_simple_types<Telegram> >,1>, COMDAT
; _this$ = ecx
	push	ebp
	mov	ebp, esp
	push	ecx
	mov	DWORD PTR [ebp-4], -858993460		; ccccccccH
	mov	DWORD PTR _this$[ebp], ecx
	mov	ecx, DWORD PTR _this$[ebp]
	call	??1?$_Tree_val@U?$_Tree_simple_types@UTelegram@@@std@@@std@@QAE@XZ
	add	esp, 4
	cmp	ebp, esp
	call	__RTC_CheckEsp
	mov	esp, ebp
	pop	ebp
	ret	0
??1?$_Compressed_pair@V?$allocator@U?$_Tree_node@UTelegram@@PAX@std@@@std@@V?$_Tree_val@U?$_Tree_simple_types@UTelegram@@@std@@@2@$00@std@@QAE@XZ ENDP ; std::_Compressed_pair<std::allocator<std::_Tree_node<Telegram,void *> >,std::_Tree_val<std::_Tree_simple_types<Telegram> >,1>::~_Compressed_pair<std::allocator<std::_Tree_node<Telegram,void *> >,std::_Tree_val<std::_Tree_simple_types<Telegram> >,1>
_TEXT	ENDS
; Function compile flags: /Odtp /RTCsu
; File c:\program files (x86)\microsoft visual studio\2017\community\vc\tools\msvc\14.11.25503\include\xutility
;	COMDAT ?_Get_second@?$_Compressed_pair@V?$allocator@U?$_Tree_node@UTelegram@@PAX@std@@@std@@V?$_Tree_val@U?$_Tree_simple_types@UTelegram@@@std@@@2@$00@std@@QBEABV?$_Tree_val@U?$_Tree_simple_types@UTelegram@@@std@@@2@XZ
_TEXT	SEGMENT
_this$ = -4						; size = 4
?_Get_second@?$_Compressed_pair@V?$allocator@U?$_Tree_node@UTelegram@@PAX@std@@@std@@V?$_Tree_val@U?$_Tree_simple_types@UTelegram@@@std@@@2@$00@std@@QBEABV?$_Tree_val@U?$_Tree_simple_types@UTelegram@@@std@@@2@XZ PROC ; std::_Compressed_pair<std::allocator<std::_Tree_node<Telegram,void *> >,std::_Tree_val<std::_Tree_simple_types<Telegram> >,1>::_Get_second, COMDAT
; _this$ = ecx

; 342  : 		{	// return const reference to second

	push	ebp
	mov	ebp, esp
	push	ecx
	mov	DWORD PTR [ebp-4], -858993460		; ccccccccH
	mov	DWORD PTR _this$[ebp], ecx

; 343  : 		return (_Myval2);

	mov	eax, DWORD PTR _this$[ebp]

; 344  : 		}

	mov	esp, ebp
	pop	ebp
	ret	0
?_Get_second@?$_Compressed_pair@V?$allocator@U?$_Tree_node@UTelegram@@PAX@std@@@std@@V?$_Tree_val@U?$_Tree_simple_types@UTelegram@@@std@@@2@$00@std@@QBEABV?$_Tree_val@U?$_Tree_simple_types@UTelegram@@@std@@@2@XZ ENDP ; std::_Compressed_pair<std::allocator<std::_Tree_node<Telegram,void *> >,std::_Tree_val<std::_Tree_simple_types<Telegram> >,1>::_Get_second
_TEXT	ENDS
; Function compile flags: /Odtp /RTCsu
; File c:\program files (x86)\microsoft visual studio\2017\community\vc\tools\msvc\14.11.25503\include\xutility
;	COMDAT ?_Get_second@?$_Compressed_pair@V?$allocator@U?$_Tree_node@UTelegram@@PAX@std@@@std@@V?$_Tree_val@U?$_Tree_simple_types@UTelegram@@@std@@@2@$00@std@@QAEAAV?$_Tree_val@U?$_Tree_simple_types@UTelegram@@@std@@@2@XZ
_TEXT	SEGMENT
_this$ = -4						; size = 4
?_Get_second@?$_Compressed_pair@V?$allocator@U?$_Tree_node@UTelegram@@PAX@std@@@std@@V?$_Tree_val@U?$_Tree_simple_types@UTelegram@@@std@@@2@$00@std@@QAEAAV?$_Tree_val@U?$_Tree_simple_types@UTelegram@@@std@@@2@XZ PROC ; std::_Compressed_pair<std::allocator<std::_Tree_node<Telegram,void *> >,std::_Tree_val<std::_Tree_simple_types<Telegram> >,1>::_Get_second, COMDAT
; _this$ = ecx

; 337  : 		{	// return reference to second

	push	ebp
	mov	ebp, esp
	push	ecx
	mov	DWORD PTR [ebp-4], -858993460		; ccccccccH
	mov	DWORD PTR _this$[ebp], ecx

; 338  : 		return (_Myval2);

	mov	eax, DWORD PTR _this$[ebp]

; 339  : 		}

	mov	esp, ebp
	pop	ebp
	ret	0
?_Get_second@?$_Compressed_pair@V?$allocator@U?$_Tree_node@UTelegram@@PAX@std@@@std@@V?$_Tree_val@U?$_Tree_simple_types@UTelegram@@@std@@@2@$00@std@@QAEAAV?$_Tree_val@U?$_Tree_simple_types@UTelegram@@@std@@@2@XZ ENDP ; std::_Compressed_pair<std::allocator<std::_Tree_node<Telegram,void *> >,std::_Tree_val<std::_Tree_simple_types<Telegram> >,1>::_Get_second
_TEXT	ENDS
; Function compile flags: /Odtp /RTCsu
; File c:\program files (x86)\microsoft visual studio\2017\community\vc\tools\msvc\14.11.25503\include\xutility
;	COMDAT ?_Get_first@?$_Compressed_pair@V?$allocator@U?$_Tree_node@UTelegram@@PAX@std@@@std@@V?$_Tree_val@U?$_Tree_simple_types@UTelegram@@@std@@@2@$00@std@@QBEABV?$allocator@U?$_Tree_node@UTelegram@@PAX@std@@@2@XZ
_TEXT	SEGMENT
_this$ = -4						; size = 4
?_Get_first@?$_Compressed_pair@V?$allocator@U?$_Tree_node@UTelegram@@PAX@std@@@std@@V?$_Tree_val@U?$_Tree_simple_types@UTelegram@@@std@@@2@$00@std@@QBEABV?$allocator@U?$_Tree_node@UTelegram@@PAX@std@@@2@XZ PROC ; std::_Compressed_pair<std::allocator<std::_Tree_node<Telegram,void *> >,std::_Tree_val<std::_Tree_simple_types<Telegram> >,1>::_Get_first, COMDAT
; _this$ = ecx

; 322  : 		{	// return const reference to first

	push	ebp
	mov	ebp, esp
	push	ecx
	mov	DWORD PTR [ebp-4], -858993460		; ccccccccH
	mov	DWORD PTR _this$[ebp], ecx

; 323  : 		return (*this);

	mov	eax, DWORD PTR _this$[ebp]

; 324  : 		}

	mov	esp, ebp
	pop	ebp
	ret	0
?_Get_first@?$_Compressed_pair@V?$allocator@U?$_Tree_node@UTelegram@@PAX@std@@@std@@V?$_Tree_val@U?$_Tree_simple_types@UTelegram@@@std@@@2@$00@std@@QBEABV?$allocator@U?$_Tree_node@UTelegram@@PAX@std@@@2@XZ ENDP ; std::_Compressed_pair<std::allocator<std::_Tree_node<Telegram,void *> >,std::_Tree_val<std::_Tree_simple_types<Telegram> >,1>::_Get_first
_TEXT	ENDS
; Function compile flags: /Odtp /RTCsu
; File c:\program files (x86)\microsoft visual studio\2017\community\vc\tools\msvc\14.11.25503\include\xutility
;	COMDAT ?_Get_first@?$_Compressed_pair@V?$allocator@U?$_Tree_node@UTelegram@@PAX@std@@@std@@V?$_Tree_val@U?$_Tree_simple_types@UTelegram@@@std@@@2@$00@std@@QAEAAV?$allocator@U?$_Tree_node@UTelegram@@PAX@std@@@2@XZ
_TEXT	SEGMENT
_this$ = -4						; size = 4
?_Get_first@?$_Compressed_pair@V?$allocator@U?$_Tree_node@UTelegram@@PAX@std@@@std@@V?$_Tree_val@U?$_Tree_simple_types@UTelegram@@@std@@@2@$00@std@@QAEAAV?$allocator@U?$_Tree_node@UTelegram@@PAX@std@@@2@XZ PROC ; std::_Compressed_pair<std::allocator<std::_Tree_node<Telegram,void *> >,std::_Tree_val<std::_Tree_simple_types<Telegram> >,1>::_Get_first, COMDAT
; _this$ = ecx

; 317  : 		{	// return reference to first

	push	ebp
	mov	ebp, esp
	push	ecx
	mov	DWORD PTR [ebp-4], -858993460		; ccccccccH
	mov	DWORD PTR _this$[ebp], ecx

; 318  : 		return (*this);

	mov	eax, DWORD PTR _this$[ebp]

; 319  : 		}

	mov	esp, ebp
	pop	ebp
	ret	0
?_Get_first@?$_Compressed_pair@V?$allocator@U?$_Tree_node@UTelegram@@PAX@std@@@std@@V?$_Tree_val@U?$_Tree_simple_types@UTelegram@@@std@@@2@$00@std@@QAEAAV?$allocator@U?$_Tree_node@UTelegram@@PAX@std@@@2@XZ ENDP ; std::_Compressed_pair<std::allocator<std::_Tree_node<Telegram,void *> >,std::_Tree_val<std::_Tree_simple_types<Telegram> >,1>::_Get_first
_TEXT	ENDS
; Function compile flags: /Odtp /RTCsu
;	COMDAT ??1?$_Tree_val@U?$_Tree_simple_types@UTelegram@@@std@@@std@@QAE@XZ
_TEXT	SEGMENT
_this$ = -4						; size = 4
??1?$_Tree_val@U?$_Tree_simple_types@UTelegram@@@std@@@std@@QAE@XZ PROC ; std::_Tree_val<std::_Tree_simple_types<Telegram> >::~_Tree_val<std::_Tree_simple_types<Telegram> >, COMDAT
; _this$ = ecx
	push	ebp
	mov	ebp, esp
	push	ecx
	mov	DWORD PTR [ebp-4], -858993460		; ccccccccH
	mov	DWORD PTR _this$[ebp], ecx
	mov	ecx, DWORD PTR _this$[ebp]
	call	??1_Container_base12@std@@QAE@XZ	; std::_Container_base12::~_Container_base12
	add	esp, 4
	cmp	ebp, esp
	call	__RTC_CheckEsp
	mov	esp, ebp
	pop	ebp
	ret	0
??1?$_Tree_val@U?$_Tree_simple_types@UTelegram@@@std@@@std@@QAE@XZ ENDP ; std::_Tree_val<std::_Tree_simple_types<Telegram> >::~_Tree_val<std::_Tree_simple_types<Telegram> >
_TEXT	ENDS
; Function compile flags: /Odtp /RTCsu
; File c:\program files (x86)\microsoft visual studio\2017\community\vc\tools\msvc\14.11.25503\include\xtree
;	COMDAT ?_Min@?$_Tree_val@U?$_Tree_simple_types@UTelegram@@@std@@@std@@SAPAU?$_Tree_node@UTelegram@@PAX@2@PAU32@@Z
_TEXT	SEGMENT
__Pnode$ = 8						; size = 4
?_Min@?$_Tree_val@U?$_Tree_simple_types@UTelegram@@@std@@@std@@SAPAU?$_Tree_node@UTelegram@@PAX@2@PAU32@@Z PROC ; std::_Tree_val<std::_Tree_simple_types<Telegram> >::_Min, COMDAT

; 516  : 		{	// return leftmost node in subtree at _Pnode

	push	ebp
	mov	ebp, esp
$LN2@Min:

; 517  : 		while (!_Pnode->_Left->_Isnil)

	mov	eax, DWORD PTR __Pnode$[ebp]
	mov	ecx, DWORD PTR [eax]
	movsx	edx, BYTE PTR [ecx+13]
	test	edx, edx
	jne	SHORT $LN3@Min

; 518  : 			_Pnode = _Pnode->_Left;

	mov	eax, DWORD PTR __Pnode$[ebp]
	mov	ecx, DWORD PTR [eax]
	mov	DWORD PTR __Pnode$[ebp], ecx
	jmp	SHORT $LN2@Min
$LN3@Min:

; 519  : 		return (_Pnode);

	mov	eax, DWORD PTR __Pnode$[ebp]

; 520  : 		}

	pop	ebp
	ret	0
?_Min@?$_Tree_val@U?$_Tree_simple_types@UTelegram@@@std@@@std@@SAPAU?$_Tree_node@UTelegram@@PAX@2@PAU32@@Z ENDP ; std::_Tree_val<std::_Tree_simple_types<Telegram> >::_Min
_TEXT	ENDS
; Function compile flags: /Odtp /RTCsu
; File c:\program files (x86)\microsoft visual studio\2017\community\vc\tools\msvc\14.11.25503\include\xtree
;	COMDAT ?_Max@?$_Tree_val@U?$_Tree_simple_types@UTelegram@@@std@@@std@@SAPAU?$_Tree_node@UTelegram@@PAX@2@PAU32@@Z
_TEXT	SEGMENT
__Pnode$ = 8						; size = 4
?_Max@?$_Tree_val@U?$_Tree_simple_types@UTelegram@@@std@@@std@@SAPAU?$_Tree_node@UTelegram@@PAX@2@PAU32@@Z PROC ; std::_Tree_val<std::_Tree_simple_types<Telegram> >::_Max, COMDAT

; 509  : 		{	// return rightmost node in subtree at _Pnode

	push	ebp
	mov	ebp, esp
$LN2@Max:

; 510  : 		while (!_Pnode->_Right->_Isnil)

	mov	eax, DWORD PTR __Pnode$[ebp]
	mov	ecx, DWORD PTR [eax+8]
	movsx	edx, BYTE PTR [ecx+13]
	test	edx, edx
	jne	SHORT $LN3@Max

; 511  : 			_Pnode = _Pnode->_Right;

	mov	eax, DWORD PTR __Pnode$[ebp]
	mov	ecx, DWORD PTR [eax+8]
	mov	DWORD PTR __Pnode$[ebp], ecx
	jmp	SHORT $LN2@Max
$LN3@Max:

; 512  : 		return (_Pnode);

	mov	eax, DWORD PTR __Pnode$[ebp]

; 513  : 		}

	pop	ebp
	ret	0
?_Max@?$_Tree_val@U?$_Tree_simple_types@UTelegram@@@std@@@std@@SAPAU?$_Tree_node@UTelegram@@PAX@2@PAU32@@Z ENDP ; std::_Tree_val<std::_Tree_simple_types<Telegram> >::_Max
_TEXT	ENDS
; Function compile flags: /Odtp /RTCsu
; File c:\program files (x86)\microsoft visual studio\2017\community\vc\tools\msvc\14.11.25503\include\xtree
;	COMDAT ??0?$_Tree_val@U?$_Tree_simple_types@UTelegram@@@std@@@std@@QAE@XZ
_TEXT	SEGMENT
_this$ = -4						; size = 4
??0?$_Tree_val@U?$_Tree_simple_types@UTelegram@@@std@@@std@@QAE@XZ PROC ; std::_Tree_val<std::_Tree_simple_types<Telegram> >::_Tree_val<std::_Tree_simple_types<Telegram> >, COMDAT
; _this$ = ecx

; 501  : 		{	// initialize data

	push	ebp
	mov	ebp, esp
	push	ecx
	mov	DWORD PTR [ebp-4], -858993460		; ccccccccH
	mov	DWORD PTR _this$[ebp], ecx
	mov	ecx, DWORD PTR _this$[ebp]
	call	??0_Container_base12@std@@QAE@XZ	; std::_Container_base12::_Container_base12

; 499  : 		: _Myhead(),

	mov	eax, DWORD PTR _this$[ebp]
	mov	DWORD PTR [eax+4], 0

; 500  : 		_Mysize(0)

	mov	ecx, DWORD PTR _this$[ebp]
	mov	DWORD PTR [ecx+8], 0

; 502  : 		}

	mov	eax, DWORD PTR _this$[ebp]
	add	esp, 4
	cmp	ebp, esp
	call	__RTC_CheckEsp
	mov	esp, ebp
	pop	ebp
	ret	0
??0?$_Tree_val@U?$_Tree_simple_types@UTelegram@@@std@@@std@@QAE@XZ ENDP ; std::_Tree_val<std::_Tree_simple_types<Telegram> >::_Tree_val<std::_Tree_simple_types<Telegram> >
_TEXT	ENDS
; Function compile flags: /Odtp /RTCsu
; File c:\program files (x86)\microsoft visual studio\2017\community\vc\tools\msvc\14.11.25503\include\xstddef
;	COMDAT ??R?$less@UTelegram@@@std@@QBE_NABUTelegram@@0@Z
_TEXT	SEGMENT
_this$ = -4						; size = 4
__Left$ = 8						; size = 4
__Right$ = 12						; size = 4
??R?$less@UTelegram@@@std@@QBE_NABUTelegram@@0@Z PROC	; std::less<Telegram>::operator(), COMDAT
; _this$ = ecx

; 155  : 		{	// apply operator< to operands

	push	ebp
	mov	ebp, esp
	push	ecx
	mov	DWORD PTR [ebp-4], -858993460		; ccccccccH
	mov	DWORD PTR _this$[ebp], ecx

; 156  : 		return (_Left < _Right);

	mov	eax, DWORD PTR __Right$[ebp]
	push	eax
	mov	ecx, DWORD PTR __Left$[ebp]
	push	ecx
	call	??M@YA_NABUTelegram@@0@Z		; operator<
	add	esp, 8

; 157  : 		}

	add	esp, 4
	cmp	ebp, esp
	call	__RTC_CheckEsp
	mov	esp, ebp
	pop	ebp
	ret	8
??R?$less@UTelegram@@@std@@QBE_NABUTelegram@@0@Z ENDP	; std::less<Telegram>::operator()
_TEXT	ENDS
; Function compile flags: /Odtp /RTCsu
; File c:\program files (x86)\microsoft visual studio\2017\community\vc\tools\msvc\14.11.25503\include\xtree
;	COMDAT ?_Mysize@?$_Tree_comp_alloc@V?$_Tset_traits@UTelegram@@U?$less@UTelegram@@@std@@V?$allocator@UTelegram@@@3@$0A@@std@@@std@@QBEABIXZ
_TEXT	SEGMENT
_this$ = -4						; size = 4
?_Mysize@?$_Tree_comp_alloc@V?$_Tset_traits@UTelegram@@U?$less@UTelegram@@@std@@V?$allocator@UTelegram@@@3@$0A@@std@@@std@@QBEABIXZ PROC ; std::_Tree_comp_alloc<std::_Tset_traits<Telegram,std::less<Telegram>,std::allocator<Telegram>,0> >::_Mysize, COMDAT
; _this$ = ecx

; 828  : 		{	// return const reference to _Mysize

	push	ebp
	mov	ebp, esp
	push	ecx
	mov	DWORD PTR [ebp-4], -858993460		; ccccccccH
	mov	DWORD PTR _this$[ebp], ecx

; 829  : 		return (_Get_data()._Mysize);

	mov	ecx, DWORD PTR _this$[ebp]
	call	?_Get_data@?$_Tree_comp_alloc@V?$_Tset_traits@UTelegram@@U?$less@UTelegram@@@std@@V?$allocator@UTelegram@@@3@$0A@@std@@@std@@QBEABV?$_Tree_val@U?$_Tree_simple_types@UTelegram@@@std@@@2@XZ ; std::_Tree_comp_alloc<std::_Tset_traits<Telegram,std::less<Telegram>,std::allocator<Telegram>,0> >::_Get_data
	add	eax, 8

; 830  : 		}

	add	esp, 4
	cmp	ebp, esp
	call	__RTC_CheckEsp
	mov	esp, ebp
	pop	ebp
	ret	0
?_Mysize@?$_Tree_comp_alloc@V?$_Tset_traits@UTelegram@@U?$less@UTelegram@@@std@@V?$allocator@UTelegram@@@3@$0A@@std@@@std@@QBEABIXZ ENDP ; std::_Tree_comp_alloc<std::_Tset_traits<Telegram,std::less<Telegram>,std::allocator<Telegram>,0> >::_Mysize
_TEXT	ENDS
; Function compile flags: /Odtp /RTCsu
; File c:\program files (x86)\microsoft visual studio\2017\community\vc\tools\msvc\14.11.25503\include\xtree
;	COMDAT ?_Mysize@?$_Tree_comp_alloc@V?$_Tset_traits@UTelegram@@U?$less@UTelegram@@@std@@V?$allocator@UTelegram@@@3@$0A@@std@@@std@@QAEAAIXZ
_TEXT	SEGMENT
_this$ = -4						; size = 4
?_Mysize@?$_Tree_comp_alloc@V?$_Tset_traits@UTelegram@@U?$less@UTelegram@@@std@@V?$allocator@UTelegram@@@3@$0A@@std@@@std@@QAEAAIXZ PROC ; std::_Tree_comp_alloc<std::_Tset_traits<Telegram,std::less<Telegram>,std::allocator<Telegram>,0> >::_Mysize, COMDAT
; _this$ = ecx

; 823  : 		{	// return reference to _Mysize

	push	ebp
	mov	ebp, esp
	push	ecx
	mov	DWORD PTR [ebp-4], -858993460		; ccccccccH
	mov	DWORD PTR _this$[ebp], ecx

; 824  : 		return (_Get_data()._Mysize);

	mov	ecx, DWORD PTR _this$[ebp]
	call	?_Get_data@?$_Tree_comp_alloc@V?$_Tset_traits@UTelegram@@U?$less@UTelegram@@@std@@V?$allocator@UTelegram@@@3@$0A@@std@@@std@@QAEAAV?$_Tree_val@U?$_Tree_simple_types@UTelegram@@@std@@@2@XZ ; std::_Tree_comp_alloc<std::_Tset_traits<Telegram,std::less<Telegram>,std::allocator<Telegram>,0> >::_Get_data
	add	eax, 8

; 825  : 		}

	add	esp, 4
	cmp	ebp, esp
	call	__RTC_CheckEsp
	mov	esp, ebp
	pop	ebp
	ret	0
?_Mysize@?$_Tree_comp_alloc@V?$_Tset_traits@UTelegram@@U?$less@UTelegram@@@std@@V?$allocator@UTelegram@@@3@$0A@@std@@@std@@QAEAAIXZ ENDP ; std::_Tree_comp_alloc<std::_Tset_traits<Telegram,std::less<Telegram>,std::allocator<Telegram>,0> >::_Mysize
_TEXT	ENDS
; Function compile flags: /Odtp /RTCsu
; File c:\program files (x86)\microsoft visual studio\2017\community\vc\tools\msvc\14.11.25503\include\xtree
;	COMDAT ?_Myhead@?$_Tree_comp_alloc@V?$_Tset_traits@UTelegram@@U?$less@UTelegram@@@std@@V?$allocator@UTelegram@@@3@$0A@@std@@@std@@QBEABQAU?$_Tree_node@UTelegram@@PAX@2@XZ
_TEXT	SEGMENT
_this$ = -4						; size = 4
?_Myhead@?$_Tree_comp_alloc@V?$_Tset_traits@UTelegram@@U?$less@UTelegram@@@std@@V?$allocator@UTelegram@@@3@$0A@@std@@@std@@QBEABQAU?$_Tree_node@UTelegram@@PAX@2@XZ PROC ; std::_Tree_comp_alloc<std::_Tset_traits<Telegram,std::less<Telegram>,std::allocator<Telegram>,0> >::_Myhead, COMDAT
; _this$ = ecx

; 818  : 		{	// return const reference to _Myhead

	push	ebp
	mov	ebp, esp
	push	ecx
	mov	DWORD PTR [ebp-4], -858993460		; ccccccccH
	mov	DWORD PTR _this$[ebp], ecx

; 819  : 		return (_Get_data()._Myhead);

	mov	ecx, DWORD PTR _this$[ebp]
	call	?_Get_data@?$_Tree_comp_alloc@V?$_Tset_traits@UTelegram@@U?$less@UTelegram@@@std@@V?$allocator@UTelegram@@@3@$0A@@std@@@std@@QBEABV?$_Tree_val@U?$_Tree_simple_types@UTelegram@@@std@@@2@XZ ; std::_Tree_comp_alloc<std::_Tset_traits<Telegram,std::less<Telegram>,std::allocator<Telegram>,0> >::_Get_data
	add	eax, 4

; 820  : 		}

	add	esp, 4
	cmp	ebp, esp
	call	__RTC_CheckEsp
	mov	esp, ebp
	pop	ebp
	ret	0
?_Myhead@?$_Tree_comp_alloc@V?$_Tset_traits@UTelegram@@U?$less@UTelegram@@@std@@V?$allocator@UTelegram@@@3@$0A@@std@@@std@@QBEABQAU?$_Tree_node@UTelegram@@PAX@2@XZ ENDP ; std::_Tree_comp_alloc<std::_Tset_traits<Telegram,std::less<Telegram>,std::allocator<Telegram>,0> >::_Myhead
_TEXT	ENDS
; Function compile flags: /Odtp /RTCsu
; File c:\program files (x86)\microsoft visual studio\2017\community\vc\tools\msvc\14.11.25503\include\xtree
;	COMDAT ?_Myhead@?$_Tree_comp_alloc@V?$_Tset_traits@UTelegram@@U?$less@UTelegram@@@std@@V?$allocator@UTelegram@@@3@$0A@@std@@@std@@QAEAAPAU?$_Tree_node@UTelegram@@PAX@2@XZ
_TEXT	SEGMENT
_this$ = -4						; size = 4
?_Myhead@?$_Tree_comp_alloc@V?$_Tset_traits@UTelegram@@U?$less@UTelegram@@@std@@V?$allocator@UTelegram@@@3@$0A@@std@@@std@@QAEAAPAU?$_Tree_node@UTelegram@@PAX@2@XZ PROC ; std::_Tree_comp_alloc<std::_Tset_traits<Telegram,std::less<Telegram>,std::allocator<Telegram>,0> >::_Myhead, COMDAT
; _this$ = ecx

; 813  : 		{	// return reference to _Myhead

	push	ebp
	mov	ebp, esp
	push	ecx
	mov	DWORD PTR [ebp-4], -858993460		; ccccccccH
	mov	DWORD PTR _this$[ebp], ecx

; 814  : 		return (_Get_data()._Myhead);

	mov	ecx, DWORD PTR _this$[ebp]
	call	?_Get_data@?$_Tree_comp_alloc@V?$_Tset_traits@UTelegram@@U?$less@UTelegram@@@std@@V?$allocator@UTelegram@@@3@$0A@@std@@@std@@QAEAAV?$_Tree_val@U?$_Tree_simple_types@UTelegram@@@std@@@2@XZ ; std::_Tree_comp_alloc<std::_Tset_traits<Telegram,std::less<Telegram>,std::allocator<Telegram>,0> >::_Get_data
	add	eax, 4

; 815  : 		}

	add	esp, 4
	cmp	ebp, esp
	call	__RTC_CheckEsp
	mov	esp, ebp
	pop	ebp
	ret	0
?_Myhead@?$_Tree_comp_alloc@V?$_Tset_traits@UTelegram@@U?$less@UTelegram@@@std@@V?$allocator@UTelegram@@@3@$0A@@std@@@std@@QAEAAPAU?$_Tree_node@UTelegram@@PAX@2@XZ ENDP ; std::_Tree_comp_alloc<std::_Tset_traits<Telegram,std::less<Telegram>,std::allocator<Telegram>,0> >::_Myhead
_TEXT	ENDS
; Function compile flags: /Odtp /RTCsu
; File c:\program files (x86)\microsoft visual studio\2017\community\vc\tools\msvc\14.11.25503\include\xtree
;	COMDAT ?_Get_data@?$_Tree_comp_alloc@V?$_Tset_traits@UTelegram@@U?$less@UTelegram@@@std@@V?$allocator@UTelegram@@@3@$0A@@std@@@std@@QBEABV?$_Tree_val@U?$_Tree_simple_types@UTelegram@@@std@@@2@XZ
_TEXT	SEGMENT
_this$ = -4						; size = 4
?_Get_data@?$_Tree_comp_alloc@V?$_Tset_traits@UTelegram@@U?$less@UTelegram@@@std@@V?$allocator@UTelegram@@@3@$0A@@std@@@std@@QBEABV?$_Tree_val@U?$_Tree_simple_types@UTelegram@@@std@@@2@XZ PROC ; std::_Tree_comp_alloc<std::_Tset_traits<Telegram,std::less<Telegram>,std::allocator<Telegram>,0> >::_Get_data, COMDAT
; _this$ = ecx

; 808  : 		{	// return const reference to _Tree_val

	push	ebp
	mov	ebp, esp
	push	ecx
	mov	DWORD PTR [ebp-4], -858993460		; ccccccccH
	mov	DWORD PTR _this$[ebp], ecx

; 809  : 		return (_Mypair._Get_second()._Get_second());

	mov	ecx, DWORD PTR _this$[ebp]
	call	?_Get_second@?$_Compressed_pair@U?$less@UTelegram@@@std@@V?$_Compressed_pair@V?$allocator@U?$_Tree_node@UTelegram@@PAX@std@@@std@@V?$_Tree_val@U?$_Tree_simple_types@UTelegram@@@std@@@2@$00@2@$00@std@@QBEABV?$_Compressed_pair@V?$allocator@U?$_Tree_node@UTelegram@@PAX@std@@@std@@V?$_Tree_val@U?$_Tree_simple_types@UTelegram@@@std@@@2@$00@2@XZ ; std::_Compressed_pair<std::less<Telegram>,std::_Compressed_pair<std::allocator<std::_Tree_node<Telegram,void *> >,std::_Tree_val<std::_Tree_simple_types<Telegram> >,1>,1>::_Get_second
	mov	ecx, eax
	call	?_Get_second@?$_Compressed_pair@V?$allocator@U?$_Tree_node@UTelegram@@PAX@std@@@std@@V?$_Tree_val@U?$_Tree_simple_types@UTelegram@@@std@@@2@$00@std@@QBEABV?$_Tree_val@U?$_Tree_simple_types@UTelegram@@@std@@@2@XZ ; std::_Compressed_pair<std::allocator<std::_Tree_node<Telegram,void *> >,std::_Tree_val<std::_Tree_simple_types<Telegram> >,1>::_Get_second

; 810  : 		}

	add	esp, 4
	cmp	ebp, esp
	call	__RTC_CheckEsp
	mov	esp, ebp
	pop	ebp
	ret	0
?_Get_data@?$_Tree_comp_alloc@V?$_Tset_traits@UTelegram@@U?$less@UTelegram@@@std@@V?$allocator@UTelegram@@@3@$0A@@std@@@std@@QBEABV?$_Tree_val@U?$_Tree_simple_types@UTelegram@@@std@@@2@XZ ENDP ; std::_Tree_comp_alloc<std::_Tset_traits<Telegram,std::less<Telegram>,std::allocator<Telegram>,0> >::_Get_data
_TEXT	ENDS
; Function compile flags: /Odtp /RTCsu
; File c:\program files (x86)\microsoft visual studio\2017\community\vc\tools\msvc\14.11.25503\include\xtree
;	COMDAT ?_Get_data@?$_Tree_comp_alloc@V?$_Tset_traits@UTelegram@@U?$less@UTelegram@@@std@@V?$allocator@UTelegram@@@3@$0A@@std@@@std@@QAEAAV?$_Tree_val@U?$_Tree_simple_types@UTelegram@@@std@@@2@XZ
_TEXT	SEGMENT
_this$ = -4						; size = 4
?_Get_data@?$_Tree_comp_alloc@V?$_Tset_traits@UTelegram@@U?$less@UTelegram@@@std@@V?$allocator@UTelegram@@@3@$0A@@std@@@std@@QAEAAV?$_Tree_val@U?$_Tree_simple_types@UTelegram@@@std@@@2@XZ PROC ; std::_Tree_comp_alloc<std::_Tset_traits<Telegram,std::less<Telegram>,std::allocator<Telegram>,0> >::_Get_data, COMDAT
; _this$ = ecx

; 803  : 		{	// return reference to _Tree_val

	push	ebp
	mov	ebp, esp
	push	ecx
	mov	DWORD PTR [ebp-4], -858993460		; ccccccccH
	mov	DWORD PTR _this$[ebp], ecx

; 804  : 		return (_Mypair._Get_second()._Get_second());

	mov	ecx, DWORD PTR _this$[ebp]
	call	?_Get_second@?$_Compressed_pair@U?$less@UTelegram@@@std@@V?$_Compressed_pair@V?$allocator@U?$_Tree_node@UTelegram@@PAX@std@@@std@@V?$_Tree_val@U?$_Tree_simple_types@UTelegram@@@std@@@2@$00@2@$00@std@@QAEAAV?$_Compressed_pair@V?$allocator@U?$_Tree_node@UTelegram@@PAX@std@@@std@@V?$_Tree_val@U?$_Tree_simple_types@UTelegram@@@std@@@2@$00@2@XZ ; std::_Compressed_pair<std::less<Telegram>,std::_Compressed_pair<std::allocator<std::_Tree_node<Telegram,void *> >,std::_Tree_val<std::_Tree_simple_types<Telegram> >,1>,1>::_Get_second
	mov	ecx, eax
	call	?_Get_second@?$_Compressed_pair@V?$allocator@U?$_Tree_node@UTelegram@@PAX@std@@@std@@V?$_Tree_val@U?$_Tree_simple_types@UTelegram@@@std@@@2@$00@std@@QAEAAV?$_Tree_val@U?$_Tree_simple_types@UTelegram@@@std@@@2@XZ ; std::_Compressed_pair<std::allocator<std::_Tree_node<Telegram,void *> >,std::_Tree_val<std::_Tree_simple_types<Telegram> >,1>::_Get_second

; 805  : 		}

	add	esp, 4
	cmp	ebp, esp
	call	__RTC_CheckEsp
	mov	esp, ebp
	pop	ebp
	ret	0
?_Get_data@?$_Tree_comp_alloc@V?$_Tset_traits@UTelegram@@U?$less@UTelegram@@@std@@V?$allocator@UTelegram@@@3@$0A@@std@@@std@@QAEAAV?$_Tree_val@U?$_Tree_simple_types@UTelegram@@@std@@@2@XZ ENDP ; std::_Tree_comp_alloc<std::_Tset_traits<Telegram,std::less<Telegram>,std::allocator<Telegram>,0> >::_Get_data
_TEXT	ENDS
; Function compile flags: /Odtp /RTCsu
; File c:\program files (x86)\microsoft visual studio\2017\community\vc\tools\msvc\14.11.25503\include\xtree
;	COMDAT ?_Getal@?$_Tree_comp_alloc@V?$_Tset_traits@UTelegram@@U?$less@UTelegram@@@std@@V?$allocator@UTelegram@@@3@$0A@@std@@@std@@QBEABV?$allocator@U?$_Tree_node@UTelegram@@PAX@std@@@2@XZ
_TEXT	SEGMENT
_this$ = -4						; size = 4
?_Getal@?$_Tree_comp_alloc@V?$_Tset_traits@UTelegram@@U?$less@UTelegram@@@std@@V?$allocator@UTelegram@@@3@$0A@@std@@@std@@QBEABV?$allocator@U?$_Tree_node@UTelegram@@PAX@std@@@2@XZ PROC ; std::_Tree_comp_alloc<std::_Tset_traits<Telegram,std::less<Telegram>,std::allocator<Telegram>,0> >::_Getal, COMDAT
; _this$ = ecx

; 798  : 		{	// return const reference to allocator

	push	ebp
	mov	ebp, esp
	push	ecx
	mov	DWORD PTR [ebp-4], -858993460		; ccccccccH
	mov	DWORD PTR _this$[ebp], ecx

; 799  : 		return (_Mypair._Get_second()._Get_first());

	mov	ecx, DWORD PTR _this$[ebp]
	call	?_Get_second@?$_Compressed_pair@U?$less@UTelegram@@@std@@V?$_Compressed_pair@V?$allocator@U?$_Tree_node@UTelegram@@PAX@std@@@std@@V?$_Tree_val@U?$_Tree_simple_types@UTelegram@@@std@@@2@$00@2@$00@std@@QBEABV?$_Compressed_pair@V?$allocator@U?$_Tree_node@UTelegram@@PAX@std@@@std@@V?$_Tree_val@U?$_Tree_simple_types@UTelegram@@@std@@@2@$00@2@XZ ; std::_Compressed_pair<std::less<Telegram>,std::_Compressed_pair<std::allocator<std::_Tree_node<Telegram,void *> >,std::_Tree_val<std::_Tree_simple_types<Telegram> >,1>,1>::_Get_second
	mov	ecx, eax
	call	?_Get_first@?$_Compressed_pair@V?$allocator@U?$_Tree_node@UTelegram@@PAX@std@@@std@@V?$_Tree_val@U?$_Tree_simple_types@UTelegram@@@std@@@2@$00@std@@QBEABV?$allocator@U?$_Tree_node@UTelegram@@PAX@std@@@2@XZ ; std::_Compressed_pair<std::allocator<std::_Tree_node<Telegram,void *> >,std::_Tree_val<std::_Tree_simple_types<Telegram> >,1>::_Get_first

; 800  : 		}

	add	esp, 4
	cmp	ebp, esp
	call	__RTC_CheckEsp
	mov	esp, ebp
	pop	ebp
	ret	0
?_Getal@?$_Tree_comp_alloc@V?$_Tset_traits@UTelegram@@U?$less@UTelegram@@@std@@V?$allocator@UTelegram@@@3@$0A@@std@@@std@@QBEABV?$allocator@U?$_Tree_node@UTelegram@@PAX@std@@@2@XZ ENDP ; std::_Tree_comp_alloc<std::_Tset_traits<Telegram,std::less<Telegram>,std::allocator<Telegram>,0> >::_Getal
_TEXT	ENDS
; Function compile flags: /Odtp /RTCsu
; File c:\program files (x86)\microsoft visual studio\2017\community\vc\tools\msvc\14.11.25503\include\xtree
;	COMDAT ?_Getal@?$_Tree_comp_alloc@V?$_Tset_traits@UTelegram@@U?$less@UTelegram@@@std@@V?$allocator@UTelegram@@@3@$0A@@std@@@std@@QAEAAV?$allocator@U?$_Tree_node@UTelegram@@PAX@std@@@2@XZ
_TEXT	SEGMENT
_this$ = -4						; size = 4
?_Getal@?$_Tree_comp_alloc@V?$_Tset_traits@UTelegram@@U?$less@UTelegram@@@std@@V?$allocator@UTelegram@@@3@$0A@@std@@@std@@QAEAAV?$allocator@U?$_Tree_node@UTelegram@@PAX@std@@@2@XZ PROC ; std::_Tree_comp_alloc<std::_Tset_traits<Telegram,std::less<Telegram>,std::allocator<Telegram>,0> >::_Getal, COMDAT
; _this$ = ecx

; 793  : 		{	// return reference to allocator

	push	ebp
	mov	ebp, esp
	push	ecx
	mov	DWORD PTR [ebp-4], -858993460		; ccccccccH
	mov	DWORD PTR _this$[ebp], ecx

; 794  : 		return (_Mypair._Get_second()._Get_first());

	mov	ecx, DWORD PTR _this$[ebp]
	call	?_Get_second@?$_Compressed_pair@U?$less@UTelegram@@@std@@V?$_Compressed_pair@V?$allocator@U?$_Tree_node@UTelegram@@PAX@std@@@std@@V?$_Tree_val@U?$_Tree_simple_types@UTelegram@@@std@@@2@$00@2@$00@std@@QAEAAV?$_Compressed_pair@V?$allocator@U?$_Tree_node@UTelegram@@PAX@std@@@std@@V?$_Tree_val@U?$_Tree_simple_types@UTelegram@@@std@@@2@$00@2@XZ ; std::_Compressed_pair<std::less<Telegram>,std::_Compressed_pair<std::allocator<std::_Tree_node<Telegram,void *> >,std::_Tree_val<std::_Tree_simple_types<Telegram> >,1>,1>::_Get_second
	mov	ecx, eax
	call	?_Get_first@?$_Compressed_pair@V?$allocator@U?$_Tree_node@UTelegram@@PAX@std@@@std@@V?$_Tree_val@U?$_Tree_simple_types@UTelegram@@@std@@@2@$00@std@@QAEAAV?$allocator@U?$_Tree_node@UTelegram@@PAX@std@@@2@XZ ; std::_Compressed_pair<std::allocator<std::_Tree_node<Telegram,void *> >,std::_Tree_val<std::_Tree_simple_types<Telegram> >,1>::_Get_first

; 795  : 		}

	add	esp, 4
	cmp	ebp, esp
	call	__RTC_CheckEsp
	mov	esp, ebp
	pop	ebp
	ret	0
?_Getal@?$_Tree_comp_alloc@V?$_Tset_traits@UTelegram@@U?$less@UTelegram@@@std@@V?$allocator@UTelegram@@@3@$0A@@std@@@std@@QAEAAV?$allocator@U?$_Tree_node@UTelegram@@PAX@std@@@2@XZ ENDP ; std::_Tree_comp_alloc<std::_Tset_traits<Telegram,std::less<Telegram>,std::allocator<Telegram>,0> >::_Getal
_TEXT	ENDS
; Function compile flags: /Odtp /RTCsu
; File c:\program files (x86)\microsoft visual studio\2017\community\vc\tools\msvc\14.11.25503\include\xtree
;	COMDAT ?_Getcomp@?$_Tree_comp_alloc@V?$_Tset_traits@UTelegram@@U?$less@UTelegram@@@std@@V?$allocator@UTelegram@@@3@$0A@@std@@@std@@QAEAAU?$less@UTelegram@@@2@XZ
_TEXT	SEGMENT
_this$ = -4						; size = 4
?_Getcomp@?$_Tree_comp_alloc@V?$_Tset_traits@UTelegram@@U?$less@UTelegram@@@std@@V?$allocator@UTelegram@@@3@$0A@@std@@@std@@QAEAAU?$less@UTelegram@@@2@XZ PROC ; std::_Tree_comp_alloc<std::_Tset_traits<Telegram,std::less<Telegram>,std::allocator<Telegram>,0> >::_Getcomp, COMDAT
; _this$ = ecx

; 783  : 		{	// return reference to ordering predicate

	push	ebp
	mov	ebp, esp
	push	ecx
	mov	DWORD PTR [ebp-4], -858993460		; ccccccccH
	mov	DWORD PTR _this$[ebp], ecx

; 784  : 		return (_Mypair._Get_first());

	mov	ecx, DWORD PTR _this$[ebp]
	call	?_Get_first@?$_Compressed_pair@U?$less@UTelegram@@@std@@V?$_Compressed_pair@V?$allocator@U?$_Tree_node@UTelegram@@PAX@std@@@std@@V?$_Tree_val@U?$_Tree_simple_types@UTelegram@@@std@@@2@$00@2@$00@std@@QAEAAU?$less@UTelegram@@@2@XZ ; std::_Compressed_pair<std::less<Telegram>,std::_Compressed_pair<std::allocator<std::_Tree_node<Telegram,void *> >,std::_Tree_val<std::_Tree_simple_types<Telegram> >,1>,1>::_Get_first

; 785  : 		}

	add	esp, 4
	cmp	ebp, esp
	call	__RTC_CheckEsp
	mov	esp, ebp
	pop	ebp
	ret	0
?_Getcomp@?$_Tree_comp_alloc@V?$_Tset_traits@UTelegram@@U?$less@UTelegram@@@std@@V?$allocator@UTelegram@@@3@$0A@@std@@@std@@QAEAAU?$less@UTelegram@@@2@XZ ENDP ; std::_Tree_comp_alloc<std::_Tset_traits<Telegram,std::less<Telegram>,std::allocator<Telegram>,0> >::_Getcomp
_TEXT	ENDS
; Function compile flags: /Odtp /RTCsu
; File c:\program files (x86)\microsoft visual studio\2017\community\vc\tools\msvc\14.11.25503\include\xtree
;	COMDAT ?_Freenode0@?$_Tree_comp_alloc@V?$_Tset_traits@UTelegram@@U?$less@UTelegram@@@std@@V?$allocator@UTelegram@@@3@$0A@@std@@@std@@QAEXPAU?$_Tree_node@UTelegram@@PAX@2@@Z
_TEXT	SEGMENT
__Al$ = -8						; size = 4
_this$ = -4						; size = 4
__Pnode$ = 8						; size = 4
?_Freenode0@?$_Tree_comp_alloc@V?$_Tset_traits@UTelegram@@U?$less@UTelegram@@@std@@V?$allocator@UTelegram@@@3@$0A@@std@@@std@@QAEXPAU?$_Tree_node@UTelegram@@PAX@2@@Z PROC ; std::_Tree_comp_alloc<std::_Tset_traits<Telegram,std::less<Telegram>,std::allocator<Telegram>,0> >::_Freenode0, COMDAT
; _this$ = ecx

; 755  : 		{	// free non-value node using current allocator

	push	ebp
	mov	ebp, esp
	sub	esp, 8
	mov	DWORD PTR [ebp-8], -858993460		; ccccccccH
	mov	DWORD PTR [ebp-4], -858993460		; ccccccccH
	mov	DWORD PTR _this$[ebp], ecx

; 756  : 		_Alnode& _Al = _Getal();

	mov	ecx, DWORD PTR _this$[ebp]
	call	?_Getal@?$_Tree_comp_alloc@V?$_Tset_traits@UTelegram@@U?$less@UTelegram@@@std@@V?$allocator@UTelegram@@@3@$0A@@std@@@std@@QAEAAV?$allocator@U?$_Tree_node@UTelegram@@PAX@std@@@2@XZ ; std::_Tree_comp_alloc<std::_Tset_traits<Telegram,std::less<Telegram>,std::allocator<Telegram>,0> >::_Getal
	mov	DWORD PTR __Al$[ebp], eax

; 757  : 		_Alnode_traits::destroy(_Al, _STD addressof(_Pnode->_Left));

	mov	eax, DWORD PTR __Pnode$[ebp]
	push	eax
	call	??$addressof@PAU?$_Tree_node@UTelegram@@PAX@std@@@std@@YAPAPAU?$_Tree_node@UTelegram@@PAX@0@AAPAU10@@Z ; std::addressof<std::_Tree_node<Telegram,void *> *>
	add	esp, 4
	push	eax
	mov	ecx, DWORD PTR __Al$[ebp]
	push	ecx
	call	??$destroy@PAU?$_Tree_node@UTelegram@@PAX@std@@@?$_Default_allocator_traits@V?$allocator@U?$_Tree_node@UTelegram@@PAX@std@@@std@@@std@@SAXAAV?$allocator@U?$_Tree_node@UTelegram@@PAX@std@@@1@QAPAU?$_Tree_node@UTelegram@@PAX@1@@Z ; std::_Default_allocator_traits<std::allocator<std::_Tree_node<Telegram,void *> > >::destroy<std::_Tree_node<Telegram,void *> *>
	add	esp, 8

; 758  : 		_Alnode_traits::destroy(_Al, _STD addressof(_Pnode->_Parent));

	mov	edx, DWORD PTR __Pnode$[ebp]
	add	edx, 4
	push	edx
	call	??$addressof@PAU?$_Tree_node@UTelegram@@PAX@std@@@std@@YAPAPAU?$_Tree_node@UTelegram@@PAX@0@AAPAU10@@Z ; std::addressof<std::_Tree_node<Telegram,void *> *>
	add	esp, 4
	push	eax
	mov	eax, DWORD PTR __Al$[ebp]
	push	eax
	call	??$destroy@PAU?$_Tree_node@UTelegram@@PAX@std@@@?$_Default_allocator_traits@V?$allocator@U?$_Tree_node@UTelegram@@PAX@std@@@std@@@std@@SAXAAV?$allocator@U?$_Tree_node@UTelegram@@PAX@std@@@1@QAPAU?$_Tree_node@UTelegram@@PAX@1@@Z ; std::_Default_allocator_traits<std::allocator<std::_Tree_node<Telegram,void *> > >::destroy<std::_Tree_node<Telegram,void *> *>
	add	esp, 8

; 759  : 		_Alnode_traits::destroy(_Al, _STD addressof(_Pnode->_Right));

	mov	ecx, DWORD PTR __Pnode$[ebp]
	add	ecx, 8
	push	ecx
	call	??$addressof@PAU?$_Tree_node@UTelegram@@PAX@std@@@std@@YAPAPAU?$_Tree_node@UTelegram@@PAX@0@AAPAU10@@Z ; std::addressof<std::_Tree_node<Telegram,void *> *>
	add	esp, 4
	push	eax
	mov	edx, DWORD PTR __Al$[ebp]
	push	edx
	call	??$destroy@PAU?$_Tree_node@UTelegram@@PAX@std@@@?$_Default_allocator_traits@V?$allocator@U?$_Tree_node@UTelegram@@PAX@std@@@std@@@std@@SAXAAV?$allocator@U?$_Tree_node@UTelegram@@PAX@std@@@1@QAPAU?$_Tree_node@UTelegram@@PAX@1@@Z ; std::_Default_allocator_traits<std::allocator<std::_Tree_node<Telegram,void *> > >::destroy<std::_Tree_node<Telegram,void *> *>
	add	esp, 8

; 760  : 		_Al.deallocate(_Pnode, 1);

	push	1
	mov	eax, DWORD PTR __Pnode$[ebp]
	push	eax
	mov	ecx, DWORD PTR __Al$[ebp]
	call	?deallocate@?$allocator@U?$_Tree_node@UTelegram@@PAX@std@@@std@@QAEXQAU?$_Tree_node@UTelegram@@PAX@2@I@Z ; std::allocator<std::_Tree_node<Telegram,void *> >::deallocate

; 761  : 		}

	add	esp, 8
	cmp	ebp, esp
	call	__RTC_CheckEsp
	mov	esp, ebp
	pop	ebp
	ret	4
?_Freenode0@?$_Tree_comp_alloc@V?$_Tset_traits@UTelegram@@U?$less@UTelegram@@@std@@V?$allocator@UTelegram@@@3@$0A@@std@@@std@@QAEXPAU?$_Tree_node@UTelegram@@PAX@2@@Z ENDP ; std::_Tree_comp_alloc<std::_Tset_traits<Telegram,std::less<Telegram>,std::allocator<Telegram>,0> >::_Freenode0
_TEXT	ENDS
; Function compile flags: /Odtp /RTCsu
; File c:\program files (x86)\microsoft visual studio\2017\community\vc\tools\msvc\14.11.25503\include\xtree
;	COMDAT ?_Buynode0@?$_Tree_comp_alloc@V?$_Tset_traits@UTelegram@@U?$less@UTelegram@@@std@@V?$allocator@UTelegram@@@3@$0A@@std@@@std@@QAEPAU?$_Tree_node@UTelegram@@PAX@2@XZ
_TEXT	SEGMENT
__Pnode$ = -28						; size = 4
__Al$ = -24						; size = 4
_this$ = -20						; size = 4
__$EHRec$ = -16						; size = 16
?_Buynode0@?$_Tree_comp_alloc@V?$_Tset_traits@UTelegram@@U?$less@UTelegram@@@std@@V?$allocator@UTelegram@@@3@$0A@@std@@@std@@QAEPAU?$_Tree_node@UTelegram@@PAX@2@XZ PROC ; std::_Tree_comp_alloc<std::_Tset_traits<Telegram,std::less<Telegram>,std::allocator<Telegram>,0> >::_Buynode0, COMDAT
; _this$ = ecx

; 738  : 		{	// allocate a non-value node

	push	ebp
	mov	ebp, esp
	push	-1
	push	__ehhandler$?_Buynode0@?$_Tree_comp_alloc@V?$_Tset_traits@UTelegram@@U?$less@UTelegram@@@std@@V?$allocator@UTelegram@@@3@$0A@@std@@@std@@QAEPAU?$_Tree_node@UTelegram@@PAX@2@XZ
	mov	eax, DWORD PTR fs:0
	push	eax
	push	ecx
	sub	esp, 12					; 0000000cH
	push	ebx
	push	esi
	push	edi
	mov	DWORD PTR [ebp-28], -858993460		; ccccccccH
	mov	DWORD PTR [ebp-24], -858993460		; ccccccccH
	mov	DWORD PTR [ebp-20], -858993460		; ccccccccH
	mov	eax, DWORD PTR ___security_cookie
	xor	eax, ebp
	push	eax
	lea	eax, DWORD PTR __$EHRec$[ebp+4]
	mov	DWORD PTR fs:0, eax
	mov	DWORD PTR __$EHRec$[ebp], esp
	mov	DWORD PTR _this$[ebp], ecx

; 739  : 		_Alnode& _Al = _Getal();

	mov	ecx, DWORD PTR _this$[ebp]
	call	?_Getal@?$_Tree_comp_alloc@V?$_Tset_traits@UTelegram@@U?$less@UTelegram@@@std@@V?$allocator@UTelegram@@@3@$0A@@std@@@std@@QAEAAV?$allocator@U?$_Tree_node@UTelegram@@PAX@std@@@2@XZ ; std::_Tree_comp_alloc<std::_Tset_traits<Telegram,std::less<Telegram>,std::allocator<Telegram>,0> >::_Getal
	mov	DWORD PTR __Al$[ebp], eax

; 740  : 		_Nodeptr _Pnode = _Al.allocate(1);

	push	1
	mov	ecx, DWORD PTR __Al$[ebp]
	call	?allocate@?$allocator@U?$_Tree_node@UTelegram@@PAX@std@@@std@@QAEPAU?$_Tree_node@UTelegram@@PAX@2@I@Z ; std::allocator<std::_Tree_node<Telegram,void *> >::allocate
	mov	DWORD PTR __Pnode$[ebp], eax

; 741  : 
; 742  : 		_TRY_BEGIN

	mov	DWORD PTR __$EHRec$[ebp+12], 0

; 743  : 		_Alnode_traits::construct(_Al, _STD addressof(_Pnode->_Left), _Myhead());

	mov	ecx, DWORD PTR _this$[ebp]
	call	?_Myhead@?$_Tree_comp_alloc@V?$_Tset_traits@UTelegram@@U?$less@UTelegram@@@std@@V?$allocator@UTelegram@@@3@$0A@@std@@@std@@QAEAAPAU?$_Tree_node@UTelegram@@PAX@2@XZ ; std::_Tree_comp_alloc<std::_Tset_traits<Telegram,std::less<Telegram>,std::allocator<Telegram>,0> >::_Myhead
	push	eax
	mov	eax, DWORD PTR __Pnode$[ebp]
	push	eax
	call	??$addressof@PAU?$_Tree_node@UTelegram@@PAX@std@@@std@@YAPAPAU?$_Tree_node@UTelegram@@PAX@0@AAPAU10@@Z ; std::addressof<std::_Tree_node<Telegram,void *> *>
	add	esp, 4
	push	eax
	mov	ecx, DWORD PTR __Al$[ebp]
	push	ecx
	call	??$construct@PAU?$_Tree_node@UTelegram@@PAX@std@@AAPAU12@@?$_Default_allocator_traits@V?$allocator@U?$_Tree_node@UTelegram@@PAX@std@@@std@@@std@@SAXAAV?$allocator@U?$_Tree_node@UTelegram@@PAX@std@@@1@QAPAU?$_Tree_node@UTelegram@@PAX@1@AAPAU31@@Z ; std::_Default_allocator_traits<std::allocator<std::_Tree_node<Telegram,void *> > >::construct<std::_Tree_node<Telegram,void *> *,std::_Tree_node<Telegram,void *> * &>
	add	esp, 12					; 0000000cH

; 744  : 		_Alnode_traits::construct(_Al, _STD addressof(_Pnode->_Parent), _Myhead());

	mov	ecx, DWORD PTR _this$[ebp]
	call	?_Myhead@?$_Tree_comp_alloc@V?$_Tset_traits@UTelegram@@U?$less@UTelegram@@@std@@V?$allocator@UTelegram@@@3@$0A@@std@@@std@@QAEAAPAU?$_Tree_node@UTelegram@@PAX@2@XZ ; std::_Tree_comp_alloc<std::_Tset_traits<Telegram,std::less<Telegram>,std::allocator<Telegram>,0> >::_Myhead
	push	eax
	mov	edx, DWORD PTR __Pnode$[ebp]
	add	edx, 4
	push	edx
	call	??$addressof@PAU?$_Tree_node@UTelegram@@PAX@std@@@std@@YAPAPAU?$_Tree_node@UTelegram@@PAX@0@AAPAU10@@Z ; std::addressof<std::_Tree_node<Telegram,void *> *>
	add	esp, 4
	push	eax
	mov	eax, DWORD PTR __Al$[ebp]
	push	eax
	call	??$construct@PAU?$_Tree_node@UTelegram@@PAX@std@@AAPAU12@@?$_Default_allocator_traits@V?$allocator@U?$_Tree_node@UTelegram@@PAX@std@@@std@@@std@@SAXAAV?$allocator@U?$_Tree_node@UTelegram@@PAX@std@@@1@QAPAU?$_Tree_node@UTelegram@@PAX@1@AAPAU31@@Z ; std::_Default_allocator_traits<std::allocator<std::_Tree_node<Telegram,void *> > >::construct<std::_Tree_node<Telegram,void *> *,std::_Tree_node<Telegram,void *> * &>
	add	esp, 12					; 0000000cH

; 745  : 		_Alnode_traits::construct(_Al, _STD addressof(_Pnode->_Right), _Myhead());

	mov	ecx, DWORD PTR _this$[ebp]
	call	?_Myhead@?$_Tree_comp_alloc@V?$_Tset_traits@UTelegram@@U?$less@UTelegram@@@std@@V?$allocator@UTelegram@@@3@$0A@@std@@@std@@QAEAAPAU?$_Tree_node@UTelegram@@PAX@2@XZ ; std::_Tree_comp_alloc<std::_Tset_traits<Telegram,std::less<Telegram>,std::allocator<Telegram>,0> >::_Myhead
	push	eax
	mov	ecx, DWORD PTR __Pnode$[ebp]
	add	ecx, 8
	push	ecx
	call	??$addressof@PAU?$_Tree_node@UTelegram@@PAX@std@@@std@@YAPAPAU?$_Tree_node@UTelegram@@PAX@0@AAPAU10@@Z ; std::addressof<std::_Tree_node<Telegram,void *> *>
	add	esp, 4
	push	eax
	mov	edx, DWORD PTR __Al$[ebp]
	push	edx
	call	??$construct@PAU?$_Tree_node@UTelegram@@PAX@std@@AAPAU12@@?$_Default_allocator_traits@V?$allocator@U?$_Tree_node@UTelegram@@PAX@std@@@std@@@std@@SAXAAV?$allocator@U?$_Tree_node@UTelegram@@PAX@std@@@1@QAPAU?$_Tree_node@UTelegram@@PAX@1@AAPAU31@@Z ; std::_Default_allocator_traits<std::allocator<std::_Tree_node<Telegram,void *> > >::construct<std::_Tree_node<Telegram,void *> *,std::_Tree_node<Telegram,void *> * &>
	add	esp, 12					; 0000000cH
	jmp	SHORT $LN4@Buynode0
__catch$?_Buynode0@?$_Tree_comp_alloc@V?$_Tset_traits@UTelegram@@U?$less@UTelegram@@@std@@V?$allocator@UTelegram@@@3@$0A@@std@@@std@@QAEPAU?$_Tree_node@UTelegram@@PAX@2@XZ$0:

; 746  : 		_CATCH_ALL
; 747  : 		_Al.deallocate(_Pnode, 1);

	push	1
	mov	eax, DWORD PTR __Pnode$[ebp]
	push	eax
	mov	ecx, DWORD PTR __Al$[ebp]
	call	?deallocate@?$allocator@U?$_Tree_node@UTelegram@@PAX@std@@@std@@QAEXQAU?$_Tree_node@UTelegram@@PAX@2@I@Z ; std::allocator<std::_Tree_node<Telegram,void *> >::deallocate

; 748  : 		_RERAISE;

	push	0
	push	0
	call	__CxxThrowException@8

; 749  : 		_CATCH_END

	mov	eax, $LN7@Buynode0
	ret	0
$LN4@Buynode0:
	mov	DWORD PTR __$EHRec$[ebp+12], -1
	jmp	SHORT __tryend$?_Buynode0@?$_Tree_comp_alloc@V?$_Tset_traits@UTelegram@@U?$less@UTelegram@@@std@@V?$allocator@UTelegram@@@3@$0A@@std@@@std@@QAEPAU?$_Tree_node@UTelegram@@PAX@2@XZ$1
$LN7@Buynode0:
	mov	DWORD PTR __$EHRec$[ebp+12], -1
__tryend$?_Buynode0@?$_Tree_comp_alloc@V?$_Tset_traits@UTelegram@@U?$less@UTelegram@@@std@@V?$allocator@UTelegram@@@3@$0A@@std@@@std@@QAEPAU?$_Tree_node@UTelegram@@PAX@2@XZ$1:

; 750  : 
; 751  : 		return (_Pnode);

	mov	eax, DWORD PTR __Pnode$[ebp]
$LN3@Buynode0:

; 752  : 		}

	mov	ecx, DWORD PTR __$EHRec$[ebp+4]
	mov	DWORD PTR fs:0, ecx
	pop	ecx
	pop	edi
	pop	esi
	pop	ebx
	add	esp, 28					; 0000001cH
	cmp	ebp, esp
	call	__RTC_CheckEsp
	mov	esp, ebp
	pop	ebp
	ret	0
_TEXT	ENDS
;	COMDAT text$x
text$x	SEGMENT
__ehhandler$?_Buynode0@?$_Tree_comp_alloc@V?$_Tset_traits@UTelegram@@U?$less@UTelegram@@@std@@V?$allocator@UTelegram@@@3@$0A@@std@@@std@@QAEPAU?$_Tree_node@UTelegram@@PAX@2@XZ:
	mov	edx, DWORD PTR [esp+8]
	lea	eax, DWORD PTR [edx+12]
	mov	ecx, DWORD PTR [edx-32]
	xor	ecx, eax
	call	@__security_check_cookie@4
	mov	eax, OFFSET __ehfuncinfo$?_Buynode0@?$_Tree_comp_alloc@V?$_Tset_traits@UTelegram@@U?$less@UTelegram@@@std@@V?$allocator@UTelegram@@@3@$0A@@std@@@std@@QAEPAU?$_Tree_node@UTelegram@@PAX@2@XZ
	jmp	___CxxFrameHandler3
text$x	ENDS
?_Buynode0@?$_Tree_comp_alloc@V?$_Tset_traits@UTelegram@@U?$less@UTelegram@@@std@@V?$allocator@UTelegram@@@3@$0A@@std@@@std@@QAEPAU?$_Tree_node@UTelegram@@PAX@2@XZ ENDP ; std::_Tree_comp_alloc<std::_Tset_traits<Telegram,std::less<Telegram>,std::allocator<Telegram>,0> >::_Buynode0
; Function compile flags: /Odtp /RTCsu
; File c:\program files (x86)\microsoft visual studio\2017\community\vc\tools\msvc\14.11.25503\include\xtree
;	COMDAT ?_Freeheadnode@?$_Tree_comp_alloc@V?$_Tset_traits@UTelegram@@U?$less@UTelegram@@@std@@V?$allocator@UTelegram@@@3@$0A@@std@@@std@@QAEXPAU?$_Tree_node@UTelegram@@PAX@2@@Z
_TEXT	SEGMENT
__Al$ = -8						; size = 4
_this$ = -4						; size = 4
__Pnode$ = 8						; size = 4
?_Freeheadnode@?$_Tree_comp_alloc@V?$_Tset_traits@UTelegram@@U?$less@UTelegram@@@std@@V?$allocator@UTelegram@@@3@$0A@@std@@@std@@QAEXPAU?$_Tree_node@UTelegram@@PAX@2@@Z PROC ; std::_Tree_comp_alloc<std::_Tset_traits<Telegram,std::less<Telegram>,std::allocator<Telegram>,0> >::_Freeheadnode, COMDAT
; _this$ = ecx

; 729  : 		{	// free head node using current allocator

	push	ebp
	mov	ebp, esp
	sub	esp, 8
	mov	DWORD PTR [ebp-8], -858993460		; ccccccccH
	mov	DWORD PTR [ebp-4], -858993460		; ccccccccH
	mov	DWORD PTR _this$[ebp], ecx

; 730  : 		_Alnode& _Al = _Getal();

	mov	ecx, DWORD PTR _this$[ebp]
	call	?_Getal@?$_Tree_comp_alloc@V?$_Tset_traits@UTelegram@@U?$less@UTelegram@@@std@@V?$allocator@UTelegram@@@3@$0A@@std@@@std@@QAEAAV?$allocator@U?$_Tree_node@UTelegram@@PAX@std@@@2@XZ ; std::_Tree_comp_alloc<std::_Tset_traits<Telegram,std::less<Telegram>,std::allocator<Telegram>,0> >::_Getal
	mov	DWORD PTR __Al$[ebp], eax

; 731  : 		_Alnode_traits::destroy(_Al, _STD addressof(_Pnode->_Left));

	mov	eax, DWORD PTR __Pnode$[ebp]
	push	eax
	call	??$addressof@PAU?$_Tree_node@UTelegram@@PAX@std@@@std@@YAPAPAU?$_Tree_node@UTelegram@@PAX@0@AAPAU10@@Z ; std::addressof<std::_Tree_node<Telegram,void *> *>
	add	esp, 4
	push	eax
	mov	ecx, DWORD PTR __Al$[ebp]
	push	ecx
	call	??$destroy@PAU?$_Tree_node@UTelegram@@PAX@std@@@?$_Default_allocator_traits@V?$allocator@U?$_Tree_node@UTelegram@@PAX@std@@@std@@@std@@SAXAAV?$allocator@U?$_Tree_node@UTelegram@@PAX@std@@@1@QAPAU?$_Tree_node@UTelegram@@PAX@1@@Z ; std::_Default_allocator_traits<std::allocator<std::_Tree_node<Telegram,void *> > >::destroy<std::_Tree_node<Telegram,void *> *>
	add	esp, 8

; 732  : 		_Alnode_traits::destroy(_Al, _STD addressof(_Pnode->_Parent));

	mov	edx, DWORD PTR __Pnode$[ebp]
	add	edx, 4
	push	edx
	call	??$addressof@PAU?$_Tree_node@UTelegram@@PAX@std@@@std@@YAPAPAU?$_Tree_node@UTelegram@@PAX@0@AAPAU10@@Z ; std::addressof<std::_Tree_node<Telegram,void *> *>
	add	esp, 4
	push	eax
	mov	eax, DWORD PTR __Al$[ebp]
	push	eax
	call	??$destroy@PAU?$_Tree_node@UTelegram@@PAX@std@@@?$_Default_allocator_traits@V?$allocator@U?$_Tree_node@UTelegram@@PAX@std@@@std@@@std@@SAXAAV?$allocator@U?$_Tree_node@UTelegram@@PAX@std@@@1@QAPAU?$_Tree_node@UTelegram@@PAX@1@@Z ; std::_Default_allocator_traits<std::allocator<std::_Tree_node<Telegram,void *> > >::destroy<std::_Tree_node<Telegram,void *> *>
	add	esp, 8

; 733  : 		_Alnode_traits::destroy(_Al, _STD addressof(_Pnode->_Right));

	mov	ecx, DWORD PTR __Pnode$[ebp]
	add	ecx, 8
	push	ecx
	call	??$addressof@PAU?$_Tree_node@UTelegram@@PAX@std@@@std@@YAPAPAU?$_Tree_node@UTelegram@@PAX@0@AAPAU10@@Z ; std::addressof<std::_Tree_node<Telegram,void *> *>
	add	esp, 4
	push	eax
	mov	edx, DWORD PTR __Al$[ebp]
	push	edx
	call	??$destroy@PAU?$_Tree_node@UTelegram@@PAX@std@@@?$_Default_allocator_traits@V?$allocator@U?$_Tree_node@UTelegram@@PAX@std@@@std@@@std@@SAXAAV?$allocator@U?$_Tree_node@UTelegram@@PAX@std@@@1@QAPAU?$_Tree_node@UTelegram@@PAX@1@@Z ; std::_Default_allocator_traits<std::allocator<std::_Tree_node<Telegram,void *> > >::destroy<std::_Tree_node<Telegram,void *> *>
	add	esp, 8

; 734  : 		_Al.deallocate(_Pnode, 1);

	push	1
	mov	eax, DWORD PTR __Pnode$[ebp]
	push	eax
	mov	ecx, DWORD PTR __Al$[ebp]
	call	?deallocate@?$allocator@U?$_Tree_node@UTelegram@@PAX@std@@@std@@QAEXQAU?$_Tree_node@UTelegram@@PAX@2@I@Z ; std::allocator<std::_Tree_node<Telegram,void *> >::deallocate

; 735  : 		}

	add	esp, 8
	cmp	ebp, esp
	call	__RTC_CheckEsp
	mov	esp, ebp
	pop	ebp
	ret	4
?_Freeheadnode@?$_Tree_comp_alloc@V?$_Tset_traits@UTelegram@@U?$less@UTelegram@@@std@@V?$allocator@UTelegram@@@3@$0A@@std@@@std@@QAEXPAU?$_Tree_node@UTelegram@@PAX@2@@Z ENDP ; std::_Tree_comp_alloc<std::_Tset_traits<Telegram,std::less<Telegram>,std::allocator<Telegram>,0> >::_Freeheadnode
_TEXT	ENDS
; Function compile flags: /Odtp /RTCsu
; File c:\program files (x86)\microsoft visual studio\2017\community\vc\tools\msvc\14.11.25503\include\xtree
;	COMDAT ?_Buyheadnode@?$_Tree_comp_alloc@V?$_Tset_traits@UTelegram@@U?$less@UTelegram@@@std@@V?$allocator@UTelegram@@@3@$0A@@std@@@std@@QAEPAU?$_Tree_node@UTelegram@@PAX@2@XZ
_TEXT	SEGMENT
__Pnode$ = -32						; size = 4
__Al$ = -24						; size = 4
_this$ = -20						; size = 4
__$EHRec$ = -16						; size = 16
?_Buyheadnode@?$_Tree_comp_alloc@V?$_Tset_traits@UTelegram@@U?$less@UTelegram@@@std@@V?$allocator@UTelegram@@@3@$0A@@std@@@std@@QAEPAU?$_Tree_node@UTelegram@@PAX@2@XZ PROC ; std::_Tree_comp_alloc<std::_Tset_traits<Telegram,std::less<Telegram>,std::allocator<Telegram>,0> >::_Buyheadnode, COMDAT
; _this$ = ecx

; 710  : 		{	// get head node using current allocator

	push	ebp
	mov	ebp, esp
	push	-1
	push	__ehhandler$?_Buyheadnode@?$_Tree_comp_alloc@V?$_Tset_traits@UTelegram@@U?$less@UTelegram@@@std@@V?$allocator@UTelegram@@@3@$0A@@std@@@std@@QAEPAU?$_Tree_node@UTelegram@@PAX@2@XZ
	mov	eax, DWORD PTR fs:0
	push	eax
	push	ecx
	sub	esp, 20					; 00000014H
	push	ebx
	push	esi
	push	edi
	mov	eax, -858993460				; ccccccccH
	mov	DWORD PTR [ebp-36], eax
	mov	DWORD PTR [ebp-32], eax
	mov	DWORD PTR [ebp-28], eax
	mov	DWORD PTR [ebp-24], eax
	mov	DWORD PTR [ebp-20], eax
	mov	eax, DWORD PTR ___security_cookie
	xor	eax, ebp
	push	eax
	lea	eax, DWORD PTR __$EHRec$[ebp+4]
	mov	DWORD PTR fs:0, eax
	mov	DWORD PTR __$EHRec$[ebp], esp
	mov	DWORD PTR _this$[ebp], ecx

; 711  : 		_Alnode& _Al = _Getal();

	mov	ecx, DWORD PTR _this$[ebp]
	call	?_Getal@?$_Tree_comp_alloc@V?$_Tset_traits@UTelegram@@U?$less@UTelegram@@@std@@V?$allocator@UTelegram@@@3@$0A@@std@@@std@@QAEAAV?$allocator@U?$_Tree_node@UTelegram@@PAX@std@@@2@XZ ; std::_Tree_comp_alloc<std::_Tset_traits<Telegram,std::less<Telegram>,std::allocator<Telegram>,0> >::_Getal
	mov	DWORD PTR __Al$[ebp], eax

; 712  : 		_Nodeptr _Pnode = _Al.allocate(1);

	push	1
	mov	ecx, DWORD PTR __Al$[ebp]
	call	?allocate@?$allocator@U?$_Tree_node@UTelegram@@PAX@std@@@std@@QAEPAU?$_Tree_node@UTelegram@@PAX@2@I@Z ; std::allocator<std::_Tree_node<Telegram,void *> >::allocate
	mov	DWORD PTR __Pnode$[ebp], eax

; 713  : 
; 714  : 		_TRY_BEGIN

	mov	DWORD PTR __$EHRec$[ebp+12], 0

; 715  : 		_Alnode_traits::construct(_Al, _STD addressof(_Pnode->_Left), _Pnode);

	lea	eax, DWORD PTR __Pnode$[ebp]
	push	eax
	mov	ecx, DWORD PTR __Pnode$[ebp]
	push	ecx
	call	??$addressof@PAU?$_Tree_node@UTelegram@@PAX@std@@@std@@YAPAPAU?$_Tree_node@UTelegram@@PAX@0@AAPAU10@@Z ; std::addressof<std::_Tree_node<Telegram,void *> *>
	add	esp, 4
	push	eax
	mov	edx, DWORD PTR __Al$[ebp]
	push	edx
	call	??$construct@PAU?$_Tree_node@UTelegram@@PAX@std@@AAPAU12@@?$_Default_allocator_traits@V?$allocator@U?$_Tree_node@UTelegram@@PAX@std@@@std@@@std@@SAXAAV?$allocator@U?$_Tree_node@UTelegram@@PAX@std@@@1@QAPAU?$_Tree_node@UTelegram@@PAX@1@AAPAU31@@Z ; std::_Default_allocator_traits<std::allocator<std::_Tree_node<Telegram,void *> > >::construct<std::_Tree_node<Telegram,void *> *,std::_Tree_node<Telegram,void *> * &>
	add	esp, 12					; 0000000cH

; 716  : 		_Alnode_traits::construct(_Al, _STD addressof(_Pnode->_Parent), _Pnode);

	lea	eax, DWORD PTR __Pnode$[ebp]
	push	eax
	mov	ecx, DWORD PTR __Pnode$[ebp]
	add	ecx, 4
	push	ecx
	call	??$addressof@PAU?$_Tree_node@UTelegram@@PAX@std@@@std@@YAPAPAU?$_Tree_node@UTelegram@@PAX@0@AAPAU10@@Z ; std::addressof<std::_Tree_node<Telegram,void *> *>
	add	esp, 4
	push	eax
	mov	edx, DWORD PTR __Al$[ebp]
	push	edx
	call	??$construct@PAU?$_Tree_node@UTelegram@@PAX@std@@AAPAU12@@?$_Default_allocator_traits@V?$allocator@U?$_Tree_node@UTelegram@@PAX@std@@@std@@@std@@SAXAAV?$allocator@U?$_Tree_node@UTelegram@@PAX@std@@@1@QAPAU?$_Tree_node@UTelegram@@PAX@1@AAPAU31@@Z ; std::_Default_allocator_traits<std::allocator<std::_Tree_node<Telegram,void *> > >::construct<std::_Tree_node<Telegram,void *> *,std::_Tree_node<Telegram,void *> * &>
	add	esp, 12					; 0000000cH

; 717  : 		_Alnode_traits::construct(_Al, _STD addressof(_Pnode->_Right), _Pnode);

	lea	eax, DWORD PTR __Pnode$[ebp]
	push	eax
	mov	ecx, DWORD PTR __Pnode$[ebp]
	add	ecx, 8
	push	ecx
	call	??$addressof@PAU?$_Tree_node@UTelegram@@PAX@std@@@std@@YAPAPAU?$_Tree_node@UTelegram@@PAX@0@AAPAU10@@Z ; std::addressof<std::_Tree_node<Telegram,void *> *>
	add	esp, 4
	push	eax
	mov	edx, DWORD PTR __Al$[ebp]
	push	edx
	call	??$construct@PAU?$_Tree_node@UTelegram@@PAX@std@@AAPAU12@@?$_Default_allocator_traits@V?$allocator@U?$_Tree_node@UTelegram@@PAX@std@@@std@@@std@@SAXAAV?$allocator@U?$_Tree_node@UTelegram@@PAX@std@@@1@QAPAU?$_Tree_node@UTelegram@@PAX@1@AAPAU31@@Z ; std::_Default_allocator_traits<std::allocator<std::_Tree_node<Telegram,void *> > >::construct<std::_Tree_node<Telegram,void *> *,std::_Tree_node<Telegram,void *> * &>
	add	esp, 12					; 0000000cH
	jmp	SHORT $LN4@Buyheadnod
__catch$?_Buyheadnode@?$_Tree_comp_alloc@V?$_Tset_traits@UTelegram@@U?$less@UTelegram@@@std@@V?$allocator@UTelegram@@@3@$0A@@std@@@std@@QAEPAU?$_Tree_node@UTelegram@@PAX@2@XZ$0:

; 718  : 		_CATCH_ALL
; 719  : 		_Al.deallocate(_Pnode, 1);

	push	1
	mov	eax, DWORD PTR __Pnode$[ebp]
	push	eax
	mov	ecx, DWORD PTR __Al$[ebp]
	call	?deallocate@?$allocator@U?$_Tree_node@UTelegram@@PAX@std@@@std@@QAEXQAU?$_Tree_node@UTelegram@@PAX@2@I@Z ; std::allocator<std::_Tree_node<Telegram,void *> >::deallocate

; 720  : 		_RERAISE;

	push	0
	push	0
	call	__CxxThrowException@8

; 721  : 		_CATCH_END

	mov	eax, $LN7@Buyheadnod
	ret	0
$LN4@Buyheadnod:
	mov	DWORD PTR __$EHRec$[ebp+12], -1
	jmp	SHORT __tryend$?_Buyheadnode@?$_Tree_comp_alloc@V?$_Tset_traits@UTelegram@@U?$less@UTelegram@@@std@@V?$allocator@UTelegram@@@3@$0A@@std@@@std@@QAEPAU?$_Tree_node@UTelegram@@PAX@2@XZ$1
$LN7@Buyheadnod:
	mov	DWORD PTR __$EHRec$[ebp+12], -1
__tryend$?_Buyheadnode@?$_Tree_comp_alloc@V?$_Tset_traits@UTelegram@@U?$less@UTelegram@@@std@@V?$allocator@UTelegram@@@3@$0A@@std@@@std@@QAEPAU?$_Tree_node@UTelegram@@PAX@2@XZ$1:

; 722  : 
; 723  : 		_Pnode->_Color = _Black;

	mov	ecx, DWORD PTR __Pnode$[ebp]
	mov	BYTE PTR [ecx+12], 1

; 724  : 		_Pnode->_Isnil = true;

	mov	edx, DWORD PTR __Pnode$[ebp]
	mov	BYTE PTR [edx+13], 1

; 725  : 		return (_Pnode);

	mov	eax, DWORD PTR __Pnode$[ebp]
$LN3@Buyheadnod:

; 726  : 		}

	push	edx
	mov	ecx, ebp
	push	eax
	lea	edx, DWORD PTR $LN11@Buyheadnod
	call	@_RTC_CheckStackVars@8
	pop	eax
	pop	edx
	mov	ecx, DWORD PTR __$EHRec$[ebp+4]
	mov	DWORD PTR fs:0, ecx
	pop	ecx
	pop	edi
	pop	esi
	pop	ebx
	add	esp, 36					; 00000024H
	cmp	ebp, esp
	call	__RTC_CheckEsp
	mov	esp, ebp
	pop	ebp
	ret	0
$LN11@Buyheadnod:
	DD	1
	DD	$LN10@Buyheadnod
$LN10@Buyheadnod:
	DD	-32					; ffffffe0H
	DD	4
	DD	$LN8@Buyheadnod
$LN8@Buyheadnod:
	DB	95					; 0000005fH
	DB	80					; 00000050H
	DB	110					; 0000006eH
	DB	111					; 0000006fH
	DB	100					; 00000064H
	DB	101					; 00000065H
	DB	0
_TEXT	ENDS
;	COMDAT text$x
text$x	SEGMENT
__ehhandler$?_Buyheadnode@?$_Tree_comp_alloc@V?$_Tset_traits@UTelegram@@U?$less@UTelegram@@@std@@V?$allocator@UTelegram@@@3@$0A@@std@@@std@@QAEPAU?$_Tree_node@UTelegram@@PAX@2@XZ:
	mov	edx, DWORD PTR [esp+8]
	lea	eax, DWORD PTR [edx+12]
	mov	ecx, DWORD PTR [edx-40]
	xor	ecx, eax
	call	@__security_check_cookie@4
	mov	eax, OFFSET __ehfuncinfo$?_Buyheadnode@?$_Tree_comp_alloc@V?$_Tset_traits@UTelegram@@U?$less@UTelegram@@@std@@V?$allocator@UTelegram@@@3@$0A@@std@@@std@@QAEPAU?$_Tree_node@UTelegram@@PAX@2@XZ
	jmp	___CxxFrameHandler3
text$x	ENDS
?_Buyheadnode@?$_Tree_comp_alloc@V?$_Tset_traits@UTelegram@@U?$less@UTelegram@@@std@@V?$allocator@UTelegram@@@3@$0A@@std@@@std@@QAEPAU?$_Tree_node@UTelegram@@PAX@2@XZ ENDP ; std::_Tree_comp_alloc<std::_Tset_traits<Telegram,std::less<Telegram>,std::allocator<Telegram>,0> >::_Buyheadnode
; Function compile flags: /Odtp /RTCsu
; File c:\program files (x86)\microsoft visual studio\2017\community\vc\tools\msvc\14.11.25503\include\xtree
;	COMDAT ?_Orphan_all@?$_Tree_comp_alloc@V?$_Tset_traits@UTelegram@@U?$less@UTelegram@@@std@@V?$allocator@UTelegram@@@3@$0A@@std@@@std@@QAEXXZ
_TEXT	SEGMENT
_this$ = -4						; size = 4
?_Orphan_all@?$_Tree_comp_alloc@V?$_Tset_traits@UTelegram@@U?$less@UTelegram@@@std@@V?$allocator@UTelegram@@@3@$0A@@std@@@std@@QAEXXZ PROC ; std::_Tree_comp_alloc<std::_Tset_traits<Telegram,std::less<Telegram>,std::allocator<Telegram>,0> >::_Orphan_all, COMDAT
; _this$ = ecx

; 700  : 		{	// orphan all iterators

	push	ebp
	mov	ebp, esp
	push	ecx
	mov	DWORD PTR [ebp-4], -858993460		; ccccccccH
	mov	DWORD PTR _this$[ebp], ecx

; 701  : 		_Get_data()._Orphan_all();

	mov	ecx, DWORD PTR _this$[ebp]
	call	?_Get_data@?$_Tree_comp_alloc@V?$_Tset_traits@UTelegram@@U?$less@UTelegram@@@std@@V?$allocator@UTelegram@@@3@$0A@@std@@@std@@QAEAAV?$_Tree_val@U?$_Tree_simple_types@UTelegram@@@std@@@2@XZ ; std::_Tree_comp_alloc<std::_Tset_traits<Telegram,std::less<Telegram>,std::allocator<Telegram>,0> >::_Get_data
	mov	ecx, eax
	call	?_Orphan_all@_Container_base12@std@@QAEXXZ ; std::_Container_base12::_Orphan_all

; 702  : 		}

	add	esp, 4
	cmp	ebp, esp
	call	__RTC_CheckEsp
	mov	esp, ebp
	pop	ebp
	ret	0
?_Orphan_all@?$_Tree_comp_alloc@V?$_Tset_traits@UTelegram@@U?$less@UTelegram@@@std@@V?$allocator@UTelegram@@@3@$0A@@std@@@std@@QAEXXZ ENDP ; std::_Tree_comp_alloc<std::_Tset_traits<Telegram,std::less<Telegram>,std::allocator<Telegram>,0> >::_Orphan_all
_TEXT	ENDS
; Function compile flags: /Odtp /RTCsu
; File c:\program files (x86)\microsoft visual studio\2017\community\vc\tools\msvc\14.11.25503\include\xtree
;	COMDAT ?_Myproxy@?$_Tree_comp_alloc@V?$_Tset_traits@UTelegram@@U?$less@UTelegram@@@std@@V?$allocator@UTelegram@@@3@$0A@@std@@@std@@QAEAAPAU_Container_proxy@2@XZ
_TEXT	SEGMENT
_this$ = -4						; size = 4
?_Myproxy@?$_Tree_comp_alloc@V?$_Tset_traits@UTelegram@@U?$less@UTelegram@@@std@@V?$allocator@UTelegram@@@3@$0A@@std@@@std@@QAEAAPAU_Container_proxy@2@XZ PROC ; std::_Tree_comp_alloc<std::_Tset_traits<Telegram,std::less<Telegram>,std::allocator<Telegram>,0> >::_Myproxy, COMDAT
; _this$ = ecx

; 649  : 		{	// return reference to _Myproxy

	push	ebp
	mov	ebp, esp
	push	ecx
	mov	DWORD PTR [ebp-4], -858993460		; ccccccccH
	mov	DWORD PTR _this$[ebp], ecx

; 650  : 		return (_Get_data()._Myproxy);

	mov	ecx, DWORD PTR _this$[ebp]
	call	?_Get_data@?$_Tree_comp_alloc@V?$_Tset_traits@UTelegram@@U?$less@UTelegram@@@std@@V?$allocator@UTelegram@@@3@$0A@@std@@@std@@QAEAAV?$_Tree_val@U?$_Tree_simple_types@UTelegram@@@std@@@2@XZ ; std::_Tree_comp_alloc<std::_Tset_traits<Telegram,std::less<Telegram>,std::allocator<Telegram>,0> >::_Get_data

; 651  : 		}

	add	esp, 4
	cmp	ebp, esp
	call	__RTC_CheckEsp
	mov	esp, ebp
	pop	ebp
	ret	0
?_Myproxy@?$_Tree_comp_alloc@V?$_Tset_traits@UTelegram@@U?$less@UTelegram@@@std@@V?$allocator@UTelegram@@@3@$0A@@std@@@std@@QAEAAPAU_Container_proxy@2@XZ ENDP ; std::_Tree_comp_alloc<std::_Tset_traits<Telegram,std::less<Telegram>,std::allocator<Telegram>,0> >::_Myproxy
_TEXT	ENDS
; Function compile flags: /Odtp /RTCsu
; File c:\program files (x86)\microsoft visual studio\2017\community\vc\tools\msvc\14.11.25503\include\xtree
;	COMDAT ?_Getpfirst@?$_Tree_comp_alloc@V?$_Tset_traits@UTelegram@@U?$less@UTelegram@@@std@@V?$allocator@UTelegram@@@3@$0A@@std@@@std@@QBEPAPAU_Iterator_base12@2@XZ
_TEXT	SEGMENT
_this$ = -4						; size = 4
?_Getpfirst@?$_Tree_comp_alloc@V?$_Tset_traits@UTelegram@@U?$less@UTelegram@@@std@@V?$allocator@UTelegram@@@3@$0A@@std@@@std@@QBEPAPAU_Iterator_base12@2@XZ PROC ; std::_Tree_comp_alloc<std::_Tset_traits<Telegram,std::less<Telegram>,std::allocator<Telegram>,0> >::_Getpfirst, COMDAT
; _this$ = ecx

; 644  : 		{	// get address of iterator chain

	push	ebp
	mov	ebp, esp
	push	ecx
	mov	DWORD PTR [ebp-4], -858993460		; ccccccccH
	mov	DWORD PTR _this$[ebp], ecx

; 645  : 		return (_Get_data()._Getpfirst());

	mov	ecx, DWORD PTR _this$[ebp]
	call	?_Get_data@?$_Tree_comp_alloc@V?$_Tset_traits@UTelegram@@U?$less@UTelegram@@@std@@V?$allocator@UTelegram@@@3@$0A@@std@@@std@@QBEABV?$_Tree_val@U?$_Tree_simple_types@UTelegram@@@std@@@2@XZ ; std::_Tree_comp_alloc<std::_Tset_traits<Telegram,std::less<Telegram>,std::allocator<Telegram>,0> >::_Get_data
	mov	ecx, eax
	call	?_Getpfirst@_Container_base12@std@@QBEPAPAU_Iterator_base12@2@XZ ; std::_Container_base12::_Getpfirst

; 646  : 		}

	add	esp, 4
	cmp	ebp, esp
	call	__RTC_CheckEsp
	mov	esp, ebp
	pop	ebp
	ret	0
?_Getpfirst@?$_Tree_comp_alloc@V?$_Tset_traits@UTelegram@@U?$less@UTelegram@@@std@@V?$allocator@UTelegram@@@3@$0A@@std@@@std@@QBEPAPAU_Iterator_base12@2@XZ ENDP ; std::_Tree_comp_alloc<std::_Tset_traits<Telegram,std::less<Telegram>,std::allocator<Telegram>,0> >::_Getpfirst
_TEXT	ENDS
; Function compile flags: /Odtp /RTCsu
; File c:\program files (x86)\microsoft visual studio\2017\community\vc\tools\msvc\14.11.25503\include\xtree
;	COMDAT ?_Free_proxy@?$_Tree_comp_alloc@V?$_Tset_traits@UTelegram@@U?$less@UTelegram@@@std@@V?$allocator@UTelegram@@@3@$0A@@std@@@std@@QAEXXZ
_TEXT	SEGMENT
__Proxy_allocator$ = -9					; size = 1
_this$ = -4						; size = 4
?_Free_proxy@?$_Tree_comp_alloc@V?$_Tset_traits@UTelegram@@U?$less@UTelegram@@@std@@V?$allocator@UTelegram@@@3@$0A@@std@@@std@@QAEXXZ PROC ; std::_Tree_comp_alloc<std::_Tset_traits<Telegram,std::less<Telegram>,std::allocator<Telegram>,0> >::_Free_proxy, COMDAT
; _this$ = ecx

; 635  : 		{	// destroy proxy

	push	ebp
	mov	ebp, esp
	sub	esp, 16					; 00000010H
	mov	eax, -858993460				; ccccccccH
	mov	DWORD PTR [ebp-16], eax
	mov	DWORD PTR [ebp-12], eax
	mov	DWORD PTR [ebp-8], eax
	mov	DWORD PTR [ebp-4], eax
	mov	DWORD PTR _this$[ebp], ecx

; 636  : 		_Alproxy _Proxy_allocator(_Getal());

	mov	ecx, DWORD PTR _this$[ebp]
	call	?_Getal@?$_Tree_comp_alloc@V?$_Tset_traits@UTelegram@@U?$less@UTelegram@@@std@@V?$allocator@UTelegram@@@3@$0A@@std@@@std@@QAEAAV?$allocator@U?$_Tree_node@UTelegram@@PAX@std@@@2@XZ ; std::_Tree_comp_alloc<std::_Tset_traits<Telegram,std::less<Telegram>,std::allocator<Telegram>,0> >::_Getal
	push	eax
	lea	ecx, DWORD PTR __Proxy_allocator$[ebp]
	call	??$?0U?$_Tree_node@UTelegram@@PAX@std@@@?$allocator@U_Container_proxy@std@@@std@@QAE@ABV?$allocator@U?$_Tree_node@UTelegram@@PAX@std@@@1@@Z ; std::allocator<std::_Container_proxy>::allocator<std::_Container_proxy><std::_Tree_node<Telegram,void *> >

; 637  : 		_Orphan_all();

	mov	ecx, DWORD PTR _this$[ebp]
	call	?_Orphan_all@?$_Tree_comp_alloc@V?$_Tset_traits@UTelegram@@U?$less@UTelegram@@@std@@V?$allocator@UTelegram@@@3@$0A@@std@@@std@@QAEXXZ ; std::_Tree_comp_alloc<std::_Tset_traits<Telegram,std::less<Telegram>,std::allocator<Telegram>,0> >::_Orphan_all

; 638  : 		_Alproxy_traits::destroy(_Proxy_allocator, _Myproxy());

	mov	ecx, DWORD PTR _this$[ebp]
	call	?_Myproxy@?$_Tree_comp_alloc@V?$_Tset_traits@UTelegram@@U?$less@UTelegram@@@std@@V?$allocator@UTelegram@@@3@$0A@@std@@@std@@QAEAAPAU_Container_proxy@2@XZ ; std::_Tree_comp_alloc<std::_Tset_traits<Telegram,std::less<Telegram>,std::allocator<Telegram>,0> >::_Myproxy
	mov	eax, DWORD PTR [eax]
	push	eax
	lea	ecx, DWORD PTR __Proxy_allocator$[ebp]
	push	ecx
	call	??$destroy@U_Container_proxy@std@@@?$_Default_allocator_traits@V?$allocator@U_Container_proxy@std@@@std@@@std@@SAXAAV?$allocator@U_Container_proxy@std@@@1@QAU_Container_proxy@1@@Z ; std::_Default_allocator_traits<std::allocator<std::_Container_proxy> >::destroy<std::_Container_proxy>
	add	esp, 8

; 639  : 		_Deallocate_plain(_Proxy_allocator, _Myproxy());

	mov	ecx, DWORD PTR _this$[ebp]
	call	?_Myproxy@?$_Tree_comp_alloc@V?$_Tset_traits@UTelegram@@U?$less@UTelegram@@@std@@V?$allocator@UTelegram@@@3@$0A@@std@@@std@@QAEAAPAU_Container_proxy@2@XZ ; std::_Tree_comp_alloc<std::_Tset_traits<Telegram,std::less<Telegram>,std::allocator<Telegram>,0> >::_Myproxy
	mov	edx, DWORD PTR [eax]
	push	edx
	lea	eax, DWORD PTR __Proxy_allocator$[ebp]
	push	eax
	call	??$_Deallocate_plain@V?$allocator@U_Container_proxy@std@@@std@@$0A@@std@@YAXAAV?$allocator@U_Container_proxy@std@@@0@QAU_Container_proxy@0@@Z ; std::_Deallocate_plain<std::allocator<std::_Container_proxy>,0>
	add	esp, 8

; 640  : 		_Myproxy() = 0;

	mov	ecx, DWORD PTR _this$[ebp]
	call	?_Myproxy@?$_Tree_comp_alloc@V?$_Tset_traits@UTelegram@@U?$less@UTelegram@@@std@@V?$allocator@UTelegram@@@3@$0A@@std@@@std@@QAEAAPAU_Container_proxy@2@XZ ; std::_Tree_comp_alloc<std::_Tset_traits<Telegram,std::less<Telegram>,std::allocator<Telegram>,0> >::_Myproxy
	mov	DWORD PTR [eax], 0

; 641  : 		}

	push	edx
	mov	ecx, ebp
	push	eax
	lea	edx, DWORD PTR $LN5@Free_proxy
	call	@_RTC_CheckStackVars@8
	pop	eax
	pop	edx
	add	esp, 16					; 00000010H
	cmp	ebp, esp
	call	__RTC_CheckEsp
	mov	esp, ebp
	pop	ebp
	ret	0
	npad	2
$LN5@Free_proxy:
	DD	1
	DD	$LN4@Free_proxy
$LN4@Free_proxy:
	DD	-9					; fffffff7H
	DD	1
	DD	$LN3@Free_proxy
$LN3@Free_proxy:
	DB	95					; 0000005fH
	DB	80					; 00000050H
	DB	114					; 00000072H
	DB	111					; 0000006fH
	DB	120					; 00000078H
	DB	121					; 00000079H
	DB	95					; 0000005fH
	DB	97					; 00000061H
	DB	108					; 0000006cH
	DB	108					; 0000006cH
	DB	111					; 0000006fH
	DB	99					; 00000063H
	DB	97					; 00000061H
	DB	116					; 00000074H
	DB	111					; 0000006fH
	DB	114					; 00000072H
	DB	0
?_Free_proxy@?$_Tree_comp_alloc@V?$_Tset_traits@UTelegram@@U?$less@UTelegram@@@std@@V?$allocator@UTelegram@@@3@$0A@@std@@@std@@QAEXXZ ENDP ; std::_Tree_comp_alloc<std::_Tset_traits<Telegram,std::less<Telegram>,std::allocator<Telegram>,0> >::_Free_proxy
_TEXT	ENDS
; Function compile flags: /Odtp /RTCsu
; File c:\program files (x86)\microsoft visual studio\2017\community\vc\tools\msvc\14.11.25503\include\xtree
;	COMDAT ?_Alloc_proxy@?$_Tree_comp_alloc@V?$_Tset_traits@UTelegram@@U?$less@UTelegram@@@std@@V?$allocator@UTelegram@@@3@$0A@@std@@@std@@QAEXXZ
_TEXT	SEGMENT
$T1 = -24						; size = 8
__Proxy_allocator$ = -9					; size = 1
_this$ = -4						; size = 4
?_Alloc_proxy@?$_Tree_comp_alloc@V?$_Tset_traits@UTelegram@@U?$less@UTelegram@@@std@@V?$allocator@UTelegram@@@3@$0A@@std@@@std@@QAEXXZ PROC ; std::_Tree_comp_alloc<std::_Tset_traits<Telegram,std::less<Telegram>,std::allocator<Telegram>,0> >::_Alloc_proxy, COMDAT
; _this$ = ecx

; 627  : 		{	// construct proxy

	push	ebp
	mov	ebp, esp
	sub	esp, 24					; 00000018H
	push	esi
	mov	eax, -858993460				; ccccccccH
	mov	DWORD PTR [ebp-24], eax
	mov	DWORD PTR [ebp-20], eax
	mov	DWORD PTR [ebp-16], eax
	mov	DWORD PTR [ebp-12], eax
	mov	DWORD PTR [ebp-8], eax
	mov	DWORD PTR [ebp-4], eax
	mov	DWORD PTR _this$[ebp], ecx

; 628  : 		_Alproxy _Proxy_allocator(_Getal());

	mov	ecx, DWORD PTR _this$[ebp]
	call	?_Getal@?$_Tree_comp_alloc@V?$_Tset_traits@UTelegram@@U?$less@UTelegram@@@std@@V?$allocator@UTelegram@@@3@$0A@@std@@@std@@QAEAAV?$allocator@U?$_Tree_node@UTelegram@@PAX@std@@@2@XZ ; std::_Tree_comp_alloc<std::_Tset_traits<Telegram,std::less<Telegram>,std::allocator<Telegram>,0> >::_Getal
	push	eax
	lea	ecx, DWORD PTR __Proxy_allocator$[ebp]
	call	??$?0U?$_Tree_node@UTelegram@@PAX@std@@@?$allocator@U_Container_proxy@std@@@std@@QAE@ABV?$allocator@U?$_Tree_node@UTelegram@@PAX@std@@@1@@Z ; std::allocator<std::_Container_proxy>::allocator<std::_Container_proxy><std::_Tree_node<Telegram,void *> >

; 629  : 		_Myproxy() = _Unfancy(_Proxy_allocator.allocate(1));

	push	1
	lea	ecx, DWORD PTR __Proxy_allocator$[ebp]
	call	?allocate@?$allocator@U_Container_proxy@std@@@std@@QAEPAU_Container_proxy@2@I@Z ; std::allocator<std::_Container_proxy>::allocate
	push	eax
	call	??$_Unfancy@U_Container_proxy@std@@@std@@YAPAU_Container_proxy@0@PAU10@@Z ; std::_Unfancy<std::_Container_proxy>
	add	esp, 4
	mov	esi, eax
	mov	ecx, DWORD PTR _this$[ebp]
	call	?_Myproxy@?$_Tree_comp_alloc@V?$_Tset_traits@UTelegram@@U?$less@UTelegram@@@std@@V?$allocator@UTelegram@@@3@$0A@@std@@@std@@QAEAAPAU_Container_proxy@2@XZ ; std::_Tree_comp_alloc<std::_Tset_traits<Telegram,std::less<Telegram>,std::allocator<Telegram>,0> >::_Myproxy
	mov	DWORD PTR [eax], esi

; 630  : 		_Alproxy_traits::construct(_Proxy_allocator, _Myproxy(), _Container_proxy());

	lea	ecx, DWORD PTR $T1[ebp]
	call	??0_Container_proxy@std@@QAE@XZ		; std::_Container_proxy::_Container_proxy
	push	eax
	mov	ecx, DWORD PTR _this$[ebp]
	call	?_Myproxy@?$_Tree_comp_alloc@V?$_Tset_traits@UTelegram@@U?$less@UTelegram@@@std@@V?$allocator@UTelegram@@@3@$0A@@std@@@std@@QAEAAPAU_Container_proxy@2@XZ ; std::_Tree_comp_alloc<std::_Tset_traits<Telegram,std::less<Telegram>,std::allocator<Telegram>,0> >::_Myproxy
	mov	eax, DWORD PTR [eax]
	push	eax
	lea	ecx, DWORD PTR __Proxy_allocator$[ebp]
	push	ecx
	call	??$construct@U_Container_proxy@std@@U12@@?$_Default_allocator_traits@V?$allocator@U_Container_proxy@std@@@std@@@std@@SAXAAV?$allocator@U_Container_proxy@std@@@1@QAU_Container_proxy@1@$$QAU31@@Z ; std::_Default_allocator_traits<std::allocator<std::_Container_proxy> >::construct<std::_Container_proxy,std::_Container_proxy>
	add	esp, 12					; 0000000cH

; 631  : 		_Myproxy()->_Mycont = _STD addressof(_Get_data());

	mov	ecx, DWORD PTR _this$[ebp]
	call	?_Get_data@?$_Tree_comp_alloc@V?$_Tset_traits@UTelegram@@U?$less@UTelegram@@@std@@V?$allocator@UTelegram@@@3@$0A@@std@@@std@@QAEAAV?$_Tree_val@U?$_Tree_simple_types@UTelegram@@@std@@@2@XZ ; std::_Tree_comp_alloc<std::_Tset_traits<Telegram,std::less<Telegram>,std::allocator<Telegram>,0> >::_Get_data
	push	eax
	call	??$addressof@V?$_Tree_val@U?$_Tree_simple_types@UTelegram@@@std@@@std@@@std@@YAPAV?$_Tree_val@U?$_Tree_simple_types@UTelegram@@@std@@@0@AAV10@@Z ; std::addressof<std::_Tree_val<std::_Tree_simple_types<Telegram> > >
	add	esp, 4
	mov	esi, eax
	mov	ecx, DWORD PTR _this$[ebp]
	call	?_Myproxy@?$_Tree_comp_alloc@V?$_Tset_traits@UTelegram@@U?$less@UTelegram@@@std@@V?$allocator@UTelegram@@@3@$0A@@std@@@std@@QAEAAPAU_Container_proxy@2@XZ ; std::_Tree_comp_alloc<std::_Tset_traits<Telegram,std::less<Telegram>,std::allocator<Telegram>,0> >::_Myproxy
	mov	edx, DWORD PTR [eax]
	mov	DWORD PTR [edx], esi

; 632  : 		}

	push	edx
	mov	ecx, ebp
	push	eax
	lea	edx, DWORD PTR $LN5@Alloc_prox
	call	@_RTC_CheckStackVars@8
	pop	eax
	pop	edx
	pop	esi
	add	esp, 24					; 00000018H
	cmp	ebp, esp
	call	__RTC_CheckEsp
	mov	esp, ebp
	pop	ebp
	ret	0
$LN5@Alloc_prox:
	DD	1
	DD	$LN4@Alloc_prox
$LN4@Alloc_prox:
	DD	-9					; fffffff7H
	DD	1
	DD	$LN3@Alloc_prox
$LN3@Alloc_prox:
	DB	95					; 0000005fH
	DB	80					; 00000050H
	DB	114					; 00000072H
	DB	111					; 0000006fH
	DB	120					; 00000078H
	DB	121					; 00000079H
	DB	95					; 0000005fH
	DB	97					; 00000061H
	DB	108					; 0000006cH
	DB	108					; 0000006cH
	DB	111					; 0000006fH
	DB	99					; 00000063H
	DB	97					; 00000061H
	DB	116					; 00000074H
	DB	111					; 0000006fH
	DB	114					; 00000072H
	DB	0
?_Alloc_proxy@?$_Tree_comp_alloc@V?$_Tset_traits@UTelegram@@U?$less@UTelegram@@@std@@V?$allocator@UTelegram@@@3@$0A@@std@@@std@@QAEXXZ ENDP ; std::_Tree_comp_alloc<std::_Tset_traits<Telegram,std::less<Telegram>,std::allocator<Telegram>,0> >::_Alloc_proxy
_TEXT	ENDS
; Function compile flags: /Odtp /RTCsu
; File c:\program files (x86)\microsoft visual studio\2017\community\vc\tools\msvc\14.11.25503\include\xtree
;	COMDAT ??1?$_Tree_comp_alloc@V?$_Tset_traits@UTelegram@@U?$less@UTelegram@@@std@@V?$allocator@UTelegram@@@3@$0A@@std@@@std@@QAE@XZ
_TEXT	SEGMENT
_this$ = -16						; size = 4
__$EHRec$ = -12						; size = 12
??1?$_Tree_comp_alloc@V?$_Tset_traits@UTelegram@@U?$less@UTelegram@@@std@@V?$allocator@UTelegram@@@3@$0A@@std@@@std@@QAE@XZ PROC ; std::_Tree_comp_alloc<std::_Tset_traits<Telegram,std::less<Telegram>,std::allocator<Telegram>,0> >::~_Tree_comp_alloc<std::_Tset_traits<Telegram,std::less<Telegram>,std::allocator<Telegram>,0> >, COMDAT
; _this$ = ecx

; 621  : 		{	// destroy head node, proxy

	push	ebp
	mov	ebp, esp
	push	-1
	push	__ehhandler$??1?$_Tree_comp_alloc@V?$_Tset_traits@UTelegram@@U?$less@UTelegram@@@std@@V?$allocator@UTelegram@@@3@$0A@@std@@@std@@QAE@XZ
	mov	eax, DWORD PTR fs:0
	push	eax
	push	ecx
	mov	DWORD PTR [ebp-16], -858993460		; ccccccccH
	mov	eax, DWORD PTR ___security_cookie
	xor	eax, ebp
	push	eax
	lea	eax, DWORD PTR __$EHRec$[ebp]
	mov	DWORD PTR fs:0, eax
	mov	DWORD PTR _this$[ebp], ecx

; 622  : 		_Freeheadnode(_Myhead());

	mov	ecx, DWORD PTR _this$[ebp]
	call	?_Myhead@?$_Tree_comp_alloc@V?$_Tset_traits@UTelegram@@U?$less@UTelegram@@@std@@V?$allocator@UTelegram@@@3@$0A@@std@@@std@@QAEAAPAU?$_Tree_node@UTelegram@@PAX@2@XZ ; std::_Tree_comp_alloc<std::_Tset_traits<Telegram,std::less<Telegram>,std::allocator<Telegram>,0> >::_Myhead
	mov	eax, DWORD PTR [eax]
	push	eax
	mov	ecx, DWORD PTR _this$[ebp]
	call	?_Freeheadnode@?$_Tree_comp_alloc@V?$_Tset_traits@UTelegram@@U?$less@UTelegram@@@std@@V?$allocator@UTelegram@@@3@$0A@@std@@@std@@QAEXPAU?$_Tree_node@UTelegram@@PAX@2@@Z ; std::_Tree_comp_alloc<std::_Tset_traits<Telegram,std::less<Telegram>,std::allocator<Telegram>,0> >::_Freeheadnode

; 623  : 		_Free_proxy();

	mov	ecx, DWORD PTR _this$[ebp]
	call	?_Free_proxy@?$_Tree_comp_alloc@V?$_Tset_traits@UTelegram@@U?$less@UTelegram@@@std@@V?$allocator@UTelegram@@@3@$0A@@std@@@std@@QAEXXZ ; std::_Tree_comp_alloc<std::_Tset_traits<Telegram,std::less<Telegram>,std::allocator<Telegram>,0> >::_Free_proxy

; 624  : 		}

	mov	ecx, DWORD PTR _this$[ebp]
	call	??1?$_Compressed_pair@U?$less@UTelegram@@@std@@V?$_Compressed_pair@V?$allocator@U?$_Tree_node@UTelegram@@PAX@std@@@std@@V?$_Tree_val@U?$_Tree_simple_types@UTelegram@@@std@@@2@$00@2@$00@std@@QAE@XZ
	mov	ecx, DWORD PTR __$EHRec$[ebp]
	mov	DWORD PTR fs:0, ecx
	pop	ecx
	add	esp, 16					; 00000010H
	cmp	ebp, esp
	call	__RTC_CheckEsp
	mov	esp, ebp
	pop	ebp
	ret	0
_TEXT	ENDS
;	COMDAT text$x
text$x	SEGMENT
__ehhandler$??1?$_Tree_comp_alloc@V?$_Tset_traits@UTelegram@@U?$less@UTelegram@@@std@@V?$allocator@UTelegram@@@3@$0A@@std@@@std@@QAE@XZ:
	mov	edx, DWORD PTR [esp+8]
	lea	eax, DWORD PTR [edx+12]
	mov	ecx, DWORD PTR [edx-8]
	xor	ecx, eax
	call	@__security_check_cookie@4
	mov	eax, OFFSET __ehfuncinfo$??1?$_Tree_comp_alloc@V?$_Tset_traits@UTelegram@@U?$less@UTelegram@@@std@@V?$allocator@UTelegram@@@3@$0A@@std@@@std@@QAE@XZ
	jmp	___CxxFrameHandler3
text$x	ENDS
??1?$_Tree_comp_alloc@V?$_Tset_traits@UTelegram@@U?$less@UTelegram@@@std@@V?$allocator@UTelegram@@@3@$0A@@std@@@std@@QAE@XZ ENDP ; std::_Tree_comp_alloc<std::_Tset_traits<Telegram,std::less<Telegram>,std::allocator<Telegram>,0> >::~_Tree_comp_alloc<std::_Tset_traits<Telegram,std::less<Telegram>,std::allocator<Telegram>,0> >
; Function compile flags: /Odtp /RTCsu
; File c:\program files (x86)\microsoft visual studio\2017\community\vc\tools\msvc\14.11.25503\include\xtree
;	COMDAT ?_Construct@?$_Tree_comp_alloc@V?$_Tset_traits@UTelegram@@U?$less@UTelegram@@@std@@V?$allocator@UTelegram@@@3@$0A@@std@@@std@@QAEXXZ
_TEXT	SEGMENT
_this$ = -20						; size = 4
__$EHRec$ = -16						; size = 16
?_Construct@?$_Tree_comp_alloc@V?$_Tset_traits@UTelegram@@U?$less@UTelegram@@@std@@V?$allocator@UTelegram@@@3@$0A@@std@@@std@@QAEXXZ PROC ; std::_Tree_comp_alloc<std::_Tset_traits<Telegram,std::less<Telegram>,std::allocator<Telegram>,0> >::_Construct, COMDAT
; _this$ = ecx

; 610  : 		{	// construct head node, proxy

	push	ebp
	mov	ebp, esp
	push	-1
	push	__ehhandler$?_Construct@?$_Tree_comp_alloc@V?$_Tset_traits@UTelegram@@U?$less@UTelegram@@@std@@V?$allocator@UTelegram@@@3@$0A@@std@@@std@@QAEXXZ
	mov	eax, DWORD PTR fs:0
	push	eax
	push	ecx
	push	ecx
	push	ebx
	push	esi
	push	edi
	mov	DWORD PTR [ebp-20], -858993460		; ccccccccH
	mov	eax, DWORD PTR ___security_cookie
	xor	eax, ebp
	push	eax
	lea	eax, DWORD PTR __$EHRec$[ebp+4]
	mov	DWORD PTR fs:0, eax
	mov	DWORD PTR __$EHRec$[ebp], esp
	mov	DWORD PTR _this$[ebp], ecx

; 611  : 		_Myhead() = _Buyheadnode();

	mov	ecx, DWORD PTR _this$[ebp]
	call	?_Buyheadnode@?$_Tree_comp_alloc@V?$_Tset_traits@UTelegram@@U?$less@UTelegram@@@std@@V?$allocator@UTelegram@@@3@$0A@@std@@@std@@QAEPAU?$_Tree_node@UTelegram@@PAX@2@XZ ; std::_Tree_comp_alloc<std::_Tset_traits<Telegram,std::less<Telegram>,std::allocator<Telegram>,0> >::_Buyheadnode
	mov	esi, eax
	mov	ecx, DWORD PTR _this$[ebp]
	call	?_Myhead@?$_Tree_comp_alloc@V?$_Tset_traits@UTelegram@@U?$less@UTelegram@@@std@@V?$allocator@UTelegram@@@3@$0A@@std@@@std@@QAEAAPAU?$_Tree_node@UTelegram@@PAX@2@XZ ; std::_Tree_comp_alloc<std::_Tset_traits<Telegram,std::less<Telegram>,std::allocator<Telegram>,0> >::_Myhead
	mov	DWORD PTR [eax], esi

; 612  : 		_TRY_BEGIN

	mov	DWORD PTR __$EHRec$[ebp+12], 0

; 613  : 		_Alloc_proxy();

	mov	ecx, DWORD PTR _this$[ebp]
	call	?_Alloc_proxy@?$_Tree_comp_alloc@V?$_Tset_traits@UTelegram@@U?$less@UTelegram@@@std@@V?$allocator@UTelegram@@@3@$0A@@std@@@std@@QAEXXZ ; std::_Tree_comp_alloc<std::_Tset_traits<Telegram,std::less<Telegram>,std::allocator<Telegram>,0> >::_Alloc_proxy
	jmp	SHORT $LN4@Construct
__catch$?_Construct@?$_Tree_comp_alloc@V?$_Tset_traits@UTelegram@@U?$less@UTelegram@@@std@@V?$allocator@UTelegram@@@3@$0A@@std@@@std@@QAEXXZ$0:

; 614  : 		_CATCH_ALL
; 615  : 		_Freeheadnode(_Myhead());

	mov	ecx, DWORD PTR _this$[ebp]
	call	?_Myhead@?$_Tree_comp_alloc@V?$_Tset_traits@UTelegram@@U?$less@UTelegram@@@std@@V?$allocator@UTelegram@@@3@$0A@@std@@@std@@QAEAAPAU?$_Tree_node@UTelegram@@PAX@2@XZ ; std::_Tree_comp_alloc<std::_Tset_traits<Telegram,std::less<Telegram>,std::allocator<Telegram>,0> >::_Myhead
	mov	eax, DWORD PTR [eax]
	push	eax
	mov	ecx, DWORD PTR _this$[ebp]
	call	?_Freeheadnode@?$_Tree_comp_alloc@V?$_Tset_traits@UTelegram@@U?$less@UTelegram@@@std@@V?$allocator@UTelegram@@@3@$0A@@std@@@std@@QAEXPAU?$_Tree_node@UTelegram@@PAX@2@@Z ; std::_Tree_comp_alloc<std::_Tset_traits<Telegram,std::less<Telegram>,std::allocator<Telegram>,0> >::_Freeheadnode

; 616  : 		_RERAISE;

	push	0
	push	0
	call	__CxxThrowException@8

; 617  : 		_CATCH_END

	mov	eax, $LN7@Construct
	ret	0
$LN4@Construct:
	mov	DWORD PTR __$EHRec$[ebp+12], -1
	jmp	SHORT $LN3@Construct
$LN7@Construct:
	mov	DWORD PTR __$EHRec$[ebp+12], -1
$LN3@Construct:

; 618  : 		}

	mov	ecx, DWORD PTR __$EHRec$[ebp+4]
	mov	DWORD PTR fs:0, ecx
	pop	ecx
	pop	edi
	pop	esi
	pop	ebx
	add	esp, 20					; 00000014H
	cmp	ebp, esp
	call	__RTC_CheckEsp
	mov	esp, ebp
	pop	ebp
	ret	0
_TEXT	ENDS
;	COMDAT text$x
text$x	SEGMENT
__ehhandler$?_Construct@?$_Tree_comp_alloc@V?$_Tset_traits@UTelegram@@U?$less@UTelegram@@@std@@V?$allocator@UTelegram@@@3@$0A@@std@@@std@@QAEXXZ:
	mov	edx, DWORD PTR [esp+8]
	lea	eax, DWORD PTR [edx+12]
	mov	ecx, DWORD PTR [edx-24]
	xor	ecx, eax
	call	@__security_check_cookie@4
	mov	eax, OFFSET __ehfuncinfo$?_Construct@?$_Tree_comp_alloc@V?$_Tset_traits@UTelegram@@U?$less@UTelegram@@@std@@V?$allocator@UTelegram@@@3@$0A@@std@@@std@@QAEXXZ
	jmp	___CxxFrameHandler3
text$x	ENDS
?_Construct@?$_Tree_comp_alloc@V?$_Tset_traits@UTelegram@@U?$less@UTelegram@@@std@@V?$allocator@UTelegram@@@3@$0A@@std@@@std@@QAEXXZ ENDP ; std::_Tree_comp_alloc<std::_Tset_traits<Telegram,std::less<Telegram>,std::allocator<Telegram>,0> >::_Construct
; Function compile flags: /Odtp /RTCsu
; File c:\program files (x86)\microsoft visual studio\2017\community\vc\tools\msvc\14.11.25503\include\xtree
;	COMDAT ??0?$_Tree_comp_alloc@V?$_Tset_traits@UTelegram@@U?$less@UTelegram@@@std@@V?$allocator@UTelegram@@@3@$0A@@std@@@std@@QAE@ABU?$less@UTelegram@@@1@@Z
_TEXT	SEGMENT
$T2 = -18						; size = 1
$T3 = -17						; size = 1
_this$ = -16						; size = 4
__$EHRec$ = -12						; size = 12
__Parg$ = 8						; size = 4
??0?$_Tree_comp_alloc@V?$_Tset_traits@UTelegram@@U?$less@UTelegram@@@std@@V?$allocator@UTelegram@@@3@$0A@@std@@@std@@QAE@ABU?$less@UTelegram@@@1@@Z PROC ; std::_Tree_comp_alloc<std::_Tset_traits<Telegram,std::less<Telegram>,std::allocator<Telegram>,0> >::_Tree_comp_alloc<std::_Tset_traits<Telegram,std::less<Telegram>,std::allocator<Telegram>,0> >, COMDAT
; _this$ = ecx

; 575  : 		{	// construct from comparator

	push	ebp
	mov	ebp, esp
	push	-1
	push	__ehhandler$??0?$_Tree_comp_alloc@V?$_Tset_traits@UTelegram@@U?$less@UTelegram@@@std@@V?$allocator@UTelegram@@@3@$0A@@std@@@std@@QAE@ABU?$less@UTelegram@@@1@@Z
	mov	eax, DWORD PTR fs:0
	push	eax
	sub	esp, 8
	mov	DWORD PTR [ebp-20], -858993460		; ccccccccH
	mov	DWORD PTR [ebp-16], -858993460		; ccccccccH
	mov	eax, DWORD PTR ___security_cookie
	xor	eax, ebp
	push	eax
	lea	eax, DWORD PTR __$EHRec$[ebp]
	mov	DWORD PTR fs:0, eax
	mov	DWORD PTR _this$[ebp], ecx

; 573  : 		: _Mypair(_One_then_variadic_args_t(), _Parg,

	lea	eax, DWORD PTR $T3[ebp]
	push	eax
	mov	ecx, DWORD PTR __Parg$[ebp]
	push	ecx
	movzx	edx, BYTE PTR $T2[ebp]
	push	edx
	mov	ecx, DWORD PTR _this$[ebp]
	call	??$?0ABU?$less@UTelegram@@@std@@U_Zero_then_variadic_args_t@1@@?$_Compressed_pair@U?$less@UTelegram@@@std@@V?$_Compressed_pair@V?$allocator@U?$_Tree_node@UTelegram@@PAX@std@@@std@@V?$_Tree_val@U?$_Tree_simple_types@UTelegram@@@std@@@2@$00@2@$00@std@@QAE@U_One_then_variadic_args_t@1@ABU?$less@UTelegram@@@1@$$QAU_Zero_then_variadic_args_t@1@@Z ; std::_Compressed_pair<std::less<Telegram>,std::_Compressed_pair<std::allocator<std::_Tree_node<Telegram,void *> >,std::_Tree_val<std::_Tree_simple_types<Telegram> >,1>,1>::_Compressed_pair<std::less<Telegram>,std::_Compressed_pair<std::allocator<std::_Tree_node<Telegram,void *> >,std::_Tree_val<std::_Tree_simple_types<Telegram> >,1>,1><std::less<Telegram> const &,std::_Zero_then_variadic_args_t>
	mov	DWORD PTR __$EHRec$[ebp+8], 0

; 576  : 		_Construct();

	mov	ecx, DWORD PTR _this$[ebp]
	call	?_Construct@?$_Tree_comp_alloc@V?$_Tset_traits@UTelegram@@U?$less@UTelegram@@@std@@V?$allocator@UTelegram@@@3@$0A@@std@@@std@@QAEXXZ ; std::_Tree_comp_alloc<std::_Tset_traits<Telegram,std::less<Telegram>,std::allocator<Telegram>,0> >::_Construct

; 577  : 		}

	mov	DWORD PTR __$EHRec$[ebp+8], -1
	mov	eax, DWORD PTR _this$[ebp]
	mov	ecx, DWORD PTR __$EHRec$[ebp]
	mov	DWORD PTR fs:0, ecx
	pop	ecx
	add	esp, 20					; 00000014H
	cmp	ebp, esp
	call	__RTC_CheckEsp
	mov	esp, ebp
	pop	ebp
	ret	4
_TEXT	ENDS
;	COMDAT text$x
text$x	SEGMENT
__unwindfunclet$??0?$_Tree_comp_alloc@V?$_Tset_traits@UTelegram@@U?$less@UTelegram@@@std@@V?$allocator@UTelegram@@@3@$0A@@std@@@std@@QAE@ABU?$less@UTelegram@@@1@@Z$0:
	mov	ecx, DWORD PTR _this$[ebp]
	jmp	??1?$_Compressed_pair@U?$less@UTelegram@@@std@@V?$_Compressed_pair@V?$allocator@U?$_Tree_node@UTelegram@@PAX@std@@@std@@V?$_Tree_val@U?$_Tree_simple_types@UTelegram@@@std@@@2@$00@2@$00@std@@QAE@XZ
__ehhandler$??0?$_Tree_comp_alloc@V?$_Tset_traits@UTelegram@@U?$less@UTelegram@@@std@@V?$allocator@UTelegram@@@3@$0A@@std@@@std@@QAE@ABU?$less@UTelegram@@@1@@Z:
	mov	edx, DWORD PTR [esp+8]
	lea	eax, DWORD PTR [edx+12]
	mov	ecx, DWORD PTR [edx-12]
	xor	ecx, eax
	call	@__security_check_cookie@4
	mov	eax, OFFSET __ehfuncinfo$??0?$_Tree_comp_alloc@V?$_Tset_traits@UTelegram@@U?$less@UTelegram@@@std@@V?$allocator@UTelegram@@@3@$0A@@std@@@std@@QAE@ABU?$less@UTelegram@@@1@@Z
	jmp	___CxxFrameHandler3
text$x	ENDS
??0?$_Tree_comp_alloc@V?$_Tset_traits@UTelegram@@U?$less@UTelegram@@@std@@V?$allocator@UTelegram@@@3@$0A@@std@@@std@@QAE@ABU?$less@UTelegram@@@1@@Z ENDP ; std::_Tree_comp_alloc<std::_Tset_traits<Telegram,std::less<Telegram>,std::allocator<Telegram>,0> >::_Tree_comp_alloc<std::_Tset_traits<Telegram,std::less<Telegram>,std::allocator<Telegram>,0> >
; Function compile flags: /Odtp /RTCsu
; File c:\program files (x86)\microsoft visual studio\2017\community\vc\tools\msvc\14.11.25503\include\xtree
;	COMDAT ?_Min@?$_Tree_comp_alloc@V?$_Tset_traits@UTelegram@@U?$less@UTelegram@@@std@@V?$allocator@UTelegram@@@3@$0A@@std@@@std@@SAPAU?$_Tree_node@UTelegram@@PAX@2@PAU32@@Z
_TEXT	SEGMENT
__Pnode$ = 8						; size = 4
?_Min@?$_Tree_comp_alloc@V?$_Tset_traits@UTelegram@@U?$less@UTelegram@@@std@@V?$allocator@UTelegram@@@3@$0A@@std@@@std@@SAPAU?$_Tree_node@UTelegram@@PAX@2@PAU32@@Z PROC ; std::_Tree_comp_alloc<std::_Tset_traits<Telegram,std::less<Telegram>,std::allocator<Telegram>,0> >::_Min, COMDAT

; 568  : 		{	// return leftmost node in subtree at _Pnode

	push	ebp
	mov	ebp, esp

; 569  : 		return (_Tree_val<_Val_types>::_Min(_Pnode));

	mov	eax, DWORD PTR __Pnode$[ebp]
	push	eax
	call	?_Min@?$_Tree_val@U?$_Tree_simple_types@UTelegram@@@std@@@std@@SAPAU?$_Tree_node@UTelegram@@PAX@2@PAU32@@Z ; std::_Tree_val<std::_Tree_simple_types<Telegram> >::_Min
	add	esp, 4

; 570  : 		}

	cmp	ebp, esp
	call	__RTC_CheckEsp
	pop	ebp
	ret	0
?_Min@?$_Tree_comp_alloc@V?$_Tset_traits@UTelegram@@U?$less@UTelegram@@@std@@V?$allocator@UTelegram@@@3@$0A@@std@@@std@@SAPAU?$_Tree_node@UTelegram@@PAX@2@PAU32@@Z ENDP ; std::_Tree_comp_alloc<std::_Tset_traits<Telegram,std::less<Telegram>,std::allocator<Telegram>,0> >::_Min
_TEXT	ENDS
; Function compile flags: /Odtp /RTCsu
; File c:\program files (x86)\microsoft visual studio\2017\community\vc\tools\msvc\14.11.25503\include\xtree
;	COMDAT ?_Max@?$_Tree_comp_alloc@V?$_Tset_traits@UTelegram@@U?$less@UTelegram@@@std@@V?$allocator@UTelegram@@@3@$0A@@std@@@std@@SAPAU?$_Tree_node@UTelegram@@PAX@2@PAU32@@Z
_TEXT	SEGMENT
__Pnode$ = 8						; size = 4
?_Max@?$_Tree_comp_alloc@V?$_Tset_traits@UTelegram@@U?$less@UTelegram@@@std@@V?$allocator@UTelegram@@@3@$0A@@std@@@std@@SAPAU?$_Tree_node@UTelegram@@PAX@2@PAU32@@Z PROC ; std::_Tree_comp_alloc<std::_Tset_traits<Telegram,std::less<Telegram>,std::allocator<Telegram>,0> >::_Max, COMDAT

; 563  : 		{	// return rightmost node in subtree at _Pnode

	push	ebp
	mov	ebp, esp

; 564  : 		return (_Tree_val<_Val_types>::_Max(_Pnode));

	mov	eax, DWORD PTR __Pnode$[ebp]
	push	eax
	call	?_Max@?$_Tree_val@U?$_Tree_simple_types@UTelegram@@@std@@@std@@SAPAU?$_Tree_node@UTelegram@@PAX@2@PAU32@@Z ; std::_Tree_val<std::_Tree_simple_types<Telegram> >::_Max
	add	esp, 4

; 565  : 		}

	cmp	ebp, esp
	call	__RTC_CheckEsp
	pop	ebp
	ret	0
?_Max@?$_Tree_comp_alloc@V?$_Tset_traits@UTelegram@@U?$less@UTelegram@@@std@@V?$allocator@UTelegram@@@3@$0A@@std@@@std@@SAPAU?$_Tree_node@UTelegram@@PAX@2@PAU32@@Z ENDP ; std::_Tree_comp_alloc<std::_Tset_traits<Telegram,std::less<Telegram>,std::allocator<Telegram>,0> >::_Max
_TEXT	ENDS
; Function compile flags: /Odtp /RTCsu
; File c:\program files (x86)\microsoft visual studio\2017\community\vc\tools\msvc\14.11.25503\include\xmemory0
;	COMDAT ?max_size@?$_Default_allocator_traits@V?$allocator@U?$_Tree_node@UTelegram@@PAX@std@@@std@@@std@@SAIABV?$allocator@U?$_Tree_node@UTelegram@@PAX@std@@@2@@Z
_TEXT	SEGMENT
___formal$ = 8						; size = 4
?max_size@?$_Default_allocator_traits@V?$allocator@U?$_Tree_node@UTelegram@@PAX@std@@@std@@@std@@SAIABV?$allocator@U?$_Tree_node@UTelegram@@PAX@std@@@2@@Z PROC ; std::_Default_allocator_traits<std::allocator<std::_Tree_node<Telegram,void *> > >::max_size, COMDAT

; 866  : 		{	// get maximum size

	push	ebp
	mov	ebp, esp

; 867  : 		return (static_cast<size_t>(-1) / sizeof(value_type));

	mov	eax, 89478485				; 05555555H

; 868  : 		}

	pop	ebp
	ret	0
?max_size@?$_Default_allocator_traits@V?$allocator@U?$_Tree_node@UTelegram@@PAX@std@@@std@@@std@@SAIABV?$allocator@U?$_Tree_node@UTelegram@@PAX@std@@@2@@Z ENDP ; std::_Default_allocator_traits<std::allocator<std::_Tree_node<Telegram,void *> > >::max_size
_TEXT	ENDS
; Function compile flags: /Odtp /RTCsu
; File c:\program files (x86)\microsoft visual studio\2017\community\vc\tools\msvc\14.11.25503\include\xmemory0
;	COMDAT ?allocate@?$allocator@U?$_Tree_node@UTelegram@@PAX@std@@@std@@QAEPAU?$_Tree_node@UTelegram@@PAX@2@I@Z
_TEXT	SEGMENT
_this$ = -4						; size = 4
__Count$ = 8						; size = 4
?allocate@?$allocator@U?$_Tree_node@UTelegram@@PAX@std@@@std@@QAEPAU?$_Tree_node@UTelegram@@PAX@2@I@Z PROC ; std::allocator<std::_Tree_node<Telegram,void *> >::allocate, COMDAT
; _this$ = ecx

; 945  : 		{	// allocate array of _Count elements

	push	ebp
	mov	ebp, esp
	push	ecx
	mov	DWORD PTR [ebp-4], -858993460		; ccccccccH
	mov	DWORD PTR _this$[ebp], ecx

; 946  : 		return (static_cast<pointer>(_Allocate(_Count, sizeof(_Ty))));

	push	1
	push	48					; 00000030H
	mov	eax, DWORD PTR __Count$[ebp]
	push	eax
	call	?_Allocate@std@@YAPAXII_N@Z		; std::_Allocate
	add	esp, 12					; 0000000cH

; 947  : 		}

	add	esp, 4
	cmp	ebp, esp
	call	__RTC_CheckEsp
	mov	esp, ebp
	pop	ebp
	ret	4
?allocate@?$allocator@U?$_Tree_node@UTelegram@@PAX@std@@@std@@QAEPAU?$_Tree_node@UTelegram@@PAX@2@I@Z ENDP ; std::allocator<std::_Tree_node<Telegram,void *> >::allocate
_TEXT	ENDS
; Function compile flags: /Odtp /RTCsu
; File c:\program files (x86)\microsoft visual studio\2017\community\vc\tools\msvc\14.11.25503\include\xmemory0
;	COMDAT ?deallocate@?$allocator@U?$_Tree_node@UTelegram@@PAX@std@@@std@@QAEXQAU?$_Tree_node@UTelegram@@PAX@2@I@Z
_TEXT	SEGMENT
_this$ = -4						; size = 4
__Ptr$ = 8						; size = 4
__Count$ = 12						; size = 4
?deallocate@?$allocator@U?$_Tree_node@UTelegram@@PAX@std@@@std@@QAEXQAU?$_Tree_node@UTelegram@@PAX@2@I@Z PROC ; std::allocator<std::_Tree_node<Telegram,void *> >::deallocate, COMDAT
; _this$ = ecx

; 940  : 		{	// deallocate object at _Ptr

	push	ebp
	mov	ebp, esp
	push	ecx
	mov	DWORD PTR [ebp-4], -858993460		; ccccccccH
	mov	DWORD PTR _this$[ebp], ecx

; 941  : 		_Deallocate(_Ptr, _Count, sizeof(_Ty));

	push	48					; 00000030H
	mov	eax, DWORD PTR __Count$[ebp]
	push	eax
	mov	ecx, DWORD PTR __Ptr$[ebp]
	push	ecx
	call	?_Deallocate@std@@YAXPAXII@Z		; std::_Deallocate
	add	esp, 12					; 0000000cH

; 942  : 		}

	add	esp, 4
	cmp	ebp, esp
	call	__RTC_CheckEsp
	mov	esp, ebp
	pop	ebp
	ret	8
?deallocate@?$allocator@U?$_Tree_node@UTelegram@@PAX@std@@@std@@QAEXQAU?$_Tree_node@UTelegram@@PAX@2@I@Z ENDP ; std::allocator<std::_Tree_node<Telegram,void *> >::deallocate
_TEXT	ENDS
; Function compile flags: /Odtp /RTCsu
; File c:\program files (x86)\microsoft visual studio\2017\community\vc\tools\msvc\14.11.25503\include\xmemory0
;	COMDAT ??0?$allocator@U?$_Tree_node@UTelegram@@PAX@std@@@std@@QAE@XZ
_TEXT	SEGMENT
_this$ = -4						; size = 4
??0?$allocator@U?$_Tree_node@UTelegram@@PAX@std@@@std@@QAE@XZ PROC ; std::allocator<std::_Tree_node<Telegram,void *> >::allocator<std::_Tree_node<Telegram,void *> >, COMDAT
; _this$ = ecx

; 929  : 	allocator() _NOEXCEPT

	push	ebp
	mov	ebp, esp
	push	ecx
	mov	DWORD PTR [ebp-4], -858993460		; ccccccccH
	mov	DWORD PTR _this$[ebp], ecx

; 930  : 		{	// construct default allocator (do nothing)
; 931  : 		}

	mov	eax, DWORD PTR _this$[ebp]
	mov	esp, ebp
	pop	ebp
	ret	0
??0?$allocator@U?$_Tree_node@UTelegram@@PAX@std@@@std@@QAE@XZ ENDP ; std::allocator<std::_Tree_node<Telegram,void *> >::allocator<std::_Tree_node<Telegram,void *> >
_TEXT	ENDS
; Function compile flags: /Odtp /RTCsu
; File c:\program files (x86)\microsoft visual studio\2017\community\vc\tools\msvc\14.11.25503\include\set
;	COMDAT ?_Kfn@?$_Tset_traits@UTelegram@@U?$less@UTelegram@@@std@@V?$allocator@UTelegram@@@3@$0A@@std@@SAABUTelegram@@ABU3@@Z
_TEXT	SEGMENT
__Val$ = 8						; size = 4
?_Kfn@?$_Tset_traits@UTelegram@@U?$less@UTelegram@@@std@@V?$allocator@UTelegram@@@3@$0A@@std@@SAABUTelegram@@ABU3@@Z PROC ; std::_Tset_traits<Telegram,std::less<Telegram>,std::allocator<Telegram>,0>::_Kfn, COMDAT

; 34   : 		{	// extract key from element value

	push	ebp
	mov	ebp, esp

; 35   : 		return (_Val);

	mov	eax, DWORD PTR __Val$[ebp]

; 36   : 		}

	pop	ebp
	ret	0
?_Kfn@?$_Tset_traits@UTelegram@@U?$less@UTelegram@@@std@@V?$allocator@UTelegram@@@3@$0A@@std@@SAABUTelegram@@ABU3@@Z ENDP ; std::_Tset_traits<Telegram,std::less<Telegram>,std::allocator<Telegram>,0>::_Kfn
_TEXT	ENDS
; Function compile flags: /Odtp /RTCsu
; File d:\8iar125 - intelligence artificielle pour le jeu vidéo\projetfinal\common\messaging\telegram.h
;	COMDAT ??M@YA_NABUTelegram@@0@Z
_TEXT	SEGMENT
tv72 = -4						; size = 4
_t1$ = 8						; size = 4
_t2$ = 12						; size = 4
??M@YA_NABUTelegram@@0@Z PROC				; operator<, COMDAT

; 76   : {

	push	ebp
	mov	ebp, esp
	push	ecx
	mov	DWORD PTR [ebp-4], -858993460		; ccccccccH

; 77   :   if (t1 == t2)

	mov	eax, DWORD PTR _t2$[ebp]
	push	eax
	mov	ecx, DWORD PTR _t1$[ebp]
	push	ecx
	call	??8@YA_NABUTelegram@@0@Z		; operator==
	add	esp, 8
	movzx	edx, al
	test	edx, edx
	je	SHORT $LN2@operator

; 78   :   {
; 79   :     return false;

	xor	al, al
	jmp	SHORT $LN3@operator

; 80   :   }
; 81   : 
; 82   :   else

	jmp	SHORT $LN3@operator
$LN2@operator:

; 83   :   {
; 84   :     return  (t1.DispatchTime < t2.DispatchTime);

	mov	eax, DWORD PTR _t2$[ebp]
	mov	ecx, DWORD PTR _t1$[ebp]
	movsd	xmm0, QWORD PTR [eax+16]
	comisd	xmm0, QWORD PTR [ecx+16]
	jbe	SHORT $LN5@operator
	mov	DWORD PTR tv72[ebp], 1
	jmp	SHORT $LN6@operator
$LN5@operator:
	mov	DWORD PTR tv72[ebp], 0
$LN6@operator:
	mov	al, BYTE PTR tv72[ebp]
$LN3@operator:

; 85   :   }
; 86   : }

	add	esp, 4
	cmp	ebp, esp
	call	__RTC_CheckEsp
	mov	esp, ebp
	pop	ebp
	ret	0
??M@YA_NABUTelegram@@0@Z ENDP				; operator<
_TEXT	ENDS
; Function compile flags: /Odtp /RTCsu
; File d:\8iar125 - intelligence artificielle pour le jeu vidéo\projetfinal\common\messaging\telegram.h
;	COMDAT ??8@YA_NABUTelegram@@0@Z
_TEXT	SEGMENT
tv79 = -12						; size = 4
tv88 = -8						; size = 8
_t1$ = 8						; size = 4
_t2$ = 12						; size = 4
??8@YA_NABUTelegram@@0@Z PROC				; operator==, COMDAT

; 68   : {

	push	ebp
	mov	ebp, esp
	sub	esp, 12					; 0000000cH
	mov	DWORD PTR [ebp-12], -858993460		; ccccccccH
	mov	DWORD PTR [ebp-8], -858993460		; ccccccccH
	mov	DWORD PTR [ebp-4], -858993460		; ccccccccH

; 69   :   return ( fabs(t1.DispatchTime-t2.DispatchTime) < SmallestDelay) &&

	mov	eax, DWORD PTR _t1$[ebp]
	mov	ecx, DWORD PTR _t2$[ebp]
	movsd	xmm0, QWORD PTR [eax+16]
	subsd	xmm0, QWORD PTR [ecx+16]
	sub	esp, 8
	movsd	QWORD PTR [esp], xmm0
	call	_fabs
	add	esp, 8
	fstp	QWORD PTR tv88[ebp]
	movsd	xmm0, QWORD PTR __real@3fd0000000000000
	comisd	xmm0, QWORD PTR tv88[ebp]
	jbe	SHORT $LN3@operator
	mov	edx, DWORD PTR _t1$[ebp]
	mov	eax, DWORD PTR _t2$[ebp]
	mov	ecx, DWORD PTR [edx]
	cmp	ecx, DWORD PTR [eax]
	jne	SHORT $LN3@operator
	mov	edx, DWORD PTR _t1$[ebp]
	mov	eax, DWORD PTR _t2$[ebp]
	mov	ecx, DWORD PTR [edx+4]
	cmp	ecx, DWORD PTR [eax+4]
	jne	SHORT $LN3@operator
	mov	edx, DWORD PTR _t1$[ebp]
	mov	eax, DWORD PTR _t2$[ebp]
	mov	ecx, DWORD PTR [edx+8]
	cmp	ecx, DWORD PTR [eax+8]
	jne	SHORT $LN3@operator
	mov	DWORD PTR tv79[ebp], 1
	jmp	SHORT $LN4@operator
$LN3@operator:
	mov	DWORD PTR tv79[ebp], 0
$LN4@operator:
	mov	al, BYTE PTR tv79[ebp]

; 70   :           (t1.Sender == t2.Sender)        &&
; 71   :           (t1.Receiver == t2.Receiver)    &&
; 72   :           (t1.Msg == t2.Msg);
; 73   : }

	add	esp, 12					; 0000000cH
	cmp	ebp, esp
	call	__RTC_CheckEsp
	mov	esp, ebp
	pop	ebp
	ret	0
??8@YA_NABUTelegram@@0@Z ENDP				; operator==
_TEXT	ENDS
; Function compile flags: /Odtp /RTCsu
; File d:\8iar125 - intelligence artificielle pour le jeu vidéo\projetfinal\common\messaging\telegram.h
;	COMDAT ??0Telegram@@QAE@NHHHPAX@Z
_TEXT	SEGMENT
_this$ = -4						; size = 4
_time$ = 8						; size = 8
_sender$ = 16						; size = 4
_receiver$ = 20						; size = 4
_msg$ = 24						; size = 4
_info$ = 28						; size = 4
??0Telegram@@QAE@NHHHPAX@Z PROC				; Telegram::Telegram, COMDAT
; _this$ = ecx

; 55   :   {}

	push	ebp
	mov	ebp, esp
	push	ecx
	mov	DWORD PTR [ebp-4], -858993460		; ccccccccH
	mov	DWORD PTR _this$[ebp], ecx

; 51   :                                Sender(sender),

	mov	eax, DWORD PTR _this$[ebp]
	mov	ecx, DWORD PTR _sender$[ebp]
	mov	DWORD PTR [eax], ecx

; 52   :                                Receiver(receiver),

	mov	edx, DWORD PTR _this$[ebp]
	mov	eax, DWORD PTR _receiver$[ebp]
	mov	DWORD PTR [edx+4], eax

; 53   :                                Msg(msg),

	mov	ecx, DWORD PTR _this$[ebp]
	mov	edx, DWORD PTR _msg$[ebp]
	mov	DWORD PTR [ecx+8], edx

; 50   :            void*  info = NULL): DispatchTime(time),

	mov	eax, DWORD PTR _this$[ebp]
	movsd	xmm0, QWORD PTR _time$[ebp]
	movsd	QWORD PTR [eax+16], xmm0

; 54   :                                ExtraInfo(info)

	mov	ecx, DWORD PTR _this$[ebp]
	mov	edx, DWORD PTR _info$[ebp]
	mov	DWORD PTR [ecx+24], edx

; 55   :   {}

	mov	eax, DWORD PTR _this$[ebp]
	mov	esp, ebp
	pop	ebp
	ret	24					; 00000018H
??0Telegram@@QAE@NHHHPAX@Z ENDP				; Telegram::Telegram
_TEXT	ENDS
; Function compile flags: /Odtp /RTCsu
; File c:\program files (x86)\microsoft visual studio\2017\community\vc\tools\msvc\14.11.25503\include\xlocale
;	COMDAT ??0id@locale@std@@QAE@I@Z
_TEXT	SEGMENT
_this$ = -4						; size = 4
__Val$ = 8						; size = 4
??0id@locale@std@@QAE@I@Z PROC				; std::locale::id::id, COMDAT
; _this$ = ecx

; 109  : 			{	// construct with specified stamp value

	push	ebp
	mov	ebp, esp
	push	ecx
	mov	DWORD PTR [ebp-4], -858993460		; ccccccccH
	mov	DWORD PTR _this$[ebp], ecx

; 108  : 			: _Id(_Val)

	mov	eax, DWORD PTR _this$[ebp]
	mov	ecx, DWORD PTR __Val$[ebp]
	mov	DWORD PTR [eax], ecx

; 110  : 			}

	mov	eax, DWORD PTR _this$[ebp]
	mov	esp, ebp
	pop	ebp
	ret	4
??0id@locale@std@@QAE@I@Z ENDP				; std::locale::id::id
_TEXT	ENDS
; Function compile flags: /Odtp /RTCsu
; File c:\program files (x86)\microsoft visual studio\2017\community\vc\tools\msvc\14.11.25503\include\xmemory0
;	COMDAT ?_Deallocate@std@@YAXPAXII@Z
_TEXT	SEGMENT
__Ptr_container$1 = -12					; size = 4
__Ptr_ptr$2 = -8					; size = 4
__Ptr_user$3 = -4					; size = 4
__Ptr$ = 8						; size = 4
__Count$ = 12						; size = 4
__Sz$ = 16						; size = 4
?_Deallocate@std@@YAXPAXII@Z PROC			; std::_Deallocate, COMDAT

; 101  : 	{	// deallocate storage for _Count elements of size _Sz

	push	ebp
	mov	ebp, esp
	sub	esp, 12					; 0000000cH
	mov	DWORD PTR [ebp-12], -858993460		; ccccccccH
	mov	DWORD PTR [ebp-8], -858993460		; ccccccccH
	mov	DWORD PTR [ebp-4], -858993460		; ccccccccH

; 102  : 	if (_Count > static_cast<size_t>(-1) / _Sz)

	or	eax, -1
	xor	edx, edx
	div	DWORD PTR __Sz$[ebp]
	cmp	DWORD PTR __Count$[ebp], eax
	jbe	SHORT $LN2@Deallocate

; 103  : 		{
; 104  : 		goto _Invalid_parameter; // TRANSITION, VSO#359498

	jmp	$_Invalid_parameter$16
	jmp	$_Invalid_parameter$16
$LN2@Deallocate:

; 105  : 		}
; 106  : 
; 107  : 	if (_BIG_ALLOCATION_THRESHOLD <= _Count * _Sz)

	mov	eax, DWORD PTR __Count$[ebp]
	imul	eax, DWORD PTR __Sz$[ebp]
	cmp	eax, 4096				; 00001000H
	jb	SHORT $LN4@Deallocate

; 108  : 		{	// deallocate large block
; 109  : 		const uintptr_t _Ptr_user = reinterpret_cast<uintptr_t>(_Ptr);

	mov	ecx, DWORD PTR __Ptr$[ebp]
	mov	DWORD PTR __Ptr_user$3[ebp], ecx

; 110  : 		if ((_Ptr_user & (_BIG_ALLOCATION_ALIGNMENT - 1)) != 0)

	mov	edx, DWORD PTR __Ptr_user$3[ebp]
	and	edx, 31					; 0000001fH
	je	SHORT $LN5@Deallocate

; 111  : 			{
; 112  : 			goto _Invalid_parameter;

	jmp	SHORT $_Invalid_parameter$16
	jmp	SHORT $_Invalid_parameter$16
$LN5@Deallocate:

; 113  : 			}
; 114  : 
; 115  : 		const uintptr_t _Ptr_ptr = _Ptr_user - sizeof(void *);

	mov	eax, DWORD PTR __Ptr_user$3[ebp]
	sub	eax, 4
	mov	DWORD PTR __Ptr_ptr$2[ebp], eax

; 116  : 		const uintptr_t _Ptr_container =
; 117  : 			*reinterpret_cast<uintptr_t *>(_Ptr_ptr);

	mov	ecx, DWORD PTR __Ptr_ptr$2[ebp]
	mov	edx, DWORD PTR [ecx]
	mov	DWORD PTR __Ptr_container$1[ebp], edx

; 118  : 
; 119  :  #ifdef _DEBUG
; 120  : 		// If the following asserts, it likely means that we are performing
; 121  : 		// an aligned delete on memory coming from an unaligned allocation.
; 122  : 		if (reinterpret_cast<uintptr_t *>(_Ptr_ptr)[-1] != _BIG_ALLOCATION_SENTINEL)

	mov	eax, 4
	imul	ecx, eax, -1
	mov	edx, DWORD PTR __Ptr_ptr$2[ebp]
	cmp	DWORD PTR [edx+ecx], -84215046		; fafafafaH
	je	SHORT $LN7@Deallocate

; 123  : 			{
; 124  : 			goto _Invalid_parameter;

	jmp	SHORT $_Invalid_parameter$16
	jmp	SHORT $_Invalid_parameter$16
$LN7@Deallocate:

; 125  : 			}
; 126  :  #endif /* _DEBUG */
; 127  : 
; 128  : 		// Extra paranoia on aligned allocation/deallocation
; 129  : 		if (_Ptr_container >= _Ptr_user)

	mov	eax, DWORD PTR __Ptr_container$1[ebp]
	cmp	eax, DWORD PTR __Ptr_user$3[ebp]
	jb	SHORT $LN9@Deallocate

; 130  : 			{
; 131  : 			goto _Invalid_parameter;

	jmp	SHORT $_Invalid_parameter$16
	jmp	SHORT $_Invalid_parameter$16
$LN9@Deallocate:

; 132  : 			}
; 133  : 
; 134  :  #ifdef _DEBUG
; 135  : 		if (2 * sizeof(void *) > _Ptr_user - _Ptr_container)

	mov	ecx, DWORD PTR __Ptr_user$3[ebp]
	sub	ecx, DWORD PTR __Ptr_container$1[ebp]
	cmp	ecx, 8
	jae	SHORT $LN11@Deallocate

; 136  :  #else /* _DEBUG */
; 137  : 		if (sizeof(void *) > _Ptr_user - _Ptr_container)
; 138  :  #endif /* _DEBUG */
; 139  : 			{
; 140  : 			goto _Invalid_parameter;

	jmp	SHORT $_Invalid_parameter$16
	jmp	SHORT $_Invalid_parameter$16
$LN11@Deallocate:

; 141  : 			}
; 142  : 
; 143  : 		if (_Ptr_user - _Ptr_container > _NON_USER_SIZE)

	mov	edx, DWORD PTR __Ptr_user$3[ebp]
	sub	edx, DWORD PTR __Ptr_container$1[ebp]
	cmp	edx, 39					; 00000027H
	jbe	SHORT $LN13@Deallocate

; 144  : 			{
; 145  : 			goto _Invalid_parameter;

	jmp	SHORT $_Invalid_parameter$16
	jmp	SHORT $_Invalid_parameter$16
$LN13@Deallocate:

; 146  : 			}
; 147  : 
; 148  : 		_Ptr = reinterpret_cast<void *>(_Ptr_container);

	mov	eax, DWORD PTR __Ptr_container$1[ebp]
	mov	DWORD PTR __Ptr$[ebp], eax
$LN4@Deallocate:

; 149  : 		}
; 150  : 
; 151  : 	::operator delete(_Ptr);

	mov	ecx, DWORD PTR __Ptr$[ebp]
	push	ecx
	call	??3@YAXPAX@Z				; operator delete
	add	esp, 4

; 152  : 	return;

	jmp	SHORT $LN1@Deallocate
$_Invalid_parameter$16:

; 153  : 
; 154  : _Invalid_parameter:
; 155  : 	_SCL_SECURE_INVALID_ARGUMENT_NO_ASSERT;

	push	0
	push	155					; 0000009bH
	push	OFFSET ??_C@_1NC@LIFDFPCJ@?$AAC?$AA?3?$AA?2?$AAP?$AAr?$AAo?$AAg?$AAr?$AAa?$AAm?$AA?5?$AAF?$AAi?$AAl?$AAe?$AAs?$AA?5?$AA?$CI?$AAx?$AA8?$AA6?$AA?$CJ?$AA?2?$AAM?$AAi?$AAc?$AAr?$AAo?$AAs?$AAo?$AAf?$AAt@
	push	OFFSET ??_C@_1CC@LOFJFFDB@?$AAs?$AAt?$AAd?$AA?3?$AA?3?$AA_?$AAD?$AAe?$AAa?$AAl?$AAl?$AAo?$AAc?$AAa?$AAt?$AAe?$AA?$AA@
	push	OFFSET ??_C@_1CG@JNLFBNGN@?$AA?$CC?$AAi?$AAn?$AAv?$AAa?$AAl?$AAi?$AAd?$AA?5?$AAa?$AAr?$AAg?$AAu?$AAm?$AAe?$AAn?$AAt?$AA?$CC?$AA?$AA@
	call	__invalid_parameter
	add	esp, 20					; 00000014H
$LN1@Deallocate:

; 156  : 	}

	add	esp, 12					; 0000000cH
	cmp	ebp, esp
	call	__RTC_CheckEsp
	mov	esp, ebp
	pop	ebp
	ret	0
?_Deallocate@std@@YAXPAXII@Z ENDP			; std::_Deallocate
_TEXT	ENDS
; Function compile flags: /Odtp /RTCsu
; File c:\program files (x86)\microsoft visual studio\2017\community\vc\tools\msvc\14.11.25503\include\xmemory0
;	COMDAT ?_Allocate@std@@YAPAXII_N@Z
_TEXT	SEGMENT
__Ptr_container$1 = -16					; size = 4
__Block_size$2 = -12					; size = 4
__User_size$ = -8					; size = 4
__Ptr$ = -4						; size = 4
__Count$ = 8						; size = 4
__Sz$ = 12						; size = 4
__Try_aligned_allocation$ = 16				; size = 1
?_Allocate@std@@YAPAXII_N@Z PROC			; std::_Allocate, COMDAT

; 49   : 	{	// allocate storage for _Count elements of size _Sz

	push	ebp
	mov	ebp, esp
	sub	esp, 16					; 00000010H
	mov	eax, -858993460				; ccccccccH
	mov	DWORD PTR [ebp-16], eax
	mov	DWORD PTR [ebp-12], eax
	mov	DWORD PTR [ebp-8], eax
	mov	DWORD PTR [ebp-4], eax

; 50   : 	void *_Ptr = 0;

	mov	DWORD PTR __Ptr$[ebp], 0

; 51   : 
; 52   : 	if (_Count == 0)

	cmp	DWORD PTR __Count$[ebp], 0
	jne	SHORT $LN2@Allocate

; 53   : 		{
; 54   : 		return (_Ptr);

	mov	eax, DWORD PTR __Ptr$[ebp]
	jmp	$LN8@Allocate
$LN2@Allocate:

; 55   : 		}
; 56   : 
; 57   : 	// check overflow of multiply
; 58   : 	if (static_cast<size_t>(-1) / _Sz < _Count)

	or	eax, -1
	xor	edx, edx
	div	DWORD PTR __Sz$[ebp]
	cmp	eax, DWORD PTR __Count$[ebp]
	jae	SHORT $LN3@Allocate

; 59   : 		{
; 60   : 		_Xbad_alloc();	// report no memory

	call	?_Xbad_alloc@std@@YAXXZ			; std::_Xbad_alloc
$LN3@Allocate:

; 61   : 		}
; 62   : 
; 63   : 	const size_t _User_size = _Count * _Sz;

	mov	eax, DWORD PTR __Count$[ebp]
	imul	eax, DWORD PTR __Sz$[ebp]
	mov	DWORD PTR __User_size$[ebp], eax

; 64   : 
; 65   : #if defined(_M_IX86) || defined(_M_X64)
; 66   : 	if (_Try_aligned_allocation
; 67   : 		&& _BIG_ALLOCATION_THRESHOLD <= _User_size)

	movzx	ecx, BYTE PTR __Try_aligned_allocation$[ebp]
	test	ecx, ecx
	je	$LN4@Allocate
	cmp	DWORD PTR __User_size$[ebp], 4096	; 00001000H
	jb	$LN4@Allocate

; 68   : 		{	// allocate large block
; 69   : 		static_assert(sizeof(void *) < _BIG_ALLOCATION_ALIGNMENT,
; 70   : 			"Big allocations should at least match vector register size");
; 71   : 		const size_t _Block_size = _NON_USER_SIZE + _User_size;

	mov	edx, DWORD PTR __User_size$[ebp]
	add	edx, 39					; 00000027H
	mov	DWORD PTR __Block_size$2[ebp], edx

; 72   : 		if (_Block_size <= _User_size)

	mov	eax, DWORD PTR __Block_size$2[ebp]
	cmp	eax, DWORD PTR __User_size$[ebp]
	ja	SHORT $LN5@Allocate

; 73   : 			{
; 74   : 			_Xbad_alloc();	// report no memory

	call	?_Xbad_alloc@std@@YAXXZ			; std::_Xbad_alloc
$LN5@Allocate:

; 75   : 			}
; 76   : 
; 77   : 		const uintptr_t _Ptr_container =
; 78   : 			reinterpret_cast<uintptr_t>(::operator new(_Block_size));

	mov	ecx, DWORD PTR __Block_size$2[ebp]
	push	ecx
	call	??2@YAPAXI@Z				; operator new
	add	esp, 4
	mov	DWORD PTR __Ptr_container$1[ebp], eax

; 79   : 		_SCL_SECURE_ALWAYS_VALIDATE(_Ptr_container != 0);

	cmp	DWORD PTR __Ptr_container$1[ebp], 0
	jne	SHORT $LN6@Allocate
	mov	edx, OFFSET ??_C@_0BE@LMNLACIC@_Ptr_container?5?$CB?$DN?50?$AA@
	test	edx, edx
	je	SHORT $LN9@Allocate
	xor	eax, eax
	jne	SHORT $LN10@Allocate
$LN9@Allocate:
	push	OFFSET ??_C@_1DG@HGDKEBPG@?$AA?$CC?$AA_?$AAP?$AAt?$AAr?$AA_?$AAc?$AAo?$AAn?$AAt?$AAa?$AAi?$AAn?$AAe?$AAr?$AA?5?$AA?$CB?$AA?$DN?$AA?5?$AA0?$AA?$CC?$AA?5?$AA?$CG?$AA?$CG?$AA?5?$AA0?$AA?$AA@
	push	OFFSET ??_C@_17CNPHIMPH@?$AA?$CF?$AAl?$AAs?$AA?$AA@
	push	0
	push	79					; 0000004fH
	push	OFFSET ??_C@_1NC@LIFDFPCJ@?$AAC?$AA?3?$AA?2?$AAP?$AAr?$AAo?$AAg?$AAr?$AAa?$AAm?$AA?5?$AAF?$AAi?$AAl?$AAe?$AAs?$AA?5?$AA?$CI?$AAx?$AA8?$AA6?$AA?$CJ?$AA?2?$AAM?$AAi?$AAc?$AAr?$AAo?$AAs?$AAo?$AAf?$AAt@
	push	2
	call	__CrtDbgReportW
	add	esp, 24					; 00000018H
	cmp	eax, 1
	jne	SHORT $LN10@Allocate
	int	3
$LN10@Allocate:
	push	0
	push	79					; 0000004fH
	push	OFFSET ??_C@_1NC@LIFDFPCJ@?$AAC?$AA?3?$AA?2?$AAP?$AAr?$AAo?$AAg?$AAr?$AAa?$AAm?$AA?5?$AAF?$AAi?$AAl?$AAe?$AAs?$AA?5?$AA?$CI?$AAx?$AA8?$AA6?$AA?$CJ?$AA?2?$AAM?$AAi?$AAc?$AAr?$AAo?$AAs?$AAo?$AAf?$AAt@
	push	OFFSET ??_C@_1BO@NKFMJPA@?$AAs?$AAt?$AAd?$AA?3?$AA?3?$AA_?$AAA?$AAl?$AAl?$AAo?$AAc?$AAa?$AAt?$AAe?$AA?$AA@
	push	OFFSET ??_C@_1CG@JNLFBNGN@?$AA?$CC?$AAi?$AAn?$AAv?$AAa?$AAl?$AAi?$AAd?$AA?5?$AAa?$AAr?$AAg?$AAu?$AAm?$AAe?$AAn?$AAt?$AA?$CC?$AA?$AA@
	call	__invalid_parameter
	add	esp, 20					; 00000014H
$LN6@Allocate:

; 80   : 		_Ptr = reinterpret_cast<void *>((_Ptr_container + _NON_USER_SIZE)

	mov	edx, DWORD PTR __Ptr_container$1[ebp]
	add	edx, 39					; 00000027H
	and	edx, -32				; ffffffe0H
	mov	DWORD PTR __Ptr$[ebp], edx

; 81   : 			& ~(_BIG_ALLOCATION_ALIGNMENT - 1));
; 82   : 		static_cast<uintptr_t *>(_Ptr)[-1] = _Ptr_container;

	mov	eax, 4
	imul	ecx, eax, -1
	mov	edx, DWORD PTR __Ptr$[ebp]
	mov	eax, DWORD PTR __Ptr_container$1[ebp]
	mov	DWORD PTR [edx+ecx], eax

; 83   : 
; 84   :  #ifdef _DEBUG
; 85   : 		static_cast<uintptr_t *>(_Ptr)[-2] = _BIG_ALLOCATION_SENTINEL;

	mov	ecx, 4
	imul	edx, ecx, -2
	mov	eax, DWORD PTR __Ptr$[ebp]
	mov	DWORD PTR [eax+edx], -84215046		; fafafafaH

; 86   :  #endif /* _DEBUG */
; 87   :  		return (_Ptr);

	mov	eax, DWORD PTR __Ptr$[ebp]
	jmp	SHORT $LN8@Allocate
$LN4@Allocate:

; 88   : 		}
; 89   : #else /* ^^^ x86/x64 hardware ^^^ // vvv ARM hardware vvv */
; 90   : 	(void)_Try_aligned_allocation;
; 91   : #endif /* defined(_M_IX86) || defined(_M_X64) */
; 92   : 
; 93   : 	_Ptr = ::operator new(_User_size);

	mov	ecx, DWORD PTR __User_size$[ebp]
	push	ecx
	call	??2@YAPAXI@Z				; operator new
	add	esp, 4
	mov	DWORD PTR __Ptr$[ebp], eax

; 94   : 	_SCL_SECURE_ALWAYS_VALIDATE(_Ptr != 0);

	cmp	DWORD PTR __Ptr$[ebp], 0
	jne	SHORT $LN7@Allocate
	mov	edx, OFFSET ??_C@_09GLJCAGLP@_Ptr?5?$CB?$DN?50?$AA@
	test	edx, edx
	je	SHORT $LN11@Allocate
	xor	eax, eax
	jne	SHORT $LN12@Allocate
$LN11@Allocate:
	push	OFFSET ??_C@_1CC@GKJLLHIM@?$AA?$CC?$AA_?$AAP?$AAt?$AAr?$AA?5?$AA?$CB?$AA?$DN?$AA?5?$AA0?$AA?$CC?$AA?5?$AA?$CG?$AA?$CG?$AA?5?$AA0?$AA?$AA@
	push	OFFSET ??_C@_17CNPHIMPH@?$AA?$CF?$AAl?$AAs?$AA?$AA@
	push	0
	push	94					; 0000005eH
	push	OFFSET ??_C@_1NC@LIFDFPCJ@?$AAC?$AA?3?$AA?2?$AAP?$AAr?$AAo?$AAg?$AAr?$AAa?$AAm?$AA?5?$AAF?$AAi?$AAl?$AAe?$AAs?$AA?5?$AA?$CI?$AAx?$AA8?$AA6?$AA?$CJ?$AA?2?$AAM?$AAi?$AAc?$AAr?$AAo?$AAs?$AAo?$AAf?$AAt@
	push	2
	call	__CrtDbgReportW
	add	esp, 24					; 00000018H
	cmp	eax, 1
	jne	SHORT $LN12@Allocate
	int	3
$LN12@Allocate:
	push	0
	push	94					; 0000005eH
	push	OFFSET ??_C@_1NC@LIFDFPCJ@?$AAC?$AA?3?$AA?2?$AAP?$AAr?$AAo?$AAg?$AAr?$AAa?$AAm?$AA?5?$AAF?$AAi?$AAl?$AAe?$AAs?$AA?5?$AA?$CI?$AAx?$AA8?$AA6?$AA?$CJ?$AA?2?$AAM?$AAi?$AAc?$AAr?$AAo?$AAs?$AAo?$AAf?$AAt@
	push	OFFSET ??_C@_1BO@NKFMJPA@?$AAs?$AAt?$AAd?$AA?3?$AA?3?$AA_?$AAA?$AAl?$AAl?$AAo?$AAc?$AAa?$AAt?$AAe?$AA?$AA@
	push	OFFSET ??_C@_1CG@JNLFBNGN@?$AA?$CC?$AAi?$AAn?$AAv?$AAa?$AAl?$AAi?$AAd?$AA?5?$AAa?$AAr?$AAg?$AAu?$AAm?$AAe?$AAn?$AAt?$AA?$CC?$AA?$AA@
	call	__invalid_parameter
	add	esp, 20					; 00000014H
$LN7@Allocate:

; 95   : 	return (_Ptr);

	mov	eax, DWORD PTR __Ptr$[ebp]
$LN8@Allocate:

; 96   : 	}

	add	esp, 16					; 00000010H
	cmp	ebp, esp
	call	__RTC_CheckEsp
	mov	esp, ebp
	pop	ebp
	ret	0
?_Allocate@std@@YAPAXII_N@Z ENDP			; std::_Allocate
_TEXT	ENDS
; Function compile flags: /Odtp /RTCsu
; File c:\program files (x86)\microsoft visual studio\2017\community\vc\tools\msvc\14.11.25503\include\xutility
;	COMDAT ?_Orphan_me@_Iterator_base12@std@@QAEXXZ
_TEXT	SEGMENT
__Pnext$2 = -20						; size = 4
_this$ = -16						; size = 4
__$EHRec$ = -12						; size = 12
?_Orphan_me@_Iterator_base12@std@@QAEXXZ PROC		; std::_Iterator_base12::_Orphan_me, COMDAT
; _this$ = ecx

; 214  : 		{	// cut ties with parent

	push	ebp
	mov	ebp, esp
	push	-1
	push	__ehhandler$?_Orphan_me@_Iterator_base12@std@@QAEXXZ
	mov	eax, DWORD PTR fs:0
	push	eax
	sub	esp, 8
	mov	DWORD PTR [ebp-20], -858993460		; ccccccccH
	mov	DWORD PTR [ebp-16], -858993460		; ccccccccH
	mov	eax, DWORD PTR ___security_cookie
	xor	eax, ebp
	push	eax
	lea	eax, DWORD PTR __$EHRec$[ebp]
	mov	DWORD PTR fs:0, eax
	mov	DWORD PTR _this$[ebp], ecx

; 215  :  #if _ITERATOR_DEBUG_LEVEL == 2
; 216  : 		if (_Myproxy != 0)

	mov	eax, DWORD PTR _this$[ebp]
	cmp	DWORD PTR [eax], 0
	je	SHORT $LN6@Orphan_me

; 217  : 			{	// adopted, remove self from list
; 218  : 			_Iterator_base12 **_Pnext = &_Myproxy->_Myfirstiter;

	mov	ecx, DWORD PTR _this$[ebp]
	mov	edx, DWORD PTR [ecx]
	add	edx, 4
	mov	DWORD PTR __Pnext$2[ebp], edx
$LN2@Orphan_me:

; 219  : 			while (*_Pnext != 0 && *_Pnext != this)

	mov	eax, DWORD PTR __Pnext$2[ebp]
	cmp	DWORD PTR [eax], 0
	je	SHORT $LN3@Orphan_me
	mov	ecx, DWORD PTR __Pnext$2[ebp]
	mov	edx, DWORD PTR [ecx]
	cmp	edx, DWORD PTR _this$[ebp]
	je	SHORT $LN3@Orphan_me

; 220  : 				_Pnext = &(*_Pnext)->_Mynextiter;

	mov	eax, DWORD PTR __Pnext$2[ebp]
	mov	ecx, DWORD PTR [eax]
	add	ecx, 4
	mov	DWORD PTR __Pnext$2[ebp], ecx
	jmp	SHORT $LN2@Orphan_me
$LN3@Orphan_me:

; 221  : 
; 222  : 			if (*_Pnext == 0)

	mov	edx, DWORD PTR __Pnext$2[ebp]
	cmp	DWORD PTR [edx], 0
	jne	SHORT $LN5@Orphan_me

; 223  : 				{
; 224  : 				_DEBUG_ERROR("ITERATOR LIST CORRUPTED!");

	push	224					; 000000e0H
	push	OFFSET ??_C@_1NC@EFLIIKIK@?$AAC?$AA?3?$AA?2?$AAP?$AAr?$AAo?$AAg?$AAr?$AAa?$AAm?$AA?5?$AAF?$AAi?$AAl?$AAe?$AAs?$AA?5?$AA?$CI?$AAx?$AA8?$AA6?$AA?$CJ?$AA?2?$AAM?$AAi?$AAc?$AAr?$AAo?$AAs?$AAo?$AAf?$AAt@
	push	OFFSET ??_C@_1DC@POOIKBAO@?$AAI?$AAT?$AAE?$AAR?$AAA?$AAT?$AAO?$AAR?$AA?5?$AAL?$AAI?$AAS?$AAT?$AA?5?$AAC?$AAO?$AAR?$AAR?$AAU?$AAP?$AAT?$AAE?$AAD?$AA?$CB?$AA?$AA@
	call	?_Debug_message@std@@YAXPB_W0I@Z	; std::_Debug_message
	add	esp, 12					; 0000000cH
	push	0
	push	224					; 000000e0H
	push	OFFSET ??_C@_1NC@EFLIIKIK@?$AAC?$AA?3?$AA?2?$AAP?$AAr?$AAo?$AAg?$AAr?$AAa?$AAm?$AA?5?$AAF?$AAi?$AAl?$AAe?$AAs?$AA?5?$AA?$CI?$AAx?$AA8?$AA6?$AA?$CJ?$AA?2?$AAM?$AAi?$AAc?$AAr?$AAo?$AAs?$AAo?$AAf?$AAt@
	push	OFFSET ??_C@_1EE@KLDMFDFL@?$AAs?$AAt?$AAd?$AA?3?$AA?3?$AA_?$AAI?$AAt?$AAe?$AAr?$AAa?$AAt?$AAo?$AAr?$AA_?$AAb?$AAa?$AAs?$AAe?$AA1?$AA2?$AA?3?$AA?3?$AA_?$AAO?$AAr?$AAp?$AAh?$AAa?$AAn?$AA_?$AAm@
	push	OFFSET ??_C@_1DG@PLBPCAEM@?$AA?$CC?$AAI?$AAT?$AAE?$AAR?$AAA?$AAT?$AAO?$AAR?$AA?5?$AAL?$AAI?$AAS?$AAT?$AA?5?$AAC?$AAO?$AAR?$AAR?$AAU?$AAP?$AAT?$AAE?$AAD?$AA?$CB?$AA?$CC?$AA?$AA@
	call	__invalid_parameter
	add	esp, 20					; 00000014H
$LN5@Orphan_me:

; 225  : 				}
; 226  : 
; 227  : 			*_Pnext = _Mynextiter;

	mov	eax, DWORD PTR __Pnext$2[ebp]
	mov	ecx, DWORD PTR _this$[ebp]
	mov	edx, DWORD PTR [ecx+4]
	mov	DWORD PTR [eax], edx

; 228  : 			_Myproxy = 0;

	mov	eax, DWORD PTR _this$[ebp]
	mov	DWORD PTR [eax], 0
$LN6@Orphan_me:

; 229  : 			}
; 230  :  #endif /* _ITERATOR_DEBUG_LEVEL == 2 */
; 231  : 		}

	mov	ecx, DWORD PTR __$EHRec$[ebp]
	mov	DWORD PTR fs:0, ecx
	pop	ecx
	add	esp, 20					; 00000014H
	cmp	ebp, esp
	call	__RTC_CheckEsp
	mov	esp, ebp
	pop	ebp
	ret	0
_TEXT	ENDS
;	COMDAT text$x
text$x	SEGMENT
__ehhandler$?_Orphan_me@_Iterator_base12@std@@QAEXXZ:
	mov	edx, DWORD PTR [esp+8]
	lea	eax, DWORD PTR [edx+12]
	mov	ecx, DWORD PTR [edx-12]
	xor	ecx, eax
	call	@__security_check_cookie@4
	mov	eax, OFFSET __ehfuncinfo$?_Orphan_me@_Iterator_base12@std@@QAEXXZ
	jmp	___CxxFrameHandler3
text$x	ENDS
?_Orphan_me@_Iterator_base12@std@@QAEXXZ ENDP		; std::_Iterator_base12::_Orphan_me
; Function compile flags: /Odtp /RTCsu
; File c:\program files (x86)\microsoft visual studio\2017\community\vc\tools\msvc\14.11.25503\include\xutility
;	COMDAT ?_Getpnext@_Iterator_base12@std@@QAEPAPAU12@XZ
_TEXT	SEGMENT
_this$ = -4						; size = 4
?_Getpnext@_Iterator_base12@std@@QAEPAPAU12@XZ PROC	; std::_Iterator_base12::_Getpnext, COMDAT
; _this$ = ecx

; 209  : 		{	// get address of remaining iterator chain

	push	ebp
	mov	ebp, esp
	push	ecx
	mov	DWORD PTR [ebp-4], -858993460		; ccccccccH
	mov	DWORD PTR _this$[ebp], ecx

; 210  : 		return (&_Mynextiter);

	mov	eax, DWORD PTR _this$[ebp]
	add	eax, 4

; 211  : 		}

	mov	esp, ebp
	pop	ebp
	ret	0
?_Getpnext@_Iterator_base12@std@@QAEPAPAU12@XZ ENDP	; std::_Iterator_base12::_Getpnext
_TEXT	ENDS
; Function compile flags: /Odtp /RTCsu
; File c:\program files (x86)\microsoft visual studio\2017\community\vc\tools\msvc\14.11.25503\include\xutility
;	COMDAT ?_Getcont@_Iterator_base12@std@@QBEPBU_Container_base12@2@XZ
_TEXT	SEGMENT
tv68 = -8						; size = 4
_this$ = -4						; size = 4
?_Getcont@_Iterator_base12@std@@QBEPBU_Container_base12@2@XZ PROC ; std::_Iterator_base12::_Getcont, COMDAT
; _this$ = ecx

; 204  : 		{	// get owning container

	push	ebp
	mov	ebp, esp
	sub	esp, 8
	mov	DWORD PTR [ebp-8], -858993460		; ccccccccH
	mov	DWORD PTR [ebp-4], -858993460		; ccccccccH
	mov	DWORD PTR _this$[ebp], ecx

; 205  : 		return (_Myproxy == 0 ? 0 : _Myproxy->_Mycont);

	mov	eax, DWORD PTR _this$[ebp]
	cmp	DWORD PTR [eax], 0
	jne	SHORT $LN3@Getcont
	mov	DWORD PTR tv68[ebp], 0
	jmp	SHORT $LN4@Getcont
$LN3@Getcont:
	mov	ecx, DWORD PTR _this$[ebp]
	mov	edx, DWORD PTR [ecx]
	mov	eax, DWORD PTR [edx]
	mov	DWORD PTR tv68[ebp], eax
$LN4@Getcont:
	mov	eax, DWORD PTR tv68[ebp]

; 206  : 		}

	mov	esp, ebp
	pop	ebp
	ret	0
?_Getcont@_Iterator_base12@std@@QBEPBU_Container_base12@2@XZ ENDP ; std::_Iterator_base12::_Getcont
_TEXT	ENDS
; Function compile flags: /Odtp /RTCsu
; File c:\program files (x86)\microsoft visual studio\2017\community\vc\tools\msvc\14.11.25503\include\xutility
;	COMDAT ?_Clrcont@_Iterator_base12@std@@QAEXXZ
_TEXT	SEGMENT
_this$ = -4						; size = 4
?_Clrcont@_Iterator_base12@std@@QAEXXZ PROC		; std::_Iterator_base12::_Clrcont, COMDAT
; _this$ = ecx

; 199  : 		{	// disown owning container

	push	ebp
	mov	ebp, esp
	push	ecx
	mov	DWORD PTR [ebp-4], -858993460		; ccccccccH
	mov	DWORD PTR _this$[ebp], ecx

; 200  : 		_Myproxy = 0;

	mov	eax, DWORD PTR _this$[ebp]
	mov	DWORD PTR [eax], 0

; 201  : 		}

	mov	esp, ebp
	pop	ebp
	ret	0
?_Clrcont@_Iterator_base12@std@@QAEXXZ ENDP		; std::_Iterator_base12::_Clrcont
_TEXT	ENDS
; Function compile flags: /Odtp /RTCsu
; File c:\program files (x86)\microsoft visual studio\2017\community\vc\tools\msvc\14.11.25503\include\xutility
;	COMDAT ?_Adopt@_Iterator_base12@std@@QAEXPBU_Container_base12@2@@Z
_TEXT	SEGMENT
__Lock$2 = -40						; size = 4
__Parent_proxy$3 = -32					; size = 4
__Lock$4 = -24						; size = 4
_this$ = -16						; size = 4
__$EHRec$ = -12						; size = 12
__Parent$ = 8						; size = 4
?_Adopt@_Iterator_base12@std@@QAEXPBU_Container_base12@2@@Z PROC ; std::_Iterator_base12::_Adopt, COMDAT
; _this$ = ecx

; 170  : 		{	// adopt this iterator by parent

	push	ebp
	mov	ebp, esp
	push	-1
	push	__ehhandler$?_Adopt@_Iterator_base12@std@@QAEXPBU_Container_base12@2@@Z
	mov	eax, DWORD PTR fs:0
	push	eax
	sub	esp, 32					; 00000020H
	mov	eax, -858993460				; ccccccccH
	mov	DWORD PTR [ebp-44], eax
	mov	DWORD PTR [ebp-40], eax
	mov	DWORD PTR [ebp-36], eax
	mov	DWORD PTR [ebp-32], eax
	mov	DWORD PTR [ebp-28], eax
	mov	DWORD PTR [ebp-24], eax
	mov	DWORD PTR [ebp-20], eax
	mov	DWORD PTR [ebp-16], eax
	mov	eax, DWORD PTR ___security_cookie
	xor	eax, ebp
	push	eax
	lea	eax, DWORD PTR __$EHRec$[ebp]
	mov	DWORD PTR fs:0, eax
	mov	DWORD PTR _this$[ebp], ecx

; 171  : 		if (_Parent == 0)

	cmp	DWORD PTR __Parent$[ebp], 0
	jne	SHORT $LN2@Adopt

; 172  : 			{	// no future parent, just disown current parent
; 173  :  #if _ITERATOR_DEBUG_LEVEL == 2
; 174  : 			_Lockit _Lock(_LOCK_DEBUG);

	push	3
	lea	ecx, DWORD PTR __Lock$4[ebp]
	call	??0_Lockit@std@@QAE@H@Z			; std::_Lockit::_Lockit

; 175  : 			_Orphan_me();

	mov	ecx, DWORD PTR _this$[ebp]
	call	?_Orphan_me@_Iterator_base12@std@@QAEXXZ ; std::_Iterator_base12::_Orphan_me

; 176  :  #endif /* _ITERATOR_DEBUG_LEVEL == 2 */
; 177  : 			}

	lea	ecx, DWORD PTR __Lock$4[ebp]
	call	??1_Lockit@std@@QAE@XZ			; std::_Lockit::~_Lockit

; 178  : 		else

	jmp	SHORT $LN5@Adopt
$LN2@Adopt:

; 179  : 			{	// have a parent, do adoption
; 180  : 			_Container_proxy *_Parent_proxy = _Parent->_Myproxy;

	mov	eax, DWORD PTR __Parent$[ebp]
	mov	ecx, DWORD PTR [eax]
	mov	DWORD PTR __Parent_proxy$3[ebp], ecx

; 181  : 
; 182  :  #if _ITERATOR_DEBUG_LEVEL == 2
; 183  : 			if (_Myproxy != _Parent_proxy)

	mov	edx, DWORD PTR _this$[ebp]
	mov	eax, DWORD PTR [edx]
	cmp	eax, DWORD PTR __Parent_proxy$3[ebp]
	je	SHORT $LN5@Adopt

; 184  : 				{	// change parentage
; 185  : 				_Lockit _Lock(_LOCK_DEBUG);

	push	3
	lea	ecx, DWORD PTR __Lock$2[ebp]
	call	??0_Lockit@std@@QAE@H@Z			; std::_Lockit::_Lockit

; 186  : 				_Orphan_me();

	mov	ecx, DWORD PTR _this$[ebp]
	call	?_Orphan_me@_Iterator_base12@std@@QAEXXZ ; std::_Iterator_base12::_Orphan_me

; 187  : 				_Mynextiter = _Parent_proxy->_Myfirstiter;

	mov	ecx, DWORD PTR _this$[ebp]
	mov	edx, DWORD PTR __Parent_proxy$3[ebp]
	mov	eax, DWORD PTR [edx+4]
	mov	DWORD PTR [ecx+4], eax

; 188  : 				_Parent_proxy->_Myfirstiter = this;

	mov	ecx, DWORD PTR __Parent_proxy$3[ebp]
	mov	edx, DWORD PTR _this$[ebp]
	mov	DWORD PTR [ecx+4], edx

; 189  : 				_Myproxy = _Parent_proxy;

	mov	eax, DWORD PTR _this$[ebp]
	mov	ecx, DWORD PTR __Parent_proxy$3[ebp]
	mov	DWORD PTR [eax], ecx

; 190  : 				}

	lea	ecx, DWORD PTR __Lock$2[ebp]
	call	??1_Lockit@std@@QAE@XZ			; std::_Lockit::~_Lockit
$LN5@Adopt:

; 191  : 
; 192  :  #else /* _ITERATOR_DEBUG_LEVEL == 2 */
; 193  : 			_Myproxy = _Parent_proxy;
; 194  :  #endif /* _ITERATOR_DEBUG_LEVEL == 2 */
; 195  : 			}
; 196  : 		}

	push	edx
	mov	ecx, ebp
	push	eax
	lea	edx, DWORD PTR $LN10@Adopt
	call	@_RTC_CheckStackVars@8
	pop	eax
	pop	edx
	mov	ecx, DWORD PTR __$EHRec$[ebp]
	mov	DWORD PTR fs:0, ecx
	pop	ecx
	add	esp, 44					; 0000002cH
	cmp	ebp, esp
	call	__RTC_CheckEsp
	mov	esp, ebp
	pop	ebp
	ret	4
$LN10@Adopt:
	DD	2
	DD	$LN9@Adopt
$LN9@Adopt:
	DD	-24					; ffffffe8H
	DD	4
	DD	$LN6@Adopt
	DD	-40					; ffffffd8H
	DD	4
	DD	$LN7@Adopt
$LN7@Adopt:
	DB	95					; 0000005fH
	DB	76					; 0000004cH
	DB	111					; 0000006fH
	DB	99					; 00000063H
	DB	107					; 0000006bH
	DB	0
$LN6@Adopt:
	DB	95					; 0000005fH
	DB	76					; 0000004cH
	DB	111					; 0000006fH
	DB	99					; 00000063H
	DB	107					; 0000006bH
	DB	0
_TEXT	ENDS
;	COMDAT text$x
text$x	SEGMENT
__ehhandler$?_Adopt@_Iterator_base12@std@@QAEXPBU_Container_base12@2@@Z:
	mov	edx, DWORD PTR [esp+8]
	lea	eax, DWORD PTR [edx+12]
	mov	ecx, DWORD PTR [edx-36]
	xor	ecx, eax
	call	@__security_check_cookie@4
	mov	eax, OFFSET __ehfuncinfo$?_Adopt@_Iterator_base12@std@@QAEXPBU_Container_base12@2@@Z
	jmp	___CxxFrameHandler3
text$x	ENDS
?_Adopt@_Iterator_base12@std@@QAEXPBU_Container_base12@2@@Z ENDP ; std::_Iterator_base12::_Adopt
; Function compile flags: /Odtp /RTCsu
; File c:\program files (x86)\microsoft visual studio\2017\community\vc\tools\msvc\14.11.25503\include\xutility
;	COMDAT ??1_Iterator_base12@std@@QAE@XZ
_TEXT	SEGMENT
__Lock$ = -24						; size = 4
_this$ = -16						; size = 4
__$EHRec$ = -12						; size = 12
??1_Iterator_base12@std@@QAE@XZ PROC			; std::_Iterator_base12::~_Iterator_base12, COMDAT
; _this$ = ecx

; 162  : 		{	// destroy the iterator

	push	ebp
	mov	ebp, esp
	push	-1
	push	__ehhandler$??1_Iterator_base12@std@@QAE@XZ
	mov	eax, DWORD PTR fs:0
	push	eax
	sub	esp, 16					; 00000010H
	mov	eax, -858993460				; ccccccccH
	mov	DWORD PTR [ebp-28], eax
	mov	DWORD PTR [ebp-24], eax
	mov	DWORD PTR [ebp-20], eax
	mov	DWORD PTR [ebp-16], eax
	mov	eax, DWORD PTR ___security_cookie
	xor	eax, ebp
	push	eax
	lea	eax, DWORD PTR __$EHRec$[ebp]
	mov	DWORD PTR fs:0, eax
	mov	DWORD PTR _this$[ebp], ecx

; 163  :  #if _ITERATOR_DEBUG_LEVEL == 2
; 164  : 		_Lockit _Lock(_LOCK_DEBUG);

	push	3
	lea	ecx, DWORD PTR __Lock$[ebp]
	call	??0_Lockit@std@@QAE@H@Z			; std::_Lockit::_Lockit

; 165  : 		_Orphan_me();

	mov	ecx, DWORD PTR _this$[ebp]
	call	?_Orphan_me@_Iterator_base12@std@@QAEXXZ ; std::_Iterator_base12::_Orphan_me

; 166  :  #endif /* _ITERATOR_DEBUG_LEVEL == 2 */
; 167  : 		}

	lea	ecx, DWORD PTR __Lock$[ebp]
	call	??1_Lockit@std@@QAE@XZ			; std::_Lockit::~_Lockit
	push	edx
	mov	ecx, ebp
	push	eax
	lea	edx, DWORD PTR $LN6@Iterator_b
	call	@_RTC_CheckStackVars@8
	pop	eax
	pop	edx
	mov	ecx, DWORD PTR __$EHRec$[ebp]
	mov	DWORD PTR fs:0, ecx
	pop	ecx
	add	esp, 28					; 0000001cH
	cmp	ebp, esp
	call	__RTC_CheckEsp
	mov	esp, ebp
	pop	ebp
	ret	0
	npad	3
$LN6@Iterator_b:
	DD	1
	DD	$LN5@Iterator_b
$LN5@Iterator_b:
	DD	-24					; ffffffe8H
	DD	4
	DD	$LN3@Iterator_b
$LN3@Iterator_b:
	DB	95					; 0000005fH
	DB	76					; 0000004cH
	DB	111					; 0000006fH
	DB	99					; 00000063H
	DB	107					; 0000006bH
	DB	0
_TEXT	ENDS
;	COMDAT text$x
text$x	SEGMENT
__ehhandler$??1_Iterator_base12@std@@QAE@XZ:
	mov	edx, DWORD PTR [esp+8]
	lea	eax, DWORD PTR [edx+12]
	mov	ecx, DWORD PTR [edx-20]
	xor	ecx, eax
	call	@__security_check_cookie@4
	mov	eax, OFFSET __ehfuncinfo$??1_Iterator_base12@std@@QAE@XZ
	jmp	___CxxFrameHandler3
text$x	ENDS
??1_Iterator_base12@std@@QAE@XZ ENDP			; std::_Iterator_base12::~_Iterator_base12
; Function compile flags: /Odtp /RTCsu
; File c:\program files (x86)\microsoft visual studio\2017\community\vc\tools\msvc\14.11.25503\include\xutility
;	COMDAT ??4_Iterator_base12@std@@QAEAAU01@ABU01@@Z
_TEXT	SEGMENT
__Lock$2 = -24						; size = 4
_this$ = -16						; size = 4
__$EHRec$ = -12						; size = 12
__Right$ = 8						; size = 4
??4_Iterator_base12@std@@QAEAAU01@ABU01@@Z PROC		; std::_Iterator_base12::operator=, COMDAT
; _this$ = ecx

; 145  : 		{	// assign an iterator

	push	ebp
	mov	ebp, esp
	push	-1
	push	__ehhandler$??4_Iterator_base12@std@@QAEAAU01@ABU01@@Z
	mov	eax, DWORD PTR fs:0
	push	eax
	sub	esp, 16					; 00000010H
	mov	eax, -858993460				; ccccccccH
	mov	DWORD PTR [ebp-28], eax
	mov	DWORD PTR [ebp-24], eax
	mov	DWORD PTR [ebp-20], eax
	mov	DWORD PTR [ebp-16], eax
	mov	eax, DWORD PTR ___security_cookie
	xor	eax, ebp
	push	eax
	lea	eax, DWORD PTR __$EHRec$[ebp]
	mov	DWORD PTR fs:0, eax
	mov	DWORD PTR _this$[ebp], ecx

; 146  : 		if (_Myproxy == _Right._Myproxy)

	mov	eax, DWORD PTR _this$[ebp]
	mov	ecx, DWORD PTR __Right$[ebp]
	mov	edx, DWORD PTR [eax]
	cmp	edx, DWORD PTR [ecx]
	jne	SHORT $LN2@operator
	jmp	SHORT $LN3@operator
$LN2@operator:

; 147  : 			;
; 148  : 		else if (_Right._Myproxy != 0)

	mov	eax, DWORD PTR __Right$[ebp]
	cmp	DWORD PTR [eax], 0
	je	SHORT $LN4@operator

; 149  : 			_Adopt(_Right._Myproxy->_Mycont);

	mov	ecx, DWORD PTR __Right$[ebp]
	mov	edx, DWORD PTR [ecx]
	mov	eax, DWORD PTR [edx]
	push	eax
	mov	ecx, DWORD PTR _this$[ebp]
	call	?_Adopt@_Iterator_base12@std@@QAEXPBU_Container_base12@2@@Z ; std::_Iterator_base12::_Adopt

; 150  : 		else

	jmp	SHORT $LN3@operator
$LN4@operator:

; 151  : 			{	// becoming invalid, disown current parent
; 152  :  #if _ITERATOR_DEBUG_LEVEL == 2
; 153  : 			_Lockit _Lock(_LOCK_DEBUG);

	push	3
	lea	ecx, DWORD PTR __Lock$2[ebp]
	call	??0_Lockit@std@@QAE@H@Z			; std::_Lockit::_Lockit

; 154  : 			_Orphan_me();

	mov	ecx, DWORD PTR _this$[ebp]
	call	?_Orphan_me@_Iterator_base12@std@@QAEXXZ ; std::_Iterator_base12::_Orphan_me

; 155  :  #endif /* _ITERATOR_DEBUG_LEVEL == 2 */
; 156  : 			}

	lea	ecx, DWORD PTR __Lock$2[ebp]
	call	??1_Lockit@std@@QAE@XZ			; std::_Lockit::~_Lockit
$LN3@operator:

; 157  : 
; 158  : 		return (*this);

	mov	eax, DWORD PTR _this$[ebp]

; 159  : 		}

	push	edx
	mov	ecx, ebp
	push	eax
	lea	edx, DWORD PTR $LN10@operator
	call	@_RTC_CheckStackVars@8
	pop	eax
	pop	edx
	mov	ecx, DWORD PTR __$EHRec$[ebp]
	mov	DWORD PTR fs:0, ecx
	pop	ecx
	add	esp, 28					; 0000001cH
	cmp	ebp, esp
	call	__RTC_CheckEsp
	mov	esp, ebp
	pop	ebp
	ret	4
	npad	2
$LN10@operator:
	DD	1
	DD	$LN9@operator
$LN9@operator:
	DD	-24					; ffffffe8H
	DD	4
	DD	$LN7@operator
$LN7@operator:
	DB	95					; 0000005fH
	DB	76					; 0000004cH
	DB	111					; 0000006fH
	DB	99					; 00000063H
	DB	107					; 0000006bH
	DB	0
_TEXT	ENDS
;	COMDAT text$x
text$x	SEGMENT
__ehhandler$??4_Iterator_base12@std@@QAEAAU01@ABU01@@Z:
	mov	edx, DWORD PTR [esp+8]
	lea	eax, DWORD PTR [edx+12]
	mov	ecx, DWORD PTR [edx-20]
	xor	ecx, eax
	call	@__security_check_cookie@4
	mov	eax, OFFSET __ehfuncinfo$??4_Iterator_base12@std@@QAEAAU01@ABU01@@Z
	jmp	___CxxFrameHandler3
text$x	ENDS
??4_Iterator_base12@std@@QAEAAU01@ABU01@@Z ENDP		; std::_Iterator_base12::operator=
; Function compile flags: /Odtp /RTCsu
; File c:\program files (x86)\microsoft visual studio\2017\community\vc\tools\msvc\14.11.25503\include\xutility
;	COMDAT ??0_Iterator_base12@std@@QAE@ABU01@@Z
_TEXT	SEGMENT
_this$ = -4						; size = 4
__Right$ = 8						; size = 4
??0_Iterator_base12@std@@QAE@ABU01@@Z PROC		; std::_Iterator_base12::_Iterator_base12, COMDAT
; _this$ = ecx

; 140  : 		{	// copy an iterator

	push	ebp
	mov	ebp, esp
	push	ecx
	mov	DWORD PTR [ebp-4], -858993460		; ccccccccH
	mov	DWORD PTR _this$[ebp], ecx

; 139  : 		: _Myproxy(0), _Mynextiter(0)

	mov	eax, DWORD PTR _this$[ebp]
	mov	DWORD PTR [eax], 0
	mov	ecx, DWORD PTR _this$[ebp]
	mov	DWORD PTR [ecx+4], 0

; 141  : 		*this = _Right;

	mov	edx, DWORD PTR __Right$[ebp]
	push	edx
	mov	ecx, DWORD PTR _this$[ebp]
	call	??4_Iterator_base12@std@@QAEAAU01@ABU01@@Z ; std::_Iterator_base12::operator=

; 142  : 		}

	mov	eax, DWORD PTR _this$[ebp]
	add	esp, 4
	cmp	ebp, esp
	call	__RTC_CheckEsp
	mov	esp, ebp
	pop	ebp
	ret	4
??0_Iterator_base12@std@@QAE@ABU01@@Z ENDP		; std::_Iterator_base12::_Iterator_base12
_TEXT	ENDS
; Function compile flags: /Odtp /RTCsu
; File c:\program files (x86)\microsoft visual studio\2017\community\vc\tools\msvc\14.11.25503\include\xutility
;	COMDAT ??0_Iterator_base12@std@@QAE@XZ
_TEXT	SEGMENT
_this$ = -4						; size = 4
??0_Iterator_base12@std@@QAE@XZ PROC			; std::_Iterator_base12::_Iterator_base12, COMDAT
; _this$ = ecx

; 135  : 		{	// construct orphaned iterator

	push	ebp
	mov	ebp, esp
	push	ecx
	mov	DWORD PTR [ebp-4], -858993460		; ccccccccH
	mov	DWORD PTR _this$[ebp], ecx

; 134  : 		: _Myproxy(0), _Mynextiter(0)

	mov	eax, DWORD PTR _this$[ebp]
	mov	DWORD PTR [eax], 0
	mov	ecx, DWORD PTR _this$[ebp]
	mov	DWORD PTR [ecx+4], 0

; 136  : 		}

	mov	eax, DWORD PTR _this$[ebp]
	mov	esp, ebp
	pop	ebp
	ret	0
??0_Iterator_base12@std@@QAE@XZ ENDP			; std::_Iterator_base12::_Iterator_base12
_TEXT	ENDS
; Function compile flags: /Odtp /RTCsu
; File c:\program files (x86)\microsoft visual studio\2017\community\vc\tools\msvc\14.11.25503\include\xutility
;	COMDAT ?_Orphan_all@_Container_base12@std@@QAEXXZ
_TEXT	SEGMENT
__Pnext$2 = -32						; size = 4
__Lock$3 = -24						; size = 4
_this$ = -16						; size = 4
__$EHRec$ = -12						; size = 12
?_Orphan_all@_Container_base12@std@@QAEXXZ PROC		; std::_Container_base12::_Orphan_all, COMDAT
; _this$ = ecx

; 239  : 	{	// orphan all iterators

	push	ebp
	mov	ebp, esp
	push	-1
	push	__ehhandler$?_Orphan_all@_Container_base12@std@@QAEXXZ
	mov	eax, DWORD PTR fs:0
	push	eax
	sub	esp, 20					; 00000014H
	mov	eax, -858993460				; ccccccccH
	mov	DWORD PTR [ebp-32], eax
	mov	DWORD PTR [ebp-28], eax
	mov	DWORD PTR [ebp-24], eax
	mov	DWORD PTR [ebp-20], eax
	mov	DWORD PTR [ebp-16], eax
	mov	eax, DWORD PTR ___security_cookie
	xor	eax, ebp
	push	eax
	lea	eax, DWORD PTR __$EHRec$[ebp]
	mov	DWORD PTR fs:0, eax
	mov	DWORD PTR _this$[ebp], ecx

; 240  :  #if _ITERATOR_DEBUG_LEVEL == 2
; 241  : 	if (_Myproxy != 0)

	mov	eax, DWORD PTR _this$[ebp]
	cmp	DWORD PTR [eax], 0
	je	SHORT $LN6@Orphan_all

; 242  : 		{	// proxy allocated, drain it
; 243  : 		_Lockit _Lock(_LOCK_DEBUG);

	push	3
	lea	ecx, DWORD PTR __Lock$3[ebp]
	call	??0_Lockit@std@@QAE@H@Z			; std::_Lockit::_Lockit

; 244  : 
; 245  : 		for (_Iterator_base12 **_Pnext = &_Myproxy->_Myfirstiter;

	mov	ecx, DWORD PTR _this$[ebp]
	mov	edx, DWORD PTR [ecx]
	add	edx, 4
	mov	DWORD PTR __Pnext$2[ebp], edx
	jmp	SHORT $LN4@Orphan_all
$LN2@Orphan_all:

; 246  : 			*_Pnext != 0; *_Pnext = (*_Pnext)->_Mynextiter)

	mov	eax, DWORD PTR __Pnext$2[ebp]
	mov	ecx, DWORD PTR [eax]
	mov	edx, DWORD PTR __Pnext$2[ebp]
	mov	eax, DWORD PTR [ecx+4]
	mov	DWORD PTR [edx], eax
$LN4@Orphan_all:
	mov	ecx, DWORD PTR __Pnext$2[ebp]
	cmp	DWORD PTR [ecx], 0
	je	SHORT $LN3@Orphan_all

; 247  : 			(*_Pnext)->_Myproxy = 0;

	mov	edx, DWORD PTR __Pnext$2[ebp]
	mov	eax, DWORD PTR [edx]
	mov	DWORD PTR [eax], 0
	jmp	SHORT $LN2@Orphan_all
$LN3@Orphan_all:

; 248  : 		_Myproxy->_Myfirstiter = 0;

	mov	ecx, DWORD PTR _this$[ebp]
	mov	edx, DWORD PTR [ecx]
	mov	DWORD PTR [edx+4], 0

; 249  : 		}

	lea	ecx, DWORD PTR __Lock$3[ebp]
	call	??1_Lockit@std@@QAE@XZ			; std::_Lockit::~_Lockit
$LN6@Orphan_all:

; 250  :  #endif /* _ITERATOR_DEBUG_LEVEL == 2 */
; 251  : 	}

	push	edx
	mov	ecx, ebp
	push	eax
	lea	edx, DWORD PTR $LN10@Orphan_all
	call	@_RTC_CheckStackVars@8
	pop	eax
	pop	edx
	mov	ecx, DWORD PTR __$EHRec$[ebp]
	mov	DWORD PTR fs:0, ecx
	pop	ecx
	add	esp, 32					; 00000020H
	cmp	ebp, esp
	call	__RTC_CheckEsp
	mov	esp, ebp
	pop	ebp
	ret	0
	npad	1
$LN10@Orphan_all:
	DD	1
	DD	$LN9@Orphan_all
$LN9@Orphan_all:
	DD	-24					; ffffffe8H
	DD	4
	DD	$LN7@Orphan_all
$LN7@Orphan_all:
	DB	95					; 0000005fH
	DB	76					; 0000004cH
	DB	111					; 0000006fH
	DB	99					; 00000063H
	DB	107					; 0000006bH
	DB	0
_TEXT	ENDS
;	COMDAT text$x
text$x	SEGMENT
__ehhandler$?_Orphan_all@_Container_base12@std@@QAEXXZ:
	mov	edx, DWORD PTR [esp+8]
	lea	eax, DWORD PTR [edx+12]
	mov	ecx, DWORD PTR [edx-24]
	xor	ecx, eax
	call	@__security_check_cookie@4
	mov	eax, OFFSET __ehfuncinfo$?_Orphan_all@_Container_base12@std@@QAEXXZ
	jmp	___CxxFrameHandler3
text$x	ENDS
?_Orphan_all@_Container_base12@std@@QAEXXZ ENDP		; std::_Container_base12::_Orphan_all
; Function compile flags: /Odtp /RTCsu
; File c:\program files (x86)\microsoft visual studio\2017\community\vc\tools\msvc\14.11.25503\include\xutility
;	COMDAT ?_Getpfirst@_Container_base12@std@@QBEPAPAU_Iterator_base12@2@XZ
_TEXT	SEGMENT
tv68 = -8						; size = 4
_this$ = -4						; size = 4
?_Getpfirst@_Container_base12@std@@QBEPAPAU_Iterator_base12@2@XZ PROC ; std::_Container_base12::_Getpfirst, COMDAT
; _this$ = ecx

; 120  : 		{	// get address of iterator chain

	push	ebp
	mov	ebp, esp
	sub	esp, 8
	mov	DWORD PTR [ebp-8], -858993460		; ccccccccH
	mov	DWORD PTR [ebp-4], -858993460		; ccccccccH
	mov	DWORD PTR _this$[ebp], ecx

; 121  : 		return (_Myproxy == 0 ? 0 : &_Myproxy->_Myfirstiter);

	mov	eax, DWORD PTR _this$[ebp]
	cmp	DWORD PTR [eax], 0
	jne	SHORT $LN3@Getpfirst
	mov	DWORD PTR tv68[ebp], 0
	jmp	SHORT $LN4@Getpfirst
$LN3@Getpfirst:
	mov	ecx, DWORD PTR _this$[ebp]
	mov	edx, DWORD PTR [ecx]
	add	edx, 4
	mov	DWORD PTR tv68[ebp], edx
$LN4@Getpfirst:
	mov	eax, DWORD PTR tv68[ebp]

; 122  : 		}

	mov	esp, ebp
	pop	ebp
	ret	0
?_Getpfirst@_Container_base12@std@@QBEPAPAU_Iterator_base12@2@XZ ENDP ; std::_Container_base12::_Getpfirst
_TEXT	ENDS
; Function compile flags: /Odtp /RTCsu
; File c:\program files (x86)\microsoft visual studio\2017\community\vc\tools\msvc\14.11.25503\include\xutility
;	COMDAT ??1_Container_base12@std@@QAE@XZ
_TEXT	SEGMENT
_this$ = -4						; size = 4
??1_Container_base12@std@@QAE@XZ PROC			; std::_Container_base12::~_Container_base12, COMDAT
; _this$ = ecx

; 115  : 		{	// destroy the container

	push	ebp
	mov	ebp, esp
	push	ecx
	mov	DWORD PTR [ebp-4], -858993460		; ccccccccH
	mov	DWORD PTR _this$[ebp], ecx

; 116  : 		_Orphan_all();

	mov	ecx, DWORD PTR _this$[ebp]
	call	?_Orphan_all@_Container_base12@std@@QAEXXZ ; std::_Container_base12::_Orphan_all

; 117  : 		}

	add	esp, 4
	cmp	ebp, esp
	call	__RTC_CheckEsp
	mov	esp, ebp
	pop	ebp
	ret	0
??1_Container_base12@std@@QAE@XZ ENDP			; std::_Container_base12::~_Container_base12
_TEXT	ENDS
; Function compile flags: /Odtp /RTCsu
; File c:\program files (x86)\microsoft visual studio\2017\community\vc\tools\msvc\14.11.25503\include\xutility
;	COMDAT ??0_Container_base12@std@@QAE@XZ
_TEXT	SEGMENT
_this$ = -4						; size = 4
??0_Container_base12@std@@QAE@XZ PROC			; std::_Container_base12::_Container_base12, COMDAT
; _this$ = ecx

; 101  : 		{	// construct childless container

	push	ebp
	mov	ebp, esp
	push	ecx
	mov	DWORD PTR [ebp-4], -858993460		; ccccccccH
	mov	DWORD PTR _this$[ebp], ecx

; 100  : 		: _Myproxy(0)

	mov	eax, DWORD PTR _this$[ebp]
	mov	DWORD PTR [eax], 0

; 102  : 		}

	mov	eax, DWORD PTR _this$[ebp]
	mov	esp, ebp
	pop	ebp
	ret	0
??0_Container_base12@std@@QAE@XZ ENDP			; std::_Container_base12::_Container_base12
_TEXT	ENDS
; Function compile flags: /Odtp /RTCsu
; File c:\program files (x86)\microsoft visual studio\2017\community\vc\tools\msvc\14.11.25503\include\xutility
;	COMDAT ??0_Container_proxy@std@@QAE@XZ
_TEXT	SEGMENT
_this$ = -4						; size = 4
??0_Container_proxy@std@@QAE@XZ PROC			; std::_Container_proxy::_Container_proxy, COMDAT
; _this$ = ecx

; 89   : 		{	// construct from pointers

	push	ebp
	mov	ebp, esp
	push	ecx
	mov	DWORD PTR [ebp-4], -858993460		; ccccccccH
	mov	DWORD PTR _this$[ebp], ecx

; 88   : 		: _Mycont(0), _Myfirstiter(0)

	mov	eax, DWORD PTR _this$[ebp]
	mov	DWORD PTR [eax], 0
	mov	ecx, DWORD PTR _this$[ebp]
	mov	DWORD PTR [ecx+4], 0

; 90   : 		}

	mov	eax, DWORD PTR _this$[ebp]
	mov	esp, ebp
	pop	ebp
	ret	0
??0_Container_proxy@std@@QAE@XZ ENDP			; std::_Container_proxy::_Container_proxy
_TEXT	ENDS
; Function compile flags: /Odtp /RTCsu
; File c:\program files (x86)\microsoft visual studio\2017\community\vc\tools\msvc\14.11.25503\include\vcruntime_new.h
;	COMDAT ??2@YAPAXIPAX@Z
_TEXT	SEGMENT
__Size$ = 8						; size = 4
__Where$ = 12						; size = 4
??2@YAPAXIPAX@Z PROC					; operator new, COMDAT

; 91   :     {

	push	ebp
	mov	ebp, esp

; 92   :         (void)_Size;
; 93   :         return _Where;

	mov	eax, DWORD PTR __Where$[ebp]

; 94   :     }

	pop	ebp
	ret	0
??2@YAPAXIPAX@Z ENDP					; operator new
_TEXT	ENDS
; Function compile flags: /Odtp /RTCsu
; File c:\program files (x86)\microsoft visual studio\2017\community\vc\tools\msvc\14.11.25503\include\limits
;	COMDAT ?max@?$numeric_limits@N@std@@SANXZ
_TEXT	SEGMENT
?max@?$numeric_limits@N@std@@SANXZ PROC			; std::numeric_limits<double>::max, COMDAT

; 1151 : 		{	// return maximum value

	push	ebp
	mov	ebp, esp

; 1152 : 		return (_DBL_MAX);

	fld	QWORD PTR __real@7fefffffffffffff

; 1153 : 		}

	pop	ebp
	ret	0
?max@?$numeric_limits@N@std@@SANXZ ENDP			; std::numeric_limits<double>::max
_TEXT	ENDS
; Function compile flags: /Odtp /RTCsu
; File c:\program files (x86)\microsoft visual studio\2017\community\vc\tools\msvc\14.11.25503\include\limits
;	COMDAT ?min@?$numeric_limits@N@std@@SANXZ
_TEXT	SEGMENT
?min@?$numeric_limits@N@std@@SANXZ PROC			; std::numeric_limits<double>::min, COMDAT

; 1146 : 		{	// return minimum value

	push	ebp
	mov	ebp, esp

; 1147 : 		return (_DBL_MIN);

	fld	QWORD PTR __real@0010000000000000

; 1148 : 		}

	pop	ebp
	ret	0
?min@?$numeric_limits@N@std@@SANXZ ENDP			; std::numeric_limits<double>::min
_TEXT	ENDS
; Function compile flags: /Odtp /RTCsu
; File c:\program files (x86)\microsoft visual studio\2017\community\vc\tools\msvc\14.11.25503\include\limits
;	COMDAT ?max@?$numeric_limits@M@std@@SAMXZ
_TEXT	SEGMENT
?max@?$numeric_limits@M@std@@SAMXZ PROC			; std::numeric_limits<float>::max, COMDAT

; 1088 : 		{	// return maximum value

	push	ebp
	mov	ebp, esp

; 1089 : 		return (_FLT_MAX);

	fld	DWORD PTR __real@7f7fffff

; 1090 : 		}

	pop	ebp
	ret	0
?max@?$numeric_limits@M@std@@SAMXZ ENDP			; std::numeric_limits<float>::max
_TEXT	ENDS
; Function compile flags: /Odtp /RTCsu
; File c:\program files (x86)\microsoft visual studio\2017\community\vc\tools\msvc\14.11.25503\include\limits
;	COMDAT ?min@?$numeric_limits@M@std@@SAMXZ
_TEXT	SEGMENT
?min@?$numeric_limits@M@std@@SAMXZ PROC			; std::numeric_limits<float>::min, COMDAT

; 1083 : 		{	// return minimum value

	push	ebp
	mov	ebp, esp

; 1084 : 		return (_FLT_MIN);

	fld	DWORD PTR __real@00800000

; 1085 : 		}

	pop	ebp
	ret	0
?min@?$numeric_limits@M@std@@SAMXZ ENDP			; std::numeric_limits<float>::min
_TEXT	ENDS
; Function compile flags: /Odtp /RTCsu
; File c:\program files (x86)\microsoft visual studio\2017\community\vc\tools\msvc\14.11.25503\include\limits
;	COMDAT ?max@?$numeric_limits@H@std@@SAHXZ
_TEXT	SEGMENT
?max@?$numeric_limits@H@std@@SAHXZ PROC			; std::numeric_limits<int>::max, COMDAT

; 682  : 		{	// return maximum value

	push	ebp
	mov	ebp, esp

; 683  : 		return (INT_MAX);

	mov	eax, 2147483647				; 7fffffffH

; 684  : 		}

	pop	ebp
	ret	0
?max@?$numeric_limits@H@std@@SAHXZ ENDP			; std::numeric_limits<int>::max
_TEXT	ENDS
; Function compile flags: /Odtp /RTCsu
; File d:\8iar125 - intelligence artificielle pour le jeu vidéo\projetfinal\common\messaging\messagedispatcher.cpp
;	COMDAT ?__empty_global_delete@@YAXPAXI@Z
_TEXT	SEGMENT
___formal$ = 8						; size = 4
___formal$ = 12						; size = 4
?__empty_global_delete@@YAXPAXI@Z PROC			; __empty_global_delete, COMDAT

	push	ebp
	mov	ebp, esp
	pop	ebp
	ret	0
?__empty_global_delete@@YAXPAXI@Z ENDP			; __empty_global_delete
_TEXT	ENDS
; Function compile flags: /Odtp /RTCsu
; File d:\8iar125 - intelligence artificielle pour le jeu vidéo\projetfinal\common\messaging\messagedispatcher.cpp
;	COMDAT ?__empty_global_delete@@YAXPAX@Z
_TEXT	SEGMENT
___formal$ = 8						; size = 4
?__empty_global_delete@@YAXPAX@Z PROC			; __empty_global_delete, COMDAT

	push	ebp
	mov	ebp, esp
	pop	ebp
	ret	0
?__empty_global_delete@@YAXPAX@Z ENDP			; __empty_global_delete
_TEXT	ENDS
END
